
get-code.elf:     file format elf32-littlearm


Disassembly of section .text:

00008000 <_start>:
    8000:	e3a0d302 	mov	sp, #134217728	; 0x8000000
    8004:	e3a0b000 	mov	fp, #0
    8008:	eb0001ec 	bl	87c0 <_cstart>
    800c:	eb00021a 	bl	887c <rpi_reboot>

00008010 <read_exact>:
    8010:	e92d4070 	push	{r4, r5, r6, lr}
    8014:	e1a06000 	mov	r6, r0
    8018:	e1a05001 	mov	r5, r1
    801c:	e3a04000 	mov	r4, #0
    8020:	ea000002 	b	8030 <read_exact+0x20>
    8024:	eb0003fe 	bl	9024 <uart_getc>
    8028:	e7c60004 	strb	r0, [r6, r4]
    802c:	e2844001 	add	r4, r4, #1
    8030:	e1540005 	cmp	r4, r5
    8034:	3afffffa 	bcc	8024 <read_exact+0x14>
    8038:	e8bd8070 	pop	{r4, r5, r6, pc}

0000803c <notmain>:
    803c:	e92d4070 	push	{r4, r5, r6, lr}
    8040:	e24dd018 	sub	sp, sp, #24
    8044:	eb0003c8 	bl	8f6c <uart_init>
    8048:	e3a00008 	mov	r0, #8
    804c:	eb000405 	bl	9068 <uart_putc>
    8050:	e3a03000 	mov	r3, #0
    8054:	e58d3008 	str	r3, [sp, #8]
    8058:	e28d0017 	add	r0, sp, #23
    805c:	e3a01001 	mov	r1, #1
    8060:	ebffffea 	bl	8010 <read_exact>
    8064:	e28d0010 	add	r0, sp, #16
    8068:	e3a01004 	mov	r1, #4
    806c:	ebffffe7 	bl	8010 <read_exact>
    8070:	e28d0008 	add	r0, sp, #8
    8074:	e3a01004 	mov	r1, #4
    8078:	ebffffe4 	bl	8010 <read_exact>
    807c:	e28d000c 	add	r0, sp, #12
    8080:	e3a01004 	mov	r1, #4
    8084:	ebffffe1 	bl	8010 <read_exact>
    8088:	e5dd3017 	ldrb	r3, [sp, #23]
    808c:	e3530007 	cmp	r3, #7
    8090:	0a000006 	beq	80b0 <notmain+0x74>
    8094:	eb000062 	bl	8224 <rpi_reset_putc>
    8098:	e59f00b0 	ldr	r0, [pc, #176]	; 8150 <notmain+0x114>
    809c:	e59f10b0 	ldr	r1, [pc, #176]	; 8154 <notmain+0x118>
    80a0:	e59f20b0 	ldr	r2, [pc, #176]	; 8158 <notmain+0x11c>
    80a4:	e3a03045 	mov	r3, #69	; 0x45
    80a8:	eb000042 	bl	81b8 <printk>
    80ac:	eb0001b1 	bl	8778 <clean_reboot>
    80b0:	e59d0008 	ldr	r0, [sp, #8]
    80b4:	e3500409 	cmp	r0, #150994944	; 0x9000000
    80b8:	2a00000a 	bcs	80e8 <notmain+0xac>
    80bc:	eb000058 	bl	8224 <rpi_reset_putc>
    80c0:	e59d3008 	ldr	r3, [sp, #8]
    80c4:	e58d3000 	str	r3, [sp]
    80c8:	e3a03409 	mov	r3, #150994944	; 0x9000000
    80cc:	e58d3004 	str	r3, [sp, #4]
    80d0:	e59f0084 	ldr	r0, [pc, #132]	; 815c <notmain+0x120>
    80d4:	e59f1078 	ldr	r1, [pc, #120]	; 8154 <notmain+0x118>
    80d8:	e59f2078 	ldr	r2, [pc, #120]	; 8158 <notmain+0x11c>
    80dc:	e3a03049 	mov	r3, #73	; 0x49
    80e0:	eb000034 	bl	81b8 <printk>
    80e4:	eb0001a3 	bl	8778 <clean_reboot>
    80e8:	e2800008 	add	r0, r0, #8
    80ec:	e59d1010 	ldr	r1, [sp, #16]
    80f0:	ebffffc6 	bl	8010 <read_exact>
    80f4:	e59d0008 	ldr	r0, [sp, #8]
    80f8:	e2800008 	add	r0, r0, #8
    80fc:	e59d1010 	ldr	r1, [sp, #16]
    8100:	eb000028 	bl	81a8 <our_crc32>
    8104:	e3a04000 	mov	r4, #0
    8108:	e59f6050 	ldr	r6, [pc, #80]	; 8160 <notmain+0x124>
    810c:	e59f5050 	ldr	r5, [pc, #80]	; 8164 <notmain+0x128>
    8110:	ea00000b 	b	8144 <notmain+0x108>
    8114:	e1a00006 	mov	r0, r6
    8118:	e1a01004 	mov	r1, r4
    811c:	e59d2008 	ldr	r2, [sp, #8]
    8120:	e2822008 	add	r2, r2, #8
    8124:	e59d3010 	ldr	r3, [sp, #16]
    8128:	eb000022 	bl	81b8 <printk>
    812c:	e59d0008 	ldr	r0, [sp, #8]
    8130:	e2800008 	add	r0, r0, #8
    8134:	eb0003e1 	bl	90c0 <BRANCHTO>
    8138:	e1a00005 	mov	r0, r5
    813c:	eb00001d 	bl	81b8 <printk>
    8140:	e2844001 	add	r4, r4, #1
    8144:	e3540009 	cmp	r4, #9
    8148:	dafffff1 	ble	8114 <notmain+0xd8>
    814c:	eb000189 	bl	8778 <clean_reboot>
    8150:	000097f8 	strdeq	r9, [r0], -r8
    8154:	00009814 	andeq	r9, r0, r4, lsl r8
    8158:	000097f0 	strdeq	r9, [r0], -r0
    815c:	00009820 	andeq	r9, r0, r0, lsr #16
    8160:	00009850 	andeq	r9, r0, r0, asr r8
    8164:	00009888 	andeq	r9, r0, r8, lsl #17

00008168 <crc32_inc>:
    8168:	e1e02002 	mvn	r2, r2
    816c:	e59fc030 	ldr	ip, [pc, #48]	; 81a4 <crc32_inc+0x3c>
    8170:	ea000006 	b	8190 <crc32_inc+0x28>
    8174:	e5d01000 	ldrb	r1, [r0]
    8178:	e0211002 	eor	r1, r1, r2
    817c:	e6ef1071 	uxtb	r1, r1
    8180:	e79c1101 	ldr	r1, [ip, r1, lsl #2]
    8184:	e0212422 	eor	r2, r1, r2, lsr #8
    8188:	e1a01003 	mov	r1, r3
    818c:	e2800001 	add	r0, r0, #1
    8190:	e2413001 	sub	r3, r1, #1
    8194:	e3510000 	cmp	r1, #0
    8198:	1afffff5 	bne	8174 <crc32_inc+0xc>
    819c:	e1e00002 	mvn	r0, r2
    81a0:	e12fff1e 	bx	lr
    81a4:	00009898 	muleq	r0, r8, r8

000081a8 <our_crc32>:
    81a8:	e92d4008 	push	{r3, lr}
    81ac:	e3a02000 	mov	r2, #0
    81b0:	ebffffec 	bl	8168 <crc32_inc>
    81b4:	e8bd8008 	pop	{r3, pc}

000081b8 <printk>:
    81b8:	e92d000f 	push	{r0, r1, r2, r3}
    81bc:	e92d4030 	push	{r4, r5, lr}
    81c0:	e24dd00c 	sub	sp, sp, #12
    81c4:	e28d301c 	add	r3, sp, #28
    81c8:	e58d3004 	str	r3, [sp, #4]
    81cc:	e59f4034 	ldr	r4, [pc, #52]	; 8208 <printk+0x50>
    81d0:	e1a00004 	mov	r0, r4
    81d4:	e3a01b01 	mov	r1, #1024	; 0x400
    81d8:	e59d2018 	ldr	r2, [sp, #24]
    81dc:	eb0000c3 	bl	84f0 <va_printk>
    81e0:	e1a05000 	mov	r5, r0
    81e4:	e59f3020 	ldr	r3, [pc, #32]	; 820c <printk+0x54>
    81e8:	e5933000 	ldr	r3, [r3]
    81ec:	e1a00004 	mov	r0, r4
    81f0:	e12fff33 	blx	r3
    81f4:	e1a00005 	mov	r0, r5
    81f8:	e28dd00c 	add	sp, sp, #12
    81fc:	e8bd4030 	pop	{r4, r5, lr}
    8200:	e28dd010 	add	sp, sp, #16
    8204:	e12fff1e 	bx	lr
    8208:	00009f20 	andeq	r9, r0, r0, lsr #30
    820c:	00009758 	andeq	r9, r0, r8, asr r7

00008210 <internal_putchar>:
    8210:	e92d4010 	push	{r4, lr}
    8214:	e1a04000 	mov	r4, r0
    8218:	eb000392 	bl	9068 <uart_putc>
    821c:	e1a00004 	mov	r0, r4
    8220:	e8bd8010 	pop	{r4, pc}

00008224 <rpi_reset_putc>:
    8224:	e59f2008 	ldr	r2, [pc, #8]	; 8234 <rpi_reset_putc+0x10>
    8228:	e59f3008 	ldr	r3, [pc, #8]	; 8238 <rpi_reset_putc+0x14>
    822c:	e5832000 	str	r2, [r3]
    8230:	e12fff1e 	bx	lr
    8234:	00008210 	andeq	r8, r0, r0, lsl r2
    8238:	00009754 	andeq	r9, r0, r4, asr r7

0000823c <rpi_set_putc>:
    823c:	e59f3004 	ldr	r3, [pc, #4]	; 8248 <rpi_set_putc+0xc>
    8240:	e5830000 	str	r0, [r3]
    8244:	e12fff1e 	bx	lr
    8248:	00009754 	andeq	r9, r0, r4, asr r7

0000824c <internal_putk>:
    824c:	e92d4038 	push	{r3, r4, r5, lr}
    8250:	e1a04000 	mov	r4, r0
    8254:	e59f5020 	ldr	r5, [pc, #32]	; 827c <internal_putk+0x30>
    8258:	ea000002 	b	8268 <internal_putk+0x1c>
    825c:	e5953000 	ldr	r3, [r5]
    8260:	e12fff33 	blx	r3
    8264:	e2844001 	add	r4, r4, #1
    8268:	e5d40000 	ldrb	r0, [r4]
    826c:	e3500000 	cmp	r0, #0
    8270:	1afffff9 	bne	825c <internal_putk+0x10>
    8274:	e3a00001 	mov	r0, #1
    8278:	e8bd8038 	pop	{r3, r4, r5, pc}
    827c:	00009754 	andeq	r9, r0, r4, asr r7

00008280 <isdigit>:
    8280:	e2400030 	sub	r0, r0, #48	; 0x30
    8284:	e3500009 	cmp	r0, #9
    8288:	83a00000 	movhi	r0, #0
    828c:	93a00001 	movls	r0, #1
    8290:	e12fff1e 	bx	lr

00008294 <pad>:
    8294:	e0611000 	rsb	r1, r1, r0
    8298:	e3a03020 	mov	r3, #32
    829c:	ea000002 	b	82ac <pad+0x18>
    82a0:	e5c03000 	strb	r3, [r0]
    82a4:	e2811001 	add	r1, r1, #1
    82a8:	e2800001 	add	r0, r0, #1
    82ac:	e1510002 	cmp	r1, r2
    82b0:	bafffffa 	blt	82a0 <pad+0xc>
    82b4:	e3a03000 	mov	r3, #0
    82b8:	e5c03000 	strb	r3, [r0]
    82bc:	e12fff1e 	bx	lr

000082c0 <reverse>:
    82c0:	e063c002 	rsb	ip, r3, r2
    82c4:	e28cc001 	add	ip, ip, #1
    82c8:	e15c0001 	cmp	ip, r1
    82cc:	c061100c 	rsbgt	r1, r1, ip
    82d0:	c0833001 	addgt	r3, r3, r1
    82d4:	e2422001 	sub	r2, r2, #1
    82d8:	e1a01000 	mov	r1, r0
    82dc:	ea000002 	b	82ec <reverse+0x2c>
    82e0:	e452c001 	ldrb	ip, [r2], #-1
    82e4:	e5c1c000 	strb	ip, [r1]
    82e8:	e2811001 	add	r1, r1, #1
    82ec:	e1520003 	cmp	r2, r3
    82f0:	2afffffa 	bcs	82e0 <reverse+0x20>
    82f4:	e3a03000 	mov	r3, #0
    82f8:	e5c13000 	strb	r3, [r1]
    82fc:	e12fff1e 	bx	lr

00008300 <emit>:
    8300:	e92d41f0 	push	{r4, r5, r6, r7, r8, lr}
    8304:	e24dd040 	sub	sp, sp, #64	; 0x40
    8308:	e1a05001 	mov	r5, r1
    830c:	e1a04002 	mov	r4, r2
    8310:	e59d2058 	ldr	r2, [sp, #88]	; 0x58
    8314:	e1520004 	cmp	r2, r4
    8318:	c2442001 	subgt	r2, r4, #1
    831c:	e1a0c003 	mov	ip, r3
    8320:	e2400002 	sub	r0, r0, #2
    8324:	e350000e 	cmp	r0, #14
    8328:	979ff100 	ldrls	pc, [pc, r0, lsl #2]
    832c:	ea000042 	b	843c <emit+0x13c>
    8330:	00008414 	andeq	r8, r0, r4, lsl r4
    8334:	0000843c 	andeq	r8, r0, ip, lsr r4
    8338:	0000843c 	andeq	r8, r0, ip, lsr r4
    833c:	0000843c 	andeq	r8, r0, ip, lsr r4
    8340:	0000843c 	andeq	r8, r0, ip, lsr r4
    8344:	0000843c 	andeq	r8, r0, ip, lsr r4
    8348:	00008408 	andeq	r8, r0, r8, lsl #8
    834c:	0000843c 	andeq	r8, r0, ip, lsr r4
    8350:	0000836c 	andeq	r8, r0, ip, ror #6
    8354:	0000843c 	andeq	r8, r0, ip, lsr r4
    8358:	0000843c 	andeq	r8, r0, ip, lsr r4
    835c:	0000843c 	andeq	r8, r0, ip, lsr r4
    8360:	0000843c 	andeq	r8, r0, ip, lsr r4
    8364:	0000843c 	andeq	r8, r0, ip, lsr r4
    8368:	000083e0 	andeq	r8, r0, r0, ror #7
    836c:	e59d105c 	ldr	r1, [sp, #92]	; 0x5c
    8370:	e2911000 	adds	r1, r1, #0
    8374:	13a01001 	movne	r1, #1
    8378:	e0111fa3 	ands	r1, r1, r3, lsr #31
    837c:	1263c000 	rsbne	ip, r3, #0
    8380:	13a08001 	movne	r8, #1
    8384:	03a08000 	moveq	r8, #0
    8388:	e1a0100d 	mov	r1, sp
    838c:	e59f70ec 	ldr	r7, [pc, #236]	; 8480 <emit+0x180>
    8390:	e59f60ec 	ldr	r6, [pc, #236]	; 8484 <emit+0x184>
    8394:	ea000000 	b	839c <emit+0x9c>
    8398:	e1a01003 	mov	r1, r3
    839c:	e2813001 	add	r3, r1, #1
    83a0:	e08e0c97 	umull	r0, lr, r7, ip
    83a4:	e1a0e1ae 	lsr	lr, lr, #3
    83a8:	e1a0000e 	mov	r0, lr
    83ac:	e08ee10e 	add	lr, lr, lr, lsl #2
    83b0:	e1a0e08e 	lsl	lr, lr, #1
    83b4:	e06ee00c 	rsb	lr, lr, ip
    83b8:	e7d6c00e 	ldrb	ip, [r6, lr]
    83bc:	e5c1c000 	strb	ip, [r1]
    83c0:	e1a0c000 	mov	ip, r0
    83c4:	e3500000 	cmp	r0, #0
    83c8:	1afffff2 	bne	8398 <emit+0x98>
    83cc:	e3580000 	cmp	r8, #0
    83d0:	12813002 	addne	r3, r1, #2
    83d4:	13a0002d 	movne	r0, #45	; 0x2d
    83d8:	15c10001 	strbne	r0, [r1, #1]
    83dc:	ea00001d 	b	8458 <emit+0x158>
    83e0:	e1a0e00d 	mov	lr, sp
    83e4:	e59f009c 	ldr	r0, [pc, #156]	; 8488 <emit+0x188>
    83e8:	e28e3001 	add	r3, lr, #1
    83ec:	e20c100f 	and	r1, ip, #15
    83f0:	e7d01001 	ldrb	r1, [r0, r1]
    83f4:	e5ce1000 	strb	r1, [lr]
    83f8:	e1a0e003 	mov	lr, r3
    83fc:	e1b0c22c 	lsrs	ip, ip, #4
    8400:	1afffff8 	bne	83e8 <emit+0xe8>
    8404:	ea000013 	b	8458 <emit+0x158>
    8408:	e5cd3000 	strb	r3, [sp]
    840c:	e28d3001 	add	r3, sp, #1
    8410:	ea000010 	b	8458 <emit+0x158>
    8414:	e1a0e00d 	mov	lr, sp
    8418:	e59f006c 	ldr	r0, [pc, #108]	; 848c <emit+0x18c>
    841c:	e28e3001 	add	r3, lr, #1
    8420:	e20c1001 	and	r1, ip, #1
    8424:	e7d01001 	ldrb	r1, [r0, r1]
    8428:	e5ce1000 	strb	r1, [lr]
    842c:	e1a0e003 	mov	lr, r3
    8430:	e1b0c0ac 	lsrs	ip, ip, #1
    8434:	1afffff8 	bne	841c <emit+0x11c>
    8438:	ea000006 	b	8458 <emit+0x158>
    843c:	ebffff78 	bl	8224 <rpi_reset_putc>
    8440:	e59f0048 	ldr	r0, [pc, #72]	; 8490 <emit+0x190>
    8444:	e59f1048 	ldr	r1, [pc, #72]	; 8494 <emit+0x194>
    8448:	e59f2048 	ldr	r2, [pc, #72]	; 8498 <emit+0x198>
    844c:	e3a03075 	mov	r3, #117	; 0x75
    8450:	ebffff58 	bl	81b8 <printk>
    8454:	eb0000c7 	bl	8778 <clean_reboot>
    8458:	e1a00003 	mov	r0, r3
    845c:	e1a0100d 	mov	r1, sp
    8460:	ebffff8b 	bl	8294 <pad>
    8464:	e1a02000 	mov	r2, r0
    8468:	e1a00005 	mov	r0, r5
    846c:	e1a01004 	mov	r1, r4
    8470:	e1a0300d 	mov	r3, sp
    8474:	ebffff91 	bl	82c0 <reverse>
    8478:	e28dd040 	add	sp, sp, #64	; 0x40
    847c:	e8bd81f0 	pop	{r4, r5, r6, r7, r8, pc}
    8480:	cccccccd 	stclgt	12, cr12, [ip], {205}	; 0xcd
    8484:	00009ce4 	andeq	r9, r0, r4, ror #25
    8488:	00009cf0 	strdeq	r9, [r0], -r0
    848c:	00009d04 	andeq	r9, r0, r4, lsl #26
    8490:	00009cbc 			; <UNDEFINED> instruction: 0x00009cbc
    8494:	00009cd0 	ldrdeq	r9, [r0], -r0
    8498:	00009c98 	muleq	r0, r8, ip

0000849c <rpi_set_output>:
    849c:	e92d4008 	push	{r3, lr}
    84a0:	e3500000 	cmp	r0, #0
    84a4:	1a000006 	bne	84c4 <rpi_set_output+0x28>
    84a8:	ebffff5d 	bl	8224 <rpi_reset_putc>
    84ac:	e59f0028 	ldr	r0, [pc, #40]	; 84dc <rpi_set_output+0x40>
    84b0:	e59f1028 	ldr	r1, [pc, #40]	; 84e0 <rpi_set_output+0x44>
    84b4:	e59f2028 	ldr	r2, [pc, #40]	; 84e4 <rpi_set_output+0x48>
    84b8:	e3a03020 	mov	r3, #32
    84bc:	ebffff3d 	bl	81b8 <printk>
    84c0:	eb0000ac 	bl	8778 <clean_reboot>
    84c4:	e59f301c 	ldr	r3, [pc, #28]	; 84e8 <rpi_set_output+0x4c>
    84c8:	e5830000 	str	r0, [r3]
    84cc:	e3510000 	cmp	r1, #0
    84d0:	159f3014 	ldrne	r3, [pc, #20]	; 84ec <rpi_set_output+0x50>
    84d4:	15831000 	strne	r1, [r3]
    84d8:	e8bd8008 	pop	{r3, pc}
    84dc:	00009d08 	andeq	r9, r0, r8, lsl #26
    84e0:	00009cd0 	ldrdeq	r9, [r0], -r0
    84e4:	00009ca0 	andeq	r9, r0, r0, lsr #25
    84e8:	00009754 	andeq	r9, r0, r4, asr r7
    84ec:	00009758 	andeq	r9, r0, r8, asr r7

000084f0 <va_printk>:
    84f0:	e92d4ff0 	push	{r4, r5, r6, r7, r8, r9, sl, fp, lr}
    84f4:	e24dd08c 	sub	sp, sp, #140	; 0x8c
    84f8:	e1a0a000 	mov	sl, r0
    84fc:	e1a09003 	mov	r9, r3
    8500:	e2411001 	sub	r1, r1, #1
    8504:	e0808001 	add	r8, r0, r1
    8508:	e3a03000 	mov	r3, #0
    850c:	e5c03000 	strb	r3, [r0]
    8510:	e1a04000 	mov	r4, r0
    8514:	e1a0b003 	mov	fp, r3
    8518:	ea000086 	b	8738 <va_printk+0x248>
    851c:	e3530025 	cmp	r3, #37	; 0x25
    8520:	12822001 	addne	r2, r2, #1
    8524:	15c43000 	strbne	r3, [r4]
    8528:	12844001 	addne	r4, r4, #1
    852c:	1a000081 	bne	8738 <va_printk+0x248>
    8530:	e5d21001 	ldrb	r1, [r2, #1]
    8534:	e3510025 	cmp	r1, #37	; 0x25
    8538:	05c43000 	strbeq	r3, [r4]
    853c:	02822002 	addeq	r2, r2, #2
    8540:	02844001 	addeq	r4, r4, #1
    8544:	0a00007b 	beq	8738 <va_printk+0x248>
    8548:	e2826001 	add	r6, r2, #1
    854c:	e1a0700b 	mov	r7, fp
    8550:	ea000004 	b	8568 <va_printk+0x78>
    8554:	e0877107 	add	r7, r7, r7, lsl #2
    8558:	e1a07087 	lsl	r7, r7, #1
    855c:	e0877005 	add	r7, r7, r5
    8560:	e2477030 	sub	r7, r7, #48	; 0x30
    8564:	e2866001 	add	r6, r6, #1
    8568:	e5d65000 	ldrb	r5, [r6]
    856c:	e1a00005 	mov	r0, r5
    8570:	ebffff42 	bl	8280 <isdigit>
    8574:	e3500000 	cmp	r0, #0
    8578:	1afffff5 	bne	8554 <va_printk+0x64>
    857c:	e357001f 	cmp	r7, #31
    8580:	9a000006 	bls	85a0 <va_printk+0xb0>
    8584:	ebffff26 	bl	8224 <rpi_reset_putc>
    8588:	e59f01d4 	ldr	r0, [pc, #468]	; 8764 <va_printk+0x274>
    858c:	e59f11d4 	ldr	r1, [pc, #468]	; 8768 <va_printk+0x278>
    8590:	e59f21d4 	ldr	r2, [pc, #468]	; 876c <va_printk+0x27c>
    8594:	e3a03092 	mov	r3, #146	; 0x92
    8598:	ebffff06 	bl	81b8 <printk>
    859c:	eb000075 	bl	8778 <clean_reboot>
    85a0:	e2455062 	sub	r5, r5, #98	; 0x62
    85a4:	e3550016 	cmp	r5, #22
    85a8:	979ff105 	ldrls	pc, [pc, r5, lsl #2]
    85ac:	ea00004e 	b	86ec <va_printk+0x1fc>
    85b0:	00008698 	muleq	r0, r8, r6
    85b4:	000086c8 	andeq	r8, r0, r8, asr #13
    85b8:	00008628 	andeq	r8, r0, r8, lsr #12
    85bc:	000086ec 	andeq	r8, r0, ip, ror #13
    85c0:	0000860c 	andeq	r8, r0, ip, lsl #12
    85c4:	000086ec 	andeq	r8, r0, ip, ror #13
    85c8:	000086ec 	andeq	r8, r0, ip, ror #13
    85cc:	000086ec 	andeq	r8, r0, ip, ror #13
    85d0:	000086ec 	andeq	r8, r0, ip, ror #13
    85d4:	000086ec 	andeq	r8, r0, ip, ror #13
    85d8:	000086ec 	andeq	r8, r0, ip, ror #13
    85dc:	000086ec 	andeq	r8, r0, ip, ror #13
    85e0:	000086ec 	andeq	r8, r0, ip, ror #13
    85e4:	000086ec 	andeq	r8, r0, ip, ror #13
    85e8:	00008674 	andeq	r8, r0, r4, ror r6
    85ec:	000086ec 	andeq	r8, r0, ip, ror #13
    85f0:	000086ec 	andeq	r8, r0, ip, ror #13
    85f4:	000086bc 			; <UNDEFINED> instruction: 0x000086bc
    85f8:	000086ec 	andeq	r8, r0, ip, ror #13
    85fc:	00008650 	andeq	r8, r0, r0, asr r6
    8600:	000086ec 	andeq	r8, r0, ip, ror #13
    8604:	000086ec 	andeq	r8, r0, ip, ror #13
    8608:	00008674 	andeq	r8, r0, r4, ror r6
    860c:	ebffff04 	bl	8224 <rpi_reset_putc>
    8610:	e59f0158 	ldr	r0, [pc, #344]	; 8770 <va_printk+0x280>
    8614:	e59f114c 	ldr	r1, [pc, #332]	; 8768 <va_printk+0x278>
    8618:	e59f214c 	ldr	r2, [pc, #332]	; 876c <va_printk+0x27c>
    861c:	e3a03098 	mov	r3, #152	; 0x98
    8620:	ebfffee4 	bl	81b8 <printk>
    8624:	eb000053 	bl	8778 <clean_reboot>
    8628:	e5993000 	ldr	r3, [r9]
    862c:	e2899004 	add	r9, r9, #4
    8630:	e58d7000 	str	r7, [sp]
    8634:	e3a02001 	mov	r2, #1
    8638:	e58d2004 	str	r2, [sp, #4]
    863c:	e3a0000a 	mov	r0, #10
    8640:	e28d1008 	add	r1, sp, #8
    8644:	e3a02080 	mov	r2, #128	; 0x80
    8648:	ebffff2c 	bl	8300 <emit>
    864c:	ea00002f 	b	8710 <va_printk+0x220>
    8650:	e5993000 	ldr	r3, [r9]
    8654:	e2899004 	add	r9, r9, #4
    8658:	e58d7000 	str	r7, [sp]
    865c:	e58db004 	str	fp, [sp, #4]
    8660:	e3a0000a 	mov	r0, #10
    8664:	e28d1008 	add	r1, sp, #8
    8668:	e3a02080 	mov	r2, #128	; 0x80
    866c:	ebffff23 	bl	8300 <emit>
    8670:	ea000026 	b	8710 <va_printk+0x220>
    8674:	e5993000 	ldr	r3, [r9]
    8678:	e2899004 	add	r9, r9, #4
    867c:	e58d7000 	str	r7, [sp]
    8680:	e58db004 	str	fp, [sp, #4]
    8684:	e3a00010 	mov	r0, #16
    8688:	e28d1008 	add	r1, sp, #8
    868c:	e3a02080 	mov	r2, #128	; 0x80
    8690:	ebffff1a 	bl	8300 <emit>
    8694:	ea00001d 	b	8710 <va_printk+0x220>
    8698:	e5993000 	ldr	r3, [r9]
    869c:	e2899004 	add	r9, r9, #4
    86a0:	e58d7000 	str	r7, [sp]
    86a4:	e58db004 	str	fp, [sp, #4]
    86a8:	e3a00002 	mov	r0, #2
    86ac:	e28d1008 	add	r1, sp, #8
    86b0:	e3a02080 	mov	r2, #128	; 0x80
    86b4:	ebffff11 	bl	8300 <emit>
    86b8:	ea000014 	b	8710 <va_printk+0x220>
    86bc:	e5990000 	ldr	r0, [r9]
    86c0:	e2899004 	add	r9, r9, #4
    86c4:	ea000011 	b	8710 <va_printk+0x220>
    86c8:	e5993000 	ldr	r3, [r9]
    86cc:	e2899004 	add	r9, r9, #4
    86d0:	e58d7000 	str	r7, [sp]
    86d4:	e58db004 	str	fp, [sp, #4]
    86d8:	e3a00008 	mov	r0, #8
    86dc:	e08d1000 	add	r1, sp, r0
    86e0:	e3a02080 	mov	r2, #128	; 0x80
    86e4:	ebffff05 	bl	8300 <emit>
    86e8:	ea000008 	b	8710 <va_printk+0x220>
    86ec:	ebfffecc 	bl	8224 <rpi_reset_putc>
    86f0:	e5d63000 	ldrb	r3, [r6]
    86f4:	e58d3000 	str	r3, [sp]
    86f8:	e59f0074 	ldr	r0, [pc, #116]	; 8774 <va_printk+0x284>
    86fc:	e59f1064 	ldr	r1, [pc, #100]	; 8768 <va_printk+0x278>
    8700:	e59f2064 	ldr	r2, [pc, #100]	; 876c <va_printk+0x27c>
    8704:	e3a030b9 	mov	r3, #185	; 0xb9
    8708:	ebfffeaa 	bl	81b8 <printk>
    870c:	eb000019 	bl	8778 <clean_reboot>
    8710:	e2862001 	add	r2, r6, #1
    8714:	ea000002 	b	8724 <va_printk+0x234>
    8718:	e2800001 	add	r0, r0, #1
    871c:	e5c43000 	strb	r3, [r4]
    8720:	e2844001 	add	r4, r4, #1
    8724:	e1540008 	cmp	r4, r8
    8728:	2a000002 	bcs	8738 <va_printk+0x248>
    872c:	e5d03000 	ldrb	r3, [r0]
    8730:	e3530000 	cmp	r3, #0
    8734:	1afffff7 	bne	8718 <va_printk+0x228>
    8738:	e5d23000 	ldrb	r3, [r2]
    873c:	e3530000 	cmp	r3, #0
    8740:	0a000001 	beq	874c <va_printk+0x25c>
    8744:	e1540008 	cmp	r4, r8
    8748:	3affff73 	bcc	851c <va_printk+0x2c>
    874c:	e2840001 	add	r0, r4, #1
    8750:	e3a03000 	mov	r3, #0
    8754:	e5c43000 	strb	r3, [r4]
    8758:	e06a0000 	rsb	r0, sl, r0
    875c:	e28dd08c 	add	sp, sp, #140	; 0x8c
    8760:	e8bd8ff0 	pop	{r4, r5, r6, r7, r8, r9, sl, fp, pc}
    8764:	00009d20 	andeq	r9, r0, r0, lsr #26
    8768:	00009cd0 	ldrdeq	r9, [r0], -r0
    876c:	00009cb0 			; <UNDEFINED> instruction: 0x00009cb0
    8770:	00009d3c 	andeq	r9, r0, ip, lsr sp
    8774:	00009d64 	andeq	r9, r0, r4, ror #26

00008778 <clean_reboot>:
    8778:	e92d4008 	push	{r3, lr}
    877c:	e59f3014 	ldr	r3, [pc, #20]	; 8798 <clean_reboot+0x20>
    8780:	e5933000 	ldr	r3, [r3]
    8784:	e59f0010 	ldr	r0, [pc, #16]	; 879c <clean_reboot+0x24>
    8788:	e12fff33 	blx	r3
    878c:	e3a00064 	mov	r0, #100	; 0x64
    8790:	eb000063 	bl	8924 <delay_ms>
    8794:	eb000038 	bl	887c <rpi_reboot>
    8798:	00009758 	andeq	r9, r0, r8, asr r7
    879c:	00009d9c 	muleq	r0, ip, sp

000087a0 <internal_sw_putchar>:
    87a0:	e92d4010 	push	{r4, lr}
    87a4:	e1a04000 	mov	r4, r0
    87a8:	e59f000c 	ldr	r0, [pc, #12]	; 87bc <internal_sw_putchar+0x1c>
    87ac:	e6ef1074 	uxtb	r1, r4
    87b0:	eb000065 	bl	894c <sw_uart_putc>
    87b4:	e1a00004 	mov	r0, r4
    87b8:	e8bd8010 	pop	{r4, pc}
    87bc:	0000a320 	andeq	sl, r0, r0, lsr #6

000087c0 <_cstart>:
    87c0:	e92d4008 	push	{r3, lr}
    87c4:	e59f3068 	ldr	r3, [pc, #104]	; 8834 <_cstart+0x74>
    87c8:	e59f2068 	ldr	r2, [pc, #104]	; 8838 <_cstart+0x78>
    87cc:	e3a01000 	mov	r1, #0
    87d0:	ea000001 	b	87dc <_cstart+0x1c>
    87d4:	e5831000 	str	r1, [r3]
    87d8:	e2833004 	add	r3, r3, #4
    87dc:	e1530002 	cmp	r3, r2
    87e0:	3afffffb 	bcc	87d4 <_cstart+0x14>
    87e4:	eb0003c8 	bl	970c <cb_get_block>
    87e8:	e3500000 	cmp	r0, #0
    87ec:	0a00000e 	beq	882c <_cstart+0x6c>
    87f0:	e5d02004 	ldrb	r2, [r0, #4]
    87f4:	e3520002 	cmp	r2, #2
    87f8:	1a00000b 	bne	882c <_cstart+0x6c>
    87fc:	e59f1038 	ldr	r1, [pc, #56]	; 883c <_cstart+0x7c>
    8800:	e59f2038 	ldr	r2, [pc, #56]	; 8840 <_cstart+0x80>
    8804:	e5821000 	str	r1, [r2]
    8808:	e59fc034 	ldr	ip, [pc, #52]	; 8844 <_cstart+0x84>
    880c:	e2803008 	add	r3, r0, #8
    8810:	e8930007 	ldm	r3, {r0, r1, r2}
    8814:	e88c0007 	stm	ip, {r0, r1, r2}
    8818:	e1a0000c 	mov	r0, ip
    881c:	e59f1024 	ldr	r1, [pc, #36]	; 8848 <_cstart+0x88>
    8820:	eb00019d 	bl	8e9c <sw_uart_printk>
    8824:	e59f0020 	ldr	r0, [pc, #32]	; 884c <_cstart+0x8c>
    8828:	ebfffe62 	bl	81b8 <printk>
    882c:	ebfffe02 	bl	803c <notmain>
    8830:	eb000011 	bl	887c <rpi_reboot>
    8834:	00009f20 	andeq	r9, r0, r0, lsr #30
    8838:	0000a330 	andeq	sl, r0, r0, lsr r3
    883c:	000087a0 	andeq	r8, r0, r0, lsr #15
    8840:	00009754 	andeq	r9, r0, r4, asr r7
    8844:	0000a320 	andeq	sl, r0, r0, lsr #6
    8848:	00009da8 	andeq	r9, r0, r8, lsr #27
    884c:	00009dcc 	andeq	r9, r0, ip, asr #27

00008850 <at_user_level>:
    8850:	e10f0000 	mrs	r0, CPSR
    8854:	e200001f 	and	r0, r0, #31
    8858:	e3500010 	cmp	r0, #16
    885c:	13a00000 	movne	r0, #0
    8860:	03a00001 	moveq	r0, #1
    8864:	e12fff1e 	bx	lr

00008868 <set_user_level>:
    8868:	e10f3000 	mrs	r3, CPSR
    886c:	e3c3301f 	bic	r3, r3, #31
    8870:	e3833010 	orr	r3, r3, #16
    8874:	e129f003 	msr	CPSR_fc, r3
    8878:	e12fff1e 	bx	lr

0000887c <rpi_reboot>:
    887c:	e92d4008 	push	{r3, lr}
    8880:	ebfffff2 	bl	8850 <at_user_level>
    8884:	e3500000 	cmp	r0, #0
    8888:	0a000000 	beq	8890 <rpi_reboot+0x14>
    888c:	ebfffff5 	bl	8868 <set_user_level>
    8890:	e3a0001e 	mov	r0, #30
    8894:	eb000022 	bl	8924 <delay_ms>
    8898:	e59f0014 	ldr	r0, [pc, #20]	; 88b4 <rpi_reboot+0x38>
    889c:	e59f1014 	ldr	r1, [pc, #20]	; 88b8 <rpi_reboot+0x3c>
    88a0:	eb00020f 	bl	90e4 <PUT32>
    88a4:	e59f0010 	ldr	r0, [pc, #16]	; 88bc <rpi_reboot+0x40>
    88a8:	e59f1010 	ldr	r1, [pc, #16]	; 88c0 <rpi_reboot+0x44>
    88ac:	eb00020c 	bl	90e4 <PUT32>
    88b0:	eafffffe 	b	88b0 <rpi_reboot+0x34>
    88b4:	20100024 	andscs	r0, r0, r4, lsr #32
    88b8:	5a000001 	bpl	88c4 <delay_cycles>
    88bc:	2010001c 	andscs	r0, r0, ip, lsl r0
    88c0:	5a000020 	bpl	8948 <delay_sec+0x10>

000088c4 <delay_cycles>:
    88c4:	ea000001 	b	88d0 <delay_cycles+0xc>
    88c8:	e2811000 	add	r1, r1, #0
    88cc:	e1a00003 	mov	r0, r3
    88d0:	e2403001 	sub	r3, r0, #1
    88d4:	e3500000 	cmp	r0, #0
    88d8:	1afffffa 	bne	88c8 <delay_cycles+0x4>
    88dc:	e12fff1e 	bx	lr

000088e0 <timer_get_usec_raw>:
    88e0:	e92d4008 	push	{r3, lr}
    88e4:	e59f0004 	ldr	r0, [pc, #4]	; 88f0 <timer_get_usec_raw+0x10>
    88e8:	eb000209 	bl	9114 <GET32>
    88ec:	e8bd8008 	pop	{r3, pc}
    88f0:	20003004 	andcs	r3, r0, r4

000088f4 <timer_get_usec>:
    88f4:	e92d4008 	push	{r3, lr}
    88f8:	ebfffff8 	bl	88e0 <timer_get_usec_raw>
    88fc:	e8bd8008 	pop	{r3, pc}

00008900 <delay_us>:
    8900:	e92d4038 	push	{r3, r4, r5, lr}
    8904:	e1a05000 	mov	r5, r0
    8908:	ebfffff9 	bl	88f4 <timer_get_usec>
    890c:	e1a04000 	mov	r4, r0
    8910:	ebfffff7 	bl	88f4 <timer_get_usec>
    8914:	e0640000 	rsb	r0, r4, r0
    8918:	e1500005 	cmp	r0, r5
    891c:	3afffffb 	bcc	8910 <delay_us+0x10>
    8920:	e8bd8038 	pop	{r3, r4, r5, pc}

00008924 <delay_ms>:
    8924:	e92d4008 	push	{r3, lr}
    8928:	e3a03ffa 	mov	r3, #1000	; 0x3e8
    892c:	e0000093 	mul	r0, r3, r0
    8930:	ebfffff2 	bl	8900 <delay_us>
    8934:	e8bd8008 	pop	{r3, pc}

00008938 <delay_sec>:
    8938:	e92d4008 	push	{r3, lr}
    893c:	e3a03ffa 	mov	r3, #1000	; 0x3e8
    8940:	e0000093 	mul	r0, r3, r0
    8944:	ebfffff6 	bl	8924 <delay_ms>
    8948:	e8bd8008 	pop	{r3, pc}

0000894c <sw_uart_putc>:
    894c:	e92d41f0 	push	{r4, r5, r6, r7, r8, lr}
    8950:	e1a07001 	mov	r7, r1
    8954:	e5d06000 	ldrb	r6, [r0]
    8958:	e5905008 	ldr	r5, [r0, #8]
    895c:	ee1f4f3c 	mrc	15, 0, r4, cr15, cr12, {1}
    8960:	e1a00006 	mov	r0, r6
    8964:	e3a01000 	mov	r1, #0
    8968:	eb000285 	bl	9384 <gpio_write>
    896c:	ee1f3f3c 	mrc	15, 0, r3, cr15, cr12, {1}
    8970:	e0643003 	rsb	r3, r4, r3
    8974:	e1550003 	cmp	r5, r3
    8978:	8afffffb 	bhi	896c <sw_uart_putc+0x20>
    897c:	e1a08085 	lsl	r8, r5, #1
    8980:	e1a00006 	mov	r0, r6
    8984:	e2071001 	and	r1, r7, #1
    8988:	eb00027d 	bl	9384 <gpio_write>
    898c:	ee1f3f3c 	mrc	15, 0, r3, cr15, cr12, {1}
    8990:	e0643003 	rsb	r3, r4, r3
    8994:	e1580003 	cmp	r8, r3
    8998:	8afffffb 	bhi	898c <sw_uart_putc+0x40>
    899c:	e0888005 	add	r8, r8, r5
    89a0:	e1a00006 	mov	r0, r6
    89a4:	e2071002 	and	r1, r7, #2
    89a8:	eb000275 	bl	9384 <gpio_write>
    89ac:	ee1f3f3c 	mrc	15, 0, r3, cr15, cr12, {1}
    89b0:	e0643003 	rsb	r3, r4, r3
    89b4:	e1580003 	cmp	r8, r3
    89b8:	8afffffb 	bhi	89ac <sw_uart_putc+0x60>
    89bc:	e0888005 	add	r8, r8, r5
    89c0:	e1a00006 	mov	r0, r6
    89c4:	e2071004 	and	r1, r7, #4
    89c8:	eb00026d 	bl	9384 <gpio_write>
    89cc:	ee1f3f3c 	mrc	15, 0, r3, cr15, cr12, {1}
    89d0:	e0643003 	rsb	r3, r4, r3
    89d4:	e1580003 	cmp	r8, r3
    89d8:	8afffffb 	bhi	89cc <sw_uart_putc+0x80>
    89dc:	e0888005 	add	r8, r8, r5
    89e0:	e1a00006 	mov	r0, r6
    89e4:	e2071008 	and	r1, r7, #8
    89e8:	eb000265 	bl	9384 <gpio_write>
    89ec:	ee1f3f3c 	mrc	15, 0, r3, cr15, cr12, {1}
    89f0:	e0643003 	rsb	r3, r4, r3
    89f4:	e1580003 	cmp	r8, r3
    89f8:	8afffffb 	bhi	89ec <sw_uart_putc+0xa0>
    89fc:	e0888005 	add	r8, r8, r5
    8a00:	e1a00006 	mov	r0, r6
    8a04:	e2071010 	and	r1, r7, #16
    8a08:	eb00025d 	bl	9384 <gpio_write>
    8a0c:	ee1f3f3c 	mrc	15, 0, r3, cr15, cr12, {1}
    8a10:	e0643003 	rsb	r3, r4, r3
    8a14:	e1580003 	cmp	r8, r3
    8a18:	8afffffb 	bhi	8a0c <sw_uart_putc+0xc0>
    8a1c:	e0888005 	add	r8, r8, r5
    8a20:	e1a00006 	mov	r0, r6
    8a24:	e2071020 	and	r1, r7, #32
    8a28:	eb000255 	bl	9384 <gpio_write>
    8a2c:	ee1f3f3c 	mrc	15, 0, r3, cr15, cr12, {1}
    8a30:	e0643003 	rsb	r3, r4, r3
    8a34:	e1580003 	cmp	r8, r3
    8a38:	8afffffb 	bhi	8a2c <sw_uart_putc+0xe0>
    8a3c:	e0888005 	add	r8, r8, r5
    8a40:	e1a00006 	mov	r0, r6
    8a44:	e2071040 	and	r1, r7, #64	; 0x40
    8a48:	eb00024d 	bl	9384 <gpio_write>
    8a4c:	ee1f3f3c 	mrc	15, 0, r3, cr15, cr12, {1}
    8a50:	e0643003 	rsb	r3, r4, r3
    8a54:	e1580003 	cmp	r8, r3
    8a58:	8afffffb 	bhi	8a4c <sw_uart_putc+0x100>
    8a5c:	e0888005 	add	r8, r8, r5
    8a60:	e1a00006 	mov	r0, r6
    8a64:	e2071080 	and	r1, r7, #128	; 0x80
    8a68:	eb000245 	bl	9384 <gpio_write>
    8a6c:	ee1f3f3c 	mrc	15, 0, r3, cr15, cr12, {1}
    8a70:	e0643003 	rsb	r3, r4, r3
    8a74:	e1580003 	cmp	r8, r3
    8a78:	8afffffb 	bhi	8a6c <sw_uart_putc+0x120>
    8a7c:	e0885005 	add	r5, r8, r5
    8a80:	e1a00006 	mov	r0, r6
    8a84:	e3a01001 	mov	r1, #1
    8a88:	eb00023d 	bl	9384 <gpio_write>
    8a8c:	ee1f3f3c 	mrc	15, 0, r3, cr15, cr12, {1}
    8a90:	e0643003 	rsb	r3, r4, r3
    8a94:	e1550003 	cmp	r5, r3
    8a98:	8afffffb 	bhi	8a8c <sw_uart_putc+0x140>
    8a9c:	e8bd81f0 	pop	{r4, r5, r6, r7, r8, pc}

00008aa0 <sw_uart_getc_timeout>:
    8aa0:	e92d43f8 	push	{r3, r4, r5, r6, r7, r8, r9, lr}
    8aa4:	e1a09000 	mov	r9, r0
    8aa8:	e5d07001 	ldrb	r7, [r0, #1]
    8aac:	e1a05007 	mov	r5, r7
    8ab0:	e1a06001 	mov	r6, r1
    8ab4:	ebffff89 	bl	88e0 <timer_get_usec_raw>
    8ab8:	e1a04000 	mov	r4, r0
    8abc:	e1a00005 	mov	r0, r5
    8ac0:	eb00021c 	bl	9338 <gpio_read>
    8ac4:	e3500000 	cmp	r0, #0
    8ac8:	0a000005 	beq	8ae4 <sw_uart_getc_timeout+0x44>
    8acc:	ebffff83 	bl	88e0 <timer_get_usec_raw>
    8ad0:	e0640000 	rsb	r0, r4, r0
    8ad4:	e1560000 	cmp	r6, r0
    8ad8:	2afffff7 	bcs	8abc <sw_uart_getc_timeout+0x1c>
    8adc:	e3a03000 	mov	r3, #0
    8ae0:	ea000000 	b	8ae8 <sw_uart_getc_timeout+0x48>
    8ae4:	e3a03001 	mov	r3, #1
    8ae8:	e3530000 	cmp	r3, #0
    8aec:	0a000059 	beq	8c58 <sw_uart_getc_timeout+0x1b8>
    8af0:	ee1f8f3c 	mrc	15, 0, r8, cr15, cr12, {1}
    8af4:	e5994008 	ldr	r4, [r9, #8]
    8af8:	e08420a4 	add	r2, r4, r4, lsr #1
    8afc:	ee1f3f3c 	mrc	15, 0, r3, cr15, cr12, {1}
    8b00:	e0683003 	rsb	r3, r8, r3
    8b04:	e1520003 	cmp	r2, r3
    8b08:	8afffffb 	bhi	8afc <sw_uart_getc_timeout+0x5c>
    8b0c:	e0888004 	add	r8, r8, r4
    8b10:	e1a00007 	mov	r0, r7
    8b14:	eb000207 	bl	9338 <gpio_read>
    8b18:	e1a09750 	asr	r9, r0, r7
    8b1c:	ee1f3f3c 	mrc	15, 0, r3, cr15, cr12, {1}
    8b20:	e0683003 	rsb	r3, r8, r3
    8b24:	e1540003 	cmp	r4, r3
    8b28:	8afffffb 	bhi	8b1c <sw_uart_getc_timeout+0x7c>
    8b2c:	e0888004 	add	r8, r8, r4
    8b30:	e1a00007 	mov	r0, r7
    8b34:	eb0001ff 	bl	9338 <gpio_read>
    8b38:	e1a00750 	asr	r0, r0, r7
    8b3c:	e1899080 	orr	r9, r9, r0, lsl #1
    8b40:	ee1f3f3c 	mrc	15, 0, r3, cr15, cr12, {1}
    8b44:	e0683003 	rsb	r3, r8, r3
    8b48:	e1540003 	cmp	r4, r3
    8b4c:	8afffffb 	bhi	8b40 <sw_uart_getc_timeout+0xa0>
    8b50:	e0888004 	add	r8, r8, r4
    8b54:	e1a00007 	mov	r0, r7
    8b58:	eb0001f6 	bl	9338 <gpio_read>
    8b5c:	e1a00750 	asr	r0, r0, r7
    8b60:	e1899100 	orr	r9, r9, r0, lsl #2
    8b64:	ee1f3f3c 	mrc	15, 0, r3, cr15, cr12, {1}
    8b68:	e0683003 	rsb	r3, r8, r3
    8b6c:	e1540003 	cmp	r4, r3
    8b70:	8afffffb 	bhi	8b64 <sw_uart_getc_timeout+0xc4>
    8b74:	e0888004 	add	r8, r8, r4
    8b78:	e1a00007 	mov	r0, r7
    8b7c:	eb0001ed 	bl	9338 <gpio_read>
    8b80:	e1a00750 	asr	r0, r0, r7
    8b84:	e1899180 	orr	r9, r9, r0, lsl #3
    8b88:	ee1f3f3c 	mrc	15, 0, r3, cr15, cr12, {1}
    8b8c:	e0683003 	rsb	r3, r8, r3
    8b90:	e1540003 	cmp	r4, r3
    8b94:	8afffffb 	bhi	8b88 <sw_uart_getc_timeout+0xe8>
    8b98:	e0888004 	add	r8, r8, r4
    8b9c:	e1a00007 	mov	r0, r7
    8ba0:	eb0001e4 	bl	9338 <gpio_read>
    8ba4:	e1a00750 	asr	r0, r0, r7
    8ba8:	e1899200 	orr	r9, r9, r0, lsl #4
    8bac:	ee1f3f3c 	mrc	15, 0, r3, cr15, cr12, {1}
    8bb0:	e0683003 	rsb	r3, r8, r3
    8bb4:	e1540003 	cmp	r4, r3
    8bb8:	8afffffb 	bhi	8bac <sw_uart_getc_timeout+0x10c>
    8bbc:	e0888004 	add	r8, r8, r4
    8bc0:	e1a00007 	mov	r0, r7
    8bc4:	eb0001db 	bl	9338 <gpio_read>
    8bc8:	e1a00750 	asr	r0, r0, r7
    8bcc:	e1899280 	orr	r9, r9, r0, lsl #5
    8bd0:	ee1f3f3c 	mrc	15, 0, r3, cr15, cr12, {1}
    8bd4:	e0683003 	rsb	r3, r8, r3
    8bd8:	e1540003 	cmp	r4, r3
    8bdc:	8afffffb 	bhi	8bd0 <sw_uart_getc_timeout+0x130>
    8be0:	e0888004 	add	r8, r8, r4
    8be4:	e1a00007 	mov	r0, r7
    8be8:	eb0001d2 	bl	9338 <gpio_read>
    8bec:	e1a00750 	asr	r0, r0, r7
    8bf0:	e1899300 	orr	r9, r9, r0, lsl #6
    8bf4:	ee1f3f3c 	mrc	15, 0, r3, cr15, cr12, {1}
    8bf8:	e0683003 	rsb	r3, r8, r3
    8bfc:	e1540003 	cmp	r4, r3
    8c00:	8afffffb 	bhi	8bf4 <sw_uart_getc_timeout+0x154>
    8c04:	e1a00007 	mov	r0, r7
    8c08:	eb0001ca 	bl	9338 <gpio_read>
    8c0c:	e1a00750 	asr	r0, r0, r7
    8c10:	e1899380 	orr	r9, r9, r0, lsl #7
    8c14:	ebffff31 	bl	88e0 <timer_get_usec_raw>
    8c18:	e1a04000 	mov	r4, r0
    8c1c:	e1a00005 	mov	r0, r5
    8c20:	eb0001c4 	bl	9338 <gpio_read>
    8c24:	e3500000 	cmp	r0, #0
    8c28:	0a000005 	beq	8c44 <sw_uart_getc_timeout+0x1a4>
    8c2c:	ebffff2b 	bl	88e0 <timer_get_usec_raw>
    8c30:	e0640000 	rsb	r0, r4, r0
    8c34:	e1560000 	cmp	r6, r0
    8c38:	2afffff7 	bcs	8c1c <sw_uart_getc_timeout+0x17c>
    8c3c:	e3a03000 	mov	r3, #0
    8c40:	ea000000 	b	8c48 <sw_uart_getc_timeout+0x1a8>
    8c44:	e3a03001 	mov	r3, #1
    8c48:	e3530000 	cmp	r3, #0
    8c4c:	0a000003 	beq	8c60 <sw_uart_getc_timeout+0x1c0>
    8c50:	e1a00009 	mov	r0, r9
    8c54:	e8bd83f8 	pop	{r3, r4, r5, r6, r7, r8, r9, pc}
    8c58:	e3e00000 	mvn	r0, #0
    8c5c:	e8bd83f8 	pop	{r3, r4, r5, r6, r7, r8, r9, pc}
    8c60:	e3e00000 	mvn	r0, #0
    8c64:	e8bd83f8 	pop	{r3, r4, r5, r6, r7, r8, r9, pc}

00008c68 <sw_uart_gets_until>:
    8c68:	e92d47f0 	push	{r4, r5, r6, r7, r8, r9, sl, lr}
    8c6c:	e1a08000 	mov	r8, r0
    8c70:	e1a06001 	mov	r6, r1
    8c74:	e1a09003 	mov	r9, r3
    8c78:	e59da020 	ldr	sl, [sp, #32]
    8c7c:	e3520000 	cmp	r2, #0
    8c80:	1a000006 	bne	8ca0 <sw_uart_gets_until+0x38>
    8c84:	ebfffd66 	bl	8224 <rpi_reset_putc>
    8c88:	e59f005c 	ldr	r0, [pc, #92]	; 8cec <sw_uart_gets_until+0x84>
    8c8c:	e59f105c 	ldr	r1, [pc, #92]	; 8cf0 <sw_uart_gets_until+0x88>
    8c90:	e59f205c 	ldr	r2, [pc, #92]	; 8cf4 <sw_uart_gets_until+0x8c>
    8c94:	e3a0306d 	mov	r3, #109	; 0x6d
    8c98:	ebfffd46 	bl	81b8 <printk>
    8c9c:	ebfffeb5 	bl	8778 <clean_reboot>
    8ca0:	e3a04000 	mov	r4, #0
    8ca4:	e5c14000 	strb	r4, [r1]
    8ca8:	e2427001 	sub	r7, r2, #1
    8cac:	ea000007 	b	8cd0 <sw_uart_gets_until+0x68>
    8cb0:	e1a00008 	mov	r0, r8
    8cb4:	e1a0100a 	mov	r1, sl
    8cb8:	ebffff78 	bl	8aa0 <sw_uart_getc_timeout>
    8cbc:	e6ef0070 	uxtb	r0, r0
    8cc0:	e1500009 	cmp	r0, r9
    8cc4:	0a000004 	beq	8cdc <sw_uart_gets_until+0x74>
    8cc8:	e7c60005 	strb	r0, [r6, r5]
    8ccc:	e2844001 	add	r4, r4, #1
    8cd0:	e1a05004 	mov	r5, r4
    8cd4:	e1540007 	cmp	r4, r7
    8cd8:	3afffff4 	bcc	8cb0 <sw_uart_gets_until+0x48>
    8cdc:	e3a03000 	mov	r3, #0
    8ce0:	e7c63005 	strb	r3, [r6, r5]
    8ce4:	e1a00004 	mov	r0, r4
    8ce8:	e8bd87f0 	pop	{r4, r5, r6, r7, r8, r9, sl, pc}
    8cec:	00009e50 	andeq	r9, r0, r0, asr lr
    8cf0:	00009e6c 	andeq	r9, r0, ip, ror #28
    8cf4:	00009dd8 	ldrdeq	r9, [r0], -r8

00008cf8 <sw_uart_gets_timeout>:
    8cf8:	e92d41f0 	push	{r4, r5, r6, r7, r8, lr}
    8cfc:	e1a07000 	mov	r7, r0
    8d00:	e1a05001 	mov	r5, r1
    8d04:	e1a08003 	mov	r8, r3
    8d08:	e3520000 	cmp	r2, #0
    8d0c:	1a000006 	bne	8d2c <sw_uart_gets_timeout+0x34>
    8d10:	ebfffd43 	bl	8224 <rpi_reset_putc>
    8d14:	e59f004c 	ldr	r0, [pc, #76]	; 8d68 <sw_uart_gets_timeout+0x70>
    8d18:	e59f104c 	ldr	r1, [pc, #76]	; 8d6c <sw_uart_gets_timeout+0x74>
    8d1c:	e59f204c 	ldr	r2, [pc, #76]	; 8d70 <sw_uart_gets_timeout+0x78>
    8d20:	e3a03083 	mov	r3, #131	; 0x83
    8d24:	ebfffd23 	bl	81b8 <printk>
    8d28:	ebfffe92 	bl	8778 <clean_reboot>
    8d2c:	e3a04000 	mov	r4, #0
    8d30:	e5c14000 	strb	r4, [r1]
    8d34:	e2426001 	sub	r6, r2, #1
    8d38:	ea000004 	b	8d50 <sw_uart_gets_timeout+0x58>
    8d3c:	e1a00007 	mov	r0, r7
    8d40:	e1a01008 	mov	r1, r8
    8d44:	ebffff55 	bl	8aa0 <sw_uart_getc_timeout>
    8d48:	e7c50004 	strb	r0, [r5, r4]
    8d4c:	e2844001 	add	r4, r4, #1
    8d50:	e1540006 	cmp	r4, r6
    8d54:	3afffff8 	bcc	8d3c <sw_uart_gets_timeout+0x44>
    8d58:	e3a03000 	mov	r3, #0
    8d5c:	e7c53004 	strb	r3, [r5, r4]
    8d60:	e1a00004 	mov	r0, r4
    8d64:	e8bd81f0 	pop	{r4, r5, r6, r7, r8, pc}
    8d68:	00009e50 	andeq	r9, r0, r0, asr lr
    8d6c:	00009e6c 	andeq	r9, r0, ip, ror #28
    8d70:	00009dec 	andeq	r9, r0, ip, ror #27

00008d74 <sw_uart_init_helper>:
    8d74:	e92d41f0 	push	{r4, r5, r6, r7, r8, lr}
    8d78:	e1a04000 	mov	r4, r0
    8d7c:	e1a06001 	mov	r6, r1
    8d80:	e1a08002 	mov	r8, r2
    8d84:	e1a05003 	mov	r5, r3
    8d88:	e59d7018 	ldr	r7, [sp, #24]
    8d8c:	e1a00001 	mov	r0, r1
    8d90:	eb0000e4 	bl	9128 <gpio_set_output>
    8d94:	e1a00008 	mov	r0, r8
    8d98:	eb000133 	bl	926c <gpio_set_input>
    8d9c:	e3a03001 	mov	r3, #1
    8da0:	ee0f3f1c 	mcr	15, 0, r3, cr15, cr12, {0}
    8da4:	e1a00006 	mov	r0, r6
    8da8:	e3a01001 	mov	r1, #1
    8dac:	eb000174 	bl	9384 <gpio_write>
    8db0:	e0020795 	mul	r2, r5, r7
    8db4:	e59f3068 	ldr	r3, [pc, #104]	; 8e24 <sw_uart_init_helper+0xb0>
    8db8:	e0653003 	rsb	r3, r5, r3
    8dbc:	e1530002 	cmp	r3, r2
    8dc0:	8a000005 	bhi	8ddc <sw_uart_init_helper+0x68>
    8dc4:	e59f3058 	ldr	r3, [pc, #88]	; 8e24 <sw_uart_init_helper+0xb0>
    8dc8:	e0853003 	add	r3, r5, r3
    8dcc:	e1530002 	cmp	r3, r2
    8dd0:	2a000003 	bcs	8de4 <sw_uart_init_helper+0x70>
    8dd4:	e3a03000 	mov	r3, #0
    8dd8:	ea000002 	b	8de8 <sw_uart_init_helper+0x74>
    8ddc:	e3a03000 	mov	r3, #0
    8de0:	ea000000 	b	8de8 <sw_uart_init_helper+0x74>
    8de4:	e3a03001 	mov	r3, #1
    8de8:	e3530000 	cmp	r3, #0
    8dec:	1a000006 	bne	8e0c <sw_uart_init_helper+0x98>
    8df0:	ebfffd0b 	bl	8224 <rpi_reset_putc>
    8df4:	e59f002c 	ldr	r0, [pc, #44]	; 8e28 <sw_uart_init_helper+0xb4>
    8df8:	e59f102c 	ldr	r1, [pc, #44]	; 8e2c <sw_uart_init_helper+0xb8>
    8dfc:	e59f202c 	ldr	r2, [pc, #44]	; 8e30 <sw_uart_init_helper+0xbc>
    8e00:	e3a0309d 	mov	r3, #157	; 0x9d
    8e04:	ebfffceb 	bl	81b8 <printk>
    8e08:	ebfffe5a 	bl	8778 <clean_reboot>
    8e0c:	e5c46000 	strb	r6, [r4]
    8e10:	e5c48001 	strb	r8, [r4, #1]
    8e14:	e5845004 	str	r5, [r4, #4]
    8e18:	e5847008 	str	r7, [r4, #8]
    8e1c:	e1a00004 	mov	r0, r4
    8e20:	e8bd81f0 	pop	{r4, r5, r6, r7, r8, pc}
    8e24:	29b92700 	ldmibcs	r9!, {r8, r9, sl, sp}
    8e28:	00009e80 	andeq	r9, r0, r0, lsl #29
    8e2c:	00009e6c 	andeq	r9, r0, ip, ror #28
    8e30:	00009e04 	andeq	r9, r0, r4, lsl #28

00008e34 <sw_uart_getc>:
    8e34:	e92d4008 	push	{r3, lr}
    8e38:	e3e01000 	mvn	r1, #0
    8e3c:	ebffff17 	bl	8aa0 <sw_uart_getc_timeout>
    8e40:	e3500000 	cmp	r0, #0
    8e44:	a8bd8008 	popge	{r3, pc}
    8e48:	ebfffcf5 	bl	8224 <rpi_reset_putc>
    8e4c:	e59f0010 	ldr	r0, [pc, #16]	; 8e64 <sw_uart_getc+0x30>
    8e50:	e59f1010 	ldr	r1, [pc, #16]	; 8e68 <sw_uart_getc+0x34>
    8e54:	e59f2010 	ldr	r2, [pc, #16]	; 8e6c <sw_uart_getc+0x38>
    8e58:	e3a030ac 	mov	r3, #172	; 0xac
    8e5c:	ebfffcd5 	bl	81b8 <printk>
    8e60:	ebfffe44 	bl	8778 <clean_reboot>
    8e64:	00009ec4 	andeq	r9, r0, r4, asr #29
    8e68:	00009e6c 	andeq	r9, r0, ip, ror #28
    8e6c:	00009e18 	andeq	r9, r0, r8, lsl lr

00008e70 <sw_uart_putk>:
    8e70:	e92d4038 	push	{r3, r4, r5, lr}
    8e74:	e1a05000 	mov	r5, r0
    8e78:	e1a04001 	mov	r4, r1
    8e7c:	ea000002 	b	8e8c <sw_uart_putk+0x1c>
    8e80:	e1a00005 	mov	r0, r5
    8e84:	ebfffeb0 	bl	894c <sw_uart_putc>
    8e88:	e2844001 	add	r4, r4, #1
    8e8c:	e5d41000 	ldrb	r1, [r4]
    8e90:	e3510000 	cmp	r1, #0
    8e94:	1afffff9 	bne	8e80 <sw_uart_putk+0x10>
    8e98:	e8bd8038 	pop	{r3, r4, r5, pc}

00008e9c <sw_uart_printk>:
    8e9c:	e92d000e 	push	{r1, r2, r3}
    8ea0:	e92d4030 	push	{r4, r5, lr}
    8ea4:	e24dde1d 	sub	sp, sp, #464	; 0x1d0
    8ea8:	e1a05000 	mov	r5, r0
    8eac:	e28d3e1e 	add	r3, sp, #480	; 0x1e0
    8eb0:	e58d3000 	str	r3, [sp]
    8eb4:	e28d0004 	add	r0, sp, #4
    8eb8:	e3a01f73 	mov	r1, #460	; 0x1cc
    8ebc:	e59d21dc 	ldr	r2, [sp, #476]	; 0x1dc
    8ec0:	ebfffd8a 	bl	84f0 <va_printk>
    8ec4:	e1a04000 	mov	r4, r0
    8ec8:	e59f3040 	ldr	r3, [pc, #64]	; 8f10 <sw_uart_printk+0x74>
    8ecc:	e1500003 	cmp	r0, r3
    8ed0:	9a000006 	bls	8ef0 <sw_uart_printk+0x54>
    8ed4:	ebfffcd2 	bl	8224 <rpi_reset_putc>
    8ed8:	e59f0034 	ldr	r0, [pc, #52]	; 8f14 <sw_uart_printk+0x78>
    8edc:	e59f1034 	ldr	r1, [pc, #52]	; 8f18 <sw_uart_printk+0x7c>
    8ee0:	e59f2034 	ldr	r2, [pc, #52]	; 8f1c <sw_uart_printk+0x80>
    8ee4:	e3a030c0 	mov	r3, #192	; 0xc0
    8ee8:	ebfffcb2 	bl	81b8 <printk>
    8eec:	ebfffe21 	bl	8778 <clean_reboot>
    8ef0:	e1a00005 	mov	r0, r5
    8ef4:	e28d1004 	add	r1, sp, #4
    8ef8:	ebffffdc 	bl	8e70 <sw_uart_putk>
    8efc:	e1a00004 	mov	r0, r4
    8f00:	e28dde1d 	add	sp, sp, #464	; 0x1d0
    8f04:	e8bd4030 	pop	{r4, r5, lr}
    8f08:	e28dd00c 	add	sp, sp, #12
    8f0c:	e12fff1e 	bx	lr
    8f10:	000001ca 	andeq	r0, r0, sl, asr #3
    8f14:	00009efc 	strdeq	r9, [r0], -ip
    8f18:	00009e6c 	andeq	r9, r0, ip, ror #28
    8f1c:	00009e28 	andeq	r9, r0, r8, lsr #28

00008f20 <sw_uart_gets_until_blk>:
    8f20:	e52de004 	push	{lr}		; (str lr, [sp, #-4]!)
    8f24:	e24dd00c 	sub	sp, sp, #12
    8f28:	e3e0c000 	mvn	ip, #0
    8f2c:	e58dc000 	str	ip, [sp]
    8f30:	ebffff4c 	bl	8c68 <sw_uart_gets_until>
    8f34:	e3500000 	cmp	r0, #0
    8f38:	aa000006 	bge	8f58 <sw_uart_gets_until_blk+0x38>
    8f3c:	ebfffcb8 	bl	8224 <rpi_reset_putc>
    8f40:	e59f0018 	ldr	r0, [pc, #24]	; 8f60 <sw_uart_gets_until_blk+0x40>
    8f44:	e59f1018 	ldr	r1, [pc, #24]	; 8f64 <sw_uart_gets_until_blk+0x44>
    8f48:	e59f2018 	ldr	r2, [pc, #24]	; 8f68 <sw_uart_gets_until_blk+0x48>
    8f4c:	e3a030c8 	mov	r3, #200	; 0xc8
    8f50:	ebfffc98 	bl	81b8 <printk>
    8f54:	ebfffe07 	bl	8778 <clean_reboot>
    8f58:	e28dd00c 	add	sp, sp, #12
    8f5c:	e49df004 	pop	{pc}		; (ldr pc, [sp], #4)
    8f60:	00009ec4 	andeq	r9, r0, r4, asr #29
    8f64:	00009e6c 	andeq	r9, r0, ip, ror #28
    8f68:	00009e38 	andeq	r9, r0, r8, lsr lr

00008f6c <uart_init>:
    8f6c:	e92d4038 	push	{r3, r4, r5, lr}
    8f70:	eb000053 	bl	90c4 <dev_barrier>
    8f74:	e3a0000e 	mov	r0, #14
    8f78:	e3a01002 	mov	r1, #2
    8f7c:	eb00011e 	bl	93fc <gpio_set_function>
    8f80:	e3a0000f 	mov	r0, #15
    8f84:	e3a01002 	mov	r1, #2
    8f88:	eb00011b 	bl	93fc <gpio_set_function>
    8f8c:	eb00004c 	bl	90c4 <dev_barrier>
    8f90:	e59f4068 	ldr	r4, [pc, #104]	; 9000 <uart_init+0x94>
    8f94:	e5945000 	ldr	r5, [r4]
    8f98:	e1a00005 	mov	r0, r5
    8f9c:	eb00005a 	bl	910c <get32>
    8fa0:	e3801001 	orr	r1, r0, #1
    8fa4:	e1a00005 	mov	r0, r5
    8fa8:	eb00004b 	bl	90dc <put32>
    8fac:	eb000044 	bl	90c4 <dev_barrier>
    8fb0:	e5940004 	ldr	r0, [r4, #4]
    8fb4:	e3a01000 	mov	r1, #0
    8fb8:	eb000047 	bl	90dc <put32>
    8fbc:	e5940008 	ldr	r0, [r4, #8]
    8fc0:	e3a01000 	mov	r1, #0
    8fc4:	eb000044 	bl	90dc <put32>
    8fc8:	e594000c 	ldr	r0, [r4, #12]
    8fcc:	e3a01006 	mov	r1, #6
    8fd0:	eb000041 	bl	90dc <put32>
    8fd4:	e5940010 	ldr	r0, [r4, #16]
    8fd8:	e3a01003 	mov	r1, #3
    8fdc:	eb00003e 	bl	90dc <put32>
    8fe0:	e5940014 	ldr	r0, [r4, #20]
    8fe4:	e59f1018 	ldr	r1, [pc, #24]	; 9004 <uart_init+0x98>
    8fe8:	eb00003b 	bl	90dc <put32>
    8fec:	e5940004 	ldr	r0, [r4, #4]
    8ff0:	e3a01003 	mov	r1, #3
    8ff4:	eb000038 	bl	90dc <put32>
    8ff8:	eb000031 	bl	90c4 <dev_barrier>
    8ffc:	e8bd8038 	pop	{r3, r4, r5, pc}
    9000:	0000975c 	andeq	r9, r0, ip, asr r7
    9004:	0000010e 	andeq	r0, r0, lr, lsl #2

00009008 <uart_can_getc>:
    9008:	e92d4008 	push	{r3, lr}
    900c:	e59f300c 	ldr	r3, [pc, #12]	; 9020 <uart_can_getc+0x18>
    9010:	e5930018 	ldr	r0, [r3, #24]
    9014:	eb00003c 	bl	910c <get32>
    9018:	e2000001 	and	r0, r0, #1
    901c:	e8bd8008 	pop	{r3, pc}
    9020:	0000975c 	andeq	r9, r0, ip, asr r7

00009024 <uart_getc>:
    9024:	e92d4008 	push	{r3, lr}
    9028:	ebfffff6 	bl	9008 <uart_can_getc>
    902c:	e3500000 	cmp	r0, #0
    9030:	0afffffc 	beq	9028 <uart_getc+0x4>
    9034:	e59f300c 	ldr	r3, [pc, #12]	; 9048 <uart_getc+0x24>
    9038:	e593001c 	ldr	r0, [r3, #28]
    903c:	eb000032 	bl	910c <get32>
    9040:	e6ef0070 	uxtb	r0, r0
    9044:	e8bd8008 	pop	{r3, pc}
    9048:	0000975c 	andeq	r9, r0, ip, asr r7

0000904c <uart_can_putc>:
    904c:	e92d4008 	push	{r3, lr}
    9050:	e59f300c 	ldr	r3, [pc, #12]	; 9064 <uart_can_putc+0x18>
    9054:	e5930018 	ldr	r0, [r3, #24]
    9058:	eb00002b 	bl	910c <get32>
    905c:	e2000020 	and	r0, r0, #32
    9060:	e8bd8008 	pop	{r3, pc}
    9064:	0000975c 	andeq	r9, r0, ip, asr r7

00009068 <uart_putc>:
    9068:	e92d4010 	push	{r4, lr}
    906c:	e1a04000 	mov	r4, r0
    9070:	ebfffff5 	bl	904c <uart_can_putc>
    9074:	e3500000 	cmp	r0, #0
    9078:	0afffffc 	beq	9070 <uart_putc+0x8>
    907c:	e59f300c 	ldr	r3, [pc, #12]	; 9090 <uart_putc+0x28>
    9080:	e593001c 	ldr	r0, [r3, #28]
    9084:	e1a01004 	mov	r1, r4
    9088:	eb000013 	bl	90dc <put32>
    908c:	e8bd8010 	pop	{r4, pc}
    9090:	0000975c 	andeq	r9, r0, ip, asr r7

00009094 <uart_has_data>:
    9094:	e92d4008 	push	{r3, lr}
    9098:	ebffffda 	bl	9008 <uart_can_getc>
    909c:	e8bd8008 	pop	{r3, pc}

000090a0 <uart_getc_async>:
    90a0:	e92d4008 	push	{r3, lr}
    90a4:	ebfffffa 	bl	9094 <uart_has_data>
    90a8:	e3500000 	cmp	r0, #0
    90ac:	0a000001 	beq	90b8 <uart_getc_async+0x18>
    90b0:	ebffffdb 	bl	9024 <uart_getc>
    90b4:	e8bd8008 	pop	{r3, pc}
    90b8:	e3e00000 	mvn	r0, #0
    90bc:	e8bd8008 	pop	{r3, pc}

000090c0 <BRANCHTO>:
    90c0:	e12fff10 	bx	r0

000090c4 <dev_barrier>:
    90c4:	ea000002 	b	90d4 <dsb>

000090c8 <dmb>:
    90c8:	e3a00000 	mov	r0, #0
    90cc:	ee070fba 	mcr	15, 0, r0, cr7, cr10, {5}
    90d0:	e12fff1e 	bx	lr

000090d4 <dsb>:
    90d4:	ee070f9a 	mcr	15, 0, r0, cr7, cr10, {4}
    90d8:	e12fff1e 	bx	lr

000090dc <put32>:
    90dc:	e5801000 	str	r1, [r0]
    90e0:	e12fff1e 	bx	lr

000090e4 <PUT32>:
    90e4:	e5801000 	str	r1, [r0]
    90e8:	e12fff1e 	bx	lr

000090ec <put16>:
    90ec:	e1c010b0 	strh	r1, [r0]
    90f0:	e12fff1e 	bx	lr

000090f4 <PUT16>:
    90f4:	e1c010b0 	strh	r1, [r0]
    90f8:	e12fff1e 	bx	lr

000090fc <put8>:
    90fc:	e5c01000 	strb	r1, [r0]
    9100:	e12fff1e 	bx	lr

00009104 <PUT8>:
    9104:	e5c01000 	strb	r1, [r0]
    9108:	e12fff1e 	bx	lr

0000910c <get32>:
    910c:	e5900000 	ldr	r0, [r0]
    9110:	e12fff1e 	bx	lr

00009114 <GET32>:
    9114:	e5900000 	ldr	r0, [r0]
    9118:	e12fff1e 	bx	lr

0000911c <GETPC>:
    911c:	e1a0000e 	mov	r0, lr
    9120:	e12fff1e 	bx	lr

00009124 <dummy>:
    9124:	e12fff1e 	bx	lr

00009128 <gpio_set_output>:
    9128:	e92d4038 	push	{r3, r4, r5, lr}
    912c:	e1a04000 	mov	r4, r0
    9130:	e350001f 	cmp	r0, #31
    9134:	88bd8038 	pophi	{r3, r4, r5, pc}
    9138:	e59f30b4 	ldr	r3, [pc, #180]	; 91f4 <gpio_set_output+0xcc>
    913c:	e0832093 	umull	r2, r3, r3, r0
    9140:	e1a031a3 	lsr	r3, r3, #3
    9144:	e3530005 	cmp	r3, #5
    9148:	979ff103 	ldrls	pc, [pc, r3, lsl #2]
    914c:	ea000017 	b	91b0 <gpio_set_output+0x88>
    9150:	00009168 	andeq	r9, r0, r8, ror #2
    9154:	00009174 	andeq	r9, r0, r4, ror r1
    9158:	00009180 	andeq	r9, r0, r0, lsl #3
    915c:	0000918c 	andeq	r9, r0, ip, lsl #3
    9160:	00009198 	muleq	r0, r8, r1
    9164:	000091a4 	andeq	r9, r0, r4, lsr #3
    9168:	e59f3088 	ldr	r3, [pc, #136]	; 91f8 <gpio_set_output+0xd0>
    916c:	e5935000 	ldr	r5, [r3]
    9170:	ea00000f 	b	91b4 <gpio_set_output+0x8c>
    9174:	e59f307c 	ldr	r3, [pc, #124]	; 91f8 <gpio_set_output+0xd0>
    9178:	e5935004 	ldr	r5, [r3, #4]
    917c:	ea00000c 	b	91b4 <gpio_set_output+0x8c>
    9180:	e59f3070 	ldr	r3, [pc, #112]	; 91f8 <gpio_set_output+0xd0>
    9184:	e5935008 	ldr	r5, [r3, #8]
    9188:	ea000009 	b	91b4 <gpio_set_output+0x8c>
    918c:	e59f3064 	ldr	r3, [pc, #100]	; 91f8 <gpio_set_output+0xd0>
    9190:	e593500c 	ldr	r5, [r3, #12]
    9194:	ea000006 	b	91b4 <gpio_set_output+0x8c>
    9198:	e59f3058 	ldr	r3, [pc, #88]	; 91f8 <gpio_set_output+0xd0>
    919c:	e5935010 	ldr	r5, [r3, #16]
    91a0:	ea000003 	b	91b4 <gpio_set_output+0x8c>
    91a4:	e59f304c 	ldr	r3, [pc, #76]	; 91f8 <gpio_set_output+0xd0>
    91a8:	e5935014 	ldr	r5, [r3, #20]
    91ac:	ea000000 	b	91b4 <gpio_set_output+0x8c>
    91b0:	e3a05000 	mov	r5, #0
    91b4:	e1a00005 	mov	r0, r5
    91b8:	ebffffd3 	bl	910c <get32>
    91bc:	e59f1030 	ldr	r1, [pc, #48]	; 91f4 <gpio_set_output+0xcc>
    91c0:	e0813491 	umull	r3, r1, r1, r4
    91c4:	e1a011a1 	lsr	r1, r1, #3
    91c8:	e0811101 	add	r1, r1, r1, lsl #2
    91cc:	e1a01081 	lsl	r1, r1, #1
    91d0:	e0611004 	rsb	r1, r1, r4
    91d4:	e0811081 	add	r1, r1, r1, lsl #1
    91d8:	e3a03007 	mov	r3, #7
    91dc:	e1c03113 	bic	r3, r0, r3, lsl r1
    91e0:	e1a00005 	mov	r0, r5
    91e4:	e3a02001 	mov	r2, #1
    91e8:	e1831112 	orr	r1, r3, r2, lsl r1
    91ec:	ebffffba 	bl	90dc <put32>
    91f0:	e8bd8038 	pop	{r3, r4, r5, pc}
    91f4:	cccccccd 	stclgt	12, cr12, [ip], {205}	; 0xcd
    91f8:	00009790 	muleq	r0, r0, r7

000091fc <gpio_set_on>:
    91fc:	e92d4008 	push	{r3, lr}
    9200:	e350001f 	cmp	r0, #31
    9204:	88bd8008 	pophi	{r3, pc}
    9208:	959f3020 	ldrls	r3, [pc, #32]	; 9230 <gpio_set_on+0x34>
    920c:	95932018 	ldrls	r2, [r3, #24]
    9210:	859f3018 	ldrhi	r3, [pc, #24]	; 9230 <gpio_set_on+0x34>
    9214:	8593201c 	ldrhi	r2, [r3, #28]
    9218:	e200301f 	and	r3, r0, #31
    921c:	e1a00002 	mov	r0, r2
    9220:	e3a01001 	mov	r1, #1
    9224:	e1a01311 	lsl	r1, r1, r3
    9228:	ebffffab 	bl	90dc <put32>
    922c:	e8bd8008 	pop	{r3, pc}
    9230:	00009790 	muleq	r0, r0, r7

00009234 <gpio_set_off>:
    9234:	e92d4008 	push	{r3, lr}
    9238:	e350001f 	cmp	r0, #31
    923c:	88bd8008 	pophi	{r3, pc}
    9240:	959f3020 	ldrls	r3, [pc, #32]	; 9268 <gpio_set_off+0x34>
    9244:	95932020 	ldrls	r2, [r3, #32]
    9248:	859f3018 	ldrhi	r3, [pc, #24]	; 9268 <gpio_set_off+0x34>
    924c:	85932024 	ldrhi	r2, [r3, #36]	; 0x24
    9250:	e200301f 	and	r3, r0, #31
    9254:	e1a00002 	mov	r0, r2
    9258:	e3a01001 	mov	r1, #1
    925c:	e1a01311 	lsl	r1, r1, r3
    9260:	ebffff9d 	bl	90dc <put32>
    9264:	e8bd8008 	pop	{r3, pc}
    9268:	00009790 	muleq	r0, r0, r7

0000926c <gpio_set_input>:
    926c:	e92d4038 	push	{r3, r4, r5, lr}
    9270:	e1a04000 	mov	r4, r0
    9274:	e350001f 	cmp	r0, #31
    9278:	88bd8038 	pophi	{r3, r4, r5, pc}
    927c:	e59f30ac 	ldr	r3, [pc, #172]	; 9330 <gpio_set_input+0xc4>
    9280:	e0832093 	umull	r2, r3, r3, r0
    9284:	e1a031a3 	lsr	r3, r3, #3
    9288:	e3530005 	cmp	r3, #5
    928c:	979ff103 	ldrls	pc, [pc, r3, lsl #2]
    9290:	ea000017 	b	92f4 <gpio_set_input+0x88>
    9294:	000092ac 	andeq	r9, r0, ip, lsr #5
    9298:	000092b8 			; <UNDEFINED> instruction: 0x000092b8
    929c:	000092c4 	andeq	r9, r0, r4, asr #5
    92a0:	000092d0 	ldrdeq	r9, [r0], -r0
    92a4:	000092dc 	ldrdeq	r9, [r0], -ip
    92a8:	000092e8 	andeq	r9, r0, r8, ror #5
    92ac:	e59f3080 	ldr	r3, [pc, #128]	; 9334 <gpio_set_input+0xc8>
    92b0:	e5935000 	ldr	r5, [r3]
    92b4:	ea00000f 	b	92f8 <gpio_set_input+0x8c>
    92b8:	e59f3074 	ldr	r3, [pc, #116]	; 9334 <gpio_set_input+0xc8>
    92bc:	e5935004 	ldr	r5, [r3, #4]
    92c0:	ea00000c 	b	92f8 <gpio_set_input+0x8c>
    92c4:	e59f3068 	ldr	r3, [pc, #104]	; 9334 <gpio_set_input+0xc8>
    92c8:	e5935008 	ldr	r5, [r3, #8]
    92cc:	ea000009 	b	92f8 <gpio_set_input+0x8c>
    92d0:	e59f305c 	ldr	r3, [pc, #92]	; 9334 <gpio_set_input+0xc8>
    92d4:	e593500c 	ldr	r5, [r3, #12]
    92d8:	ea000006 	b	92f8 <gpio_set_input+0x8c>
    92dc:	e59f3050 	ldr	r3, [pc, #80]	; 9334 <gpio_set_input+0xc8>
    92e0:	e5935010 	ldr	r5, [r3, #16]
    92e4:	ea000003 	b	92f8 <gpio_set_input+0x8c>
    92e8:	e59f3044 	ldr	r3, [pc, #68]	; 9334 <gpio_set_input+0xc8>
    92ec:	e5935014 	ldr	r5, [r3, #20]
    92f0:	ea000000 	b	92f8 <gpio_set_input+0x8c>
    92f4:	e3a05000 	mov	r5, #0
    92f8:	e1a00005 	mov	r0, r5
    92fc:	ebffff82 	bl	910c <get32>
    9300:	e59f1028 	ldr	r1, [pc, #40]	; 9330 <gpio_set_input+0xc4>
    9304:	e0813491 	umull	r3, r1, r1, r4
    9308:	e1a011a1 	lsr	r1, r1, #3
    930c:	e0811101 	add	r1, r1, r1, lsl #2
    9310:	e1a01081 	lsl	r1, r1, #1
    9314:	e0611004 	rsb	r1, r1, r4
    9318:	e0811081 	add	r1, r1, r1, lsl #1
    931c:	e3a03007 	mov	r3, #7
    9320:	e1c01113 	bic	r1, r0, r3, lsl r1
    9324:	e1a00005 	mov	r0, r5
    9328:	ebffff6b 	bl	90dc <put32>
    932c:	e8bd8038 	pop	{r3, r4, r5, pc}
    9330:	cccccccd 	stclgt	12, cr12, [ip], {205}	; 0xcd
    9334:	00009790 	muleq	r0, r0, r7

00009338 <gpio_read>:
    9338:	e92d4010 	push	{r4, lr}
    933c:	e1a04000 	mov	r4, r0
    9340:	e350001f 	cmp	r0, #31
    9344:	8a00000b 	bhi	9378 <gpio_read+0x40>
    9348:	8a000003 	bhi	935c <gpio_read+0x24>
    934c:	e59f302c 	ldr	r3, [pc, #44]	; 9380 <gpio_read+0x48>
    9350:	e5930028 	ldr	r0, [r3, #40]	; 0x28
    9354:	ebffff6c 	bl	910c <get32>
    9358:	ea000002 	b	9368 <gpio_read+0x30>
    935c:	e59f301c 	ldr	r3, [pc, #28]	; 9380 <gpio_read+0x48>
    9360:	e593002c 	ldr	r0, [r3, #44]	; 0x2c
    9364:	ebffff68 	bl	910c <get32>
    9368:	e204401f 	and	r4, r4, #31
    936c:	e3a03001 	mov	r3, #1
    9370:	e0000413 	and	r0, r0, r3, lsl r4
    9374:	e8bd8010 	pop	{r4, pc}
    9378:	e3e00000 	mvn	r0, #0
    937c:	e8bd8010 	pop	{r4, pc}
    9380:	00009790 	muleq	r0, r0, r7

00009384 <gpio_write>:
    9384:	e92d4008 	push	{r3, lr}
    9388:	e350001f 	cmp	r0, #31
    938c:	88bd8008 	pophi	{r3, pc}
    9390:	e3510000 	cmp	r1, #0
    9394:	0a00000b 	beq	93c8 <gpio_write+0x44>
    9398:	e350001f 	cmp	r0, #31
    939c:	88bd8008 	pophi	{r3, pc}
    93a0:	959f3050 	ldrls	r3, [pc, #80]	; 93f8 <gpio_write+0x74>
    93a4:	95932018 	ldrls	r2, [r3, #24]
    93a8:	859f3048 	ldrhi	r3, [pc, #72]	; 93f8 <gpio_write+0x74>
    93ac:	8593201c 	ldrhi	r2, [r3, #28]
    93b0:	e200301f 	and	r3, r0, #31
    93b4:	e1a00002 	mov	r0, r2
    93b8:	e3a01001 	mov	r1, #1
    93bc:	e1a01311 	lsl	r1, r1, r3
    93c0:	ebffff45 	bl	90dc <put32>
    93c4:	e8bd8008 	pop	{r3, pc}
    93c8:	e350001f 	cmp	r0, #31
    93cc:	88bd8008 	pophi	{r3, pc}
    93d0:	959f3020 	ldrls	r3, [pc, #32]	; 93f8 <gpio_write+0x74>
    93d4:	95932020 	ldrls	r2, [r3, #32]
    93d8:	859f3018 	ldrhi	r3, [pc, #24]	; 93f8 <gpio_write+0x74>
    93dc:	85932024 	ldrhi	r2, [r3, #36]	; 0x24
    93e0:	e200301f 	and	r3, r0, #31
    93e4:	e1a00002 	mov	r0, r2
    93e8:	e3a01001 	mov	r1, #1
    93ec:	e1a01311 	lsl	r1, r1, r3
    93f0:	ebffff39 	bl	90dc <put32>
    93f4:	e8bd8008 	pop	{r3, pc}
    93f8:	00009790 	muleq	r0, r0, r7

000093fc <gpio_set_function>:
    93fc:	e92d4070 	push	{r4, r5, r6, lr}
    9400:	e1a04000 	mov	r4, r0
    9404:	e1a05001 	mov	r5, r1
    9408:	e3510007 	cmp	r1, #7
    940c:	9350001f 	cmpls	r0, #31
    9410:	88bd8070 	pophi	{r4, r5, r6, pc}
    9414:	e59f30b0 	ldr	r3, [pc, #176]	; 94cc <gpio_set_function+0xd0>
    9418:	e0832093 	umull	r2, r3, r3, r0
    941c:	e1a031a3 	lsr	r3, r3, #3
    9420:	e3530005 	cmp	r3, #5
    9424:	979ff103 	ldrls	pc, [pc, r3, lsl #2]
    9428:	ea000017 	b	948c <gpio_set_function+0x90>
    942c:	00009444 	andeq	r9, r0, r4, asr #8
    9430:	00009450 	andeq	r9, r0, r0, asr r4
    9434:	0000945c 	andeq	r9, r0, ip, asr r4
    9438:	00009468 	andeq	r9, r0, r8, ror #8
    943c:	00009474 	andeq	r9, r0, r4, ror r4
    9440:	00009480 	andeq	r9, r0, r0, lsl #9
    9444:	e59f3084 	ldr	r3, [pc, #132]	; 94d0 <gpio_set_function+0xd4>
    9448:	e5936000 	ldr	r6, [r3]
    944c:	ea00000f 	b	9490 <gpio_set_function+0x94>
    9450:	e59f3078 	ldr	r3, [pc, #120]	; 94d0 <gpio_set_function+0xd4>
    9454:	e5936004 	ldr	r6, [r3, #4]
    9458:	ea00000c 	b	9490 <gpio_set_function+0x94>
    945c:	e59f306c 	ldr	r3, [pc, #108]	; 94d0 <gpio_set_function+0xd4>
    9460:	e5936008 	ldr	r6, [r3, #8]
    9464:	ea000009 	b	9490 <gpio_set_function+0x94>
    9468:	e59f3060 	ldr	r3, [pc, #96]	; 94d0 <gpio_set_function+0xd4>
    946c:	e593600c 	ldr	r6, [r3, #12]
    9470:	ea000006 	b	9490 <gpio_set_function+0x94>
    9474:	e59f3054 	ldr	r3, [pc, #84]	; 94d0 <gpio_set_function+0xd4>
    9478:	e5936010 	ldr	r6, [r3, #16]
    947c:	ea000003 	b	9490 <gpio_set_function+0x94>
    9480:	e59f3048 	ldr	r3, [pc, #72]	; 94d0 <gpio_set_function+0xd4>
    9484:	e5936014 	ldr	r6, [r3, #20]
    9488:	ea000000 	b	9490 <gpio_set_function+0x94>
    948c:	e3a06000 	mov	r6, #0
    9490:	e1a00006 	mov	r0, r6
    9494:	ebffff1c 	bl	910c <get32>
    9498:	e59f302c 	ldr	r3, [pc, #44]	; 94cc <gpio_set_function+0xd0>
    949c:	e0832493 	umull	r2, r3, r3, r4
    94a0:	e1a031a3 	lsr	r3, r3, #3
    94a4:	e0833103 	add	r3, r3, r3, lsl #2
    94a8:	e1a03083 	lsl	r3, r3, #1
    94ac:	e0633004 	rsb	r3, r3, r4
    94b0:	e0833083 	add	r3, r3, r3, lsl #1
    94b4:	e3a01007 	mov	r1, #7
    94b8:	e1c01311 	bic	r1, r0, r1, lsl r3
    94bc:	e1a00006 	mov	r0, r6
    94c0:	e1811315 	orr	r1, r1, r5, lsl r3
    94c4:	ebffff04 	bl	90dc <put32>
    94c8:	e8bd8070 	pop	{r4, r5, r6, pc}
    94cc:	cccccccd 	stclgt	12, cr12, [ip], {205}	; 0xcd
    94d0:	00009790 	muleq	r0, r0, r7

000094d4 <is_gpio_int>:
    94d4:	e92d4008 	push	{r3, lr}
    94d8:	e59f301c 	ldr	r3, [pc, #28]	; 94fc <is_gpio_int+0x28>
    94dc:	e5930030 	ldr	r0, [r3, #48]	; 0x30
    94e0:	ebffff09 	bl	910c <get32>
    94e4:	e3500000 	cmp	r0, #0
    94e8:	0a000001 	beq	94f4 <is_gpio_int+0x20>
    94ec:	e3a00001 	mov	r0, #1
    94f0:	e8bd8008 	pop	{r3, pc}
    94f4:	e3a00000 	mov	r0, #0
    94f8:	e8bd8008 	pop	{r3, pc}
    94fc:	00009790 	muleq	r0, r0, r7

00009500 <gpio_int_rising_edge>:
    9500:	e92d4038 	push	{r3, r4, r5, lr}
    9504:	e1a04000 	mov	r4, r0
    9508:	e350001f 	cmp	r0, #31
    950c:	88bd8038 	pophi	{r3, r4, r5, pc}
    9510:	ebfffeeb 	bl	90c4 <dev_barrier>
    9514:	e354001f 	cmp	r4, #31
    9518:	8a000007 	bhi	953c <gpio_int_rising_edge+0x3c>
    951c:	e59f505c 	ldr	r5, [pc, #92]	; 9580 <gpio_int_rising_edge+0x80>
    9520:	e5950034 	ldr	r0, [r5, #52]	; 0x34
    9524:	ebfffef8 	bl	910c <get32>
    9528:	e3a01001 	mov	r1, #1
    952c:	e1801411 	orr	r1, r0, r1, lsl r4
    9530:	e5950034 	ldr	r0, [r5, #52]	; 0x34
    9534:	ebfffee8 	bl	90dc <put32>
    9538:	ea000007 	b	955c <gpio_int_rising_edge+0x5c>
    953c:	e59f503c 	ldr	r5, [pc, #60]	; 9580 <gpio_int_rising_edge+0x80>
    9540:	e5950038 	ldr	r0, [r5, #56]	; 0x38
    9544:	ebfffef0 	bl	910c <get32>
    9548:	e204401f 	and	r4, r4, #31
    954c:	e3a01001 	mov	r1, #1
    9550:	e1801411 	orr	r1, r0, r1, lsl r4
    9554:	e5950038 	ldr	r0, [r5, #56]	; 0x38
    9558:	ebfffedf 	bl	90dc <put32>
    955c:	ebfffed8 	bl	90c4 <dev_barrier>
    9560:	e59f4018 	ldr	r4, [pc, #24]	; 9580 <gpio_int_rising_edge+0x80>
    9564:	e594003c 	ldr	r0, [r4, #60]	; 0x3c
    9568:	ebfffee7 	bl	910c <get32>
    956c:	e3801802 	orr	r1, r0, #131072	; 0x20000
    9570:	e594003c 	ldr	r0, [r4, #60]	; 0x3c
    9574:	ebfffed8 	bl	90dc <put32>
    9578:	ebfffed1 	bl	90c4 <dev_barrier>
    957c:	e8bd8038 	pop	{r3, r4, r5, pc}
    9580:	00009790 	muleq	r0, r0, r7

00009584 <gpio_int_falling_edge>:
    9584:	e92d4038 	push	{r3, r4, r5, lr}
    9588:	e1a04000 	mov	r4, r0
    958c:	e350001f 	cmp	r0, #31
    9590:	88bd8038 	pophi	{r3, r4, r5, pc}
    9594:	ebfffeca 	bl	90c4 <dev_barrier>
    9598:	e354001f 	cmp	r4, #31
    959c:	8a000007 	bhi	95c0 <gpio_int_falling_edge+0x3c>
    95a0:	e59f505c 	ldr	r5, [pc, #92]	; 9604 <gpio_int_falling_edge+0x80>
    95a4:	e5950040 	ldr	r0, [r5, #64]	; 0x40
    95a8:	ebfffed7 	bl	910c <get32>
    95ac:	e3a01001 	mov	r1, #1
    95b0:	e1801411 	orr	r1, r0, r1, lsl r4
    95b4:	e5950040 	ldr	r0, [r5, #64]	; 0x40
    95b8:	ebfffec7 	bl	90dc <put32>
    95bc:	ea000007 	b	95e0 <gpio_int_falling_edge+0x5c>
    95c0:	e59f503c 	ldr	r5, [pc, #60]	; 9604 <gpio_int_falling_edge+0x80>
    95c4:	e5950044 	ldr	r0, [r5, #68]	; 0x44
    95c8:	ebfffecf 	bl	910c <get32>
    95cc:	e204401f 	and	r4, r4, #31
    95d0:	e3a01001 	mov	r1, #1
    95d4:	e1801411 	orr	r1, r0, r1, lsl r4
    95d8:	e5950044 	ldr	r0, [r5, #68]	; 0x44
    95dc:	ebfffebe 	bl	90dc <put32>
    95e0:	ebfffeb7 	bl	90c4 <dev_barrier>
    95e4:	e59f4018 	ldr	r4, [pc, #24]	; 9604 <gpio_int_falling_edge+0x80>
    95e8:	e594003c 	ldr	r0, [r4, #60]	; 0x3c
    95ec:	ebfffec6 	bl	910c <get32>
    95f0:	e3801601 	orr	r1, r0, #1048576	; 0x100000
    95f4:	e594003c 	ldr	r0, [r4, #60]	; 0x3c
    95f8:	ebfffeb7 	bl	90dc <put32>
    95fc:	ebfffeb0 	bl	90c4 <dev_barrier>
    9600:	e8bd8038 	pop	{r3, r4, r5, pc}
    9604:	00009790 	muleq	r0, r0, r7

00009608 <gpio_event_detected>:
    9608:	e92d4010 	push	{r4, lr}
    960c:	e1a04000 	mov	r4, r0
    9610:	e350001f 	cmp	r0, #31
    9614:	8a000019 	bhi	9680 <gpio_event_detected+0x78>
    9618:	ebfffea9 	bl	90c4 <dev_barrier>
    961c:	e354001f 	cmp	r4, #31
    9620:	8a000008 	bhi	9648 <gpio_event_detected+0x40>
    9624:	e59f305c 	ldr	r3, [pc, #92]	; 9688 <gpio_event_detected+0x80>
    9628:	e5930048 	ldr	r0, [r3, #72]	; 0x48
    962c:	ebfffeb6 	bl	910c <get32>
    9630:	e3a03001 	mov	r3, #1
    9634:	e0103413 	ands	r3, r0, r3, lsl r4
    9638:	0a00000d 	beq	9674 <gpio_event_detected+0x6c>
    963c:	ebfffea0 	bl	90c4 <dev_barrier>
    9640:	e3a00001 	mov	r0, #1
    9644:	e8bd8010 	pop	{r4, pc}
    9648:	e59f3038 	ldr	r3, [pc, #56]	; 9688 <gpio_event_detected+0x80>
    964c:	e593004c 	ldr	r0, [r3, #76]	; 0x4c
    9650:	ebfffead 	bl	910c <get32>
    9654:	e3a03001 	mov	r3, #1
    9658:	e0004413 	and	r4, r0, r3, lsl r4
    965c:	ebfffe98 	bl	90c4 <dev_barrier>
    9660:	e3540000 	cmp	r4, #0
    9664:	0a000002 	beq	9674 <gpio_event_detected+0x6c>
    9668:	ebfffe95 	bl	90c4 <dev_barrier>
    966c:	e3a00001 	mov	r0, #1
    9670:	e8bd8010 	pop	{r4, pc}
    9674:	ebfffe92 	bl	90c4 <dev_barrier>
    9678:	e3a00000 	mov	r0, #0
    967c:	e8bd8010 	pop	{r4, pc}
    9680:	e3e00000 	mvn	r0, #0
    9684:	e8bd8010 	pop	{r4, pc}
    9688:	00009790 	muleq	r0, r0, r7

0000968c <gpio_event_clear>:
    968c:	e92d4010 	push	{r4, lr}
    9690:	e1a04000 	mov	r4, r0
    9694:	e350001f 	cmp	r0, #31
    9698:	88bd8010 	pophi	{r4, pc}
    969c:	ebfffe88 	bl	90c4 <dev_barrier>
    96a0:	e354001f 	cmp	r4, #31
    96a4:	8a000005 	bhi	96c0 <gpio_event_clear+0x34>
    96a8:	e59f3030 	ldr	r3, [pc, #48]	; 96e0 <gpio_event_clear+0x54>
    96ac:	e5930048 	ldr	r0, [r3, #72]	; 0x48
    96b0:	e3a01001 	mov	r1, #1
    96b4:	e1a01411 	lsl	r1, r1, r4
    96b8:	ebfffe87 	bl	90dc <put32>
    96bc:	ea000005 	b	96d8 <gpio_event_clear+0x4c>
    96c0:	e204401f 	and	r4, r4, #31
    96c4:	e59f3014 	ldr	r3, [pc, #20]	; 96e0 <gpio_event_clear+0x54>
    96c8:	e593004c 	ldr	r0, [r3, #76]	; 0x4c
    96cc:	e3a01001 	mov	r1, #1
    96d0:	e1a01411 	lsl	r1, r1, r4
    96d4:	ebfffe80 	bl	90dc <put32>
    96d8:	ebfffe79 	bl	90c4 <dev_barrier>
    96dc:	e8bd8010 	pop	{r4, pc}
    96e0:	00009790 	muleq	r0, r0, r7

000096e4 <cb_new>:
    96e4:	e92d4008 	push	{r3, lr}
    96e8:	e3a00409 	mov	r0, #150994944	; 0x9000000
    96ec:	e3a01000 	mov	r1, #0
    96f0:	e3a02004 	mov	r2, #4
    96f4:	eb00000e 	bl	9734 <memset>
    96f8:	e3a00409 	mov	r0, #150994944	; 0x9000000
    96fc:	e59f3004 	ldr	r3, [pc, #4]	; 9708 <cb_new+0x24>
    9700:	e5803000 	str	r3, [r0]
    9704:	e8bd8008 	pop	{r3, pc}
    9708:	12345678 	eorsne	r5, r4, #120, 12	; 0x7800000

0000970c <cb_get_block>:
    970c:	e3a03409 	mov	r3, #150994944	; 0x9000000
    9710:	e5932000 	ldr	r2, [r3]
    9714:	e59f3014 	ldr	r3, [pc, #20]	; 9730 <cb_get_block+0x24>
    9718:	e1520003 	cmp	r2, r3
    971c:	0a000001 	beq	9728 <cb_get_block+0x1c>
    9720:	e3a00000 	mov	r0, #0
    9724:	e12fff1e 	bx	lr
    9728:	e3a00409 	mov	r0, #150994944	; 0x9000000
    972c:	e12fff1e 	bx	lr
    9730:	12345678 	eorsne	r5, r4, #120, 12	; 0x7800000

00009734 <memset>:
    9734:	e0802002 	add	r2, r0, r2
    9738:	e1a03000 	mov	r3, r0
    973c:	ea000001 	b	9748 <memset+0x14>
    9740:	e5c31000 	strb	r1, [r3]
    9744:	e2833001 	add	r3, r3, #1
    9748:	e1530002 	cmp	r3, r2
    974c:	3afffffb 	bcc	9740 <memset+0xc>
    9750:	e12fff1e 	bx	lr

Disassembly of section .data:

00009754 <rpi_putchar>:
    9754:	00008210 	andeq	r8, r0, r0, lsl r2

00009758 <putk>:
    9758:	0000824c 	andeq	r8, r0, ip, asr #4

0000975c <AUX_ENABLES>:
    975c:	20215004 	eorcs	r5, r1, r4

00009760 <AUX_MU_CNTL_REG>:
    9760:	20215060 	eorcs	r5, r1, r0, rrx

00009764 <AUX_MU_IER_REG>:
    9764:	20215044 	eorcs	r5, r1, r4, asr #32

00009768 <AUX_MU_IIR_REG>:
    9768:	20215048 	eorcs	r5, r1, r8, asr #32

0000976c <AUX_MU_LCR_REG>:
    976c:	2021504c 	eorcs	r5, r1, ip, asr #32

00009770 <AUX_MU_BAUD_REG>:
    9770:	20215068 	eorcs	r5, r1, r8, rrx

00009774 <AUX_MU_LSR_REG>:
    9774:	20215054 	eorcs	r5, r1, r4, asr r0

00009778 <AUX_MU_IO_REG>:
    9778:	20215040 	eorcs	r5, r1, r0, asr #32

0000977c <AUX_MU_STAT_REG>:
    977c:	20215064 	eorcs	r5, r1, r4, rrx

00009780 <AUX_MU_SCRATCH>:
    9780:	2021505c 	eorcs	r5, r1, ip, asr r0

00009784 <AUX_MU_MSR_REG>:
    9784:	20215058 	eorcs	r5, r1, r8, asr r0

00009788 <AUX_MU_MCR_REG>:
    9788:	20215050 	eorcs	r5, r1, r0, asr r0

0000978c <AUX_IRQ>:
    978c:	20215000 	eorcs	r5, r1, r0

00009790 <GPFSEL0>:
    9790:	20200000 	eorcs	r0, r0, r0

00009794 <GPFSEL1>:
    9794:	20200004 	eorcs	r0, r0, r4

00009798 <GPFSEL2>:
    9798:	20200008 	eorcs	r0, r0, r8

0000979c <GPFSEL3>:
    979c:	2020000c 	eorcs	r0, r0, ip

000097a0 <GPFSEL4>:
    97a0:	20200010 	eorcs	r0, r0, r0, lsl r0

000097a4 <GPFSEL5>:
    97a4:	20200014 	eorcs	r0, r0, r4, lsl r0

000097a8 <GPSET0>:
    97a8:	2020001c 	eorcs	r0, r0, ip, lsl r0

000097ac <GPSET1>:
    97ac:	20200020 	eorcs	r0, r0, r0, lsr #32

000097b0 <GPCLR0>:
    97b0:	20200028 	eorcs	r0, r0, r8, lsr #32

000097b4 <GPCLR1>:
    97b4:	2020002c 	eorcs	r0, r0, ip, lsr #32

000097b8 <GPLEV0>:
    97b8:	20200034 	eorcs	r0, r0, r4, lsr r0

000097bc <GPLEV1>:
    97bc:	20200038 	eorcs	r0, r0, r8, lsr r0

000097c0 <IRQ_PENDING_2>:
    97c0:	2000b208 	andcs	fp, r0, r8, lsl #4

000097c4 <GPREN0>:
    97c4:	2020004c 	eorcs	r0, r0, ip, asr #32

000097c8 <GPREN1>:
    97c8:	20200050 	eorcs	r0, r0, r0, asr r0

000097cc <ENABLE_IRQS_2>:
    97cc:	2000b214 	andcs	fp, r0, r4, lsl r2

000097d0 <GPFEN0>:
    97d0:	20200058 	eorcs	r0, r0, r8, asr r0

000097d4 <GPFEN1>:
    97d4:	2020005c 	eorcs	r0, r0, ip, asr r0

000097d8 <GPEDS0>:
    97d8:	20200040 	eorcs	r0, r0, r0, asr #32

000097dc <GPEDS1>:
    97dc:	20200044 	eorcs	r0, r0, r4, asr #32

000097e0 <IRQ_PENDING_1>:
    97e0:	2000b204 	andcs	fp, r0, r4, lsl #4

000097e4 <gpio_clr0>:
    97e4:	20200028 	eorcs	r0, r0, r8, lsr #32

000097e8 <gpio_set0>:
    97e8:	2020001c 	eorcs	r0, r0, ip, lsl r0

000097ec <gpio_fsel0>:
    97ec:	20200000 	eorcs	r0, r0, r0

Disassembly of section .rodata:

000097f0 <__FUNCTION__.4210>:
    97f0:	6d746f6e 	ldclvs	15, cr6, [r4, #-440]!	; 0xfffffe48
    97f4:	006e6961 	rsbeq	r6, lr, r1, ror #18
    97f8:	494e4150 	stmdbmi	lr, {r4, r6, r8, lr}^
    97fc:	73253a43 	teqvc	r5, #274432	; 0x43000
    9800:	3a73253a 	bcc	1cd2cf0 <__bss_end__+0x1cc89c0>
    9804:	423a6425 	eorsmi	r6, sl, #620756992	; 0x25000000
    9808:	6f206461 	svcvs	0x00206461
    980c:	646f6370 	strbtvs	r6, [pc], #-880	; 9814 <__FUNCTION__.4210+0x24>
    9810:	000a0a65 	andeq	r0, sl, r5, ror #20
    9814:	2d746567 	cfldr64cs	mvdx6, [r4, #-412]!	; 0xfffffe64
    9818:	65646f63 	strbvs	r6, [r4, #-3939]!	; 0xf63
    981c:	0000632e 	andeq	r6, r0, lr, lsr #6
    9820:	494e4150 	stmdbmi	lr, {r4, r6, r8, lr}^
    9824:	73253a43 	teqvc	r5, #274432	; 0x43000
    9828:	3a73253a 	bcc	1cd2d18 <__bss_end__+0x1cc89e8>
    982c:	693a6425 	ldmdbvs	sl!, {r0, r2, r5, sl, sp, lr}
    9830:	6c61766e 	stclvs	6, cr7, [r1], #-440	; 0xfffffe48
    9834:	61206469 	teqvs	r0, r9, ror #8
    9838:	20726464 	rsbscs	r6, r2, r4, ror #8
    983c:	202c7825 	eorcs	r7, ip, r5, lsr #16
    9840:	7473756d 	ldrbtvc	r7, [r3], #-1389	; 0x56d
    9844:	20656220 	rsbcs	r6, r5, r0, lsr #4
    9848:	7825203e 	stmdavc	r5!, {r1, r2, r3, r4, r5, sp}
    984c:	00000a0a 	andeq	r0, r0, sl, lsl #20
    9850:	203a6425 	eorscs	r6, sl, r5, lsr #8
    9854:	756f6261 	strbvc	r6, [pc, #-609]!	; 95fb <gpio_int_falling_edge+0x77>
    9858:	6f742074 	svcvs	0x00742074
    985c:	6c616320 	stclvs	3, cr6, [r1], #-128	; 0xffffff80
    9860:	6873206c 	ldmdavs	r3!, {r2, r3, r5, r6, sp}^
    9864:	65707069 	ldrbvs	r7, [r0, #-105]!	; 0x69
    9868:	6f632064 	svcvs	0x00632064
    986c:	202c6564 	eorcs	r6, ip, r4, ror #10
    9870:	72646461 	rsbvc	r6, r4, #1627389952	; 0x61000000
    9874:	2c78253d 	cfldr64cs	mvdx2, [r8], #-244	; 0xffffff0c
    9878:	79626e20 	stmdbvc	r2!, {r5, r9, sl, fp, sp, lr}^
    987c:	3d736574 	cfldr64cc	mvdx6, [r3, #-464]!	; 0xfffffe30
    9880:	0a216425 	beq	86291c <__bss_end__+0x8585ec>
    9884:	00000000 	andeq	r0, r0, r0
    9888:	65646f63 	strbvs	r6, [r4, #-3939]!	; 0xf63
    988c:	74657220 	strbtvc	r7, [r5], #-544	; 0x220
    9890:	656e7275 	strbvs	r7, [lr, #-629]!	; 0x275
    9894:	000a2164 	andeq	r2, sl, r4, ror #2

00009898 <crc32_tab>:
    9898:	00000000 	andeq	r0, r0, r0
    989c:	77073096 			; <UNDEFINED> instruction: 0x77073096
    98a0:	ee0e612c 	adfep	f6, f6, #4.0
    98a4:	990951ba 	stmdbls	r9, {r1, r3, r4, r5, r7, r8, ip, lr}
    98a8:	076dc419 			; <UNDEFINED> instruction: 0x076dc419
    98ac:	706af48f 	rsbvc	pc, sl, pc, lsl #9
    98b0:	e963a535 	stmdb	r3!, {r0, r2, r4, r5, r8, sl, sp, pc}^
    98b4:	9e6495a3 	cdpls	5, 6, cr9, cr4, cr3, {5}
    98b8:	0edb8832 	mrceq	8, 6, r8, cr11, cr2, {1}
    98bc:	79dcb8a4 	ldmibvc	ip, {r2, r5, r7, fp, ip, sp, pc}^
    98c0:	e0d5e91e 	sbcs	lr, r5, lr, lsl r9
    98c4:	97d2d988 	ldrbls	sp, [r2, r8, lsl #19]
    98c8:	09b64c2b 	ldmibeq	r6!, {r0, r1, r3, r5, sl, fp, lr}
    98cc:	7eb17cbd 	mrcvc	12, 5, r7, cr1, cr13, {5}
    98d0:	e7b82d07 	ldr	r2, [r8, r7, lsl #26]!
    98d4:	90bf1d91 	umlalsls	r1, pc, r1, sp	; <UNPREDICTABLE>
    98d8:	1db71064 	ldcne	0, cr1, [r7, #400]!	; 0x190
    98dc:	6ab020f2 	bvs	fec11cac <__bss_end__+0xfec0797c>
    98e0:	f3b97148 	vceq.i32	<illegal reg q3.5>, q4, #0
    98e4:	84be41de 	ldrthi	r4, [lr], #478	; 0x1de
    98e8:	1adad47d 	bne	ff6beae4 <__bss_end__+0xff6b47b4>
    98ec:	6ddde4eb 	cfldrdvs	mvd14, [sp, #940]	; 0x3ac
    98f0:	f4d4b551 			; <UNDEFINED> instruction: 0xf4d4b551
    98f4:	83d385c7 	bicshi	r8, r3, #834666496	; 0x31c00000
    98f8:	136c9856 	cmnne	ip, #5636096	; 0x560000
    98fc:	646ba8c0 	strbtvs	sl, [fp], #-2240	; 0x8c0
    9900:	fd62f97a 	stc2l	9, cr15, [r2, #-488]!	; 0xfffffe18
    9904:	8a65c9ec 	bhi	197c0bc <__bss_end__+0x1971d8c>
    9908:	14015c4f 	strne	r5, [r1], #-3151	; 0xc4f
    990c:	63066cd9 	movwvs	r6, #27865	; 0x6cd9
    9910:	fa0f3d63 	blx	3d8ea4 <__bss_end__+0x3ceb74>
    9914:	8d080df5 	stchi	13, cr0, [r8, #-980]	; 0xfffffc2c
    9918:	3b6e20c8 	blcc	1b91c40 <__bss_end__+0x1b87910>
    991c:	4c69105e 	stclmi	0, cr1, [r9], #-376	; 0xfffffe88
    9920:	d56041e4 	strble	r4, [r0, #-484]!	; 0x1e4
    9924:	a2677172 	rsbge	r7, r7, #-2147483620	; 0x8000001c
    9928:	3c03e4d1 	cfstrscc	mvf14, [r3], {209}	; 0xd1
    992c:	4b04d447 	blmi	13ea50 <__bss_end__+0x134720>
    9930:	d20d85fd 	andle	r8, sp, #1061158912	; 0x3f400000
    9934:	a50ab56b 	strge	fp, [sl, #-1387]	; 0x56b
    9938:	35b5a8fa 	ldrcc	sl, [r5, #2298]!	; 0x8fa
    993c:	42b2986c 	adcsmi	r9, r2, #108, 16	; 0x6c0000
    9940:	dbbbc9d6 	blle	feefc0a0 <__bss_end__+0xfeef1d70>
    9944:	acbcf940 	ldcge	9, cr15, [ip], #256	; 0x100
    9948:	32d86ce3 	sbcscc	r6, r8, #58112	; 0xe300
    994c:	45df5c75 	ldrbmi	r5, [pc, #3189]	; a5c9 <__bss_end__+0x299>
    9950:	dcd60dcf 	ldclle	13, cr0, [r6], {207}	; 0xcf
    9954:	abd13d59 	blge	ff458ec0 <__bss_end__+0xff44eb90>
    9958:	26d930ac 	ldrbcs	r3, [r9], ip, lsr #1
    995c:	51de003a 	bicspl	r0, lr, sl, lsr r0
    9960:	c8d75180 	ldmgt	r7, {r7, r8, ip, lr}^
    9964:	bfd06116 	svclt	0x00d06116
    9968:	21b4f4b5 			; <UNDEFINED> instruction: 0x21b4f4b5
    996c:	56b3c423 	ldrtpl	ip, [r3], r3, lsr #8
    9970:	cfba9599 	svcgt	0x00ba9599
    9974:	b8bda50f 	poplt	{r0, r1, r2, r3, r8, sl, sp, pc}
    9978:	2802b89e 	stmdacs	r2, {r1, r2, r3, r4, r7, fp, ip, sp, pc}
    997c:	5f058808 	svcpl	0x00058808
    9980:	c60cd9b2 			; <UNDEFINED> instruction: 0xc60cd9b2
    9984:	b10be924 	tstlt	fp, r4, lsr #18
    9988:	2f6f7c87 	svccs	0x006f7c87
    998c:	58684c11 	stmdapl	r8!, {r0, r4, sl, fp, lr}^
    9990:	c1611dab 	cmngt	r1, fp, lsr #27
    9994:	b6662d3d 			; <UNDEFINED> instruction: 0xb6662d3d
    9998:	76dc4190 			; <UNDEFINED> instruction: 0x76dc4190
    999c:	01db7106 	bicseq	r7, fp, r6, lsl #2
    99a0:	98d220bc 	ldmls	r2, {r2, r3, r4, r5, r7, sp}^
    99a4:	efd5102a 	svc	0x00d5102a
    99a8:	71b18589 			; <UNDEFINED> instruction: 0x71b18589
    99ac:	06b6b51f 	ssateq	fp, #23, pc, lsl #10	; <UNPREDICTABLE>
    99b0:	9fbfe4a5 	svcls	0x00bfe4a5
    99b4:	e8b8d433 	ldm	r8!, {r0, r1, r4, r5, sl, ip, lr, pc}
    99b8:	7807c9a2 	stmdavc	r7, {r1, r5, r7, r8, fp, lr, pc}
    99bc:	0f00f934 	svceq	0x0000f934
    99c0:	9609a88e 	strls	sl, [r9], -lr, lsl #17
    99c4:	e10e9818 	tst	lr, r8, lsl r8
    99c8:	7f6a0dbb 	svcvc	0x006a0dbb
    99cc:	086d3d2d 	stmdaeq	sp!, {r0, r2, r3, r5, r8, sl, fp, ip, sp}^
    99d0:	91646c97 			; <UNDEFINED> instruction: 0x91646c97
    99d4:	e6635c01 	strbt	r5, [r3], -r1, lsl #24
    99d8:	6b6b51f4 	blvs	1ade1b0 <__bss_end__+0x1ad3e80>
    99dc:	1c6c6162 	stfnee	f6, [ip], #-392	; 0xfffffe78
    99e0:	856530d8 	strbhi	r3, [r5, #-216]!	; 0xd8
    99e4:	f262004e 	vhadd.s32	q8, q1, q7
    99e8:	6c0695ed 	cfstr32vs	mvfx9, [r6], {237}	; 0xed
    99ec:	1b01a57b 	blne	72fe0 <__bss_end__+0x68cb0>
    99f0:	8208f4c1 	andhi	pc, r8, #-1056964608	; 0xc1000000
    99f4:	f50fc457 			; <UNDEFINED> instruction: 0xf50fc457
    99f8:	65b0d9c6 	ldrvs	sp, [r0, #2502]!	; 0x9c6
    99fc:	12b7e950 	adcsne	lr, r7, #80, 18	; 0x140000
    9a00:	8bbeb8ea 	blhi	fefb7db0 <__bss_end__+0xfefada80>
    9a04:	fcb9887c 	ldc2	8, cr8, [r9], #496	; 0x1f0
    9a08:	62dd1ddf 	sbcsvs	r1, sp, #14272	; 0x37c0
    9a0c:	15da2d49 	ldrbne	r2, [sl, #3401]	; 0xd49
    9a10:	8cd37cf3 	ldclhi	12, cr7, [r3], {243}	; 0xf3
    9a14:	fbd44c65 	blx	ff51cbb2 <__bss_end__+0xff512882>
    9a18:	4db26158 	ldfmis	f6, [r2, #352]!	; 0x160
    9a1c:	3ab551ce 	bcc	fed5e15c <__bss_end__+0xfed53e2c>
    9a20:	a3bc0074 			; <UNDEFINED> instruction: 0xa3bc0074
    9a24:	d4bb30e2 	ldrtle	r3, [fp], #226	; 0xe2
    9a28:	4adfa541 	bmi	ff7f2f34 <__bss_end__+0xff7e8c04>
    9a2c:	3dd895d7 	cfldr64cc	mvdx9, [r8, #860]	; 0x35c
    9a30:	a4d1c46d 	ldrbge	ip, [r1], #1133	; 0x46d
    9a34:	d3d6f4fb 	bicsle	pc, r6, #-83886080	; 0xfb000000
    9a38:	4369e96a 	cmnmi	r9, #1736704	; 0x1a8000
    9a3c:	346ed9fc 	strbtcc	sp, [lr], #-2556	; 0x9fc
    9a40:	ad678846 	stclge	8, cr8, [r7, #-280]!	; 0xfffffee8
    9a44:	da60b8d0 	ble	1837d8c <__bss_end__+0x182da5c>
    9a48:	44042d73 	strmi	r2, [r4], #-3443	; 0xd73
    9a4c:	33031de5 	movwcc	r1, #15845	; 0x3de5
    9a50:	aa0a4c5f 	bge	29cbd4 <__bss_end__+0x2928a4>
    9a54:	dd0d7cc9 	stcle	12, cr7, [sp, #-804]	; 0xfffffcdc
    9a58:	5005713c 	andpl	r7, r5, ip, lsr r1
    9a5c:	270241aa 	strcs	r4, [r2, -sl, lsr #3]
    9a60:	be0b1010 	mcrlt	0, 0, r1, cr11, cr0, {0}
    9a64:	c90c2086 	stmdbgt	ip, {r1, r2, r7, sp}
    9a68:	5768b525 	strbpl	fp, [r8, -r5, lsr #10]!
    9a6c:	206f85b3 	strhtcs	r8, [pc], #-83
    9a70:	b966d409 	stmdblt	r6!, {r0, r3, sl, ip, lr, pc}^
    9a74:	ce61e49f 	mcrgt	4, 3, lr, cr1, cr15, {4}
    9a78:	5edef90e 	cdppl	9, 13, cr15, cr14, cr14, {0}
    9a7c:	29d9c998 	ldmibcs	r9, {r3, r4, r7, r8, fp, lr, pc}^
    9a80:	b0d09822 	sbcslt	r9, r0, r2, lsr #16
    9a84:	c7d7a8b4 			; <UNDEFINED> instruction: 0xc7d7a8b4
    9a88:	59b33d17 	ldmibpl	r3!, {r0, r1, r2, r4, r8, sl, fp, ip, sp}
    9a8c:	2eb40d81 	cdpcs	13, 11, cr0, cr4, cr1, {4}
    9a90:	b7bd5c3b 			; <UNDEFINED> instruction: 0xb7bd5c3b
    9a94:	c0ba6cad 	adcsgt	r6, sl, sp, lsr #25
    9a98:	edb88320 	ldc	3, cr8, [r8, #128]!	; 0x80
    9a9c:	9abfb3b6 	bls	feff697c <__bss_end__+0xfefec64c>
    9aa0:	03b6e20c 			; <UNDEFINED> instruction: 0x03b6e20c
    9aa4:	74b1d29a 	ldrtvc	sp, [r1], #666	; 0x29a
    9aa8:	ead54739 	b	ff55b794 <__bss_end__+0xff551464>
    9aac:	9dd277af 	ldclls	7, cr7, [r2, #700]	; 0x2bc
    9ab0:	04db2615 	ldrbeq	r2, [fp], #1557	; 0x615
    9ab4:	73dc1683 	bicsvc	r1, ip, #137363456	; 0x8300000
    9ab8:	e3630b12 	cmn	r3, #18432	; 0x4800
    9abc:	94643b84 	strbtls	r3, [r4], #-2948	; 0xb84
    9ac0:	0d6d6a3e 	vpusheq	{s13-s74}
    9ac4:	7a6a5aa8 	bvc	1aa056c <__bss_end__+0x1a9623c>
    9ac8:	e40ecf0b 	str	ip, [lr], #-3851	; 0xf0b
    9acc:	9309ff9d 	movwls	pc, #40861	; 0x9f9d	; <UNPREDICTABLE>
    9ad0:	0a00ae27 	beq	35374 <__bss_end__+0x2b044>
    9ad4:	7d079eb1 	stcvc	14, cr9, [r7, #-708]	; 0xfffffd3c
    9ad8:	f00f9344 			; <UNDEFINED> instruction: 0xf00f9344
    9adc:	8708a3d2 			; <UNDEFINED> instruction: 0x8708a3d2
    9ae0:	1e01f268 	cdpne	2, 0, cr15, cr1, cr8, {3}
    9ae4:	6906c2fe 	stmdbvs	r6, {r1, r2, r3, r4, r5, r6, r7, r9, lr, pc}
    9ae8:	f762575d 			; <UNDEFINED> instruction: 0xf762575d
    9aec:	806567cb 	rsbhi	r6, r5, fp, asr #15
    9af0:	196c3671 	stmdbne	ip!, {r0, r4, r5, r6, r9, sl, ip, sp}^
    9af4:	6e6b06e7 	cdpvs	6, 6, cr0, cr11, cr7, {7}
    9af8:	fed41b76 	mrc2	11, 6, r1, cr4, cr6, {3}
    9afc:	89d32be0 	ldmibhi	r3, {r5, r6, r7, r8, r9, fp, sp}^
    9b00:	10da7a5a 	sbcsne	r7, sl, sl, asr sl
    9b04:	67dd4acc 	ldrbvs	r4, [sp, ip, asr #21]
    9b08:	f9b9df6f 			; <UNDEFINED> instruction: 0xf9b9df6f
    9b0c:	8ebeeff9 	mrchi	15, 5, lr, cr14, cr9, {7}
    9b10:	17b7be43 	ldrne	fp, [r7, r3, asr #28]!
    9b14:	60b08ed5 	ldrsbtvs	r8, [r0], r5
    9b18:	d6d6a3e8 	ldrble	sl, [r6], r8, ror #7
    9b1c:	a1d1937e 	bicsge	r9, r1, lr, ror r3
    9b20:	38d8c2c4 	ldmcc	r8, {r2, r6, r7, r9, lr, pc}^
    9b24:	4fdff252 	svcmi	0x00dff252
    9b28:	d1bb67f1 			; <UNDEFINED> instruction: 0xd1bb67f1
    9b2c:	a6bc5767 	ldrtge	r5, [ip], r7, ror #14
    9b30:	3fb506dd 	svccc	0x00b506dd
    9b34:	48b2364b 	ldmmi	r2!, {r0, r1, r3, r6, r9, sl, ip, sp}
    9b38:	d80d2bda 	stmdale	sp, {r1, r3, r4, r6, r7, r8, r9, fp, sp}
    9b3c:	af0a1b4c 	svcge	0x000a1b4c
    9b40:	36034af6 			; <UNDEFINED> instruction: 0x36034af6
    9b44:	41047a60 	tstmi	r4, r0, ror #20
    9b48:	df60efc3 	svcle	0x0060efc3
    9b4c:	a867df55 	stmdage	r7!, {r0, r2, r4, r6, r8, r9, sl, fp, ip, lr, pc}^
    9b50:	316e8eef 	cmncc	lr, pc, ror #29
    9b54:	4669be79 			; <UNDEFINED> instruction: 0x4669be79
    9b58:	cb61b38c 	blgt	1876990 <__bss_end__+0x186c660>
    9b5c:	bc66831a 	stcllt	3, cr8, [r6], #-104	; 0xffffff98
    9b60:	256fd2a0 	strbcs	sp, [pc, #-672]!	; 98c8 <crc32_tab+0x30>
    9b64:	5268e236 	rsbpl	lr, r8, #1610612739	; 0x60000003
    9b68:	cc0c7795 	stcgt	7, cr7, [ip], {149}	; 0x95
    9b6c:	bb0b4703 	bllt	2db780 <__bss_end__+0x2d1450>
    9b70:	220216b9 	andcs	r1, r2, #193986560	; 0xb900000
    9b74:	5505262f 	strpl	r2, [r5, #-1583]	; 0x62f
    9b78:	c5ba3bbe 	ldrgt	r3, [sl, #3006]!	; 0xbbe
    9b7c:	b2bd0b28 	adcslt	r0, sp, #40, 22	; 0xa000
    9b80:	2bb45a92 	blcs	fed205d0 <__bss_end__+0xfed162a0>
    9b84:	5cb36a04 	vldmiapl	r3!, {s12-s15}
    9b88:	c2d7ffa7 	sbcsgt	pc, r7, #668	; 0x29c
    9b8c:	b5d0cf31 	ldrblt	ip, [r0, #3889]	; 0xf31
    9b90:	2cd99e8b 	ldclcs	14, cr9, [r9], {139}	; 0x8b
    9b94:	5bdeae1d 	blpl	ff7b5410 <__bss_end__+0xff7ab0e0>
    9b98:	9b64c2b0 	blls	193a660 <__bss_end__+0x1930330>
    9b9c:	ec63f226 	sfm	f7, 3, [r3], #-152	; 0xffffff68
    9ba0:	756aa39c 	strbvc	sl, [sl, #-924]!	; 0x39c
    9ba4:	026d930a 	rsbeq	r9, sp, #671088640	; 0x28000000
    9ba8:	9c0906a9 	stcls	6, cr0, [r9], {169}	; 0xa9
    9bac:	eb0e363f 	bl	3974b0 <__bss_end__+0x38d180>
    9bb0:	72076785 	andvc	r6, r7, #34865152	; 0x2140000
    9bb4:	05005713 	streq	r5, [r0, #-1811]	; 0x713
    9bb8:	95bf4a82 	ldrls	r4, [pc, #2690]!	; a642 <__bss_end__+0x312>
    9bbc:	e2b87a14 	adcs	r7, r8, #20, 20	; 0x14000
    9bc0:	7bb12bae 	blvc	fec54a80 <__bss_end__+0xfec4a750>
    9bc4:	0cb61b38 	vldmiaeq	r6!, {d1-d28}
    9bc8:	92d28e9b 	sbcsls	r8, r2, #2480	; 0x9b0
    9bcc:	e5d5be0d 	ldrb	fp, [r5, #3597]	; 0xe0d
    9bd0:	7cdcefb7 	ldclvc	15, cr14, [ip], {183}	; 0xb7
    9bd4:	0bdbdf21 	bleq	ff701860 <__bss_end__+0xff6f7530>
    9bd8:	86d3d2d4 			; <UNDEFINED> instruction: 0x86d3d2d4
    9bdc:	f1d4e242 			; <UNDEFINED> instruction: 0xf1d4e242
    9be0:	68ddb3f8 	ldmvs	sp, {r3, r4, r5, r6, r7, r8, r9, ip, sp, pc}^
    9be4:	1fda836e 	svcne	0x00da836e
    9be8:	81be16cd 			; <UNDEFINED> instruction: 0x81be16cd
    9bec:	f6b9265b 			; <UNDEFINED> instruction: 0xf6b9265b
    9bf0:	6fb077e1 	svcvs	0x00b077e1
    9bf4:	18b74777 	ldmne	r7!, {r0, r1, r2, r4, r5, r6, r8, r9, sl, lr}
    9bf8:	88085ae6 	stmdahi	r8, {r1, r2, r5, r6, r7, r9, fp, ip, lr}
    9bfc:	ff0f6a70 			; <UNDEFINED> instruction: 0xff0f6a70
    9c00:	66063bca 	strvs	r3, [r6], -sl, asr #23
    9c04:	11010b5c 	tstne	r1, ip, asr fp
    9c08:	8f659eff 	svchi	0x00659eff
    9c0c:	f862ae69 			; <UNDEFINED> instruction: 0xf862ae69
    9c10:	616bffd3 	ldrdvs	pc, [fp, #-243]!	; 0xffffff0d
    9c14:	166ccf45 	strbtne	ip, [ip], -r5, asr #30
    9c18:	a00ae278 	andge	lr, sl, r8, ror r2
    9c1c:	d70dd2ee 	strle	sp, [sp, -lr, ror #5]
    9c20:	4e048354 	mcrmi	3, 0, r8, cr4, cr4, {2}
    9c24:	3903b3c2 	stmdbcc	r3, {r1, r6, r7, r8, r9, ip, sp, pc}
    9c28:	a7672661 	strbge	r2, [r7, -r1, ror #12]!
    9c2c:	d06016f7 	strdle	r1, [r0], #-103	; 0xffffff99	; <UNPREDICTABLE>
    9c30:	4969474d 	stmdbmi	r9!, {r0, r2, r3, r6, r8, r9, sl, lr}^
    9c34:	3e6e77db 	mcrcc	7, 3, r7, cr14, cr11, {6}
    9c38:	aed16a4a 	vfnmage.f32	s13, s2, s20
    9c3c:	d9d65adc 	ldmible	r6, {r2, r3, r4, r6, r7, r9, fp, ip, lr}^
    9c40:	40df0b66 	sbcsmi	r0, pc, r6, ror #22
    9c44:	37d83bf0 			; <UNDEFINED> instruction: 0x37d83bf0
    9c48:	a9bcae53 	ldmibge	ip!, {r0, r1, r4, r6, r9, sl, fp, sp, pc}
    9c4c:	debb9ec5 	cdple	14, 11, cr9, cr11, cr5, {6}
    9c50:	47b2cf7f 			; <UNDEFINED> instruction: 0x47b2cf7f
    9c54:	30b5ffe9 	adcscc	pc, r5, r9, ror #31
    9c58:	bdbdf21c 	lfmlt	f7, 1, [sp, #112]!	; 0x70
    9c5c:	cabac28a 	bgt	feeba68c <__bss_end__+0xfeeb035c>
    9c60:	53b39330 			; <UNDEFINED> instruction: 0x53b39330
    9c64:	24b4a3a6 	ldrtcs	sl, [r4], #934	; 0x3a6
    9c68:	bad03605 	blt	ff417484 <__bss_end__+0xff40d154>
    9c6c:	cdd70693 	ldclgt	6, cr0, [r7, #588]	; 0x24c
    9c70:	54de5729 	ldrbpl	r5, [lr], #1833	; 0x729
    9c74:	23d967bf 	bicscs	r6, r9, #50069504	; 0x2fc0000
    9c78:	b3667a2e 	cmnlt	r6, #188416	; 0x2e000
    9c7c:	c4614ab8 	strbtgt	r4, [r1], #-2744	; 0xab8
    9c80:	5d681b02 	vstmdbpl	r8!, {d17}
    9c84:	2a6f2b94 	bcs	1bd4adc <__bss_end__+0x1bca7ac>
    9c88:	b40bbe37 	strlt	fp, [fp], #-3639	; 0xe37
    9c8c:	c30c8ea1 	movwgt	r8, #52897	; 0xcea1
    9c90:	5a05df1b 	bpl	181904 <__bss_end__+0x1775d4>
    9c94:	2d02ef8d 	stccs	15, cr14, [r2, #-564]	; 0xfffffdcc

00009c98 <__FUNCTION__.4216>:
    9c98:	74696d65 	strbtvc	r6, [r9], #-3429	; 0xd65
    9c9c:	00000000 	andeq	r0, r0, r0

00009ca0 <__FUNCTION__.4164>:
    9ca0:	5f697072 	svcpl	0x00697072
    9ca4:	5f746573 	svcpl	0x00746573
    9ca8:	7074756f 	rsbsvc	r7, r4, pc, ror #10
    9cac:	00007475 	andeq	r7, r0, r5, ror r4

00009cb0 <__FUNCTION__.4238>:
    9cb0:	705f6176 	subsvc	r6, pc, r6, ror r1	; <UNPREDICTABLE>
    9cb4:	746e6972 	strbtvc	r6, [lr], #-2418	; 0x972
    9cb8:	0000006b 	andeq	r0, r0, fp, rrx
    9cbc:	494e4150 	stmdbmi	lr, {r4, r6, r8, lr}^
    9cc0:	73253a43 	teqvc	r5, #274432	; 0x43000
    9cc4:	3a73253a 	bcc	1cd31b4 <__bss_end__+0x1cc8e84>
    9cc8:	303a6425 	eorscc	r6, sl, r5, lsr #8
    9ccc:	0000000a 	andeq	r0, r0, sl
    9cd0:	6362696c 	cmnvs	r2, #108, 18	; 0x1b0000
    9cd4:	2d61762f 	stclcs	6, cr7, [r1, #-188]!	; 0xffffff44
    9cd8:	6e697270 	mcrvs	2, 3, r7, cr9, cr0, {3}
    9cdc:	632e6b74 	teqvs	lr, #116, 22	; 0x1d000
    9ce0:	00000000 	andeq	r0, r0, r0
    9ce4:	33323130 	teqcc	r2, #48, 2
    9ce8:	37363534 			; <UNDEFINED> instruction: 0x37363534
    9cec:	00003938 	andeq	r3, r0, r8, lsr r9
    9cf0:	33323130 	teqcc	r2, #48, 2
    9cf4:	37363534 			; <UNDEFINED> instruction: 0x37363534
    9cf8:	62613938 	rsbvs	r3, r1, #56, 18	; 0xe0000
    9cfc:	66656463 	strbtvs	r6, [r5], -r3, ror #8
    9d00:	00000000 	andeq	r0, r0, r0
    9d04:	00003130 	andeq	r3, r0, r0, lsr r1
    9d08:	494e4150 	stmdbmi	lr, {r4, r6, r8, lr}^
    9d0c:	73253a43 	teqvc	r5, #274432	; 0x43000
    9d10:	3a73253a 	bcc	1cd3200 <__bss_end__+0x1cc8ed0>
    9d14:	703a6425 	eorsvc	r6, sl, r5, lsr #8
    9d18:	5f637475 	svcpl	0x00637475
    9d1c:	000a7066 	andeq	r7, sl, r6, rrx
    9d20:	494e4150 	stmdbmi	lr, {r4, r6, r8, lr}^
    9d24:	73253a43 	teqvc	r5, #274432	; 0x43000
    9d28:	3a73253a 	bcc	1cd3218 <__bss_end__+0x1cc8ee8>
    9d2c:	773a6425 	ldrvc	r6, [sl, -r5, lsr #8]!
    9d30:	68746469 	ldmdavs	r4!, {r0, r3, r5, r6, sl, sp, lr}^
    9d34:	33203c20 	teqcc	r0, #32, 24	; 0x2000
    9d38:	00000a32 	andeq	r0, r0, r2, lsr sl
    9d3c:	494e4150 	stmdbmi	lr, {r4, r6, r8, lr}^
    9d40:	73253a43 	teqvc	r5, #274432	; 0x43000
    9d44:	3a73253a 	bcc	1cd3234 <__bss_end__+0x1cc8f04>
    9d48:	663a6425 	ldrtvs	r6, [sl], -r5, lsr #8
    9d4c:	74616f6c 	strbtvc	r6, [r1], #-3948	; 0xf6c
    9d50:	746f6e20 	strbtvc	r6, [pc], #-3616	; 9d58 <__FUNCTION__.4238+0xa8>
    9d54:	616e6520 	cmnvs	lr, r0, lsr #10
    9d58:	64656c62 	strbtvs	r6, [r5], #-3170	; 0xc62
    9d5c:	0a212121 	beq	8521e8 <__bss_end__+0x847eb8>
    9d60:	00000000 	andeq	r0, r0, r0
    9d64:	494e4150 	stmdbmi	lr, {r4, r6, r8, lr}^
    9d68:	73253a43 	teqvc	r5, #274432	; 0x43000
    9d6c:	3a73253a 	bcc	1cd325c <__bss_end__+0x1cc8f2c>
    9d70:	703a6425 	eorsvc	r6, sl, r5, lsr #8
    9d74:	746e6972 	strbtvc	r6, [lr], #-2418	; 0x972
    9d78:	6e203a6b 	vnmulvs.f32	s6, s0, s23
    9d7c:	6820746f 	stmdavs	r0!, {r0, r1, r2, r3, r5, r6, sl, ip, sp, lr}
    9d80:	6c646e61 	stclvs	14, cr6, [r4], #-388	; 0xfffffe7c
    9d84:	20676e69 	rsbcs	r6, r7, r9, ror #28
    9d88:	63657073 	cmnvs	r5, #115	; 0x73
    9d8c:	65696669 	strbvs	r6, [r9, #-1641]!	; 0x669
    9d90:	25272072 	strcs	r2, [r7, #-114]!	; 0x72
    9d94:	0a0a2763 	beq	293b28 <__bss_end__+0x2897f8>
    9d98:	00000000 	andeq	r0, r0, r0
    9d9c:	454e4f44 	strbmi	r4, [lr, #-3908]	; 0xf44
    9da0:	0a212121 	beq	85222c <__bss_end__+0x847efc>
    9da4:	00000000 	andeq	r0, r0, r0
    9da8:	756f6261 	strbvc	r6, [pc, #-609]!	; 9b4f <crc32_tab+0x2b7>
    9dac:	6f742074 	svcvs	0x00742074
    9db0:	69727020 	ldmdbvs	r2!, {r5, ip, sp, lr}^
    9db4:	6f20746e 	svcvs	0x0020746e
    9db8:	6572206e 	ldrbvs	r2, [r2, #-110]!	; 0x6e
    9dbc:	616c7567 	cmnvs	ip, r7, ror #10
    9dc0:	72702072 	rsbsvc	r2, r0, #114	; 0x72
    9dc4:	66746e69 	ldrbtvs	r6, [r4], -r9, ror #28
    9dc8:	0000000a 	andeq	r0, r0, sl
    9dcc:	63637573 	cmnvs	r3, #482344960	; 0x1cc00000
    9dd0:	21737365 	cmncs	r3, r5, ror #6
    9dd4:	0000000a 	andeq	r0, r0, sl

00009dd8 <__FUNCTION__.4265>:
    9dd8:	755f7773 	ldrbvc	r7, [pc, #-1907]	; 966d <gpio_event_detected+0x65>
    9ddc:	5f747261 	svcpl	0x00747261
    9de0:	73746567 	cmnvc	r4, #432013312	; 0x19c00000
    9de4:	746e755f 	strbtvc	r7, [lr], #-1375	; 0x55f
    9de8:	00006c69 	andeq	r6, r0, r9, ror #24

00009dec <__FUNCTION__.4277>:
    9dec:	755f7773 	ldrbvc	r7, [pc, #-1907]	; 9681 <gpio_event_detected+0x79>
    9df0:	5f747261 	svcpl	0x00747261
    9df4:	73746567 	cmnvc	r4, #432013312	; 0x19c00000
    9df8:	6d69745f 	cfstrdvs	mvd7, [r9, #-380]!	; 0xfffffe84
    9dfc:	74756f65 	ldrbtvc	r6, [r5], #-3941	; 0xf65
    9e00:	00000000 	andeq	r0, r0, r0

00009e04 <__FUNCTION__.4291>:
    9e04:	755f7773 	ldrbvc	r7, [pc, #-1907]	; 9699 <gpio_event_clear+0xd>
    9e08:	5f747261 	svcpl	0x00747261
    9e0c:	74696e69 	strbtvc	r6, [r9], #-3689	; 0xe69
    9e10:	6c65685f 	stclvs	8, cr6, [r5], #-380	; 0xfffffe84
    9e14:	00726570 	rsbseq	r6, r2, r0, ror r5

00009e18 <__FUNCTION__.4297>:
    9e18:	755f7773 	ldrbvc	r7, [pc, #-1907]	; 96ad <gpio_event_clear+0x21>
    9e1c:	5f747261 	svcpl	0x00747261
    9e20:	63746567 	cmnvs	r4, #432013312	; 0x19c00000
    9e24:	00000000 	andeq	r0, r0, r0

00009e28 <__FUNCTION__.4319>:
    9e28:	755f7773 	ldrbvc	r7, [pc, #-1907]	; 96bd <gpio_event_clear+0x31>
    9e2c:	5f747261 	svcpl	0x00747261
    9e30:	6e697270 	mcrvs	2, 3, r7, cr9, cr0, {3}
    9e34:	00006b74 	andeq	r6, r0, r4, ror fp

00009e38 <__FUNCTION__.4327>:
    9e38:	755f7773 	ldrbvc	r7, [pc, #-1907]	; 96cd <gpio_event_clear+0x41>
    9e3c:	5f747261 	svcpl	0x00747261
    9e40:	73746567 	cmnvc	r4, #432013312	; 0x19c00000
    9e44:	746e755f 	strbtvc	r7, [lr], #-1375	; 0x55f
    9e48:	625f6c69 	subsvs	r6, pc, #26880	; 0x6900
    9e4c:	00006b6c 	andeq	r6, r0, ip, ror #22
    9e50:	494e4150 	stmdbmi	lr, {r4, r6, r8, lr}^
    9e54:	73253a43 	teqvc	r5, #274432	; 0x43000
    9e58:	3a73253a 	bcc	1cd3348 <__bss_end__+0x1cc9018>
    9e5c:	6e3a6425 	cdpvs	4, 3, cr6, cr10, cr5, {1}
    9e60:	65747962 	ldrbvs	r7, [r4, #-2402]!	; 0x962
    9e64:	0a303e73 	beq	c19838 <__bss_end__+0xc0f508>
    9e68:	00000000 	andeq	r0, r0, r0
    9e6c:	732d796d 	teqvc	sp, #1785856	; 0x1b4000
    9e70:	732f6372 	teqvc	pc, #-939524095	; 0xc8000001
    9e74:	61752d77 	cmnvs	r5, r7, ror sp
    9e78:	632e7472 	teqvs	lr, #1912602624	; 0x72000000
    9e7c:	00000000 	andeq	r0, r0, r0
    9e80:	494e4150 	stmdbmi	lr, {r4, r6, r8, lr}^
    9e84:	73253a43 	teqvc	r5, #274432	; 0x43000
    9e88:	3a73253a 	bcc	1cd3378 <__bss_end__+0x1cc9048>
    9e8c:	283a6425 	ldmdacs	sl!, {r0, r2, r5, sl, sp, lr}
    9e90:	207a686d 	rsbscs	r6, sl, sp, ror #16
    9e94:	6162202d 	cmnvs	r2, sp, lsr #32
    9e98:	20296475 	eorcs	r6, r9, r5, ror r4
    9e9c:	64203d3c 	strtvs	r3, [r0], #-3388	; 0xd3c
    9ea0:	76697265 	strbtvc	r7, [r9], -r5, ror #4
    9ea4:	26206465 	strtcs	r6, [r0], -r5, ror #8
    9ea8:	65642026 	strbvs	r2, [r4, #-38]!	; 0x26
    9eac:	65766972 	ldrbvs	r6, [r6, #-2418]!	; 0x972
    9eb0:	3d3c2064 	ldccc	0, cr2, [ip, #-400]!	; 0xfffffe70
    9eb4:	686d2820 	stmdavs	sp!, {r5, fp, sp}^
    9eb8:	202b207a 	eorcs	r2, fp, sl, ror r0
    9ebc:	64756162 	ldrbtvs	r6, [r5], #-354	; 0x162
    9ec0:	00000a29 	andeq	r0, r0, r9, lsr #20
    9ec4:	494e4150 	stmdbmi	lr, {r4, r6, r8, lr}^
    9ec8:	73253a43 	teqvc	r5, #274432	; 0x43000
    9ecc:	3a73253a 	bcc	1cd33bc <__bss_end__+0x1cc908c>
    9ed0:	693a6425 	ldmdbvs	sl!, {r0, r2, r5, sl, sp, lr}
    9ed4:	736f706d 	cmnvc	pc, #109	; 0x6d
    9ed8:	6c626973 	stclvs	9, cr6, [r2], #-460	; 0xfffffe34
    9edc:	68203a65 	stmdavs	r0!, {r0, r2, r5, r6, r9, fp, ip, sp}
    9ee0:	20657661 	rsbcs	r7, r5, r1, ror #12
    9ee4:	69206e61 	stmdbvs	r0!, {r0, r5, r6, r9, sl, fp, sp, lr}
    9ee8:	6e69666e 	cdpvs	6, 6, cr6, cr9, cr14, {3}
    9eec:	20657469 	rsbcs	r7, r5, r9, ror #8
    9ef0:	656d6974 	strbvs	r6, [sp, #-2420]!	; 0x974
    9ef4:	2174756f 	cmncs	r4, pc, ror #10
    9ef8:	00000a0a 	andeq	r0, r0, sl, lsl #20
    9efc:	494e4150 	stmdbmi	lr, {r4, r6, r8, lr}^
    9f00:	73253a43 	teqvc	r5, #274432	; 0x43000
    9f04:	3a73253a 	bcc	1cd33f4 <__bss_end__+0x1cc90c4>
    9f08:	733a6425 	teqvc	sl, #620756992	; 0x25000000
    9f0c:	203c207a 	eorscs	r2, ip, sl, ror r0
    9f10:	657a6973 	ldrbvs	r6, [sl, #-2419]!	; 0x973
    9f14:	6220666f 	eorvs	r6, r0, #116391936	; 0x6f00000
    9f18:	312d6675 	teqcc	sp, r5, ror r6
    9f1c:	0000000a 	andeq	r0, r0, sl

Disassembly of section .bss:

00009f20 <__bss_start__>:
	...

0000a320 <console_uart>:
	...

Disassembly of section .ARM.attributes:

00000000 <.ARM.attributes>:
   0:	00002a41 	andeq	r2, r0, r1, asr #20
   4:	61656100 	cmnvs	r5, r0, lsl #2
   8:	01006962 	tsteq	r0, r2, ror #18
   c:	00000020 	andeq	r0, r0, r0, lsr #32
  10:	4b5a3605 	blmi	168d82c <__bss_end__+0x16834fc>
  14:	08070600 	stmdaeq	r7, {r9, sl}
  18:	12010901 	andne	r0, r1, #16384	; 0x4000
  1c:	15011404 	strne	r1, [r1, #-1028]	; 0x404
  20:	18031701 	stmdane	r3, {r0, r8, r9, sl, ip}
  24:	22011a01 	andcs	r1, r1, #4096	; 0x1000
  28:	Address 0x0000000000000028 is out of bounds.


Disassembly of section .comment:

00000000 <.comment>:
   0:	3a434347 	bcc	10d0d24 <__bss_end__+0x10c69f4>
   4:	4e472820 	cdpmi	8, 4, cr2, cr7, cr0, {1}
   8:	34202955 	strtcc	r2, [r0], #-2389	; 0x955
   c:	332e382e 	teqcc	lr, #3014656	; 0x2e0000
	...

Disassembly of section .debug_info:

00000000 <.debug_info>:
       0:	000003df 	ldrdeq	r0, [r0], -pc	; <UNPREDICTABLE>
       4:	00000004 	andeq	r0, r0, r4
       8:	01040000 	mrseq	r0, (UNDEF: 4)
       c:	0000006e 	andeq	r0, r0, lr, rrx
      10:	00003801 	andeq	r3, r0, r1, lsl #16
      14:	0001f000 	andeq	pc, r1, r0
      18:	00801000 	addeq	r1, r0, r0
      1c:	00015800 	andeq	r5, r1, r0, lsl #16
      20:	00000000 	andeq	r0, r0, r0
      24:	05040200 	streq	r0, [r4, #-512]	; 0x200
      28:	00746e69 	rsbseq	r6, r4, r9, ror #28
      2c:	6a070403 	bvs	1c1040 <__bss_end__+0x1b6d10>
      30:	03000001 	movweq	r0, #1
      34:	00e10601 	rsceq	r0, r1, r1, lsl #12
      38:	02030000 	andeq	r0, r3, #0
      3c:	0001d005 	andeq	sp, r1, r5
      40:	05040300 	streq	r0, [r4, #-768]	; 0x300
      44:	000001ac 	andeq	r0, r0, ip, lsr #3
      48:	a7050803 	strge	r0, [r5, -r3, lsl #16]
      4c:	04000001 	streq	r0, [r0], #-1
      50:	00000177 	andeq	r0, r0, r7, ror r1
      54:	005a2e02 	subseq	r2, sl, r2, lsl #28
      58:	01030000 	mrseq	r0, (UNDEF: 3)
      5c:	0000df08 	andeq	sp, r0, r8, lsl #30
      60:	07020300 	streq	r0, [r2, -r0, lsl #6]
      64:	00000043 	andeq	r0, r0, r3, asr #32
      68:	00026204 	andeq	r6, r2, r4, lsl #4
      6c:	73340200 	teqvc	r4, #0, 4
      70:	03000000 	movweq	r0, #0
      74:	01650704 	cmneq	r5, r4, lsl #14
      78:	08030000 	stmdaeq	r3, {}	; <UNPREDICTABLE>
      7c:	00016007 	andeq	r6, r1, r7
      80:	07040300 	streq	r0, [r4, -r0, lsl #6]
      84:	0000019e 	muleq	r0, lr, r1
      88:	01030405 	tsteq	r3, r5, lsl #8
      8c:	0000e808 	andeq	lr, r0, r8, lsl #16
      90:	97040600 	strls	r0, [r4, -r0, lsl #12]
      94:	07000000 	streq	r0, [r0, -r0]
      98:	0000008a 	andeq	r0, r0, sl, lsl #1
      9c:	00008a08 	andeq	r8, r0, r8, lsl #20
      a0:	0000ac00 	andeq	sl, r0, r0, lsl #24
      a4:	00810900 	addeq	r0, r1, r0, lsl #18
      a8:	00070000 	andeq	r0, r7, r0
      ac:	0e05010a 	adfeqs	f0, f5, #2.0
      b0:	00000127 	andeq	r0, r0, r7, lsr #2
      b4:	0000cd0b 	andeq	ip, r0, fp, lsl #26
      b8:	090b0000 	stmdbeq	fp, {}	; <UNPREDICTABLE>
      bc:	01000000 	mrseq	r0, (UNDEF: 0)
      c0:	00012c0b 	andeq	r2, r1, fp, lsl #24
      c4:	3c0b0200 	sfmcc	f0, 4, [fp], {-0}
      c8:	03000001 	movweq	r0, #1
      cc:	0001e60b 	andeq	lr, r1, fp, lsl #12
      d0:	270b0400 	strcs	r0, [fp, -r0, lsl #8]
      d4:	05000000 	streq	r0, [r0, #-0]
      d8:	0001bf0b 	andeq	fp, r1, fp, lsl #30
      dc:	200b0600 	andcs	r0, fp, r0, lsl #12
      e0:	07000001 	streq	r0, [r0, -r1]
      e4:	0001920b 	andeq	r9, r1, fp, lsl #4
      e8:	610b0800 	tstvs	fp, r0, lsl #16
      ec:	09000000 	stmdbeq	r0, {}	; <UNPREDICTABLE>
      f0:	00017f0b 	andeq	r7, r1, fp, lsl #30
      f4:	190b0a00 	stmdbne	fp, {r9, fp}
      f8:	0b000000 	bleq	100 <_start-0x7f00>
      fc:	00027a0b 	andeq	r7, r2, fp, lsl #20
     100:	4f0b0c00 	svcmi	0x000b0c00
     104:	0d000002 	stceq	0, cr0, [r0, #-8]
     108:	0001570b 	andeq	r5, r1, fp, lsl #14
     10c:	fa0b0e00 	blx	2c3914 <__bss_end__+0x2b95e4>
     110:	0f000000 	svceq	0x00000000
     114:	0001080b 	andeq	r0, r1, fp, lsl #16
     118:	120b1000 	andne	r1, fp, #0
     11c:	11000000 	mrsne	r0, (UNDEF: 0)
     120:	0001da0b 	andeq	sp, r1, fp, lsl #20
     124:	0c001200 	sfmeq	f1, 4, [r0], {-0}
     128:	00000056 	andeq	r0, r0, r6, asr r0
     12c:	80101e01 	andshi	r1, r0, r1, lsl #28
     130:	002c0000 	eoreq	r0, ip, r0
     134:	9c010000 	stcls	0, cr0, [r1], {-0}
     138:	00000186 	andeq	r0, r0, r6, lsl #3
     13c:	00076e0d 	andeq	r6, r7, sp, lsl #28
     140:	881e0100 	ldmdahi	lr, {r8}
     144:	00000000 	andeq	r0, r0, r0
     148:	0e000000 	cdpeq	0, 0, cr0, cr0, cr0, {0}
     14c:	1e01006e 	cdpne	0, 0, cr0, cr1, cr14, {3}
     150:	0000002c 	andeq	r0, r0, ip, lsr #32
     154:	0000001e 	andeq	r0, r0, lr, lsl r0
     158:	0100700f 	tsteq	r0, pc
     15c:	0001861f 	andeq	r8, r1, pc, lsl r6
     160:	00003c00 	andeq	r3, r0, r0, lsl #24
     164:	801c1000 	andshi	r1, ip, r0
     168:	001c0000 	andseq	r0, ip, r0
     16c:	690f0000 	stmdbvs	pc, {}	; <UNPREDICTABLE>
     170:	25200100 	strcs	r0, [r0, #-256]!	; 0x100
     174:	5a000000 	bpl	17c <_start-0x7e84>
     178:	11000000 	mrsne	r0, (UNDEF: 0)
     17c:	00008028 	andeq	r8, r0, r8, lsr #32
     180:	00000369 	andeq	r0, r0, r9, ror #6
     184:	04060000 	streq	r0, [r6], #-0
     188:	0000004f 	andeq	r0, r0, pc, asr #32
     18c:	0000c512 	andeq	ip, r0, r2, lsl r5
     190:	3c240100 	stfccs	f0, [r4], #-0
     194:	2c000080 	stccs	0, cr0, [r0], {128}	; 0x80
     198:	01000001 	tsteq	r0, r1
     19c:	0003649c 	muleq	r3, ip, r4
     1a0:	706f1300 	rsbvc	r1, pc, r0, lsl #6
     1a4:	4f310100 	svcmi	0x00310100
     1a8:	02000000 	andeq	r0, r0, #0
     1ac:	6e136f91 	mrcvs	15, 0, r6, cr3, cr1, {4}
     1b0:	68320100 	ldmdavs	r2!, {r8}
     1b4:	02000000 	andeq	r0, r0, #0
     1b8:	63136891 	tstvs	r3, #9502720	; 0x910000
     1bc:	01006372 	tsteq	r0, r2, ror r3
     1c0:	00006832 	andeq	r6, r0, r2, lsr r8
     1c4:	64910200 	ldrvs	r0, [r1], #512	; 0x200
     1c8:	00010314 	andeq	r0, r1, r4, lsl r3
     1cc:	88330100 	ldmdahi	r3!, {r8}
     1d0:	02000000 	andeq	r0, r0, #0
     1d4:	4a156091 	bmi	558420 <__bss_end__+0x54e0f0>
     1d8:	64000001 	strvs	r0, [r0], #-1
     1dc:	05000003 	streq	r0, [r0, #-3]
     1e0:	0097f003 	addseq	pc, r7, r3
     1e4:	01171600 	tsteq	r7, r0, lsl #12
     1e8:	4d010000 	stcmi	0, cr0, [r1, #-0]
     1ec:	00000068 	andeq	r0, r0, r8, rrx
     1f0:	00810417 	addeq	r0, r1, r7, lsl r4
     1f4:	00004800 	andeq	r4, r0, r0, lsl #16
     1f8:	00023e00 	andeq	r3, r2, r0, lsl #28
     1fc:	00690f00 	rsbeq	r0, r9, r0, lsl #30
     200:	00255201 	eoreq	r5, r5, r1, lsl #4
     204:	00790000 	rsbseq	r0, r9, r0
     208:	2c180000 	ldccs	0, cr0, [r8], {-0}
     20c:	74000081 	strvc	r0, [r0], #-129	; 0x81
     210:	24000003 	strcs	r0, [r0], #-3
     214:	19000002 	stmdbne	r0, {r1}
     218:	74025101 	strvc	r5, [r2], #-257	; 0x101
     21c:	50011900 	andpl	r1, r1, r0, lsl #18
     220:	00007602 	andeq	r7, r0, r2, lsl #12
     224:	00813811 	addeq	r3, r1, r1, lsl r8
     228:	00038a00 	andeq	r8, r3, r0, lsl #20
     22c:	81401a00 	cmphi	r0, r0, lsl #20
     230:	03740000 	cmneq	r4, #0
     234:	01190000 	tsteq	r9, r0
     238:	00750250 	rsbseq	r0, r5, r0, asr r2
     23c:	48110000 	ldmdami	r1, {}	; <UNPREDICTABLE>
     240:	9b000080 	blls	448 <_start-0x7bb8>
     244:	18000003 	stmdane	r0, {r0, r1}
     248:	00008050 	andeq	r8, r0, r0, asr r0
     24c:	000003a2 	andeq	r0, r0, r2, lsr #7
     250:	0000025a 	andeq	r0, r0, sl, asr r2
     254:	01500119 	cmpeq	r0, r9, lsl r1
     258:	64180038 	ldrvs	r0, [r8], #-56	; 0x38
     25c:	27000080 	strcs	r0, [r0, -r0, lsl #1]
     260:	73000001 	movwvc	r0, #1
     264:	19000002 	stmdbne	r0, {r1}
     268:	31015101 	tstcc	r1, r1, lsl #2
     26c:	02500119 	subseq	r0, r0, #1073741830	; 0x40000006
     270:	18006791 	stmdane	r0, {r0, r4, r7, r8, r9, sl, sp, lr}
     274:	00008070 	andeq	r8, r0, r0, ror r0
     278:	00000127 	andeq	r0, r0, r7, lsr #2
     27c:	0000028c 	andeq	r0, r0, ip, lsl #5
     280:	01510119 	cmpeq	r1, r9, lsl r1
     284:	50011934 	andpl	r1, r1, r4, lsr r9
     288:	00609102 	rsbeq	r9, r0, r2, lsl #2
     28c:	00807c18 	addeq	r7, r0, r8, lsl ip
     290:	00012700 	andeq	r2, r1, r0, lsl #14
     294:	0002a500 	andeq	sl, r2, r0, lsl #10
     298:	51011900 	tstpl	r1, r0, lsl #18
     29c:	01193401 	tsteq	r9, r1, lsl #8
     2a0:	58910250 	ldmpl	r1, {r4, r6, r9}
     2a4:	80881800 	addhi	r1, r8, r0, lsl #16
     2a8:	01270000 	teqeq	r7, r0
     2ac:	02be0000 	adcseq	r0, lr, #0
     2b0:	01190000 	tsteq	r9, r0
     2b4:	19340151 	ldmdbne	r4!, {r0, r4, r6, r8}
     2b8:	91025001 	tstls	r2, r1
     2bc:	9811005c 	ldmdals	r1, {r2, r3, r4, r6}
     2c0:	b3000080 	movwlt	r0, #128	; 0x80
     2c4:	18000003 	stmdane	r0, {r0, r1}
     2c8:	000080ac 	andeq	r8, r0, ip, lsr #1
     2cc:	00000374 	andeq	r0, r0, r4, ror r3
     2d0:	000002f6 	strdeq	r0, [r0], -r6
     2d4:	02530119 	subseq	r0, r3, #1073741830	; 0x40000006
     2d8:	01194508 	tsteq	r9, r8, lsl #10
     2dc:	f0030552 			; <UNDEFINED> instruction: 0xf0030552
     2e0:	19000097 	stmdbne	r0, {r0, r1, r2, r4, r7}
     2e4:	03055101 	movweq	r5, #20737	; 0x5101
     2e8:	00009814 	andeq	r9, r0, r4, lsl r8
     2ec:	05500119 	ldrbeq	r0, [r0, #-281]	; 0x119
     2f0:	0097f803 	addseq	pc, r7, r3, lsl #16
     2f4:	b0110000 	andslt	r0, r1, r0
     2f8:	ba000080 	blt	500 <_start-0x7b00>
     2fc:	11000003 	tstne	r0, r3
     300:	000080c0 	andeq	r8, r0, r0, asr #1
     304:	000003b3 			; <UNDEFINED> instruction: 0x000003b3
     308:	0080e418 	addeq	lr, r0, r8, lsl r4
     30c:	00037400 	andeq	r7, r3, r0, lsl #8
     310:	00033f00 	andeq	r3, r3, r0, lsl #30
     314:	53011900 	movwpl	r1, #6400	; 0x1900
     318:	19490802 	stmdbne	r9, {r1, fp}^
     31c:	03055201 	movweq	r5, #20993	; 0x5201
     320:	000097f0 	strdeq	r9, [r0], -r0
     324:	05510119 	ldrbeq	r0, [r1, #-281]	; 0x119
     328:	00981403 	addseq	r1, r8, r3, lsl #8
     32c:	50011900 	andpl	r1, r1, r0, lsl #18
     330:	98200305 	stmdals	r0!, {r0, r2, r8, r9}
     334:	02190000 	andseq	r0, r9, #0
     338:	4203047d 	andmi	r0, r3, #2097152000	; 0x7d000000
     33c:	11002447 	tstne	r0, r7, asr #8
     340:	000080e8 	andeq	r8, r0, r8, ror #1
     344:	000003ba 			; <UNDEFINED> instruction: 0x000003ba
     348:	0080f411 	addeq	pc, r0, r1, lsl r4	; <UNPREDICTABLE>
     34c:	00012700 	andeq	r2, r1, r0, lsl #14
     350:	81041100 	mrshi	r1, (UNDEF: 20)
     354:	03c10000 	biceq	r0, r1, #0
     358:	50110000 	andspl	r0, r1, r0
     35c:	ba000081 	blt	568 <_start-0x7a98>
     360:	00000003 	andeq	r0, r0, r3
     364:	00009c07 	andeq	r9, r0, r7, lsl #24
     368:	061c1b00 	ldreq	r1, [ip], -r0, lsl #22
     36c:	3b030000 	blcc	c0374 <__bss_end__+0xb6044>
     370:	00000025 	andeq	r0, r0, r5, lsr #32
     374:	0003141c 	andeq	r1, r3, ip, lsl r4
     378:	25290300 	strcs	r0, [r9, #-768]!	; 0x300
     37c:	8a000000 	bhi	384 <_start-0x7c7c>
     380:	1d000003 	stcne	0, cr0, [r0, #-12]
     384:	00000091 	muleq	r0, r1, r0
     388:	001f001e 	andseq	r0, pc, lr, lsl r0	; <UNPREDICTABLE>
     38c:	03000000 	movweq	r0, #0
     390:	00039bb1 			; <UNDEFINED> instruction: 0x00039bb1
     394:	002c1d00 	eoreq	r1, ip, r0, lsl #26
     398:	20000000 	andcs	r0, r0, r0
     39c:	000000d5 	ldrdeq	r0, [r0], -r5
     3a0:	b01f3a03 	andslt	r3, pc, r3, lsl #20
     3a4:	03000004 	movweq	r0, #4
     3a8:	0003b33c 	andeq	fp, r3, ip, lsr r3
     3ac:	002c1d00 	eoreq	r1, ip, r0, lsl #26
     3b0:	20000000 	andcs	r0, r0, r0
     3b4:	0000026b 	andeq	r0, r0, fp, ror #4
     3b8:	ed201e03 	stc	14, cr1, [r0, #-12]!
     3bc:	03000000 	movweq	r0, #0
     3c0:	01b51c66 			; <UNDEFINED> instruction: 0x01b51c66
     3c4:	01040000 	mrseq	r0, (UNDEF: 4)
     3c8:	00000068 	andeq	r0, r0, r8, rrx
     3cc:	000003db 	ldrdeq	r0, [r0], -fp
     3d0:	0003db1d 	andeq	sp, r3, sp, lsl fp
     3d4:	002c1d00 	eoreq	r1, ip, r0, lsl #26
     3d8:	06000000 	streq	r0, [r0], -r0
     3dc:	0003e104 	andeq	lr, r3, r4, lsl #2
     3e0:	66002100 	strvs	r2, [r0], -r0, lsl #2
     3e4:	04000001 	streq	r0, [r0], #-1
     3e8:	0001ad00 	andeq	sl, r1, r0, lsl #26
     3ec:	6e010400 	cfcpysvs	mvf0, mvf1
     3f0:	01000000 	mrseq	r0, (UNDEF: 0)
     3f4:	00000296 	muleq	r0, r6, r2
     3f8:	000002ab 	andeq	r0, r0, fp, lsr #5
     3fc:	00008168 	andeq	r8, r0, r8, ror #2
     400:	00000050 	andeq	r0, r0, r0, asr r0
     404:	0000018e 	andeq	r0, r0, lr, lsl #3
     408:	e1060102 	tst	r6, r2, lsl #2
     40c:	02000000 	andeq	r0, r0, #0
     410:	01d00502 	bicseq	r0, r0, r2, lsl #10
     414:	04020000 	streq	r0, [r2], #-0
     418:	0001ac05 	andeq	sl, r1, r5, lsl #24
     41c:	05080200 	streq	r0, [r8, #-512]	; 0x200
     420:	000001a7 	andeq	r0, r0, r7, lsr #3
     424:	00017703 	andeq	r7, r1, r3, lsl #14
     428:	4c2e0200 	sfmmi	f0, 4, [lr], #-0
     42c:	02000000 	andeq	r0, r0, #0
     430:	00df0801 	sbcseq	r0, pc, r1, lsl #16
     434:	02020000 	andeq	r0, r2, #0
     438:	00004307 	andeq	r4, r0, r7, lsl #6
     43c:	02620300 	rsbeq	r0, r2, #0, 6
     440:	34020000 	strcc	r0, [r2], #-0
     444:	00000065 	andeq	r0, r0, r5, rrx
     448:	65070402 	strvs	r0, [r7, #-1026]	; 0x402
     44c:	02000001 	andeq	r0, r0, #1
     450:	01600708 	cmneq	r0, r8, lsl #14
     454:	04040000 	streq	r0, [r4], #-0
     458:	746e6905 	strbtvc	r6, [lr], #-2309	; 0x905
     45c:	07040200 	streq	r0, [r4, -r0, lsl #4]
     460:	0000016a 	andeq	r0, r0, sl, ror #2
     464:	0002a105 	andeq	sl, r2, r5, lsl #2
     468:	5a360100 	bpl	d80870 <__bss_end__+0xd76540>
     46c:	68000000 	stmdavs	r0, {}	; <UNPREDICTABLE>
     470:	40000081 	andmi	r0, r0, r1, lsl #1
     474:	01000000 	mrseq	r0, (UNDEF: 0)
     478:	0000d59c 	muleq	r0, ip, r5
     47c:	75620600 	strbvc	r0, [r2, #-1536]!	; 0x600
     480:	36010066 	strcc	r0, [r1], -r6, rrx
     484:	000000d5 	ldrdeq	r0, [r0], -r5
     488:	00000098 	muleq	r0, r8, r0
     48c:	0002ef07 	andeq	lr, r2, r7, lsl #30
     490:	7a360100 	bvc	d80898 <__bss_end__+0xd76568>
     494:	b9000000 	stmdblt	r0, {}	; <UNPREDICTABLE>
     498:	06000000 	streq	r0, [r0], -r0
     49c:	00637263 	rsbeq	r7, r3, r3, ror #4
     4a0:	005a3601 	subseq	r3, sl, r1, lsl #12
     4a4:	00ed0000 	rsceq	r0, sp, r0
     4a8:	70080000 	andvc	r0, r8, r0
     4ac:	dc370100 	ldfles	f0, [r7], #-0
     4b0:	0b000000 	bleq	4b8 <_start-0x7b48>
     4b4:	00000001 	andeq	r0, r0, r1
     4b8:	00db0409 	sbcseq	r0, fp, r9, lsl #8
     4bc:	090a0000 	stmdbeq	sl, {}	; <UNPREDICTABLE>
     4c0:	0000e204 	andeq	lr, r0, r4, lsl #4
     4c4:	00410b00 	subeq	r0, r1, r0, lsl #22
     4c8:	b50c0000 	strlt	r0, [ip, #-0]
     4cc:	01000001 	tsteq	r0, r1
     4d0:	00005a3f 	andeq	r5, r0, pc, lsr sl
     4d4:	0081a800 	addeq	sl, r1, r0, lsl #16
     4d8:	00001000 	andeq	r1, r0, r0
     4dc:	3c9c0100 	ldfccs	f0, [ip], {0}
     4e0:	06000001 	streq	r0, [r0], -r1
     4e4:	00667562 	rsbeq	r7, r6, r2, ror #10
     4e8:	00d53f01 	sbcseq	r3, r5, r1, lsl #30
     4ec:	01360000 	teqeq	r6, r0
     4f0:	ef070000 	svc	0x00070000
     4f4:	01000002 	tsteq	r0, r2
     4f8:	00007a3f 	andeq	r7, r0, pc, lsr sl
     4fc:	00015700 	andeq	r5, r1, r0, lsl #14
     500:	81b40d00 			; <UNDEFINED> instruction: 0x81b40d00
     504:	00810000 	addeq	r0, r1, r0
     508:	010e0000 	mrseq	r0, (UNDEF: 14)
     50c:	0e300152 	mrceq	1, 1, r0, cr0, cr2, {2}
     510:	f3035101 	vrhadd.u8	d5, d3, d1
     514:	010e5101 	tsteq	lr, r1, lsl #2
     518:	01f30350 	mvnseq	r0, r0, asr r3
     51c:	0f000050 	svceq	0x00000050
     520:	0000005a 	andeq	r0, r0, sl, asr r0
     524:	0000014c 	andeq	r0, r0, ip, asr #2
     528:	00014c10 	andeq	r4, r1, r0, lsl ip
     52c:	0200ff00 	andeq	pc, r0, #0, 30
     530:	019e0704 	orrseq	r0, lr, r4, lsl #14
     534:	8c110000 	ldchi	0, cr0, [r1], {-0}
     538:	01000002 	tsteq	r0, r2
     53c:	00016408 	andeq	r6, r1, r8, lsl #8
     540:	98030500 	stmdals	r3, {r8, sl}
     544:	0b000098 	bleq	7ac <_start-0x7854>
     548:	0000013c 	andeq	r0, r0, ip, lsr r1
     54c:	00019100 	andeq	r9, r1, r0, lsl #2
     550:	94000400 	strls	r0, [r0], #-1024	; 0x400
     554:	04000002 	streq	r0, [r0], #-2
     558:	00006e01 	andeq	r6, r0, r1, lsl #28
     55c:	03030100 	movweq	r0, #12544	; 0x3100
     560:	02ab0000 	adceq	r0, fp, #0
     564:	81b80000 			; <UNDEFINED> instruction: 0x81b80000
     568:	00580000 	subseq	r0, r8, r0
     56c:	02380000 	eorseq	r0, r8, #0
     570:	f4020000 	vst4.8	{d0-d3}, [r2], r0
     574:	02000002 	andeq	r0, r0, #2
     578:	00003028 	andeq	r3, r0, r8, lsr #32
     57c:	031b0300 	tsteq	fp, #0, 6
     580:	03040000 	movweq	r0, #16384	; 0x4000
     584:	00004700 	andeq	r4, r0, r0, lsl #14
     588:	032a0400 	teqeq	sl, #0, 8
     58c:	00470000 	subeq	r0, r7, r0
     590:	00000000 	andeq	r0, r0, r0
     594:	1d020405 	cfstrsne	mvf0, [r2, #-20]	; 0xffffffec
     598:	02000003 	andeq	r0, r0, #3
     59c:	00002562 	andeq	r2, r0, r2, ror #10
     5a0:	05040600 	streq	r0, [r4, #-1536]	; 0x600
     5a4:	00746e69 	rsbseq	r6, r4, r9, ror #28
     5a8:	6a070407 	bvs	1c15cc <__bss_end__+0x1b729c>
     5ac:	07000001 	streq	r0, [r0, -r1]
     5b0:	00e10601 	rsceq	r0, r1, r1, lsl #12
     5b4:	02070000 	andeq	r0, r7, #0
     5b8:	0001d005 	andeq	sp, r1, r5
     5bc:	05040700 	streq	r0, [r4, #-1792]	; 0x700
     5c0:	000001ac 	andeq	r0, r0, ip, lsr #3
     5c4:	a7050807 	strge	r0, [r5, -r7, lsl #16]
     5c8:	07000001 	streq	r0, [r0, -r1]
     5cc:	00df0801 	sbcseq	r0, pc, r1, lsl #16
     5d0:	02070000 	andeq	r0, r7, #0
     5d4:	00004307 	andeq	r4, r0, r7, lsl #6
     5d8:	07040700 	streq	r0, [r4, -r0, lsl #14]
     5dc:	00000165 	andeq	r0, r0, r5, ror #2
     5e0:	60070807 	andvs	r0, r7, r7, lsl #16
     5e4:	07000001 	streq	r0, [r0, -r1]
     5e8:	019e0704 	orrseq	r0, lr, r4, lsl #14
     5ec:	04080000 	streq	r0, [r8], #-0
     5f0:	000000a7 	andeq	r0, r0, r7, lsr #1
     5f4:	e8080107 	stmda	r8, {r0, r1, r2, r8}
     5f8:	08000000 	stmdaeq	r0, {}	; <UNPREDICTABLE>
     5fc:	0000b404 	andeq	fp, r0, r4, lsl #8
     600:	00a70900 	adceq	r0, r7, r0, lsl #18
     604:	140a0000 	strne	r0, [sl], #-0
     608:	01000003 	tsteq	r0, r3
     60c:	00005406 	andeq	r5, r0, r6, lsl #8
     610:	0081b800 	addeq	fp, r1, r0, lsl #16
     614:	00005800 	andeq	r5, r0, r0, lsl #16
     618:	439c0100 	orrsmi	r0, ip, #0, 2
     61c:	0b000001 	bleq	628 <_start-0x79d8>
     620:	00746d66 	rsbseq	r6, r4, r6, ror #26
     624:	00ae0601 	adceq	r0, lr, r1, lsl #12
     628:	91020000 	mrsls	r0, (UNDEF: 2)
     62c:	620d0c70 	andvs	r0, sp, #112, 24	; 0x7000
     630:	01006675 	tsteq	r0, r5, ror r6
     634:	00014308 	andeq	r4, r1, r8, lsl #6
     638:	20030500 	andcs	r0, r3, r0, lsl #10
     63c:	0e00009f 	mcreq	0, 0, r0, cr0, cr15, {4}
     640:	00000325 	andeq	r0, r0, r5, lsr #6
     644:	00490901 	subeq	r0, r9, r1, lsl #18
     648:	91020000 	mrsls	r0, (UNDEF: 2)
     64c:	7a730f5c 	bvc	1cc43c4 <__bss_end__+0x1cba094>
     650:	540c0100 	strpl	r0, [ip], #-256	; 0x100
     654:	78000000 	stmdavc	r0, {}	; <UNPREDICTABLE>
     658:	10000001 	andne	r0, r0, r1
     65c:	000081e0 	andeq	r8, r0, r0, ror #3
     660:	00000174 	andeq	r0, r0, r4, ror r1
     664:	00000136 	andeq	r0, r0, r6, lsr r1
     668:	02530111 	subseq	r0, r3, #1073741828	; 0x40000004
     66c:	01114c91 			; <UNDEFINED> instruction: 0x01114c91
     670:	48910352 	ldmmi	r1, {r1, r4, r6, r8, r9}
     674:	51011106 	tstpl	r1, r6, lsl #2
     678:	04000a03 	streq	r0, [r0], #-2563	; 0xa03
     67c:	02500111 	subseq	r0, r0, #1073741828	; 0x40000004
     680:	12000074 	andne	r0, r0, #116	; 0x74
     684:	000081f4 	strdeq	r8, [r0], -r4
     688:	02500111 	subseq	r0, r0, #1073741828	; 0x40000004
     68c:	00000074 	andeq	r0, r0, r4, ror r0
     690:	0000a713 	andeq	sl, r0, r3, lsl r7
     694:	00015400 	andeq	r5, r1, r0, lsl #8
     698:	009a1400 	addseq	r1, sl, r0, lsl #8
     69c:	03ff0000 	mvnseq	r0, #0
     6a0:	00541500 	subseq	r1, r4, r0, lsl #10
     6a4:	01630000 	cmneq	r3, r0
     6a8:	ae160000 	cdpge	0, 1, cr0, cr6, cr0, {0}
     6ac:	00000000 	andeq	r0, r0, r0
     6b0:	00037d17 	andeq	r7, r3, r7, lsl sp
     6b4:	6e220400 	cdpvs	4, 2, cr0, cr2, cr0, {0}
     6b8:	08000001 	stmdaeq	r0, {r0}
     6bc:	00015404 	andeq	r5, r1, r4, lsl #8
     6c0:	03111800 	tsteq	r1, #0, 16
     6c4:	02050000 	andeq	r0, r5, #0
     6c8:	00000054 	andeq	r0, r0, r4, asr r0
     6cc:	0000a116 	andeq	sl, r0, r6, lsl r1
     6d0:	00541600 	subseq	r1, r4, r0, lsl #12
     6d4:	ae160000 	cdpge	0, 1, cr0, cr6, cr0, {0}
     6d8:	16000000 	strne	r0, [r0], -r0
     6dc:	00000049 	andeq	r0, r0, r9, asr #32
     6e0:	01130000 	tsteq	r3, r0
     6e4:	00040000 	andeq	r0, r4, r0
     6e8:	000003c5 	andeq	r0, r0, r5, asr #7
     6ec:	006e0104 	rsbeq	r0, lr, r4, lsl #2
     6f0:	4c010000 	stcmi	0, cr0, [r1], {-0}
     6f4:	ab000003 	blge	708 <_start-0x78f8>
     6f8:	10000002 	andne	r0, r0, r2
     6fc:	3c000082 	stccc	0, cr0, [r0], {130}	; 0x82
     700:	3e000000 	cdpcc	0, 0, cr0, cr0, cr0, {0}
     704:	02000003 	andeq	r0, r0, #3
     708:	6e690504 	cdpvs	5, 6, cr0, cr9, cr4, {0}
     70c:	04030074 	streq	r0, [r3], #-116	; 0x74
     710:	00016a07 	andeq	r6, r1, r7, lsl #20
     714:	06010300 	streq	r0, [r1], -r0, lsl #6
     718:	000000e1 	andeq	r0, r0, r1, ror #1
     71c:	d0050203 	andle	r0, r5, r3, lsl #4
     720:	03000001 	movweq	r0, #1
     724:	01ac0504 			; <UNDEFINED> instruction: 0x01ac0504
     728:	08030000 	stmdaeq	r3, {}	; <UNPREDICTABLE>
     72c:	0001a705 	andeq	sl, r1, r5, lsl #14
     730:	08010300 	stmdaeq	r1, {r8, r9}
     734:	000000df 	ldrdeq	r0, [r0], -pc	; <UNPREDICTABLE>
     738:	43070203 	movwmi	r0, #29187	; 0x7203
     73c:	03000000 	movweq	r0, #0
     740:	01650704 	cmneq	r5, r4, lsl #14
     744:	08030000 	stmdaeq	r3, {}	; <UNPREDICTABLE>
     748:	00016007 	andeq	r6, r1, r7
     74c:	07040300 	streq	r0, [r4, -r0, lsl #6]
     750:	0000019e 	muleq	r0, lr, r1
     754:	e8080103 	stmda	r8, {r0, r1, r8}
     758:	04000000 	streq	r0, [r0], #-0
     75c:	0000032f 	andeq	r0, r0, pc, lsr #6
     760:	00250301 	eoreq	r0, r5, r1, lsl #6
     764:	82100000 	andshi	r0, r0, #0
     768:	00140000 	andseq	r0, r4, r0
     76c:	9c010000 	stcls	0, cr0, [r1], {-0}
     770:	000000b0 	strheq	r0, [r0], -r0	; <UNPREDICTABLE>
     774:	01006305 	tsteq	r0, r5, lsl #6
     778:	00002503 	andeq	r2, r0, r3, lsl #10
     77c:	0001a100 	andeq	sl, r1, r0, lsl #2
     780:	821c0600 	andshi	r0, ip, #0, 12
     784:	01090000 	mrseq	r0, (UNDEF: 9)
     788:	01070000 	mrseq	r0, (UNDEF: 7)
     78c:	00740250 	rsbseq	r0, r4, r0, asr r2
     790:	6b080000 	blvs	200798 <__bss_end__+0x1f6468>
     794:	01000002 	tsteq	r0, r2
     798:	00822408 	addeq	r2, r2, r8, lsl #8
     79c:	00001800 	andeq	r1, r0, r0, lsl #16
     7a0:	099c0100 	ldmibeq	ip, {r8}
     7a4:	0000035b 	andeq	r0, r0, fp, asr r3
     7a8:	823c0b01 	eorshi	r0, ip, #1024	; 0x400
     7ac:	00100000 	andseq	r0, r0, r0
     7b0:	9c010000 	stcls	0, cr0, [r1], {-0}
     7b4:	000000e3 	andeq	r0, r0, r3, ror #1
     7b8:	0070660a 	rsbseq	r6, r0, sl, lsl #12
     7bc:	00f20b01 	rscseq	r0, r2, r1, lsl #22
     7c0:	50010000 	andpl	r0, r1, r0
     7c4:	00250b00 	eoreq	r0, r5, r0, lsl #22
     7c8:	00f20000 	rscseq	r0, r2, r0
     7cc:	250c0000 	strcs	r0, [ip, #-0]
     7d0:	00000000 	andeq	r0, r0, r0
     7d4:	00e3040d 	rsceq	r0, r3, sp, lsl #8
     7d8:	400e0000 	andmi	r0, lr, r0
     7dc:	01000003 	tsteq	r0, r3
     7e0:	0000f206 	andeq	pc, r0, r6, lsl #4
     7e4:	54030500 	strpl	r0, [r3], #-1280	; 0x500
     7e8:	0f000097 	svceq	0x00000097
     7ec:	000004b0 			; <UNDEFINED> instruction: 0x000004b0
     7f0:	2c0c3c02 	stccs	12, cr3, [ip], {2}
     7f4:	00000000 	andeq	r0, r0, r0
     7f8:	0000ee00 	andeq	lr, r0, r0, lsl #28
     7fc:	ad000400 	cfstrsge	mvf0, [r0, #-0]
     800:	04000004 	streq	r0, [r0], #-4
     804:	00006e01 	andeq	r6, r0, r1, lsl #28
     808:	03680100 	cmneq	r8, #0, 2
     80c:	02ab0000 	adceq	r0, fp, #0
     810:	824c0000 	subhi	r0, ip, #0
     814:	00340000 	eorseq	r0, r4, r0
     818:	03cc0000 	biceq	r0, ip, #0
     81c:	04020000 	streq	r0, [r2], #-0
     820:	746e6905 	strbtvc	r6, [lr], #-2309	; 0x905
     824:	07040300 	streq	r0, [r4, -r0, lsl #6]
     828:	0000016a 	andeq	r0, r0, sl, ror #2
     82c:	e1060103 	tst	r6, r3, lsl #2
     830:	03000000 	movweq	r0, #0
     834:	01d00502 	bicseq	r0, r0, r2, lsl #10
     838:	04030000 	streq	r0, [r3], #-0
     83c:	0001ac05 	andeq	sl, r1, r5, lsl #24
     840:	05080300 	streq	r0, [r8, #-768]	; 0x300
     844:	000001a7 	andeq	r0, r0, r7, lsr #3
     848:	df080103 	svcle	0x00080103
     84c:	03000000 	movweq	r0, #0
     850:	00430702 	subeq	r0, r3, r2, lsl #14
     854:	04030000 	streq	r0, [r3], #-0
     858:	00016507 	andeq	r6, r1, r7, lsl #10
     85c:	07080300 	streq	r0, [r8, -r0, lsl #6]
     860:	00000160 	andeq	r0, r0, r0, ror #2
     864:	9e070403 	cdpls	4, 0, cr0, cr7, cr3, {0}
     868:	03000001 	movweq	r0, #1
     86c:	00e80801 	rsceq	r0, r8, r1, lsl #16
     870:	04040000 	streq	r0, [r4], #-0
     874:	0000007f 	andeq	r0, r0, pc, ror r0
     878:	00007205 	andeq	r7, r0, r5, lsl #4
     87c:	03740600 	cmneq	r4, #0, 12
     880:	04010000 	streq	r0, [r1], #-0
     884:	00000025 	andeq	r0, r0, r5, lsr #32
     888:	0000824c 	andeq	r8, r0, ip, asr #4
     88c:	00000034 	andeq	r0, r0, r4, lsr r0
     890:	00ab9c01 	adceq	r9, fp, r1, lsl #24
     894:	70070000 	andvc	r0, r7, r0
     898:	79040100 	stmdbvc	r4, {r8}
     89c:	bf000000 	svclt	0x00000000
     8a0:	00000001 	andeq	r0, r0, r1
     8a4:	00002508 	andeq	r2, r0, r8, lsl #10
     8a8:	0000ba00 	andeq	fp, r0, r0, lsl #20
     8ac:	00250900 	eoreq	r0, r5, r0, lsl #18
     8b0:	0a000000 	beq	8b8 <_start-0x7748>
     8b4:	00000340 	andeq	r0, r0, r0, asr #6
     8b8:	00c51d02 	sbceq	r1, r5, r2, lsl #26
     8bc:	04040000 	streq	r0, [r4], #-0
     8c0:	000000ab 	andeq	r0, r0, fp, lsr #1
     8c4:	00002508 	andeq	r2, r0, r8, lsl #10
     8c8:	0000da00 	andeq	sp, r0, r0, lsl #20
     8cc:	00790900 	rsbseq	r0, r9, r0, lsl #18
     8d0:	0b000000 	bleq	8d8 <_start-0x7728>
     8d4:	0000037d 	andeq	r0, r0, sp, ror r3
     8d8:	00eb0c01 	rsceq	r0, fp, r1, lsl #24
     8dc:	03050000 	movweq	r0, #20480	; 0x5000
     8e0:	00009758 	andeq	r9, r0, r8, asr r7
     8e4:	00cb0404 	sbceq	r0, fp, r4, lsl #8
     8e8:	81000000 	mrshi	r0, (UNDEF: 0)
     8ec:	04000006 	streq	r0, [r0], #-6
     8f0:	00054600 	andeq	r4, r5, r0, lsl #12
     8f4:	6e010400 	cfcpysvs	mvf0, mvf1
     8f8:	01000000 	mrseq	r0, (UNDEF: 0)
     8fc:	000003ae 	andeq	r0, r0, lr, lsr #7
     900:	000002ab 	andeq	r0, r0, fp, lsr #5
     904:	00008280 	andeq	r8, r0, r0, lsl #5
     908:	000004f8 	strdeq	r0, [r0], -r8
     90c:	00000466 	andeq	r0, r0, r6, ror #8
     910:	69050402 	stmdbvs	r5, {r1, sl}
     914:	0300746e 	movweq	r7, #1134	; 0x46e
     918:	016a0704 	cmneq	sl, r4, lsl #14
     91c:	01030000 	mrseq	r0, (UNDEF: 3)
     920:	0000e106 	andeq	lr, r0, r6, lsl #2
     924:	05020300 	streq	r0, [r2, #-768]	; 0x300
     928:	000001d0 	ldrdeq	r0, [r0], -r0	; <UNPREDICTABLE>
     92c:	ac050403 	cfstrsge	mvf0, [r5], {3}
     930:	03000001 	movweq	r0, #1
     934:	01a70508 			; <UNDEFINED> instruction: 0x01a70508
     938:	01030000 	mrseq	r0, (UNDEF: 3)
     93c:	0000df08 	andeq	sp, r0, r8, lsl #30
     940:	07020300 	streq	r0, [r2, -r0, lsl #6]
     944:	00000043 	andeq	r0, r0, r3, asr #32
     948:	65070403 	strvs	r0, [r7, #-1027]	; 0x403
     94c:	03000001 	movweq	r0, #1
     950:	01600708 	cmneq	r0, r8, lsl #14
     954:	04030000 	streq	r0, [r3], #-0
     958:	00019e07 	andeq	r9, r1, r7, lsl #28
     95c:	05040400 	streq	r0, [r4, #-1024]	; 0x400
     960:	00007a04 	andeq	r7, r0, r4, lsl #20
     964:	08010300 	stmdaeq	r1, {r8, r9}
     968:	000000e8 	andeq	r0, r0, r8, ror #1
     96c:	00870405 	addeq	r0, r7, r5, lsl #8
     970:	7a060000 	bvc	180978 <__bss_end__+0x176648>
     974:	07000000 	streq	r0, [r0, -r0]
     978:	000002f4 	strdeq	r0, [r0], -r4
     97c:	00972802 	addseq	r2, r7, r2, lsl #16
     980:	1b080000 	blne	200988 <__bss_end__+0x1f6658>
     984:	04000003 	streq	r0, [r0], #-3
     988:	00ae0004 	adceq	r0, lr, r4
     98c:	2a090000 	bcs	240994 <__bss_end__+0x236664>
     990:	72000003 	andvc	r0, r0, #3
     994:	00000000 	andeq	r0, r0, r0
     998:	031d0700 	tsteq	sp, #0, 14
     99c:	62020000 	andvs	r0, r2, #0
     9a0:	0000008c 	andeq	r0, r0, ip, lsl #1
     9a4:	0003900a 	andeq	r9, r3, sl
     9a8:	25270100 	strcs	r0, [r7, #-256]!	; 0x100
     9ac:	80000000 	andhi	r0, r0, r0
     9b0:	14000082 	strne	r0, [r0], #-130	; 0x82
     9b4:	01000000 	mrseq	r0, (UNDEF: 0)
     9b8:	0000e09c 	muleq	r0, ip, r0
     9bc:	00630b00 	rsbeq	r0, r3, r0, lsl #22
     9c0:	00252701 	eoreq	r2, r5, r1, lsl #14
     9c4:	01dd0000 	bicseq	r0, sp, r0
     9c8:	0c000000 	stceq	0, cr0, [r0], {-0}
     9cc:	00646170 	rsbeq	r6, r4, r0, ror r1
     9d0:	00742e01 	rsbseq	r2, r4, r1, lsl #28
     9d4:	82940000 	addshi	r0, r4, #0
     9d8:	002c0000 	eoreq	r0, ip, r0
     9dc:	9c010000 	stcls	0, cr0, [r1], {-0}
     9e0:	00000130 	andeq	r0, r0, r0, lsr r1
     9e4:	0100700b 	tsteq	r0, fp
     9e8:	0000742e 	andeq	r7, r0, lr, lsr #8
     9ec:	00020b00 	andeq	r0, r2, r0, lsl #22
     9f0:	03a00d00 	moveq	r0, #0, 26
     9f4:	2e010000 	cdpcs	0, 0, cr0, cr1, cr0, {0}
     9f8:	00000074 	andeq	r0, r0, r4, ror r0
     9fc:	00000236 	andeq	r0, r0, r6, lsr r2
     a00:	0003ce0e 	andeq	ip, r3, lr, lsl #28
     a04:	252e0100 	strcs	r0, [lr, #-256]!	; 0x100
     a08:	01000000 	mrseq	r0, (UNDEF: 0)
     a0c:	656c0f52 	strbvs	r0, [ip, #-3922]!	; 0xf52
     a10:	2f01006e 	svccs	0x0001006e
     a14:	00000025 	andeq	r0, r0, r5, lsr #32
     a18:	0a005101 	beq	14e24 <__bss_end__+0xaaf4>
     a1c:	00000388 	andeq	r0, r0, r8, lsl #7
     a20:	00743701 	rsbseq	r3, r4, r1, lsl #14
     a24:	82c00000 	sbchi	r0, r0, #0
     a28:	00400000 	subeq	r0, r0, r0
     a2c:	9c010000 	stcls	0, cr0, [r1], {-0}
     a30:	0000019c 	muleq	r0, ip, r1
     a34:	7473640b 	ldrbtvc	r6, [r3], #-1035	; 0x40b
     a38:	74370100 	ldrtvc	r0, [r7], #-256	; 0x100
     a3c:	57000000 	strpl	r0, [r0, -r0]
     a40:	0b000002 	bleq	a50 <_start-0x75b0>
     a44:	3701006e 	strcc	r0, [r1, -lr, rrx]
     a48:	00000025 	andeq	r0, r0, r5, lsr #32
     a4c:	0000028f 	andeq	r0, r0, pc, lsl #5
     a50:	0100700b 	tsteq	r0, fp
     a54:	00007437 	andeq	r7, r0, r7, lsr r4
     a58:	0002b000 	andeq	fp, r2, r0
     a5c:	049c0d00 	ldreq	r0, [ip], #3328	; 0xd00
     a60:	37010000 	strcc	r0, [r1, -r0]
     a64:	00000074 	andeq	r0, r0, r4, ror r0
     a68:	000002e6 	andeq	r0, r0, r6, ror #5
     a6c:	6e656c10 	mcrvs	12, 3, r6, cr5, cr0, {0}
     a70:	25390100 	ldrcs	r0, [r9, #-256]!	; 0x100
     a74:	04000000 	streq	r0, [r0], #-0
     a78:	0f000003 	svceq	0x00000003
     a7c:	3d010073 	stccc	0, cr0, [r1, #-460]	; 0xfffffe34
     a80:	00000074 	andeq	r0, r0, r4, ror r0
     a84:	0a005001 	beq	14a90 <__bss_end__+0xa760>
     a88:	000003dc 	ldrdeq	r0, [r0], -ip
     a8c:	00744701 	rsbseq	r4, r4, r1, lsl #14
     a90:	83000000 	movwhi	r0, #0
     a94:	019c0000 	orrseq	r0, ip, r0
     a98:	9c010000 	stcls	0, cr0, [r1], {-0}
     a9c:	000002d3 	ldrdeq	r0, [r0], -r3
     aa0:	0003a00d 	andeq	sl, r3, sp
     aa4:	2c470100 	stfcse	f0, [r7], {-0}
     aa8:	2b000000 	blcs	ab0 <_start-0x7550>
     aac:	0b000003 	bleq	ac0 <_start-0x7540>
     ab0:	00747364 	rsbseq	r7, r4, r4, ror #6
     ab4:	00744701 	rsbseq	r4, r4, r1, lsl #14
     ab8:	03590000 	cmpeq	r9, #0
     abc:	6e0b0000 	cdpvs	0, 0, cr0, cr11, cr0, {0}
     ac0:	25470100 	strbcs	r0, [r7, #-256]	; 0x100
     ac4:	c7000000 	strgt	r0, [r0, -r0]
     ac8:	0b000003 	bleq	adc <_start-0x7524>
     acc:	006c6176 	rsbeq	r6, ip, r6, ror r1
     ad0:	00254701 	eoreq	r4, r5, r1, lsl #14
     ad4:	03f30000 	mvnseq	r0, #0
     ad8:	ce0d0000 	cdpgt	0, 0, cr0, cr13, cr0, {0}
     adc:	01000003 	tsteq	r0, r3
     ae0:	00002547 	andeq	r2, r0, r7, asr #10
     ae4:	00047200 	andeq	r7, r4, r0, lsl #4
     ae8:	03a50e00 			; <UNDEFINED> instruction: 0x03a50e00
     aec:	47010000 	strmi	r0, [r1, -r0]
     af0:	00000025 	andeq	r0, r0, r5, lsr #32
     af4:	0f049102 	svceq	0x00049102
     af8:	00667562 	rsbeq	r7, r6, r2, ror #10
     afc:	02d34c01 	sbcseq	r4, r3, #256	; 0x100
     b00:	91030000 	mrsls	r0, (UNDEF: 3)
     b04:	70107fa8 	andsvc	r7, r0, r8, lsr #31
     b08:	744c0100 	strbvc	r0, [ip], #-256	; 0x100
     b0c:	9c000000 	stcls	0, cr0, [r0], {-0}
     b10:	10000004 	andne	r0, r0, r4
     b14:	4d010075 	stcmi	0, cr0, [r1, #-468]	; 0xfffffe2c
     b18:	0000002c 	andeq	r0, r0, ip, lsr #32
     b1c:	00000541 	andeq	r0, r0, r1, asr #10
     b20:	00014a11 	andeq	r4, r1, r1, lsl sl
     b24:	0002f300 	andeq	pc, r2, r0, lsl #6
     b28:	98030500 	stmdals	r3, {r8, sl}
     b2c:	1200009c 	andne	r0, r0, #156	; 0x9c
     b30:	0000836c 	andeq	r8, r0, ip, ror #6
     b34:	00000074 	andeq	r0, r0, r4, ror r0
     b38:	00000261 	andeq	r0, r0, r1, ror #4
     b3c:	00038213 	andeq	r8, r3, r3, lsl r2
     b40:	2c520100 	ldfcse	f0, [r2], {-0}
     b44:	46000000 	strmi	r0, [r0], -r0
     b48:	00000006 	andeq	r0, r0, r6
     b4c:	00844014 	addeq	r4, r4, r4, lsl r0
     b50:	00066000 	andeq	r6, r6, r0
     b54:	84541500 	ldrbhi	r1, [r4], #-1280	; 0x500
     b58:	06670000 	strbteq	r0, [r7], -r0
     b5c:	02990000 	addseq	r0, r9, #0
     b60:	01160000 	tsteq	r6, r0
     b64:	75080253 	strvc	r0, [r8, #-595]	; 0x253
     b68:	05520116 	ldrbeq	r0, [r2, #-278]	; 0x116
     b6c:	009c9803 	addseq	r9, ip, r3, lsl #16
     b70:	51011600 	tstpl	r1, r0, lsl #12
     b74:	9cd00305 	ldclls	3, cr0, [r0], {5}
     b78:	01160000 	tsteq	r6, r0
     b7c:	bc030550 	cfstr32lt	mvfx0, [r3], {80}	; 0x50
     b80:	0000009c 	muleq	r0, ip, r0
     b84:	00845814 	addeq	r5, r4, r4, lsl r8
     b88:	00067d00 	andeq	r7, r6, r0, lsl #26
     b8c:	84641500 	strbthi	r1, [r4], #-1280	; 0x500
     b90:	00e00000 	rsceq	r0, r0, r0
     b94:	02b60000 	adcseq	r0, r6, #0
     b98:	01160000 	tsteq	r6, r0
     b9c:	007d0251 	rsbseq	r0, sp, r1, asr r2
     ba0:	84781700 	ldrbthi	r1, [r8], #-1792	; 0x700
     ba4:	01300000 	teqeq	r0, r0
     ba8:	01160000 	tsteq	r6, r0
     bac:	007d0253 	rsbseq	r0, sp, r3, asr r2
     bb0:	02510116 	subseq	r0, r1, #-2147483643	; 0x80000005
     bb4:	01160074 	tsteq	r6, r4, ror r0
     bb8:	00750250 	rsbseq	r0, r5, r0, asr r2
     bbc:	7a180000 	bvc	600bc4 <__bss_end__+0x5f6894>
     bc0:	e3000000 	movw	r0, #0
     bc4:	19000002 	stmdbne	r0, {r1}
     bc8:	0000006b 	andeq	r0, r0, fp, rrx
     bcc:	7a18003f 	bvc	600cd0 <__bss_end__+0x5f69a0>
     bd0:	f3000000 	vhadd.u8	d0, d0, d0
     bd4:	19000002 	stmdbne	r0, {r1}
     bd8:	0000006b 	andeq	r0, r0, fp, rrx
     bdc:	e3060004 	movw	r0, #24580	; 0x6004
     be0:	1a000002 	bne	bf0 <_start-0x7410>
     be4:	000003bf 			; <UNDEFINED> instruction: 0x000003bf
     be8:	849c1f01 	ldrhi	r1, [ip], #3841	; 0xf01
     bec:	00540000 	subseq	r0, r4, r0
     bf0:	9c010000 	stcls	0, cr0, [r1], {-0}
     bf4:	0000037c 	andeq	r0, r0, ip, ror r3
     bf8:	0003d40d 	andeq	sp, r3, sp, lsl #8
     bfc:	8b1f0100 	blhi	7c1004 <__bss_end__+0x7b6cd4>
     c00:	72000003 	andvc	r0, r0, #3
     c04:	0d000006 	stceq	0, cr0, [r0, #-24]	; 0xffffffe8
     c08:	00000398 	muleq	r0, r8, r3
     c0c:	03a01f01 	moveq	r1, #1, 30
     c10:	069e0000 	ldreq	r0, [lr], r0
     c14:	4a110000 	bmi	440c1c <__bss_end__+0x4368ec>
     c18:	b6000001 	strlt	r0, [r0], -r1
     c1c:	05000003 	streq	r0, [r0, #-3]
     c20:	009ca003 	addseq	sl, ip, r3
     c24:	84ac1400 	strthi	r1, [ip], #1024	; 0x400
     c28:	06600000 	strbteq	r0, [r0], -r0
     c2c:	c0150000 	andsgt	r0, r5, r0
     c30:	67000084 	strvs	r0, [r0, -r4, lsl #1]
     c34:	72000006 	andvc	r0, r0, #6
     c38:	16000003 	strne	r0, [r0], -r3
     c3c:	08025301 	stmdaeq	r2, {r0, r8, r9, ip, lr}
     c40:	52011620 	andpl	r1, r1, #32, 12	; 0x2000000
     c44:	9ca00305 	stcls	3, cr0, [r0], #20
     c48:	01160000 	tsteq	r6, r0
     c4c:	d0030551 	andle	r0, r3, r1, asr r5
     c50:	1600009c 			; <UNDEFINED> instruction: 0x1600009c
     c54:	03055001 	movweq	r5, #20481	; 0x5001
     c58:	00009d08 	andeq	r9, r0, r8, lsl #26
     c5c:	84c41400 	strbhi	r1, [r4], #1024	; 0x400
     c60:	067d0000 	ldrbteq	r0, [sp], -r0
     c64:	1b000000 	blne	c6c <_start-0x7394>
     c68:	00000025 	andeq	r0, r0, r5, lsr #32
     c6c:	0000038b 	andeq	r0, r0, fp, lsl #7
     c70:	0000251c 	andeq	r2, r0, ip, lsl r5
     c74:	04050000 	streq	r0, [r5], #-0
     c78:	0000037c 	andeq	r0, r0, ip, ror r3
     c7c:	0000251b 	andeq	r2, r0, fp, lsl r5
     c80:	0003a000 	andeq	sl, r3, r0
     c84:	00811c00 	addeq	r1, r1, r0, lsl #24
     c88:	05000000 	streq	r0, [r0, #-0]
     c8c:	00039104 	andeq	r9, r3, r4, lsl #2
     c90:	007a1800 	rsbseq	r1, sl, r0, lsl #16
     c94:	03b60000 			; <UNDEFINED> instruction: 0x03b60000
     c98:	6b190000 	blvs	640ca0 <__bss_end__+0x636970>
     c9c:	0e000000 	cdpeq	0, 0, cr0, cr0, cr0, {0}
     ca0:	03a60600 			; <UNDEFINED> instruction: 0x03a60600
     ca4:	111d0000 	tstne	sp, r0
     ca8:	01000003 	tsteq	r0, r3
     cac:	0000257d 	andeq	r2, r0, sp, ror r5
     cb0:	0084f000 	addeq	pc, r4, r0
     cb4:	00028800 	andeq	r8, r2, r0, lsl #16
     cb8:	259c0100 	ldrcs	r0, [ip, #256]	; 0x100
     cbc:	0b000006 	bleq	cdc <_start-0x7324>
     cc0:	00667562 	rsbeq	r7, r6, r2, ror #10
     cc4:	00747d01 	rsbseq	r7, r4, r1, lsl #26
     cc8:	06ca0000 	strbeq	r0, [sl], r0
     ccc:	6e0b0000 	cdpvs	0, 0, cr0, cr11, cr0, {0}
     cd0:	257d0100 	ldrbcs	r0, [sp, #-256]!	; 0x100
     cd4:	f6000000 			; <UNDEFINED> instruction: 0xf6000000
     cd8:	0b000006 	bleq	cf8 <_start-0x7308>
     cdc:	00746d66 	rsbseq	r6, r4, r6, ror #26
     ce0:	00817d01 	addeq	r7, r1, r1, lsl #26
     ce4:	07240000 	streq	r0, [r4, -r0]!
     ce8:	250d0000 	strcs	r0, [sp, #-0]
     cec:	01000003 	tsteq	r0, r3
     cf0:	0000ae7d 	andeq	sl, r0, sp, ror lr
     cf4:	00075800 	andeq	r5, r7, r0, lsl #16
     cf8:	00701000 	rsbseq	r1, r0, r0
     cfc:	00747e01 	rsbseq	r7, r4, r1, lsl #28
     d00:	076b0000 	strbeq	r0, [fp, -r0]!
     d04:	65100000 	ldrvs	r0, [r0, #-0]
     d08:	747e0100 	ldrbtvc	r0, [lr], #-256	; 0x100
     d0c:	e9000000 	stmdb	r0, {}	; <UNPREDICTABLE>
     d10:	11000007 	tstne	r0, r7
     d14:	0000014a 	andeq	r0, r0, sl, asr #2
     d18:	00000635 	andeq	r0, r0, r5, lsr r6
     d1c:	9cb00305 	ldcls	3, cr0, [r0], #20
     d20:	001e0000 	andseq	r0, lr, r0
     d24:	10000000 	andne	r0, r0, r0
     d28:	8b010073 	blhi	40efc <__bss_end__+0x36bcc>
     d2c:	00000074 	andeq	r0, r0, r4, ror r0
     d30:	00000810 	andeq	r0, r0, r0, lsl r8
     d34:	6d756e0f 	ldclvs	14, cr6, [r5, #-60]!	; 0xffffffc4
     d38:	3a8b0100 	bcc	fe2c1140 <__bss_end__+0xfe2b6e10>
     d3c:	03000006 	movweq	r0, #6
     d40:	137ed891 	cmnne	lr, #9502720	; 0x910000
     d44:	000003ce 	andeq	r0, r0, lr, asr #7
     d48:	002c8c01 	eoreq	r8, ip, r1, lsl #24
     d4c:	08650000 	stmdaeq	r5!, {}^	; <UNPREDICTABLE>
     d50:	74150000 	ldrvc	r0, [r5], #-0
     d54:	b9000085 	stmdblt	r0, {r0, r2, r7}
     d58:	7b000000 	blvc	d60 <_start-0x72a0>
     d5c:	16000004 	strne	r0, [r0], -r4
     d60:	75025001 	strvc	r5, [r2, #-1]
     d64:	88140000 	ldmdahi	r4, {}	; <UNPREDICTABLE>
     d68:	60000085 	andvs	r0, r0, r5, lsl #1
     d6c:	15000006 	strne	r0, [r0, #-6]
     d70:	0000859c 	muleq	r0, ip, r5
     d74:	00000667 	andeq	r0, r0, r7, ror #12
     d78:	000004b3 			; <UNDEFINED> instruction: 0x000004b3
     d7c:	02530116 	subseq	r0, r3, #-2147483643	; 0x80000005
     d80:	01169208 	tsteq	r6, r8, lsl #4
     d84:	b0030552 	andlt	r0, r3, r2, asr r5
     d88:	1600009c 			; <UNDEFINED> instruction: 0x1600009c
     d8c:	03055101 	movweq	r5, #20737	; 0x5101
     d90:	00009cd0 	ldrdeq	r9, [r0], -r0
     d94:	05500116 	ldrbeq	r0, [r0, #-278]	; 0x116
     d98:	009d2003 	addseq	r2, sp, r3
     d9c:	a0140000 	andsge	r0, r4, r0
     da0:	7d000085 	stcvc	0, cr0, [r0, #-532]	; 0xfffffdec
     da4:	14000006 	strne	r0, [r0], #-6
     da8:	00008610 	andeq	r8, r0, r0, lsl r6
     dac:	00000660 	andeq	r0, r0, r0, ror #12
     db0:	00862415 	addeq	r2, r6, r5, lsl r4
     db4:	00066700 	andeq	r6, r6, r0, lsl #14
     db8:	0004f400 	andeq	pc, r4, r0, lsl #8
     dbc:	53011600 	movwpl	r1, #5632	; 0x1600
     dc0:	16980802 	ldrne	r0, [r8], r2, lsl #16
     dc4:	03055201 	movweq	r5, #20993	; 0x5201
     dc8:	00009cb0 			; <UNDEFINED> instruction: 0x00009cb0
     dcc:	05510116 	ldrbeq	r0, [r1, #-278]	; 0x116
     dd0:	009cd003 	addseq	sp, ip, r3
     dd4:	50011600 	andpl	r1, r1, r0, lsl #12
     dd8:	9d3c0305 	ldcls	3, cr0, [ip, #-20]!	; 0xffffffec
     ddc:	14000000 	strne	r0, [r0], #-0
     de0:	00008628 	andeq	r8, r0, r8, lsr #12
     de4:	0000067d 	andeq	r0, r0, sp, ror r6
     de8:	00864c15 	addeq	r4, r6, r5, lsl ip
     dec:	00019c00 	andeq	r9, r1, r0, lsl #24
     df0:	00052a00 	andeq	r2, r5, r0, lsl #20
     df4:	52011600 	andpl	r1, r1, #0, 12
     df8:	16800802 	strne	r0, [r0], r2, lsl #16
     dfc:	91035101 	tstls	r3, r1, lsl #2
     e00:	01167ed0 			; <UNDEFINED> instruction: 0x01167ed0
     e04:	163a0150 			; <UNDEFINED> instruction: 0x163a0150
     e08:	01047d02 	tsteq	r4, r2, lsl #26
     e0c:	7d021631 	stcvc	6, cr1, [r2, #-196]	; 0xffffff3c
     e10:	00770200 	rsbseq	r0, r7, r0, lsl #4
     e14:	86701500 	ldrbthi	r1, [r0], -r0, lsl #10
     e18:	019c0000 	orrseq	r0, ip, r0
     e1c:	05580000 	ldrbeq	r0, [r8, #-0]
     e20:	01160000 	tsteq	r6, r0
     e24:	80080252 	andhi	r0, r8, r2, asr r2
     e28:	03510116 	cmpeq	r1, #-2147483643	; 0x80000005
     e2c:	167ed091 			; <UNDEFINED> instruction: 0x167ed091
     e30:	3a015001 	bcc	54e3c <__bss_end__+0x4ab0c>
     e34:	047d0216 	ldrbteq	r0, [sp], #-534	; 0x216
     e38:	16007b02 	strne	r7, [r0], -r2, lsl #22
     e3c:	02007d02 	andeq	r7, r0, #2, 26	; 0x80
     e40:	15000077 	strne	r0, [r0, #-119]	; 0x77
     e44:	00008694 	muleq	r0, r4, r6
     e48:	0000019c 	muleq	r0, ip, r1
     e4c:	00000586 	andeq	r0, r0, r6, lsl #11
     e50:	02520116 	subseq	r0, r2, #-2147483643	; 0x80000005
     e54:	01168008 	tsteq	r6, r8
     e58:	d0910351 	addsle	r0, r1, r1, asr r3
     e5c:	5001167e 	andpl	r1, r1, lr, ror r6
     e60:	02164001 	andseq	r4, r6, #1
     e64:	7b02047d 	blvc	82060 <__bss_end__+0x77d30>
     e68:	7d021600 	stcvc	6, cr1, [r2, #-0]
     e6c:	00770200 	rsbseq	r0, r7, r0, lsl #4
     e70:	86b81500 	ldrthi	r1, [r8], r0, lsl #10
     e74:	019c0000 	orrseq	r0, ip, r0
     e78:	05b40000 	ldreq	r0, [r4, #0]!
     e7c:	01160000 	tsteq	r6, r0
     e80:	80080252 	andhi	r0, r8, r2, asr r2
     e84:	03510116 	cmpeq	r1, #-2147483643	; 0x80000005
     e88:	167ed091 			; <UNDEFINED> instruction: 0x167ed091
     e8c:	32015001 	andcc	r5, r1, #1
     e90:	047d0216 	ldrbteq	r0, [sp], #-534	; 0x216
     e94:	16007b02 	strne	r7, [r0], -r2, lsl #22
     e98:	02007d02 	andeq	r7, r0, #2, 26	; 0x80
     e9c:	15000077 	strne	r0, [r0, #-119]	; 0x77
     ea0:	000086e8 	andeq	r8, r0, r8, ror #13
     ea4:	0000019c 	muleq	r0, ip, r1
     ea8:	000005e2 	andeq	r0, r0, r2, ror #11
     eac:	02520116 	subseq	r0, r2, #-2147483643	; 0x80000005
     eb0:	01168008 	tsteq	r6, r8
     eb4:	d0910351 	addsle	r0, r1, r1, asr r3
     eb8:	5001167e 	andpl	r1, r1, lr, ror r6
     ebc:	02163801 	andseq	r3, r6, #65536	; 0x10000
     ec0:	7b02047d 	blvc	820bc <__bss_end__+0x77d8c>
     ec4:	7d021600 	stcvc	6, cr1, [r2, #-0]
     ec8:	00770200 	rsbseq	r0, r7, r0, lsl #4
     ecc:	86f01400 	ldrbthi	r1, [r0], r0, lsl #8
     ed0:	06600000 	strbteq	r0, [r0], -r0
     ed4:	0c150000 	ldceq	0, cr0, [r5], {-0}
     ed8:	67000087 	strvs	r0, [r0, -r7, lsl #1]
     edc:	1a000006 	bne	efc <_start-0x7104>
     ee0:	16000006 	strne	r0, [r0], -r6
     ee4:	08025301 	stmdaeq	r2, {r0, r8, r9, ip, lr}
     ee8:	520116b9 	andpl	r1, r1, #193986560	; 0xb900000
     eec:	9cb00305 	ldcls	3, cr0, [r0], #20
     ef0:	01160000 	tsteq	r6, r0
     ef4:	d0030551 	andle	r0, r3, r1, asr r5
     ef8:	1600009c 			; <UNDEFINED> instruction: 0x1600009c
     efc:	03055001 	movweq	r5, #20481	; 0x5001
     f00:	00009d64 	andeq	r9, r0, r4, ror #26
     f04:	87101400 	ldrhi	r1, [r0, -r0, lsl #8]
     f08:	067d0000 	ldrbteq	r0, [sp], -r0
     f0c:	00000000 	andeq	r0, r0, r0
     f10:	00007a18 	andeq	r7, r0, r8, lsl sl
     f14:	00063500 	andeq	r3, r6, r0, lsl #10
     f18:	006b1900 	rsbeq	r1, fp, r0, lsl #18
     f1c:	00090000 	andeq	r0, r9, r0
     f20:	00062506 	andeq	r2, r6, r6, lsl #10
     f24:	007a1800 	rsbseq	r1, sl, r0, lsl #16
     f28:	064a0000 	strbeq	r0, [sl], -r0
     f2c:	6b190000 	blvs	640f34 <__bss_end__+0x636c04>
     f30:	7f000000 	svcvc	0x00000000
     f34:	03401f00 	movteq	r1, #3840	; 0xf00
     f38:	1d030000 	stcne	0, cr0, [r3, #-0]
     f3c:	0000038b 	andeq	r0, r0, fp, lsl #7
     f40:	00037d1f 	andeq	r7, r3, pc, lsl sp
     f44:	a0220300 	eorge	r0, r2, r0, lsl #6
     f48:	20000003 	andcs	r0, r0, r3
     f4c:	0000026b 	andeq	r0, r0, fp, ror #4
     f50:	14211e03 	strtne	r1, [r1], #-3587	; 0xe03
     f54:	03000003 	movweq	r0, #3
     f58:	00002529 	andeq	r2, r0, r9, lsr #10
     f5c:	00067d00 	andeq	r7, r6, r0, lsl #26
     f60:	00811c00 	addeq	r1, r1, r0, lsl #24
     f64:	00220000 	eoreq	r0, r2, r0
     f68:	0000ed20 	andeq	lr, r0, r0, lsr #26
     f6c:	00660300 	rsbeq	r0, r6, r0, lsl #6
     f70:	000000ff 	strdeq	r0, [r0], -pc	; <UNPREDICTABLE>
     f74:	07220004 	streq	r0, [r2, -r4]!
     f78:	01040000 	mrseq	r0, (UNDEF: 4)
     f7c:	0000006e 	andeq	r0, r0, lr, rrx
     f80:	0003ec01 	andeq	lr, r3, r1, lsl #24
     f84:	0002ab00 	andeq	sl, r2, r0, lsl #22
     f88:	00877800 	addeq	r7, r7, r0, lsl #16
     f8c:	00002800 	andeq	r2, r0, r0, lsl #16
     f90:	00064800 	andeq	r4, r6, r0, lsl #16
     f94:	05040200 	streq	r0, [r4, #-512]	; 0x200
     f98:	00746e69 	rsbseq	r6, r4, r9, ror #28
     f9c:	6a070403 	bvs	1c1fb0 <__bss_end__+0x1b7c80>
     fa0:	03000001 	movweq	r0, #1
     fa4:	00e10601 	rsceq	r0, r1, r1, lsl #12
     fa8:	02030000 	andeq	r0, r3, #0
     fac:	0001d005 	andeq	sp, r1, r5
     fb0:	05040300 	streq	r0, [r4, #-768]	; 0x300
     fb4:	000001ac 	andeq	r0, r0, ip, lsr #3
     fb8:	a7050803 	strge	r0, [r5, -r3, lsl #16]
     fbc:	03000001 	movweq	r0, #1
     fc0:	00df0801 	sbcseq	r0, pc, r1, lsl #16
     fc4:	02030000 	andeq	r0, r3, #0
     fc8:	00004307 	andeq	r4, r0, r7, lsl #6
     fcc:	07040300 	streq	r0, [r4, -r0, lsl #6]
     fd0:	00000165 	andeq	r0, r0, r5, ror #2
     fd4:	60070803 	andvs	r0, r7, r3, lsl #16
     fd8:	03000001 	movweq	r0, #1
     fdc:	019e0704 	orrseq	r0, lr, r4, lsl #14
     fe0:	01030000 	mrseq	r0, (UNDEF: 3)
     fe4:	0000e808 	andeq	lr, r0, r8, lsl #16
     fe8:	7f040400 	svcvc	0x00040400
     fec:	05000000 	streq	r0, [r0, #-0]
     ff0:	00000072 	andeq	r0, r0, r2, ror r0
     ff4:	0000ed06 	andeq	lr, r0, r6, lsl #26
     ff8:	78040100 	stmdavc	r4, {r8}
     ffc:	28000087 	stmdacs	r0, {r0, r1, r2, r7}
    1000:	01000000 	mrseq	r0, (UNDEF: 0)
    1004:	0000ca9c 	muleq	r0, ip, sl
    1008:	878c0700 	strhi	r0, [ip, r0, lsl #14]
    100c:	00ac0000 	adceq	r0, ip, r0
    1010:	01080000 	mrseq	r0, (UNDEF: 8)
    1014:	9c030550 	cfstr32ls	mvfx0, [r3], {80}	; 0x50
    1018:	0000009d 	muleq	r0, sp, r0
    101c:	00879409 	addeq	r9, r7, r9, lsl #8
    1020:	0000ea00 	andeq	lr, r0, r0, lsl #20
    1024:	0000c000 	andeq	ip, r0, r0
    1028:	50010800 	andpl	r0, r1, r0, lsl #16
    102c:	00640802 	rsbeq	r0, r4, r2, lsl #16
    1030:	0087980a 	addeq	r9, r7, sl, lsl #16
    1034:	0000fb00 	andeq	pc, r0, r0, lsl #22
    1038:	250b0000 	strcs	r0, [fp, #-0]
    103c:	d9000000 	stmdble	r0, {}	; <UNPREDICTABLE>
    1040:	0c000000 	stceq	0, cr0, [r0], {-0}
    1044:	00000079 	andeq	r0, r0, r9, ror r0
    1048:	037d0d00 	cmneq	sp, #0, 26
    104c:	22020000 	andcs	r0, r2, #0
    1050:	000000e4 	andeq	r0, r0, r4, ror #1
    1054:	00ca0404 	sbceq	r0, sl, r4, lsl #8
    1058:	060e0000 	streq	r0, [lr], -r0
    105c:	02000004 	andeq	r0, r0, #4
    1060:	0000fb50 	andeq	pc, r0, r0, asr fp	; <UNPREDICTABLE>
    1064:	002c0c00 	eoreq	r0, ip, r0, lsl #24
    1068:	0f000000 	svceq	0x00000000
    106c:	000003e1 	andeq	r0, r0, r1, ror #7
    1070:	dd006302 	stcle	3, cr6, [r0, #-8]
    1074:	04000002 	streq	r0, [r0], #-2
    1078:	0007ec00 	andeq	lr, r7, r0, lsl #24
    107c:	6e010400 	cfcpysvs	mvf0, mvf1
    1080:	01000000 	mrseq	r0, (UNDEF: 0)
    1084:	000004e9 	andeq	r0, r0, r9, ror #9
    1088:	000002ab 	andeq	r0, r0, fp, lsr #5
    108c:	000087a0 	andeq	r8, r0, r0, lsr #15
    1090:	000000b0 	strheq	r0, [r0], -r0	; <UNPREDICTABLE>
    1094:	000006df 	ldrdeq	r0, [r0], -pc	; <UNPREDICTABLE>
    1098:	69050402 	stmdbvs	r5, {r1, sl}
    109c:	0300746e 	movweq	r7, #1134	; 0x46e
    10a0:	016a0704 	cmneq	sl, r4, lsl #14
    10a4:	01030000 	mrseq	r0, (UNDEF: 3)
    10a8:	0000e106 	andeq	lr, r0, r6, lsl #2
    10ac:	05020300 	streq	r0, [r2, #-768]	; 0x300
    10b0:	000001d0 	ldrdeq	r0, [r0], -r0	; <UNPREDICTABLE>
    10b4:	ac050403 	cfstrsge	mvf0, [r5], {3}
    10b8:	03000001 	movweq	r0, #1
    10bc:	01a70508 			; <UNDEFINED> instruction: 0x01a70508
    10c0:	77040000 	strvc	r0, [r4, -r0]
    10c4:	02000001 	andeq	r0, r0, #1
    10c8:	00005a2e 	andeq	r5, r0, lr, lsr #20
    10cc:	08010300 	stmdaeq	r1, {r8, r9}
    10d0:	000000df 	ldrdeq	r0, [r0], -pc	; <UNPREDICTABLE>
    10d4:	43070203 	movwmi	r0, #29187	; 0x7203
    10d8:	04000000 	streq	r0, [r0], #-0
    10dc:	00000262 	andeq	r0, r0, r2, ror #4
    10e0:	00733402 	rsbseq	r3, r3, r2, lsl #8
    10e4:	04030000 	streq	r0, [r3], #-0
    10e8:	00016507 	andeq	r6, r1, r7, lsl #10
    10ec:	07080300 	streq	r0, [r8, -r0, lsl #6]
    10f0:	00000160 	andeq	r0, r0, r0, ror #2
    10f4:	9e070403 	cdpls	4, 0, cr0, cr7, cr3, {0}
    10f8:	03000001 	movweq	r0, #1
    10fc:	00e80801 	rsceq	r0, r8, r1, lsl #16
    1100:	04050000 	streq	r0, [r5], #-0
    1104:	00000095 	muleq	r0, r5, r0
    1108:	00008806 	andeq	r8, r0, r6, lsl #16
    110c:	030c0700 	movweq	r0, #50944	; 0xc700
    1110:	0000d10e 	andeq	sp, r0, lr, lsl #2
    1114:	78740800 	ldmdavc	r4!, {fp}^
    1118:	4f0f0300 	svcmi	0x000f0300
    111c:	00000000 	andeq	r0, r0, r0
    1120:	00787208 	rsbseq	r7, r8, r8, lsl #4
    1124:	004f0f03 	subeq	r0, pc, r3, lsl #30
    1128:	09010000 	stmdbeq	r1, {}	; <UNPREDICTABLE>
    112c:	00000488 	andeq	r0, r0, r8, lsl #9
    1130:	00681003 	rsbeq	r1, r8, r3
    1134:	09040000 	stmdbeq	r4, {}	; <UNPREDICTABLE>
    1138:	00000439 	andeq	r0, r0, r9, lsr r4
    113c:	00681103 	rsbeq	r1, r8, r3, lsl #2
    1140:	00080000 	andeq	r0, r8, r0
    1144:	00047104 	andeq	r7, r4, r4, lsl #2
    1148:	9a120300 	bls	481d50 <__bss_end__+0x477a20>
    114c:	0a000000 	beq	1154 <_start-0x6eac>
    1150:	f7100401 			; <UNDEFINED> instruction: 0xf7100401
    1154:	0b000000 	bleq	115c <_start-0x6ea4>
    1158:	0000048d 	andeq	r0, r0, sp, lsl #9
    115c:	047b0b01 	ldrbteq	r0, [fp], #-2817	; 0xb01
    1160:	0b020000 	bleq	81168 <__bss_end__+0x76e38>
    1164:	00000463 	andeq	r0, r0, r3, ror #8
    1168:	a2040003 	andge	r0, r4, #3
    116c:	04000004 	streq	r0, [r0], #-4
    1170:	0000dc10 	andeq	sp, r0, r0, lsl ip
    1174:	04140700 	ldreq	r0, [r4], #-1792	; 0x700
    1178:	00012f14 	andeq	r2, r1, r4, lsl pc
    117c:	05090900 	streq	r0, [r9, #-2304]	; 0x900
    1180:	15040000 	strne	r0, [r4, #-0]
    1184:	0000002c 	andeq	r0, r0, ip, lsr #32
    1188:	04fd0900 	ldrbteq	r0, [sp], #2304	; 0x900
    118c:	18040000 	stmdane	r4, {}	; <UNPREDICTABLE>
    1190:	000000f7 	strdeq	r0, [r0], -r7
    1194:	04c80904 	strbeq	r0, [r8], #2308	; 0x904
    1198:	1b040000 	blne	1011a0 <__bss_end__+0xf6e70>
    119c:	000000d1 	ldrdeq	r0, [r0], -r1
    11a0:	ba040008 	blt	1011c8 <__bss_end__+0xf6e98>
    11a4:	04000004 	streq	r0, [r0], #-4
    11a8:	00010220 	andeq	r0, r1, r0, lsr #4
    11ac:	040f0c00 	streq	r0, [pc], #-3072	; 11b4 <_start-0x6e4c>
    11b0:	06010000 	streq	r0, [r1], -r0
    11b4:	00000025 	andeq	r0, r0, r5, lsr #32
    11b8:	000087a0 	andeq	r8, r0, r0, lsr #15
    11bc:	00000020 	andeq	r0, r0, r0, lsr #32
    11c0:	017a9c01 	cmneq	sl, r1, lsl #24
    11c4:	630d0000 	movwvs	r0, #53248	; 0xd000
    11c8:	25060100 	strcs	r0, [r6, #-256]	; 0x100
    11cc:	8f000000 	svchi	0x00000000
    11d0:	0e000008 	cdpeq	0, 0, cr0, cr0, cr8, {0}
    11d4:	000087b4 			; <UNDEFINED> instruction: 0x000087b4
    11d8:	0000027a 	andeq	r0, r0, sl, ror r2
    11dc:	0251010f 	subseq	r0, r1, #-1073741821	; 0xc0000003
    11e0:	010f0074 	tsteq	pc, r4, ror r0	; <UNPREDICTABLE>
    11e4:	20030550 	andcs	r0, r3, r0, asr r5
    11e8:	000000a3 	andeq	r0, r0, r3, lsr #1
    11ec:	049a1000 	ldreq	r1, [sl], #0
    11f0:	0b010000 	bleq	411f8 <__bss_end__+0x36ec8>
    11f4:	000087c0 	andeq	r8, r0, r0, asr #15
    11f8:	00000090 	muleq	r0, r0, r0
    11fc:	02279c01 	eoreq	r9, r7, #256	; 0x100
    1200:	23110000 	tstcs	r1, #0
    1204:	01000004 	tsteq	r0, r4
    1208:	0000250c 	andeq	r2, r0, ip, lsl #10
    120c:	04dd1100 	ldrbeq	r1, [sp], #256	; 0x100
    1210:	0c010000 	stceq	0, cr0, [r1], {-0}
    1214:	00000025 	andeq	r0, r0, r5, lsr #32
    1218:	0000c512 	andeq	ip, r0, r2, lsl r5
    121c:	130d0100 	movwne	r0, #53504	; 0xd100
    1220:	00737362 	rsbseq	r7, r3, r2, ror #6
    1224:	02270f01 	eoreq	r0, r7, #1, 30
    1228:	08ad0000 	stmiaeq	sp!, {}	; <UNPREDICTABLE>
    122c:	31140000 	tstcc	r4, r0
    1230:	01000004 	tsteq	r0, r4
    1234:	00022710 	andeq	r2, r2, r0, lsl r7
    1238:	62631300 	rsbvs	r1, r3, #0, 6
    123c:	2d170100 	ldfcss	f0, [r7, #-0]
    1240:	cd000002 	stcgt	0, cr0, [r0, #-8]
    1244:	15000008 	strne	r0, [r0, #-8]
    1248:	000087e8 	andeq	r8, r0, r8, ror #15
    124c:	00000296 	muleq	r0, r6, r2
    1250:	00882416 	addeq	r2, r8, r6, lsl r4
    1254:	0002a100 	andeq	sl, r2, r0, lsl #2
    1258:	0001fd00 	andeq	pc, r1, r0, lsl #26
    125c:	51010f00 	tstpl	r1, r0, lsl #30
    1260:	9da80305 	stcls	3, cr0, [r8, #20]!
    1264:	010f0000 	mrseq	r0, CPSR
    1268:	20030550 	andcs	r0, r3, r0, asr r5
    126c:	000000a3 	andeq	r0, r0, r3, lsr #1
    1270:	00882c16 	addeq	r2, r8, r6, lsl ip
    1274:	0002bc00 	andeq	fp, r2, r0, lsl #24
    1278:	00021400 	andeq	r1, r2, r0, lsl #8
    127c:	50010f00 	andpl	r0, r1, r0, lsl #30
    1280:	9dcc0305 	stclls	3, cr0, [ip, #20]
    1284:	15000000 	strne	r0, [r0, #-0]
    1288:	00008830 	andeq	r8, r0, r0, lsr r8
    128c:	000002d2 	ldrdeq	r0, [r0], -r2
    1290:	00883415 	addeq	r3, r8, r5, lsl r4
    1294:	0002d900 	andeq	sp, r2, r0, lsl #18
    1298:	04050000 	streq	r0, [r5], #-0
    129c:	00000025 	andeq	r0, r0, r5, lsr #32
    12a0:	012f0405 	teqeq	pc, r5, lsl #8
    12a4:	47170000 	ldrmi	r0, [r7, -r0]
    12a8:	01000004 	tsteq	r0, r4
    12ac:	0000d105 	andeq	sp, r0, r5, lsl #2
    12b0:	20030500 	andcs	r0, r3, r0, lsl #10
    12b4:	180000a3 	stmdane	r0, {r0, r1, r5, r7}
    12b8:	00000025 	andeq	r0, r0, r5, lsr #32
    12bc:	00000253 	andeq	r0, r0, r3, asr r2
    12c0:	00002519 	andeq	r2, r0, r9, lsl r5
    12c4:	40110000 	andsmi	r0, r1, r0
    12c8:	05000003 	streq	r0, [r0, #-3]
    12cc:	00025e1d 	andeq	r5, r2, sp, lsl lr
    12d0:	44040500 	strmi	r0, [r4], #-1280	; 0x500
    12d4:	11000002 	tstne	r0, r2
    12d8:	00000423 	andeq	r0, r0, r3, lsr #8
    12dc:	00250c01 	eoreq	r0, r5, r1, lsl #24
    12e0:	dd110000 	ldcle	0, cr0, [r1, #-0]
    12e4:	01000004 	tsteq	r0, r4
    12e8:	0000250c 	andeq	r2, r0, ip, lsl #10
    12ec:	04ad1a00 	strteq	r1, [sp], #2560	; 0xa00
    12f0:	44030000 	strmi	r0, [r3], #-0
    12f4:	00000290 	muleq	r0, r0, r2
    12f8:	00029019 	andeq	r9, r2, r9, lsl r0
    12fc:	005a1900 	subseq	r1, sl, r0, lsl #18
    1300:	05000000 	streq	r0, [r0, #-0]
    1304:	0000d104 	andeq	sp, r0, r4, lsl #2
    1308:	04d01b00 	ldrbeq	r1, [r0], #2816	; 0xb00
    130c:	2a040000 	bcs	101314 <__bss_end__+0xf6fe4>
    1310:	0000022d 	andeq	r0, r0, sp, lsr #4
    1314:	0004541c 	andeq	r5, r4, ip, lsl r4
    1318:	25150300 	ldrcs	r0, [r5, #-768]	; 0x300
    131c:	bc000000 	stclt	0, cr0, [r0], {-0}
    1320:	19000002 	stmdbne	r0, {r1}
    1324:	00000290 	muleq	r0, r0, r2
    1328:	00008f19 	andeq	r8, r0, r9, lsl pc
    132c:	1c001d00 	stcne	13, cr1, [r0], {-0}
    1330:	00000314 	andeq	r0, r0, r4, lsl r3
    1334:	00252905 	eoreq	r2, r5, r5, lsl #18
    1338:	02d20000 	sbcseq	r0, r2, #0
    133c:	8f190000 	svchi	0x00190000
    1340:	1d000000 	stcne	0, cr0, [r0, #-0]
    1344:	00c51200 	sbceq	r1, r5, r0, lsl #4
    1348:	ce050000 	cdpgt	0, 0, cr0, cr5, cr0, {0}
    134c:	0003e112 	andeq	lr, r3, r2, lsl r1
    1350:	00630500 	rsbeq	r0, r3, r0, lsl #10
    1354:	000001ad 	andeq	r0, r0, sp, lsr #3
    1358:	09830004 	stmibeq	r3, {r2}
    135c:	01040000 	mrseq	r0, (UNDEF: 4)
    1360:	0000006e 	andeq	r0, r0, lr, rrx
    1364:	00052901 	andeq	r2, r5, r1, lsl #18
    1368:	0002ab00 	andeq	sl, r2, r0, lsl #22
    136c:	00001800 	andeq	r1, r0, r0, lsl #16
    1370:	00000000 	andeq	r0, r0, r0
    1374:	00080400 	andeq	r0, r8, r0, lsl #8
    1378:	05040200 	streq	r0, [r4, #-512]	; 0x200
    137c:	00746e69 	rsbseq	r6, r4, r9, ror #28
    1380:	6a070403 	bvs	1c2394 <__bss_end__+0x1b8064>
    1384:	03000001 	movweq	r0, #1
    1388:	00e10601 	rsceq	r0, r1, r1, lsl #12
    138c:	02030000 	andeq	r0, r3, #0
    1390:	0001d005 	andeq	sp, r1, r5
    1394:	05040300 	streq	r0, [r4, #-768]	; 0x300
    1398:	000001ac 	andeq	r0, r0, ip, lsr #3
    139c:	a7050803 	strge	r0, [r5, -r3, lsl #16]
    13a0:	03000001 	movweq	r0, #1
    13a4:	00df0801 	sbcseq	r0, pc, r1, lsl #16
    13a8:	02030000 	andeq	r0, r3, #0
    13ac:	00004307 	andeq	r4, r0, r7, lsl #6
    13b0:	07040300 	streq	r0, [r4, -r0, lsl #6]
    13b4:	00000165 	andeq	r0, r0, r5, ror #2
    13b8:	60070803 	andvs	r0, r7, r3, lsl #16
    13bc:	03000001 	movweq	r0, #1
    13c0:	019e0704 	orrseq	r0, lr, r4, lsl #14
    13c4:	01030000 	mrseq	r0, (UNDEF: 3)
    13c8:	0000e808 	andeq	lr, r0, r8, lsl #16
    13cc:	050f0400 	streq	r0, [pc, #-1024]	; fd4 <_start-0x702c>
    13d0:	0e010000 	cdpeq	0, 0, cr0, cr1, cr0, {0}
    13d4:	00000025 	andeq	r0, r0, r5, lsr #32
    13d8:	00008850 	andeq	r8, r0, r0, asr r8
    13dc:	00000018 	andeq	r0, r0, r8, lsl r0
    13e0:	00a29c01 	adceq	r9, r2, r1, lsl #24
    13e4:	75050000 	strvc	r0, [r5, #-0]
    13e8:	01000005 	tsteq	r0, r5
    13ec:	00002c0f 	andeq	r2, r0, pc, lsl #24
    13f0:	0008ed00 	andeq	lr, r8, r0, lsl #26
    13f4:	5e060000 	cdppl	0, 0, cr0, cr6, cr0, {0}
    13f8:	01000005 	tsteq	r0, r5
    13fc:	00886817 	addeq	r6, r8, r7, lsl r8
    1400:	00001400 	andeq	r1, r0, r0, lsl #8
    1404:	c79c0100 	ldrgt	r0, [ip, r0, lsl #2]
    1408:	05000000 	streq	r0, [r0, #-0]
    140c:	00000575 	andeq	r0, r0, r5, ror r5
    1410:	002c1801 	eoreq	r1, ip, r1, lsl #16
    1414:	090c0000 	stmdbeq	ip, {}	; <UNPREDICTABLE>
    1418:	06000000 	streq	r0, [r0], -r0
    141c:	000003e1 	andeq	r0, r0, r1, ror #7
    1420:	887c1f01 	ldmdahi	ip!, {r0, r8, r9, sl, fp, ip}^
    1424:	00480000 	subeq	r0, r8, r0
    1428:	9c010000 	stcls	0, cr0, [r1], {-0}
    142c:	00000177 	andeq	r0, r0, r7, ror r1
    1430:	00056d07 	andeq	r6, r5, r7, lsl #26
    1434:	772a0100 	strvc	r0, [sl, -r0, lsl #2]!
    1438:	1c000001 	stcne	0, cr0, [r0], {1}
    143c:	07201000 	streq	r1, [r0, -r0]!
    1440:	00000556 	andeq	r0, r0, r6, asr r5
    1444:	01772b01 	cmneq	r7, r1, lsl #22
    1448:	00240000 	eoreq	r0, r4, r0
    144c:	1d072010 	stcne	0, cr2, [r7, #-64]	; 0xffffffc0
    1450:	01000005 	tsteq	r0, r5
    1454:	0001772c 	andeq	r7, r1, ip, lsr #14
    1458:	00000000 	andeq	r0, r0, r0
    145c:	053d085a 	ldreq	r0, [sp, #-2138]!	; 0x85a
    1460:	2d010000 	stccs	0, cr0, [r1, #-0]
    1464:	00000177 	andeq	r0, r0, r7, ror r1
    1468:	88840920 	stmhi	r4, {r5, r8, fp}
    146c:	00790000 	rsbseq	r0, r9, r0
    1470:	90090000 	andls	r0, r9, r0
    1474:	a2000088 	andge	r0, r0, #136	; 0x88
    1478:	0a000000 	beq	1480 <_start-0x6b80>
    147c:	00008898 	muleq	r0, r8, r8
    1480:	0000018d 	andeq	r0, r0, sp, lsl #3
    1484:	0000013a 	andeq	r0, r0, sl, lsr r1
    1488:	0150010b 	cmpeq	r0, fp, lsl #2
    148c:	a40a004e 	strge	r0, [sl], #-78	; 0x4e
    1490:	9e000088 	cdpls	0, 0, cr0, cr0, cr8, {4}
    1494:	5a000001 	bpl	14a0 <_start-0x6b60>
    1498:	0b000001 	bleq	14a4 <_start-0x6b5c>
    149c:	0c055101 	stfeqs	f5, [r5], {1}
    14a0:	5a000001 	bpl	14ac <_start-0x6b54>
    14a4:	0550010b 	ldrbeq	r0, [r0, #-267]	; 0x10b
    14a8:	1000240c 	andne	r2, r0, ip, lsl #8
    14ac:	b00c0020 	andlt	r0, ip, r0, lsr #32
    14b0:	9e000088 	cdpls	0, 0, cr0, cr0, cr8, {4}
    14b4:	0b000001 	bleq	14c0 <_start-0x6b40>
    14b8:	0c055101 	stfeqs	f5, [r5], {1}
    14bc:	5a000020 	bpl	1544 <_start-0x6abc>
    14c0:	0550010b 	ldrbeq	r0, [r0, #-267]	; 0x10b
    14c4:	10001c0c 	andne	r1, r0, ip, lsl #24
    14c8:	0d000020 	stceq	0, cr0, [r0, #-128]	; 0xffffff80
    14cc:	00000025 	andeq	r0, r0, r5, lsr #32
    14d0:	00051208 	andeq	r1, r5, r8, lsl #4
    14d4:	880d0100 	stmdahi	sp, {r8}
    14d8:	10000001 	andne	r0, r0, r1
    14dc:	00002c0d 	andeq	r2, r0, sp, lsl #24
    14e0:	04060e00 	streq	r0, [r6], #-3584	; 0xe00
    14e4:	50020000 	andpl	r0, r2, r0
    14e8:	0000019e 	muleq	r0, lr, r1
    14ec:	00002c0f 	andeq	r2, r0, pc, lsl #24
    14f0:	5a100000 	bpl	4014f8 <__bss_end__+0x3f71c8>
    14f4:	02000001 	andeq	r0, r0, #1
    14f8:	002c0f99 	mlaeq	ip, r9, pc, r0	; <UNPREDICTABLE>
    14fc:	2c0f0000 	stccs	0, cr0, [pc], {-0}
    1500:	00000000 	andeq	r0, r0, r0
    1504:	0001d800 	andeq	sp, r1, r0, lsl #16
    1508:	71000400 	tstvc	r0, r0, lsl #8
    150c:	0400000a 	streq	r0, [r0], #-10
    1510:	00006e01 	andeq	r6, r0, r1, lsl #28
    1514:	05970100 	ldreq	r0, [r7, #256]	; 0x100
    1518:	02ab0000 	adceq	r0, fp, #0
    151c:	88c40000 	stmiahi	r4, {}^	; <UNPREDICTABLE>
    1520:	00880000 	addeq	r0, r8, r0
    1524:	08a10000 	stmiaeq	r1!, {}	; <UNPREDICTABLE>
    1528:	04020000 	streq	r0, [r2], #-0
    152c:	746e6905 	strbtvc	r6, [lr], #-2309	; 0x905
    1530:	07040300 	streq	r0, [r4, -r0, lsl #6]
    1534:	0000016a 	andeq	r0, r0, sl, ror #2
    1538:	e1060103 	tst	r6, r3, lsl #2
    153c:	03000000 	movweq	r0, #0
    1540:	01d00502 	bicseq	r0, r0, r2, lsl #10
    1544:	04030000 	streq	r0, [r3], #-0
    1548:	0001ac05 	andeq	sl, r1, r5, lsl #24
    154c:	05080300 	streq	r0, [r8, #-768]	; 0x300
    1550:	000001a7 	andeq	r0, r0, r7, lsr #3
    1554:	df080103 	svcle	0x00080103
    1558:	03000000 	movweq	r0, #0
    155c:	00430702 	subeq	r0, r3, r2, lsl #14
    1560:	04030000 	streq	r0, [r3], #-0
    1564:	00016507 	andeq	r6, r1, r7, lsl #10
    1568:	07080300 	streq	r0, [r8, -r0, lsl #6]
    156c:	00000160 	andeq	r0, r0, r0, ror #2
    1570:	9e070403 	cdpls	4, 0, cr0, cr7, cr3, {0}
    1574:	03000001 	movweq	r0, #1
    1578:	00e80801 	rsceq	r0, r8, r1, lsl #16
    157c:	b0040000 	andlt	r0, r4, r0
    1580:	01000005 	tsteq	r0, r5
    1584:	0088c405 	addeq	ip, r8, r5, lsl #8
    1588:	00001c00 	andeq	r1, r0, r0, lsl #24
    158c:	9e9c0100 	fmllse	f0, f4, f0
    1590:	05000000 	streq	r0, [r0, #-0]
    1594:	000005aa 	andeq	r0, r0, sl, lsr #11
    1598:	002c0501 	eoreq	r0, ip, r1, lsl #10
    159c:	09360000 	ldmdbeq	r6!, {}	; <UNPREDICTABLE>
    15a0:	06000000 	streq	r0, [r0], -r0
    15a4:	0000057a 	andeq	r0, r0, sl, ror r5
    15a8:	002c0b01 	eoreq	r0, ip, r1, lsl #22
    15ac:	88e00000 	stmiahi	r0!, {}^	; <UNPREDICTABLE>
    15b0:	00140000 	andseq	r0, r4, r0
    15b4:	9c010000 	stcls	0, cr0, [r1], {-0}
    15b8:	000000cb 	andeq	r0, r0, fp, asr #1
    15bc:	0088ec07 	addeq	lr, r8, r7, lsl #24
    15c0:	0001ca00 	andeq	ip, r1, r0, lsl #20
    15c4:	50010800 	andpl	r0, r1, r0, lsl #16
    15c8:	30040c05 	andcc	r0, r4, r5, lsl #24
    15cc:	00002000 	andeq	r2, r0, r0
    15d0:	0005c606 	andeq	ip, r5, r6, lsl #12
    15d4:	2c100100 	ldfcss	f0, [r0], {-0}
    15d8:	f4000000 	vst4.8	{d0-d3}, [r0], r0
    15dc:	0c000088 	stceq	0, cr0, [r0], {136}	; 0x88
    15e0:	01000000 	mrseq	r0, (UNDEF: 0)
    15e4:	0000f99c 	muleq	r0, ip, r9
    15e8:	00750900 	rsbseq	r0, r5, r0, lsl #18
    15ec:	002c1401 	eoreq	r1, ip, r1, lsl #8
    15f0:	50010000 	andpl	r0, r1, r0
    15f4:	0088fc0a 	addeq	pc, r8, sl, lsl #24
    15f8:	00009e00 	andeq	r9, r0, r0, lsl #28
    15fc:	bd040000 	stclt	0, cr0, [r4, #-0]
    1600:	01000005 	tsteq	r0, r5
    1604:	00890019 	addeq	r0, r9, r9, lsl r0
    1608:	00002400 	andeq	r2, r0, r0, lsl #8
    160c:	579c0100 	ldrpl	r0, [ip, r0, lsl #2]
    1610:	0b000001 	bleq	161c <_start-0x69e4>
    1614:	01007375 	tsteq	r0, r5, ror r3
    1618:	00002c19 	andeq	r2, r0, r9, lsl ip
    161c:	00096a00 	andeq	r6, r9, r0, lsl #20
    1620:	62720900 	rsbsvs	r0, r2, #0, 18
    1624:	2c1a0100 	ldfcss	f0, [sl], {-0}
    1628:	01000000 	mrseq	r0, (UNDEF: 0)
    162c:	89100c54 	ldmdbhi	r0, {r2, r4, r6, sl, fp}
    1630:	00100000 	andseq	r0, r0, r0
    1634:	014d0000 	mrseq	r0, (UNDEF: 77)
    1638:	720d0000 	andvc	r0, sp, #0
    163c:	1c010061 	stcne	0, cr0, [r1], {97}	; 0x61
    1640:	0000002c 	andeq	r0, r0, ip, lsr #32
    1644:	00000988 	andeq	r0, r0, r8, lsl #19
    1648:	0089140a 	addeq	r1, r9, sl, lsl #8
    164c:	0000cb00 	andeq	ip, r0, r0, lsl #22
    1650:	0c0a0000 	stceq	0, cr0, [sl], {-0}
    1654:	cb000089 	blgt	1880 <_start-0x6780>
    1658:	00000000 	andeq	r0, r0, r0
    165c:	00040604 	andeq	r0, r4, r4, lsl #12
    1660:	24220100 	strtcs	r0, [r2], #-256	; 0x100
    1664:	14000089 	strne	r0, [r0], #-137	; 0x89
    1668:	01000000 	mrseq	r0, (UNDEF: 0)
    166c:	0001909c 	muleq	r1, ip, r0
    1670:	736d0b00 	cmnvc	sp, #0, 22
    1674:	2c220100 	stfcss	f0, [r2], #-0
    1678:	9b000000 	blls	1680 <_start-0x6980>
    167c:	07000009 	streq	r0, [r0, -r9]
    1680:	00008934 	andeq	r8, r0, r4, lsr r9
    1684:	000000f9 	strdeq	r0, [r0], -r9
    1688:	07500108 	ldrbeq	r0, [r0, -r8, lsl #2]
    168c:	0a5001f3 	beq	1401e60 <__bss_end__+0x13f7b30>
    1690:	001e03e8 	andseq	r0, lr, r8, ror #7
    1694:	058d0400 	streq	r0, [sp, #1024]	; 0x400
    1698:	25010000 	strcs	r0, [r1, #-0]
    169c:	00008938 	andeq	r8, r0, r8, lsr r9
    16a0:	00000014 	andeq	r0, r0, r4, lsl r0
    16a4:	01ca9c01 	biceq	r9, sl, r1, lsl #24
    16a8:	730b0000 	movwvc	r0, #45056	; 0xb000
    16ac:	01006365 	tsteq	r0, r5, ror #6
    16b0:	00002c25 	andeq	r2, r0, r5, lsr #24
    16b4:	0009bc00 	andeq	fp, r9, r0, lsl #24
    16b8:	89480700 	stmdbhi	r8, {r8, r9, sl}^
    16bc:	01570000 	cmpeq	r7, r0
    16c0:	01080000 	mrseq	r0, (UNDEF: 8)
    16c4:	01f30750 	mvnseq	r0, r0, asr r7
    16c8:	03e80a50 	mvneq	r0, #80, 20	; 0x50000
    16cc:	0e00001e 	mcreq	0, 0, r0, cr0, cr14, {0}
    16d0:	000000fd 	strdeq	r0, [r0], -sp
    16d4:	002ca502 	eoreq	sl, ip, r2, lsl #10
    16d8:	2c0f0000 	stccs	0, cr0, [pc], {-0}
    16dc:	00000000 	andeq	r0, r0, r0
    16e0:	0011ca00 	andseq	ip, r1, r0, lsl #20
    16e4:	54000400 	strpl	r0, [r0], #-1024	; 0x400
    16e8:	0400000b 	streq	r0, [r0], #-11
    16ec:	00006e01 	andeq	r6, r0, r1, lsl #28
    16f0:	06740100 	ldrbteq	r0, [r4], -r0, lsl #2
    16f4:	02ab0000 	adceq	r0, fp, #0
    16f8:	894c0000 	stmdbhi	ip, {}^	; <UNPREDICTABLE>
    16fc:	06200000 	strteq	r0, [r0], -r0
    1700:	09480000 	stmdbeq	r8, {}^	; <UNPREDICTABLE>
    1704:	04020000 	streq	r0, [r2], #-0
    1708:	746e6905 	strbtvc	r6, [lr], #-2309	; 0x905
    170c:	07040300 	streq	r0, [r4, -r0, lsl #6]
    1710:	0000016a 	andeq	r0, r0, sl, ror #2
    1714:	e1060103 	tst	r6, r3, lsl #2
    1718:	03000000 	movweq	r0, #0
    171c:	01d00502 	bicseq	r0, r0, r2, lsl #10
    1720:	04030000 	streq	r0, [r3], #-0
    1724:	0001ac05 	andeq	sl, r1, r5, lsl #24
    1728:	05080300 	streq	r0, [r8, #-768]	; 0x300
    172c:	000001a7 	andeq	r0, r0, r7, lsr #3
    1730:	00017704 	andeq	r7, r1, r4, lsl #14
    1734:	5a2e0300 	bpl	b8233c <__bss_end__+0xb7800c>
    1738:	03000000 	movweq	r0, #0
    173c:	00df0801 	sbcseq	r0, pc, r1, lsl #16
    1740:	02030000 	andeq	r0, r3, #0
    1744:	00004307 	andeq	r4, r0, r7, lsl #6
    1748:	02620400 	rsbeq	r0, r2, #0, 8
    174c:	34030000 	strcc	r0, [r3], #-0
    1750:	00000073 	andeq	r0, r0, r3, ror r0
    1754:	65070403 	strvs	r0, [r7, #-1027]	; 0x403
    1758:	03000001 	movweq	r0, #1
    175c:	01600708 	cmneq	r0, r8, lsl #14
    1760:	04030000 	streq	r0, [r3], #-0
    1764:	00019e07 	andeq	r9, r1, r7, lsl #28
    1768:	06040500 	streq	r0, [r4], -r0, lsl #10
    176c:	00009004 	andeq	r9, r0, r4
    1770:	08010300 	stmdaeq	r1, {r8, r9}
    1774:	000000e8 	andeq	r0, r0, r8, ror #1
    1778:	009d0406 	addseq	r0, sp, r6, lsl #8
    177c:	90070000 	andls	r0, r7, r0
    1780:	08000000 	stmdaeq	r0, {}	; <UNPREDICTABLE>
    1784:	d90e040c 	stmdble	lr, {r2, r3, sl}
    1788:	09000000 	stmdbeq	r0, {}	; <UNPREDICTABLE>
    178c:	04007874 	streq	r7, [r0], #-2164	; 0x874
    1790:	00004f0f 	andeq	r4, r0, pc, lsl #30
    1794:	72090000 	andvc	r0, r9, #0
    1798:	0f040078 	svceq	0x00040078
    179c:	0000004f 	andeq	r0, r0, pc, asr #32
    17a0:	04880a01 	streq	r0, [r8], #2561	; 0xa01
    17a4:	10040000 	andne	r0, r4, r0
    17a8:	00000068 	andeq	r0, r0, r8, rrx
    17ac:	04390a04 	ldrteq	r0, [r9], #-2564	; 0xa04
    17b0:	11040000 	mrsne	r0, (UNDEF: 4)
    17b4:	00000068 	andeq	r0, r0, r8, rrx
    17b8:	71040008 	tstvc	r4, r8
    17bc:	04000004 	streq	r0, [r0], #-4
    17c0:	0000a212 	andeq	sl, r0, r2, lsl r2
    17c4:	02f40400 	rscseq	r0, r4, #0, 8
    17c8:	28050000 	stmdacs	r5, {}	; <UNPREDICTABLE>
    17cc:	000000ef 	andeq	r0, r0, pc, ror #1
    17d0:	00031b0b 	andeq	r1, r3, fp, lsl #22
    17d4:	00090400 	andeq	r0, r9, r0, lsl #8
    17d8:	00000106 	andeq	r0, r0, r6, lsl #2
    17dc:	00032a0c 	andeq	r2, r3, ip, lsl #20
    17e0:	00008800 	andeq	r8, r0, r0, lsl #16
    17e4:	04000000 	streq	r0, [r0], #-0
    17e8:	0000031d 	andeq	r0, r0, sp, lsl r3
    17ec:	00e46205 	rsceq	r6, r4, r5, lsl #4
    17f0:	2e0d0000 	cdpcs	0, 0, cr0, cr13, cr0, {0}
    17f4:	02000006 	andeq	r0, r0, #6
    17f8:	013f0309 	teqeq	pc, r9, lsl #6
    17fc:	9c0e0000 	stcls	0, cr0, [lr], {-0}
    1800:	02000004 	andeq	r0, r0, #4
    1804:	00002c09 	andeq	r2, r0, r9, lsl #24
    1808:	006e0f00 	rsbeq	r0, lr, r0, lsl #30
    180c:	002c0902 	eoreq	r0, ip, r2, lsl #18
    1810:	11100000 	tstne	r0, r0
    1814:	000006a2 	andeq	r0, r0, r2, lsr #13
    1818:	002c0c02 	eoreq	r0, ip, r2, lsl #24
    181c:	00000000 	andeq	r0, r0, r0
    1820:	0005e10d 	andeq	lr, r5, sp, lsl #2
    1824:	03170200 	tsteq	r7, #0, 4
    1828:	00000176 	andeq	r0, r0, r6, ror r1
    182c:	6e69700f 	cdpvs	0, 6, cr7, cr9, cr15, {0}
    1830:	2c170200 	lfmcs	f0, 4, [r7], {-0}
    1834:	0f000000 	svceq	0x00000000
    1838:	17020076 	smlsdxne	r2, r6, r0, r0
    183c:	0000002c 	andeq	r0, r0, ip, lsr #32
    1840:	00049c0e 	andeq	r9, r4, lr, lsl #24
    1844:	2c170200 	lfmcs	f0, 4, [r7], {-0}
    1848:	0e000000 	cdpeq	0, 0, cr0, cr0, cr0, {0}
    184c:	00000634 	andeq	r0, r0, r4, lsr r6
    1850:	002c1702 	eoreq	r1, ip, r2, lsl #14
    1854:	12000000 	andne	r0, r0, #0
    1858:	000004ad 	andeq	r0, r0, sp, lsr #9
    185c:	894c0901 	stmdbhi	ip, {r0, r8, fp}^
    1860:	01540000 	cmpeq	r4, r0
    1864:	9c010000 	stcls	0, cr0, [r1], {-0}
    1868:	00000722 	andeq	r0, r0, r2, lsr #14
    186c:	00044f13 	andeq	r4, r4, r3, lsl pc
    1870:	22090100 	andcs	r0, r9, #0, 2
    1874:	dd000007 	stcle	0, cr0, [r0, #-28]	; 0xffffffe4
    1878:	14000009 	strne	r0, [r0], #-9
    187c:	09010063 	stmdbeq	r1, {r0, r1, r5, r6}
    1880:	0000005a 	andeq	r0, r0, sl, asr r0
    1884:	000009fe 	strdeq	r0, [r0], -lr
    1888:	00787415 	rsbseq	r7, r8, r5, lsl r4
    188c:	00250b01 	eoreq	r0, r5, r1, lsl #22
    1890:	76060000 	strvc	r0, [r6], -r0
    1894:	1aff0800 	bne	fffc389c <__bss_end__+0xfffb956c>
    1898:	006e169f 	mlseq	lr, pc, r6, r1	; <UNPREDICTABLE>
    189c:	00680c01 	rsbeq	r0, r8, r1, lsl #24
    18a0:	0a1f0000 	beq	7c18a8 <__bss_end__+0x7b7578>
    18a4:	75160000 	ldrvc	r0, [r6, #-0]
    18a8:	680d0100 	stmdavs	sp, {r8}
    18ac:	32000000 	andcc	r0, r0, #0
    18b0:	1500000a 	strne	r0, [r0, #-10]
    18b4:	0e010073 	mcreq	0, 0, r0, cr1, cr3, {3}
    18b8:	00000068 	andeq	r0, r0, r8, rrx
    18bc:	5c175401 	cfldrspl	mvf5, [r7], {1}
    18c0:	04000089 	streq	r0, [r0], #-137	; 0x89
    18c4:	f8000000 			; <UNDEFINED> instruction: 0xf8000000
    18c8:	18000001 	stmdane	r0, {r0}
    18cc:	000006a2 	andeq	r0, r0, r2, lsr #13
    18d0:	002c0e01 	eoreq	r0, ip, r1, lsl #28
    18d4:	54010000 	strpl	r0, [r1], #-0
    18d8:	013f1900 	teqeq	pc, r0, lsl #18
    18dc:	89600000 	stmdbhi	r0!, {}^	; <UNPREDICTABLE>
    18e0:	001c0000 	andseq	r0, ip, r0
    18e4:	11010000 	mrsne	r0, (UNDEF: 1)
    18e8:	00000275 	andeq	r0, r0, r5, ror r2
    18ec:	00016a1a 	andeq	r6, r1, sl, lsl sl
    18f0:	000a5b00 	andeq	r5, sl, r0, lsl #22
    18f4:	015f1b00 	cmpeq	pc, r0, lsl #22
    18f8:	54010000 	strpl	r0, [r1], #-0
    18fc:	0001561c 	andeq	r5, r1, ip, lsl r6
    1900:	4b1b0000 	blmi	6c1908 <__bss_end__+0x6b75d8>
    1904:	01000001 	tsteq	r0, r1
    1908:	01111956 	tsteq	r1, r6, asr r9
    190c:	896c0000 	stmdbhi	ip!, {}^	; <UNPREDICTABLE>
    1910:	00100000 	andseq	r0, r0, r0
    1914:	1a020000 	bne	8191c <__bss_end__+0x775ec>
    1918:	0000025f 	andeq	r0, r0, pc, asr r2
    191c:	0001281a 	andeq	r2, r1, sl, lsl r8
    1920:	000a6e00 	andeq	r6, sl, r0, lsl #28
    1924:	011d1b00 	tsteq	sp, r0, lsl #22
    1928:	54010000 	strpl	r0, [r1], #-0
    192c:	00896c1d 	addeq	r6, r9, sp, lsl ip
    1930:	00000400 	andeq	r0, r0, r0, lsl #8
    1934:	01321e00 	teqeq	r2, r0, lsl #28
    1938:	0a810000 	beq	fe041940 <__bss_end__+0xfe037610>
    193c:	00000000 	andeq	r0, r0, r0
    1940:	00896c1f 	addeq	r6, r9, pc, lsl ip
    1944:	00113100 	andseq	r3, r1, r0, lsl #2
    1948:	51012000 	mrspl	r2, (UNDEF: 1)
    194c:	01203001 	teqeq	r0, r1
    1950:	00760250 	rsbseq	r0, r6, r0, asr r2
    1954:	3f190000 	svccc	0x00190000
    1958:	80000001 	andhi	r0, r0, r1
    195c:	1c000089 	stcne	0, cr0, [r0], {137}	; 0x89
    1960:	01000000 	mrseq	r0, (UNDEF: 0)
    1964:	0002f813 	andeq	pc, r2, r3, lsl r8	; <UNPREDICTABLE>
    1968:	016a1a00 	cmneq	sl, r0, lsl #20
    196c:	0a940000 	beq	fe501974 <__bss_end__+0xfe4f7644>
    1970:	5f1b0000 	svcpl	0x001b0000
    1974:	01000001 	tsteq	r0, r1
    1978:	01561a54 	cmpeq	r6, r4, asr sl
    197c:	0ab60000 	beq	fed81984 <__bss_end__+0xfed77654>
    1980:	4b1b0000 	blmi	6c1988 <__bss_end__+0x6b7658>
    1984:	01000001 	tsteq	r0, r1
    1988:	01111956 	tsteq	r1, r6, asr r9
    198c:	898c0000 	stmibhi	ip, {}	; <UNPREDICTABLE>
    1990:	00100000 	andseq	r0, r0, r0
    1994:	1a020000 	bne	8199c <__bss_end__+0x7766c>
    1998:	000002df 	ldrdeq	r0, [r0], -pc	; <UNPREDICTABLE>
    199c:	0001281a 	andeq	r2, r1, sl, lsl r8
    19a0:	000ae700 	andeq	lr, sl, r0, lsl #14
    19a4:	011d1b00 	tsteq	sp, r0, lsl #22
    19a8:	54010000 	strpl	r0, [r1], #-0
    19ac:	00898c1d 	addeq	r8, r9, sp, lsl ip
    19b0:	00000400 	andeq	r0, r0, r0, lsl #8
    19b4:	01321e00 	teqeq	r2, r0, lsl #28
    19b8:	0b090000 	bleq	2419c0 <__bss_end__+0x237690>
    19bc:	00000000 	andeq	r0, r0, r0
    19c0:	00898c1f 	addeq	r8, r9, pc, lsl ip
    19c4:	00113100 	andseq	r3, r1, r0, lsl #2
    19c8:	51012000 	mrspl	r2, (UNDEF: 1)
    19cc:	31007704 	tstcc	r0, r4, lsl #14
    19d0:	5001201a 	andpl	r2, r1, sl, lsl r0
    19d4:	00007602 	andeq	r7, r0, r2, lsl #12
    19d8:	013f1900 	teqeq	pc, r0, lsl #18
    19dc:	89a00000 	stmibhi	r0!, {}	; <UNPREDICTABLE>
    19e0:	001c0000 	andseq	r0, ip, r0
    19e4:	15010000 	strne	r0, [r1, #-0]
    19e8:	00000380 	andeq	r0, r0, r0, lsl #7
    19ec:	00016a1a 	andeq	r6, r1, sl, lsl sl
    19f0:	000b1c00 	andeq	r1, fp, r0, lsl #24
    19f4:	015f1b00 	cmpeq	pc, r0, lsl #22
    19f8:	54010000 	strpl	r0, [r1], #-0
    19fc:	0001561b 	andeq	r5, r1, fp, lsl r6
    1a00:	00770800 	rsbseq	r0, r7, r0, lsl #16
    1a04:	ff081a32 			; <UNDEFINED> instruction: 0xff081a32
    1a08:	4b1b9f1a 	blmi	6e9678 <__bss_end__+0x6df348>
    1a0c:	01000001 	tsteq	r0, r1
    1a10:	01111956 	tsteq	r1, r6, asr r9
    1a14:	89ac0000 	stmibhi	ip!, {}	; <UNPREDICTABLE>
    1a18:	00100000 	andseq	r0, r0, r0
    1a1c:	1a020000 	bne	81a24 <__bss_end__+0x776f4>
    1a20:	00000367 	andeq	r0, r0, r7, ror #6
    1a24:	0001281a 	andeq	r2, r1, sl, lsl r8
    1a28:	000b4100 	andeq	r4, fp, r0, lsl #2
    1a2c:	011d1b00 	tsteq	sp, r0, lsl #22
    1a30:	54010000 	strpl	r0, [r1], #-0
    1a34:	0089ac1d 	addeq	sl, r9, sp, lsl ip
    1a38:	00000400 	andeq	r0, r0, r0, lsl #8
    1a3c:	01321e00 	teqeq	r2, r0, lsl #28
    1a40:	0b660000 	bleq	1981a48 <__bss_end__+0x1977718>
    1a44:	00000000 	andeq	r0, r0, r0
    1a48:	0089ac1f 	addeq	sl, r9, pc, lsl ip
    1a4c:	00113100 	andseq	r3, r1, r0, lsl #2
    1a50:	51012000 	mrspl	r2, (UNDEF: 1)
    1a54:	32007704 	andcc	r7, r0, #4, 14	; 0x100000
    1a58:	5001201a 	andpl	r2, r1, sl, lsl r0
    1a5c:	00007602 	andeq	r7, r0, r2, lsl #12
    1a60:	013f1900 	teqeq	pc, r0, lsl #18
    1a64:	89c00000 	stmibhi	r0, {}^	; <UNPREDICTABLE>
    1a68:	001c0000 	andseq	r0, ip, r0
    1a6c:	17010000 	strne	r0, [r1, -r0]
    1a70:	00000408 	andeq	r0, r0, r8, lsl #8
    1a74:	00016a1a 	andeq	r6, r1, sl, lsl sl
    1a78:	000b7900 	andeq	r7, fp, r0, lsl #18
    1a7c:	015f1b00 	cmpeq	pc, r0, lsl #22
    1a80:	54010000 	strpl	r0, [r1], #-0
    1a84:	0001561b 	andeq	r5, r1, fp, lsl r6
    1a88:	00770800 	rsbseq	r0, r7, r0, lsl #16
    1a8c:	ff081a34 			; <UNDEFINED> instruction: 0xff081a34
    1a90:	4b1b9f1a 	blmi	6e9700 <__bss_end__+0x6df3d0>
    1a94:	01000001 	tsteq	r0, r1
    1a98:	01111956 	tsteq	r1, r6, asr r9
    1a9c:	89cc0000 	stmibhi	ip, {}^	; <UNPREDICTABLE>
    1aa0:	00100000 	andseq	r0, r0, r0
    1aa4:	1a020000 	bne	81aac <__bss_end__+0x7777c>
    1aa8:	000003ef 	andeq	r0, r0, pc, ror #7
    1aac:	0001281a 	andeq	r2, r1, sl, lsl r8
    1ab0:	000b9b00 	andeq	r9, fp, r0, lsl #22
    1ab4:	011d1b00 	tsteq	sp, r0, lsl #22
    1ab8:	54010000 	strpl	r0, [r1], #-0
    1abc:	0089cc1d 	addeq	ip, r9, sp, lsl ip
    1ac0:	00000400 	andeq	r0, r0, r0, lsl #8
    1ac4:	01321e00 	teqeq	r2, r0, lsl #28
    1ac8:	0bbd0000 	bleq	fef41ad0 <__bss_end__+0xfef377a0>
    1acc:	00000000 	andeq	r0, r0, r0
    1ad0:	0089cc1f 	addeq	ip, r9, pc, lsl ip
    1ad4:	00113100 	andseq	r3, r1, r0, lsl #2
    1ad8:	51012000 	mrspl	r2, (UNDEF: 1)
    1adc:	34007704 	strcc	r7, [r0], #-1796	; 0x704
    1ae0:	5001201a 	andpl	r2, r1, sl, lsl r0
    1ae4:	00007602 	andeq	r7, r0, r2, lsl #12
    1ae8:	013f1900 	teqeq	pc, r0, lsl #18
    1aec:	89e00000 	stmibhi	r0!, {}^	; <UNPREDICTABLE>
    1af0:	001c0000 	andseq	r0, ip, r0
    1af4:	19010000 	stmdbne	r1, {}	; <UNPREDICTABLE>
    1af8:	00000490 	muleq	r0, r0, r4
    1afc:	00016a1a 	andeq	r6, r1, sl, lsl sl
    1b00:	000bd000 	andeq	sp, fp, r0
    1b04:	015f1b00 	cmpeq	pc, r0, lsl #22
    1b08:	54010000 	strpl	r0, [r1], #-0
    1b0c:	0001561b 	andeq	r5, r1, fp, lsl r6
    1b10:	00770800 	rsbseq	r0, r7, r0, lsl #16
    1b14:	ff081a38 			; <UNDEFINED> instruction: 0xff081a38
    1b18:	4b1b9f1a 	blmi	6e9788 <__bss_end__+0x6df458>
    1b1c:	01000001 	tsteq	r0, r1
    1b20:	01111956 	tsteq	r1, r6, asr r9
    1b24:	89ec0000 	stmibhi	ip!, {}^	; <UNPREDICTABLE>
    1b28:	00100000 	andseq	r0, r0, r0
    1b2c:	1a020000 	bne	81b34 <__bss_end__+0x77804>
    1b30:	00000477 	andeq	r0, r0, r7, ror r4
    1b34:	0001281a 	andeq	r2, r1, sl, lsl r8
    1b38:	000bf500 	andeq	pc, fp, r0, lsl #10
    1b3c:	011d1b00 	tsteq	sp, r0, lsl #22
    1b40:	54010000 	strpl	r0, [r1], #-0
    1b44:	0089ec1d 	addeq	lr, r9, sp, lsl ip
    1b48:	00000400 	andeq	r0, r0, r0, lsl #8
    1b4c:	01321e00 	teqeq	r2, r0, lsl #28
    1b50:	0c1a0000 	ldceq	0, cr0, [sl], {-0}
    1b54:	00000000 	andeq	r0, r0, r0
    1b58:	0089ec1f 	addeq	lr, r9, pc, lsl ip
    1b5c:	00113100 	andseq	r3, r1, r0, lsl #2
    1b60:	51012000 	mrspl	r2, (UNDEF: 1)
    1b64:	38007704 	stmdacc	r0, {r2, r8, r9, sl, ip, sp, lr}
    1b68:	5001201a 	andpl	r2, r1, sl, lsl r0
    1b6c:	00007602 	andeq	r7, r0, r2, lsl #12
    1b70:	013f1900 	teqeq	pc, r0, lsl #18
    1b74:	8a000000 	bhi	1b7c <_start-0x6484>
    1b78:	001c0000 	andseq	r0, ip, r0
    1b7c:	1b010000 	blne	41b84 <__bss_end__+0x37854>
    1b80:	00000518 	andeq	r0, r0, r8, lsl r5
    1b84:	00016a1a 	andeq	r6, r1, sl, lsl sl
    1b88:	000c2d00 	andeq	r2, ip, r0, lsl #26
    1b8c:	015f1b00 	cmpeq	pc, r0, lsl #22
    1b90:	54010000 	strpl	r0, [r1], #-0
    1b94:	0001561b 	andeq	r5, r1, fp, lsl r6
    1b98:	00770800 	rsbseq	r0, r7, r0, lsl #16
    1b9c:	ff081a40 			; <UNDEFINED> instruction: 0xff081a40
    1ba0:	4b1b9f1a 	blmi	6e9810 <__bss_end__+0x6df4e0>
    1ba4:	01000001 	tsteq	r0, r1
    1ba8:	01111956 	tsteq	r1, r6, asr r9
    1bac:	8a0c0000 	bhi	301bb4 <__bss_end__+0x2f7884>
    1bb0:	00100000 	andseq	r0, r0, r0
    1bb4:	1a020000 	bne	81bbc <__bss_end__+0x7788c>
    1bb8:	000004ff 	strdeq	r0, [r0], -pc	; <UNPREDICTABLE>
    1bbc:	0001281a 	andeq	r2, r1, sl, lsl r8
    1bc0:	000c5400 	andeq	r5, ip, r0, lsl #8
    1bc4:	011d1b00 	tsteq	sp, r0, lsl #22
    1bc8:	54010000 	strpl	r0, [r1], #-0
    1bcc:	008a0c1d 	addeq	r0, sl, sp, lsl ip
    1bd0:	00000400 	andeq	r0, r0, r0, lsl #8
    1bd4:	01321e00 	teqeq	r2, r0, lsl #28
    1bd8:	0c7b0000 	ldcleq	0, cr0, [fp], #-0
    1bdc:	00000000 	andeq	r0, r0, r0
    1be0:	008a0c1f 	addeq	r0, sl, pc, lsl ip
    1be4:	00113100 	andseq	r3, r1, r0, lsl #2
    1be8:	51012000 	mrspl	r2, (UNDEF: 1)
    1bec:	40007704 	andmi	r7, r0, r4, lsl #14
    1bf0:	5001201a 	andpl	r2, r1, sl, lsl r0
    1bf4:	00007602 	andeq	r7, r0, r2, lsl #12
    1bf8:	013f1900 	teqeq	pc, r0, lsl #18
    1bfc:	8a200000 	bhi	801c04 <__bss_end__+0x7f78d4>
    1c00:	001c0000 	andseq	r0, ip, r0
    1c04:	1d010000 	stcne	0, cr0, [r1, #-0]
    1c08:	000005a2 	andeq	r0, r0, r2, lsr #11
    1c0c:	00016a1a 	andeq	r6, r1, sl, lsl sl
    1c10:	000c8e00 	andeq	r8, ip, r0, lsl #28
    1c14:	015f1b00 	cmpeq	pc, r0, lsl #22
    1c18:	54010000 	strpl	r0, [r1], #-0
    1c1c:	0001561b 	andeq	r5, r1, fp, lsl r6
    1c20:	00770900 	rsbseq	r0, r7, r0, lsl #18
    1c24:	081a2008 	ldmdaeq	sl, {r3, sp}
    1c28:	1b9f1aff 	blne	fe7c882c <__bss_end__+0xfe7be4fc>
    1c2c:	0000014b 	andeq	r0, r0, fp, asr #2
    1c30:	11195601 	tstne	r9, r1, lsl #12
    1c34:	2c000001 	stccs	0, cr0, [r0], {1}
    1c38:	1000008a 	andne	r0, r0, sl, lsl #1
    1c3c:	02000000 	andeq	r0, r0, #0
    1c40:	0005881a 	andeq	r8, r5, sl, lsl r8
    1c44:	01281a00 	teqeq	r8, r0, lsl #20
    1c48:	0cb80000 	ldceq	0, cr0, [r8]
    1c4c:	1d1b0000 	ldcne	0, cr0, [fp, #-0]
    1c50:	01000001 	tsteq	r0, r1
    1c54:	8a2c1d54 	bhi	b091ac <__bss_end__+0xafee7c>
    1c58:	00040000 	andeq	r0, r4, r0
    1c5c:	321e0000 	andscc	r0, lr, #0
    1c60:	e2000001 	and	r0, r0, #1
    1c64:	0000000c 	andeq	r0, r0, ip
    1c68:	8a2c1f00 	bhi	b09870 <__bss_end__+0xaff540>
    1c6c:	11310000 	teqne	r1, r0
    1c70:	01200000 	teqeq	r0, r0
    1c74:	00770551 	rsbseq	r0, r7, r1, asr r5
    1c78:	201a2008 	andscs	r2, sl, r8
    1c7c:	76025001 	strvc	r5, [r2], -r1
    1c80:	19000000 	stmdbne	r0, {}	; <UNPREDICTABLE>
    1c84:	0000013f 	andeq	r0, r0, pc, lsr r1
    1c88:	00008a40 	andeq	r8, r0, r0, asr #20
    1c8c:	0000001c 	andeq	r0, r0, ip, lsl r0
    1c90:	062c1f01 	strteq	r1, [ip], -r1, lsl #30
    1c94:	6a1a0000 	bvs	681c9c <__bss_end__+0x67796c>
    1c98:	f5000001 			; <UNDEFINED> instruction: 0xf5000001
    1c9c:	1b00000c 	blne	1cd4 <_start-0x632c>
    1ca0:	0000015f 	andeq	r0, r0, pc, asr r1
    1ca4:	561b5401 	ldrpl	r5, [fp], -r1, lsl #8
    1ca8:	09000001 	stmdbeq	r0, {r0}
    1cac:	40080077 	andmi	r0, r8, r7, ror r0
    1cb0:	1aff081a 	bne	fffc3d20 <__bss_end__+0xfffb99f0>
    1cb4:	014b1b9f 			; <UNDEFINED> instruction: 0x014b1b9f
    1cb8:	56010000 	strpl	r0, [r1], -r0
    1cbc:	00011119 	andeq	r1, r1, r9, lsl r1
    1cc0:	008a4c00 	addeq	r4, sl, r0, lsl #24
    1cc4:	00001000 	andeq	r1, r0, r0
    1cc8:	121a0200 	andsne	r0, sl, #0, 4
    1ccc:	1a000006 	bne	1cec <_start-0x6314>
    1cd0:	00000128 	andeq	r0, r0, r8, lsr #2
    1cd4:	00000d17 	andeq	r0, r0, r7, lsl sp
    1cd8:	00011d1b 	andeq	r1, r1, fp, lsl sp
    1cdc:	1d540100 	ldfnee	f0, [r4, #-0]
    1ce0:	00008a4c 	andeq	r8, r0, ip, asr #20
    1ce4:	00000004 	andeq	r0, r0, r4
    1ce8:	0001321e 	andeq	r3, r1, lr, lsl r2
    1cec:	000d3900 	andeq	r3, sp, r0, lsl #18
    1cf0:	1f000000 	svcne	0x00000000
    1cf4:	00008a4c 	andeq	r8, r0, ip, asr #20
    1cf8:	00001131 	andeq	r1, r0, r1, lsr r1
    1cfc:	05510120 	ldrbeq	r0, [r1, #-288]	; 0x120
    1d00:	40080077 	andmi	r0, r8, r7, ror r0
    1d04:	5001201a 	andpl	r2, r1, sl, lsl r0
    1d08:	00007602 	andeq	r7, r0, r2, lsl #12
    1d0c:	013f1900 	teqeq	pc, r0, lsl #18
    1d10:	8a600000 	bhi	1801d18 <__bss_end__+0x17f79e8>
    1d14:	001c0000 	andseq	r0, ip, r0
    1d18:	21010000 	mrscs	r0, (UNDEF: 1)
    1d1c:	000006ac 	andeq	r0, r0, ip, lsr #13
    1d20:	00016a1b 	andeq	r6, r1, fp, lsl sl
    1d24:	1b580100 	blne	160212c <__bss_end__+0x15f7dfc>
    1d28:	0000015f 	andeq	r0, r0, pc, asr r1
    1d2c:	561a5401 	ldrpl	r5, [sl], -r1, lsl #8
    1d30:	4c000001 	stcmi	0, cr0, [r0], {1}
    1d34:	1b00000d 	blne	1d70 <_start-0x6290>
    1d38:	0000014b 	andeq	r0, r0, fp, asr #2
    1d3c:	11195601 	tstne	r9, r1, lsl #12
    1d40:	6c000001 	stcvs	0, cr0, [r0], {1}
    1d44:	1000008a 	andne	r0, r0, sl, lsl #1
    1d48:	02000000 	andeq	r0, r0, #0
    1d4c:	0006921a 	andeq	r9, r6, sl, lsl r2
    1d50:	01281b00 	teqeq	r8, r0, lsl #22
    1d54:	58010000 	stmdapl	r1, {}	; <UNPREDICTABLE>
    1d58:	00011d1b 	andeq	r1, r1, fp, lsl sp
    1d5c:	1d540100 	ldfnee	f0, [r4, #-0]
    1d60:	00008a6c 	andeq	r8, r0, ip, ror #20
    1d64:	00000004 	andeq	r0, r0, r4
    1d68:	0001321e 	andeq	r3, r1, lr, lsl r2
    1d6c:	000d7f00 	andeq	r7, sp, r0, lsl #30
    1d70:	1f000000 	svcne	0x00000000
    1d74:	00008a6c 	andeq	r8, r0, ip, ror #20
    1d78:	00001131 	andeq	r1, r0, r1, lsr r1
    1d7c:	05510120 	ldrbeq	r0, [r1, #-288]	; 0x120
    1d80:	80080077 	andhi	r0, r8, r7, ror r0
    1d84:	5001201a 	andpl	r2, r1, sl, lsl r0
    1d88:	00007602 	andeq	r7, r0, r2, lsl #12
    1d8c:	013f2100 	teqeq	pc, r0, lsl #2
    1d90:	8a800000 	bhi	fe001d98 <__bss_end__+0xfdff7a68>
    1d94:	001c0000 	andseq	r0, ip, r0
    1d98:	23010000 	movwcs	r0, #4096	; 0x1000
    1d9c:	00016a1b 	andeq	r6, r1, fp, lsl sl
    1da0:	1b550100 	blne	15421a8 <__bss_end__+0x1537e78>
    1da4:	0000015f 	andeq	r0, r0, pc, asr r1
    1da8:	561c5401 	ldrpl	r5, [ip], -r1, lsl #8
    1dac:	01000001 	tsteq	r0, r1
    1db0:	00014b1b 	andeq	r4, r1, fp, lsl fp
    1db4:	19560100 	ldmdbne	r6, {r8}^
    1db8:	00000111 	andeq	r0, r0, r1, lsl r1
    1dbc:	00008a8c 	andeq	r8, r0, ip, lsl #21
    1dc0:	00000010 	andeq	r0, r0, r0, lsl r0
    1dc4:	070b1a02 	streq	r1, [fp, -r2, lsl #20]
    1dc8:	281b0000 	ldmdacs	fp, {}	; <UNPREDICTABLE>
    1dcc:	01000001 	tsteq	r0, r1
    1dd0:	011d1b55 	tsteq	sp, r5, asr fp
    1dd4:	54010000 	strpl	r0, [r1], #-0
    1dd8:	008a8c1d 	addeq	r8, sl, sp, lsl ip
    1ddc:	00000400 	andeq	r0, r0, r0, lsl #8
    1de0:	01321e00 	teqeq	r2, r0, lsl #28
    1de4:	0d920000 	ldceq	0, cr0, [r2]
    1de8:	00000000 	andeq	r0, r0, r0
    1dec:	008a8c1f 	addeq	r8, sl, pc, lsl ip
    1df0:	00113100 	andseq	r3, r1, r0, lsl #2
    1df4:	51012000 	mrspl	r2, (UNDEF: 1)
    1df8:	01203101 	teqeq	r0, r1, lsl #2
    1dfc:	00760250 	rsbseq	r0, r6, r0, asr r2
    1e00:	06000000 	streq	r0, [r0], -r0
    1e04:	0000d904 	andeq	sp, r0, r4, lsl #18
    1e08:	06fc2200 	ldrbteq	r2, [ip], r0, lsl #4
    1e0c:	27010000 	strcs	r0, [r1, -r0]
    1e10:	00000025 	andeq	r0, r0, r5, lsr #32
    1e14:	00076203 	andeq	r6, r7, r3, lsl #4
    1e18:	78720f00 	ldmdavc	r2!, {r8, r9, sl, fp}^
    1e1c:	25270100 	strcs	r0, [r7, #-256]!	; 0x100
    1e20:	0f000000 	svceq	0x00000000
    1e24:	27010076 	smlsdxcs	r1, r6, r0, r0
    1e28:	00000025 	andeq	r0, r0, r5, lsr #32
    1e2c:	0006500e 	andeq	r5, r6, lr
    1e30:	2c270100 	stfcss	f0, [r7], #-0
    1e34:	11000000 	mrsne	r0, (UNDEF: 0)
    1e38:	0000049c 	muleq	r0, ip, r4
    1e3c:	002c2801 	eoreq	r2, ip, r1, lsl #16
    1e40:	23000000 	movwcs	r0, #0
    1e44:	000005f1 	strdeq	r0, [r0], -r1
    1e48:	00253401 	eoreq	r3, r5, r1, lsl #8
    1e4c:	8aa00000 	bhi	fe801e54 <__bss_end__+0xfe7f7b24>
    1e50:	01c80000 	biceq	r0, r8, r0
    1e54:	9c010000 	stcls	0, cr0, [r1], {-0}
    1e58:	00000b1e 	andeq	r0, r0, lr, lsl fp
    1e5c:	00044f13 	andeq	r4, r4, r3, lsl pc
    1e60:	22340100 	eorscs	r0, r4, #0, 2
    1e64:	a5000007 	strge	r0, [r0, #-7]
    1e68:	1300000d 	movwne	r0, #13
    1e6c:	00000650 	andeq	r0, r0, r0, asr r6
    1e70:	00253401 	eoreq	r3, r5, r1, lsl #8
    1e74:	0dea0000 	stcleq	0, cr0, [sl]
    1e78:	72150000 	andsvc	r0, r5, #0
    1e7c:	35010078 	strcc	r0, [r1, #-120]	; 0x78
    1e80:	00000025 	andeq	r0, r0, r5, lsr #32
    1e84:	73165501 	tstvc	r6, #4194304	; 0x400000
    1e88:	2c3c0100 	ldfcss	f0, [ip], #-0
    1e8c:	08000000 	stmdaeq	r0, {}	; <UNPREDICTABLE>
    1e90:	1600000e 	strne	r0, [r0], -lr
    1e94:	3f010075 	svccc	0x00010075
    1e98:	00000068 	andeq	r0, r0, r8, rrx
    1e9c:	00000e1b 	andeq	r0, r0, fp, lsl lr
    1ea0:	01006e16 	tsteq	r0, r6, lsl lr
    1ea4:	00002c40 	andeq	r2, r0, r0, asr #24
    1ea8:	000e2e00 	andeq	r2, lr, r0, lsl #28
    1eac:	00631600 	rsbeq	r1, r3, r0, lsl #12
    1eb0:	002c4101 	eoreq	r4, ip, r1, lsl #2
    1eb4:	0e450000 	cdpeq	0, 4, cr0, cr5, cr0, {0}
    1eb8:	28190000 	ldmdacs	r9, {}	; <UNPREDICTABLE>
    1ebc:	b4000007 	strlt	r0, [r0], #-7
    1ec0:	3400008a 	strcc	r0, [r0], #-138	; 0x8a
    1ec4:	01000000 	mrseq	r0, (UNDEF: 0)
    1ec8:	00083c38 	andeq	r3, r8, r8, lsr ip
    1ecc:	074b1a00 	strbeq	r1, [fp, -r0, lsl #20]
    1ed0:	0e6f0000 	cdpeq	0, 6, cr0, cr15, cr0, {0}
    1ed4:	421c0000 	andsmi	r0, ip, #0
    1ed8:	00000007 	andeq	r0, r0, r7
    1edc:	0007381b 	andeq	r3, r7, fp, lsl r8
    1ee0:	1d550100 	ldfnee	f0, [r5, #-0]
    1ee4:	00008ab4 			; <UNDEFINED> instruction: 0x00008ab4
    1ee8:	00000034 	andeq	r0, r0, r4, lsr r0
    1eec:	0007561e 	andeq	r5, r7, lr, lsl r6
    1ef0:	000e8d00 	andeq	r8, lr, r0, lsl #26
    1ef4:	8ab82400 	bhi	fee0aefc <__bss_end__+0xfee00bcc>
    1ef8:	11470000 	mrsne	r0, (UNDEF: 71)
    1efc:	c4250000 	strtgt	r0, [r5], #-0
    1f00:	5200008a 	andpl	r0, r0, #138	; 0x8a
    1f04:	31000011 	tstcc	r0, r1, lsl r0
    1f08:	20000008 	andcs	r0, r0, r8
    1f0c:	75025001 	strvc	r5, [r2, #-1]
    1f10:	d0240000 	eorle	r0, r4, r0
    1f14:	4700008a 	strmi	r0, [r0, -sl, lsl #1]
    1f18:	00000011 	andeq	r0, r0, r1, lsl r0
    1f1c:	8af01700 	bhi	ffc07b24 <__bss_end__+0xffbfd7f4>
    1f20:	00040000 	andeq	r0, r4, r0
    1f24:	08590000 	ldmdaeq	r9, {}^	; <UNPREDICTABLE>
    1f28:	a2260000 	eorge	r0, r6, #0
    1f2c:	01000006 	tsteq	r0, r6
    1f30:	00002c3c 	andeq	r2, r0, ip, lsr ip
    1f34:	000eab00 	andeq	sl, lr, r0, lsl #22
    1f38:	11190000 	tstne	r9, r0
    1f3c:	fc000001 	stc2	0, cr0, [r0], {1}
    1f40:	1000008a 	andne	r0, r0, sl, lsl #1
    1f44:	01000000 	mrseq	r0, (UNDEF: 0)
    1f48:	00089244 	andeq	r9, r8, r4, asr #4
    1f4c:	01281a00 	teqeq	r8, r0, lsl #20
    1f50:	0ebe0000 	cdpeq	0, 11, cr0, cr14, cr0, {0}
    1f54:	1d1a0000 	ldcne	0, cr0, [sl, #-0]
    1f58:	e3000001 	movw	r0, #1
    1f5c:	1d00000e 	stcne	0, cr0, [r0, #-56]	; 0xffffffc8
    1f60:	00008afc 	strdeq	r8, [r0], -ip
    1f64:	00000004 	andeq	r0, r0, r4
    1f68:	0001321e 	andeq	r3, r1, lr, lsl r2
    1f6c:	000ef600 	andeq	pc, lr, r0, lsl #12
    1f70:	19000000 	stmdbne	r0, {}	; <UNPREDICTABLE>
    1f74:	00000111 	andeq	r0, r0, r1, lsl r1
    1f78:	00008b1c 	andeq	r8, r0, ip, lsl fp
    1f7c:	00000010 	andeq	r0, r0, r0, lsl r0
    1f80:	08cb4801 	stmiaeq	fp, {r0, fp, lr}^
    1f84:	281a0000 	ldmdacs	sl, {}	; <UNPREDICTABLE>
    1f88:	09000001 	stmdbeq	r0, {r0}
    1f8c:	1a00000f 	bne	1fd0 <_start-0x6030>
    1f90:	0000011d 	andeq	r0, r0, sp, lsl r1
    1f94:	00000f1c 	andeq	r0, r0, ip, lsl pc
    1f98:	008b1c1d 	addeq	r1, fp, sp, lsl ip
    1f9c:	00000400 	andeq	r0, r0, r0, lsl #8
    1fa0:	01321e00 	teqeq	r2, r0, lsl #28
    1fa4:	0f2f0000 	svceq	0x002f0000
    1fa8:	00000000 	andeq	r0, r0, r0
    1fac:	00011119 	andeq	r1, r1, r9, lsl r1
    1fb0:	008b4000 	addeq	r4, fp, r0
    1fb4:	00001000 	andeq	r1, r0, r0
    1fb8:	044b0100 	strbeq	r0, [fp], #-256	; 0x100
    1fbc:	1a000009 	bne	1fe8 <_start-0x6018>
    1fc0:	00000128 	andeq	r0, r0, r8, lsr #2
    1fc4:	00000f42 	andeq	r0, r0, r2, asr #30
    1fc8:	00011d1a 	andeq	r1, r1, sl, lsl sp
    1fcc:	000f5500 	andeq	r5, pc, r0, lsl #10
    1fd0:	8b401d00 	blhi	10093d8 <__bss_end__+0xfff0a8>
    1fd4:	00040000 	andeq	r0, r4, r0
    1fd8:	321e0000 	andscc	r0, lr, #0
    1fdc:	68000001 	stmdavs	r0, {r0}
    1fe0:	0000000f 	andeq	r0, r0, pc
    1fe4:	01111900 	tsteq	r1, r0, lsl #18
    1fe8:	8b640000 	blhi	1901ff0 <__bss_end__+0x18f7cc0>
    1fec:	00100000 	andseq	r0, r0, r0
    1ff0:	4e010000 	cdpmi	0, 0, cr0, cr1, cr0, {0}
    1ff4:	0000093d 	andeq	r0, r0, sp, lsr r9
    1ff8:	0001281a 	andeq	r2, r1, sl, lsl r8
    1ffc:	000f7b00 	andeq	r7, pc, r0, lsl #22
    2000:	011d1a00 	tsteq	sp, r0, lsl #20
    2004:	0f8e0000 	svceq	0x008e0000
    2008:	641d0000 	ldrvs	r0, [sp], #-0
    200c:	0400008b 	streq	r0, [r0], #-139	; 0x8b
    2010:	1e000000 	cdpne	0, 0, cr0, cr0, cr0, {0}
    2014:	00000132 	andeq	r0, r0, r2, lsr r1
    2018:	00000fa1 	andeq	r0, r0, r1, lsr #31
    201c:	11190000 	tstne	r9, r0
    2020:	88000001 	stmdahi	r0, {r0}
    2024:	1000008b 	andne	r0, r0, fp, lsl #1
    2028:	01000000 	mrseq	r0, (UNDEF: 0)
    202c:	00097651 	andeq	r7, r9, r1, asr r6
    2030:	01281a00 	teqeq	r8, r0, lsl #20
    2034:	0fb40000 	svceq	0x00b40000
    2038:	1d1a0000 	ldcne	0, cr0, [sl, #-0]
    203c:	c7000001 	strgt	r0, [r0, -r1]
    2040:	1d00000f 	stcne	0, cr0, [r0, #-60]	; 0xffffffc4
    2044:	00008b88 	andeq	r8, r0, r8, lsl #23
    2048:	00000004 	andeq	r0, r0, r4
    204c:	0001321e 	andeq	r3, r1, lr, lsl r2
    2050:	000fda00 	andeq	sp, pc, r0, lsl #20
    2054:	19000000 	stmdbne	r0, {}	; <UNPREDICTABLE>
    2058:	00000111 	andeq	r0, r0, r1, lsl r1
    205c:	00008bac 	andeq	r8, r0, ip, lsr #23
    2060:	00000010 	andeq	r0, r0, r0, lsl r0
    2064:	09af5401 	stmibeq	pc!, {r0, sl, ip, lr}	; <UNPREDICTABLE>
    2068:	281a0000 	ldmdacs	sl, {}	; <UNPREDICTABLE>
    206c:	ed000001 	stc	0, cr0, [r0, #-4]
    2070:	1a00000f 	bne	20b4 <_start-0x5f4c>
    2074:	0000011d 	andeq	r0, r0, sp, lsl r1
    2078:	00001000 	andeq	r1, r0, r0
    207c:	008bac1d 	addeq	sl, fp, sp, lsl ip
    2080:	00000400 	andeq	r0, r0, r0, lsl #8
    2084:	01321e00 	teqeq	r2, r0, lsl #28
    2088:	10130000 	andsne	r0, r3, r0
    208c:	00000000 	andeq	r0, r0, r0
    2090:	00011119 	andeq	r1, r1, r9, lsl r1
    2094:	008bd000 	addeq	sp, fp, r0
    2098:	00001000 	andeq	r1, r0, r0
    209c:	e8570100 	ldmda	r7, {r8}^
    20a0:	1a000009 	bne	20cc <_start-0x5f34>
    20a4:	00000128 	andeq	r0, r0, r8, lsr #2
    20a8:	00001026 	andeq	r1, r0, r6, lsr #32
    20ac:	00011d1a 	andeq	r1, r1, sl, lsl sp
    20b0:	00103900 	andseq	r3, r0, r0, lsl #18
    20b4:	8bd01d00 	blhi	ff4094bc <__bss_end__+0xff3ff18c>
    20b8:	00040000 	andeq	r0, r4, r0
    20bc:	321e0000 	andscc	r0, lr, #0
    20c0:	4c000001 	stcmi	0, cr0, [r0], {1}
    20c4:	00000010 	andeq	r0, r0, r0, lsl r0
    20c8:	01111900 	tsteq	r1, r0, lsl #18
    20cc:	8bf40000 	blhi	ffd020d4 <__bss_end__+0xffcf7da4>
    20d0:	00100000 	andseq	r0, r0, r0
    20d4:	5a010000 	bpl	420dc <__bss_end__+0x37dac>
    20d8:	00000a1d 	andeq	r0, r0, sp, lsl sl
    20dc:	0001281a 	andeq	r2, r1, sl, lsl r8
    20e0:	00105f00 	andseq	r5, r0, r0, lsl #30
    20e4:	011d2700 	tsteq	sp, r0, lsl #14
    20e8:	f41d0000 			; <UNDEFINED> instruction: 0xf41d0000
    20ec:	0400008b 	streq	r0, [r0], #-139	; 0x8b
    20f0:	1e000000 	cdpne	0, 0, cr0, cr0, cr0, {0}
    20f4:	00000132 	andeq	r0, r0, r2, lsr r1
    20f8:	00001072 	andeq	r1, r0, r2, ror r0
    20fc:	28190000 	ldmdacs	r9, {}	; <UNPREDICTABLE>
    2100:	14000007 	strne	r0, [r0], #-7
    2104:	3400008c 	strcc	r0, [r0], #-140	; 0x8c
    2108:	01000000 	mrseq	r0, (UNDEF: 0)
    210c:	000a8161 	andeq	r8, sl, r1, ror #2
    2110:	074b2700 	strbeq	r2, [fp, -r0, lsl #14]
    2114:	421a0000 	andsmi	r0, sl, #0
    2118:	85000007 	strhi	r0, [r0, #-7]
    211c:	1a000010 	bne	2164 <_start-0x5e9c>
    2120:	00000738 	andeq	r0, r0, r8, lsr r7
    2124:	000010a5 	andeq	r1, r0, r5, lsr #1
    2128:	008c141d 	addeq	r1, ip, sp, lsl r4
    212c:	00003400 	andeq	r3, r0, r0, lsl #8
    2130:	07561e00 	ldrbeq	r1, [r6, -r0, lsl #28]
    2134:	10c30000 	sbcne	r0, r3, r0
    2138:	18240000 	stmdane	r4!, {}	; <UNPREDICTABLE>
    213c:	4700008c 	strmi	r0, [r0, -ip, lsl #1]
    2140:	25000011 	strcs	r0, [r0, #-17]
    2144:	00008c24 	andeq	r8, r0, r4, lsr #24
    2148:	00001152 	andeq	r1, r0, r2, asr r1
    214c:	00000a76 	andeq	r0, r0, r6, ror sl
    2150:	02500120 	subseq	r0, r0, #32, 2
    2154:	24000075 	strcs	r0, [r0], #-117	; 0x75
    2158:	00008c30 	andeq	r8, r0, r0, lsr ip
    215c:	00001147 	andeq	r1, r0, r7, asr #2
    2160:	18250000 	stmdane	r5!, {}	; <UNPREDICTABLE>
    2164:	5200008b 	andpl	r0, r0, #139	; 0x8b
    2168:	95000011 	strls	r0, [r0, #-17]
    216c:	2000000a 	andcs	r0, r0, sl
    2170:	75025001 	strvc	r5, [r2, #-1]
    2174:	38250000 	stmdacc	r5!, {}	; <UNPREDICTABLE>
    2178:	5200008b 	andpl	r0, r0, #139	; 0x8b
    217c:	a9000011 	stmdbge	r0, {r0, r4}
    2180:	2000000a 	andcs	r0, r0, sl
    2184:	75025001 	strvc	r5, [r2, #-1]
    2188:	5c250000 	stcpl	0, cr0, [r5], #-0
    218c:	5200008b 	andpl	r0, r0, #139	; 0x8b
    2190:	bd000011 	stclt	0, cr0, [r0, #-68]	; 0xffffffbc
    2194:	2000000a 	andcs	r0, r0, sl
    2198:	75025001 	strvc	r5, [r2, #-1]
    219c:	80250000 	eorhi	r0, r5, r0
    21a0:	5200008b 	andpl	r0, r0, #139	; 0x8b
    21a4:	d1000011 	tstle	r0, r1, lsl r0
    21a8:	2000000a 	andcs	r0, r0, sl
    21ac:	75025001 	strvc	r5, [r2, #-1]
    21b0:	a4250000 	strtge	r0, [r5], #-0
    21b4:	5200008b 	andpl	r0, r0, #139	; 0x8b
    21b8:	e5000011 	str	r0, [r0, #-17]
    21bc:	2000000a 	andcs	r0, r0, sl
    21c0:	75025001 	strvc	r5, [r2, #-1]
    21c4:	c8250000 	stmdagt	r5!, {}	; <UNPREDICTABLE>
    21c8:	5200008b 	andpl	r0, r0, #139	; 0x8b
    21cc:	f9000011 			; <UNDEFINED> instruction: 0xf9000011
    21d0:	2000000a 	andcs	r0, r0, sl
    21d4:	75025001 	strvc	r5, [r2, #-1]
    21d8:	ec250000 	stc	0, cr0, [r5], #-0
    21dc:	5200008b 	andpl	r0, r0, #139	; 0x8b
    21e0:	0d000011 	stceq	0, cr0, [r0, #-68]	; 0xffffffbc
    21e4:	2000000b 	andcs	r0, r0, fp
    21e8:	75025001 	strvc	r5, [r2, #-1]
    21ec:	0c1f0000 	ldceq	0, cr0, [pc], {-0}
    21f0:	5200008c 	andpl	r0, r0, #140	; 0x8c
    21f4:	20000011 	andcs	r0, r0, r1, lsl r0
    21f8:	75025001 	strvc	r5, [r2, #-1]
    21fc:	23000000 	movwcs	r0, #0
    2200:	00000606 	andeq	r0, r0, r6, lsl #12
    2204:	00256c01 	eoreq	r6, r5, r1, lsl #24
    2208:	8c680000 	stclhi	0, cr0, [r8], #-0
    220c:	00900000 	addseq	r0, r0, r0
    2210:	9c010000 	stcls	0, cr0, [r1], {-0}
    2214:	00000c02 	andeq	r0, r0, r2, lsl #24
    2218:	01007514 	tsteq	r0, r4, lsl r5
    221c:	0007226c 	andeq	r2, r7, ip, ror #4
    2220:	0010e100 	andseq	lr, r0, r0, lsl #2
    2224:	75621400 	strbvc	r1, [r2, #-1024]!	; 0x400
    2228:	6c010066 	stcvs	0, cr0, [r1], {102}	; 0x66
    222c:	00000c02 	andeq	r0, r0, r2, lsl #24
    2230:	00001115 	andeq	r1, r0, r5, lsl r1
    2234:	0006a713 	andeq	sl, r6, r3, lsl r7
    2238:	686c0100 	stmdavs	ip!, {r8}^
    223c:	49000000 	stmdbmi	r0, {}	; <UNPREDICTABLE>
    2240:	14000011 	strne	r0, [r0], #-17
    2244:	00646e65 	rsbeq	r6, r4, r5, ror #28
    2248:	004f6c01 	subeq	r6, pc, r1, lsl #24
    224c:	11820000 	orrne	r0, r2, r0
    2250:	b9280000 	stmdblt	r8!, {}	; <UNPREDICTABLE>
    2254:	01000006 	tsteq	r0, r6
    2258:	0000686c 	andeq	r6, r0, ip, ror #16
    225c:	00910200 	addseq	r0, r1, r0, lsl #4
    2260:	00014a29 	andeq	r4, r1, r9, lsr #20
    2264:	000c1800 	andeq	r1, ip, r0, lsl #16
    2268:	d8030500 	stmdale	r3, {r8, sl}
    226c:	1600009d 			; <UNDEFINED> instruction: 0x1600009d
    2270:	70010069 	andvc	r0, r1, r9, rrx
    2274:	00000025 	andeq	r0, r0, r5, lsr #32
    2278:	000011bc 			; <UNDEFINED> instruction: 0x000011bc
    227c:	00068526 	andeq	r8, r6, r6, lsr #10
    2280:	4f710100 	svcmi	0x00710100
    2284:	db000000 	blle	228c <_start-0x5d74>
    2288:	24000011 	strcs	r0, [r0], #-17
    228c:	00008c88 	andeq	r8, r0, r8, lsl #25
    2290:	00001167 	andeq	r1, r0, r7, ror #2
    2294:	008c9c25 	addeq	r9, ip, r5, lsr #24
    2298:	00116e00 	andseq	r6, r1, r0, lsl #28
    229c:	000be200 	andeq	lr, fp, r0, lsl #4
    22a0:	53012000 	movwpl	r2, #4096	; 0x1000
    22a4:	206d0802 	rsbcs	r0, sp, r2, lsl #16
    22a8:	03055201 	movweq	r5, #20993	; 0x5201
    22ac:	00009dd8 	ldrdeq	r9, [r0], -r8
    22b0:	05510120 	ldrbeq	r0, [r1, #-288]	; 0x120
    22b4:	009e6c03 	addseq	r6, lr, r3, lsl #24
    22b8:	50012000 	andpl	r2, r1, r0
    22bc:	9e500305 	cdpls	3, 5, cr0, cr0, cr5, {0}
    22c0:	24000000 	strcs	r0, [r0], #-0
    22c4:	00008ca0 	andeq	r8, r0, r0, lsr #25
    22c8:	00001184 	andeq	r1, r0, r4, lsl #3
    22cc:	008cbc1f 	addeq	fp, ip, pc, lsl ip
    22d0:	00076200 	andeq	r6, r7, r0, lsl #4
    22d4:	51012000 	mrspl	r2, (UNDEF: 1)
    22d8:	20007a02 	andcs	r7, r0, r2, lsl #20
    22dc:	78025001 	stmdavc	r2, {r0, ip, lr}
    22e0:	06000000 	streq	r0, [r0], -r0
    22e4:	00004f04 	andeq	r4, r0, r4, lsl #30
    22e8:	00902a00 	addseq	r2, r0, r0, lsl #20
    22ec:	0c180000 	ldceq	0, cr0, [r8], {-0}
    22f0:	812b0000 	teqhi	fp, r0
    22f4:	12000000 	andne	r0, r0, #0
    22f8:	0c080700 	stceq	7, cr0, [r8], {-0}
    22fc:	8d230000 	stchi	0, cr0, [r3, #-0]
    2300:	01000006 	tsteq	r0, r6
    2304:	00002580 	andeq	r2, r0, r0, lsl #11
    2308:	008cf800 	addeq	pc, ip, r0, lsl #16
    230c:	00007c00 	andeq	r7, r0, r0, lsl #24
    2310:	e49c0100 	ldr	r0, [ip], #256	; 0x100
    2314:	1400000c 	strne	r0, [r0], #-12
    2318:	80010075 	andhi	r0, r1, r5, ror r0
    231c:	00000722 	andeq	r0, r0, r2, lsr #14
    2320:	000011ee 	andeq	r1, r0, lr, ror #3
    2324:	66756214 			; <UNDEFINED> instruction: 0x66756214
    2328:	02800100 	addeq	r0, r0, #0, 2
    232c:	2200000c 	andcs	r0, r0, #12
    2330:	13000012 	movwne	r0, #18
    2334:	000006a7 	andeq	r0, r0, r7, lsr #13
    2338:	00688101 	rsbeq	r8, r8, r1, lsl #2
    233c:	12560000 	subsne	r0, r6, #0
    2340:	b9130000 	ldmdblt	r3, {}	; <UNPREDICTABLE>
    2344:	01000006 	tsteq	r0, r6
    2348:	00006881 	andeq	r6, r0, r1, lsl #17
    234c:	00128f00 	andseq	r8, r2, r0, lsl #30
    2350:	014a2900 	cmpeq	sl, r0, lsl #18
    2354:	0cf40000 	ldcleq	0, cr0, [r4]
    2358:	03050000 	movweq	r0, #20480	; 0x5000
    235c:	00009dec 	andeq	r9, r0, ip, ror #27
    2360:	01006916 	tsteq	r0, r6, lsl r9
    2364:	00002586 	andeq	r2, r0, r6, lsl #11
    2368:	0012c300 	andseq	ip, r2, r0, lsl #6
    236c:	8d142400 	cfldrshi	mvf2, [r4, #-0]
    2370:	11670000 	cmnne	r7, r0
    2374:	28250000 	stmdacs	r5!, {}	; <UNPREDICTABLE>
    2378:	6e00008d 	cdpvs	0, 0, cr0, cr0, cr13, {4}
    237c:	c4000011 	strgt	r0, [r0], #-17
    2380:	2000000c 	andcs	r0, r0, ip
    2384:	08025301 	stmdaeq	r2, {r0, r8, r9, ip, lr}
    2388:	52012083 	andpl	r2, r1, #131	; 0x83
    238c:	9dec0305 	stclls	3, cr0, [ip, #20]!
    2390:	01200000 	teqeq	r0, r0
    2394:	6c030551 	cfstr32vs	mvfx0, [r3], {81}	; 0x51
    2398:	2000009e 	mulcs	r0, lr, r0
    239c:	03055001 	movweq	r5, #20481	; 0x5001
    23a0:	00009e50 	andeq	r9, r0, r0, asr lr
    23a4:	8d2c2400 	cfstrshi	mvf2, [ip, #-0]
    23a8:	11840000 	orrne	r0, r4, r0
    23ac:	481f0000 	ldmdami	pc, {}	; <UNPREDICTABLE>
    23b0:	6200008d 	andvs	r0, r0, #141	; 0x8d
    23b4:	20000007 	andcs	r0, r0, r7
    23b8:	78025101 	stmdavc	r2, {r0, r8, ip, lr}
    23bc:	50012000 	andpl	r2, r1, r0
    23c0:	00007702 	andeq	r7, r0, r2, lsl #14
    23c4:	00902a00 	addseq	r2, r0, r0, lsl #20
    23c8:	0cf40000 	ldcleq	0, cr0, [r4]
    23cc:	812b0000 	teqhi	fp, r0
    23d0:	14000000 	strne	r0, [r0], #-0
    23d4:	0ce40700 	stcleq	7, cr0, [r4]
    23d8:	3c230000 	stccc	0, cr0, [r3], #-0
    23dc:	01000006 	tsteq	r0, r6
    23e0:	0000d993 	muleq	r0, r3, r9
    23e4:	008d7400 	addeq	r7, sp, r0, lsl #8
    23e8:	0000c000 	andeq	ip, r0, r0
    23ec:	149c0100 	ldrne	r0, [ip], #256	; 0x100
    23f0:	1400000e 	strne	r0, [r0], #-14
    23f4:	01007874 	tsteq	r0, r4, ror r8
    23f8:	00004f93 	muleq	r0, r3, pc	; <UNPREDICTABLE>
    23fc:	0012e200 	andseq	lr, r2, r0, lsl #4
    2400:	78721400 	ldmdavc	r2!, {sl, ip}^
    2404:	4f930100 	svcmi	0x00930100
    2408:	03000000 	movweq	r0, #0
    240c:	13000013 	movwne	r0, #19
    2410:	00000488 	andeq	r0, r0, r8, lsl #9
    2414:	00689301 	rsbeq	r9, r8, r1, lsl #6
    2418:	13240000 	teqne	r4, #0
    241c:	d5280000 	strle	r0, [r8, #-0]!
    2420:	01000005 	tsteq	r0, r5
    2424:	00006893 	muleq	r0, r3, r8
    2428:	00910200 	addseq	r0, r1, r0, lsl #4
    242c:	7a686d2c 	bvc	1a1d8e4 <__bss_end__+0x1a135b4>
    2430:	2c9b0100 	ldfcss	f0, [fp], {0}
    2434:	00000000 	andeq	r0, r0, r0
    2438:	2629b927 	strtcs	fp, [r9], -r7, lsr #18
    243c:	00000626 	andeq	r0, r0, r6, lsr #12
    2440:	002c9c01 	eoreq	r9, ip, r1, lsl #24
    2444:	13420000 	movtne	r0, #8192	; 0x2000
    2448:	4a290000 	bmi	a42450 <__bss_end__+0xa38120>
    244c:	24000001 	strcs	r0, [r0], #-1
    2450:	0500000e 	streq	r0, [r0, #-14]
    2454:	009e0403 	addseq	r0, lr, r3, lsl #8
    2458:	8d9c1700 	ldchi	7, cr1, [ip]
    245c:	00080000 	andeq	r0, r8, r0
    2460:	0d910000 	ldceq	0, cr0, [r1]
    2464:	692d0000 	pushvs	{}	; <UNPREDICTABLE>
    2468:	9701006e 	strls	r0, [r1, -lr, rrx]
    246c:	0000002c 	andeq	r0, r0, ip, lsr #32
    2470:	94250001 	strtls	r0, [r5], #-1
    2474:	8b00008d 	blhi	26b0 <_start-0x5950>
    2478:	a5000011 	strge	r0, [r0, #-17]
    247c:	2000000d 	andcs	r0, r0, sp
    2480:	76025001 	strvc	r5, [r2], -r1
    2484:	9c250000 	stcls	0, cr0, [r5], #-0
    2488:	9c00008d 	stcls	0, cr0, [r0], {141}	; 0x8d
    248c:	b9000011 	stmdblt	r0, {r0, r4}
    2490:	2000000d 	andcs	r0, r0, sp
    2494:	78025001 	stmdavc	r2, {r0, ip, lr}
    2498:	b0250000 	eorlt	r0, r5, r0
    249c:	3100008d 	smlabbcc	r0, sp, r0, r0
    24a0:	d2000011 	andle	r0, r0, #17
    24a4:	2000000d 	andcs	r0, r0, sp
    24a8:	31015101 	tstcc	r1, r1, lsl #2
    24ac:	02500120 	subseq	r0, r0, #32, 2
    24b0:	24000076 	strcs	r0, [r0], #-118	; 0x76
    24b4:	00008df4 	strdeq	r8, [r0], -r4
    24b8:	00001167 	andeq	r1, r0, r7, ror #2
    24bc:	008e0825 	addeq	r0, lr, r5, lsr #16
    24c0:	00116e00 	andseq	r6, r1, r0, lsl #28
    24c4:	000e0a00 	andeq	r0, lr, r0, lsl #20
    24c8:	53012000 	movwpl	r2, #4096	; 0x1000
    24cc:	209d0802 	addscs	r0, sp, r2, lsl #16
    24d0:	03055201 	movweq	r5, #20993	; 0x5201
    24d4:	00009e04 	andeq	r9, r0, r4, lsl #28
    24d8:	05510120 	ldrbeq	r0, [r1, #-288]	; 0x120
    24dc:	009e6c03 	addseq	r6, lr, r3, lsl #24
    24e0:	50012000 	andpl	r2, r1, r0
    24e4:	9e800305 	cdpls	3, 8, cr0, cr0, cr5, {0}
    24e8:	24000000 	strcs	r0, [r0], #-0
    24ec:	00008e0c 	andeq	r8, r0, ip, lsl #28
    24f0:	00001184 	andeq	r1, r0, r4, lsl #3
    24f4:	00902a00 	addseq	r2, r0, r0, lsl #20
    24f8:	0e240000 	cdpeq	0, 2, cr0, cr4, cr0, {0}
    24fc:	812b0000 	teqhi	fp, r0
    2500:	13000000 	movwne	r0, #0
    2504:	0e140700 	cdpeq	7, 1, cr0, cr4, cr0, {0}
    2508:	19230000 	stmdbne	r3!, {}	; <UNPREDICTABLE>
    250c:	01000006 	tsteq	r0, r6
    2510:	000025a9 	andeq	r2, r0, r9, lsr #11
    2514:	008e3400 	addeq	r3, lr, r0, lsl #8
    2518:	00003c00 	andeq	r3, r0, r0, lsl #24
    251c:	cc9c0100 	ldfgts	f0, [ip], {0}
    2520:	1300000e 	movwne	r0, #14
    2524:	0000044f 	andeq	r0, r0, pc, asr #8
    2528:	0722a901 	streq	sl, [r2, -r1, lsl #18]!
    252c:	13700000 	cmnne	r0, #0
    2530:	72160000 	andsvc	r0, r6, #0
    2534:	01007365 	tsteq	r0, r5, ror #6
    2538:	000025aa 	andeq	r2, r0, sl, lsr #11
    253c:	00139100 	andseq	r9, r3, r0, lsl #2
    2540:	014a2900 	cmpeq	sl, r0, lsl #18
    2544:	0edc0000 	cdpeq	0, 13, cr0, cr12, cr0, {0}
    2548:	03050000 	movweq	r0, #20480	; 0x5000
    254c:	00009e18 	andeq	r9, r0, r8, lsl lr
    2550:	008e4025 	addeq	r4, lr, r5, lsr #32
    2554:	00076200 	andeq	r6, r7, r0, lsl #4
    2558:	000e8a00 	andeq	r8, lr, r0, lsl #20
    255c:	51012000 	mrspl	r2, (UNDEF: 1)
    2560:	20ff0902 	rscscs	r0, pc, r2, lsl #18
    2564:	f3035001 	vhadd.u8	d5, d3, d1
    2568:	24005001 	strcs	r5, [r0], #-1
    256c:	00008e4c 	andeq	r8, r0, ip, asr #28
    2570:	00001167 	andeq	r1, r0, r7, ror #2
    2574:	008e6025 	addeq	r6, lr, r5, lsr #32
    2578:	00116e00 	andseq	r6, r1, r0, lsl #28
    257c:	000ec200 	andeq	ip, lr, r0, lsl #4
    2580:	53012000 	movwpl	r2, #4096	; 0x1000
    2584:	20ac0802 	adccs	r0, ip, r2, lsl #16
    2588:	03055201 	movweq	r5, #20993	; 0x5201
    258c:	00009e18 	andeq	r9, r0, r8, lsl lr
    2590:	05510120 	ldrbeq	r0, [r1, #-288]	; 0x120
    2594:	009e6c03 	addseq	r6, lr, r3, lsl #24
    2598:	50012000 	andpl	r2, r1, r0
    259c:	9ec40305 	cdpls	3, 12, cr0, cr4, cr5, {0}
    25a0:	24000000 	strcs	r0, [r0], #-0
    25a4:	00008e64 	andeq	r8, r0, r4, ror #28
    25a8:	00001184 	andeq	r1, r0, r4, lsl #3
    25ac:	00902a00 	addseq	r2, r0, r0, lsl #20
    25b0:	0edc0000 	cdpeq	0, 13, cr0, cr12, cr0, {0}
    25b4:	812b0000 	teqhi	fp, r0
    25b8:	0c000000 	stceq	0, cr0, [r0], {-0}
    25bc:	0ecc0700 	cdpeq	7, 12, cr0, cr12, cr0, {0}
    25c0:	5d120000 	ldcpl	0, cr0, [r2, #-0]
    25c4:	01000006 	tsteq	r0, r6
    25c8:	008e70b0 	strheq	r7, [lr], r0
    25cc:	00002c00 	andeq	r2, r0, r0, lsl #24
    25d0:	259c0100 	ldrcs	r0, [ip, #256]	; 0x100
    25d4:	1300000f 	movwne	r0, #15
    25d8:	0000044f 	andeq	r0, r0, pc, asr #8
    25dc:	0722b001 	streq	fp, [r2, -r1]!
    25e0:	13a40000 			; <UNDEFINED> instruction: 0x13a40000
    25e4:	6d140000 	ldcvs	0, cr0, [r4, #-0]
    25e8:	01006773 	tsteq	r0, r3, ror r7
    25ec:	000097b0 			; <UNDEFINED> instruction: 0x000097b0
    25f0:	0013c200 	andseq	ip, r3, r0, lsl #4
    25f4:	8e881f00 	cdphi	15, 8, cr1, cr8, cr0, {0}
    25f8:	01760000 	cmneq	r6, r0
    25fc:	01200000 	teqeq	r0, r0
    2600:	00750250 	rsbseq	r0, r5, r0, asr r2
    2604:	54230000 	strtpl	r0, [r3], #-0
    2608:	01000004 	tsteq	r0, r4
    260c:	000025b9 			; <UNDEFINED> instruction: 0x000025b9
    2610:	008e9c00 	addeq	r9, lr, r0, lsl #24
    2614:	00008400 	andeq	r8, r0, r0, lsl #8
    2618:	199c0100 	ldmibne	ip, {r8}
    261c:	13000010 	movwne	r0, #16
    2620:	0000044f 	andeq	r0, r0, pc, asr #8
    2624:	0722b901 	streq	fp, [r2, -r1, lsl #18]!
    2628:	13e00000 	mvnne	r0, #0
    262c:	662e0000 	strtvs	r0, [lr], -r0
    2630:	0100746d 	tsteq	r0, sp, ror #8
    2634:	000097b9 			; <UNDEFINED> instruction: 0x000097b9
    2638:	74910200 	ldrvc	r0, [r1], #512	; 0x200
    263c:	7562152f 	strbvc	r1, [r2, #-1327]!	; 0x52f
    2640:	ba010066 	blt	427e0 <__bss_end__+0x384b0>
    2644:	00001019 	andeq	r1, r0, r9, lsl r0
    2648:	7c9c9103 	ldfvcd	f1, [ip], {3}
    264c:	00032518 	andeq	r2, r3, r8, lsl r5
    2650:	06bc0100 	ldrteq	r0, [ip], r0, lsl #2
    2654:	03000001 	movweq	r0, #1
    2658:	167c9891 			; <UNDEFINED> instruction: 0x167c9891
    265c:	01007a73 	tsteq	r0, r3, ror sl
    2660:	000025be 			; <UNDEFINED> instruction: 0x000025be
    2664:	00140c00 	andseq	r0, r4, r0, lsl #24
    2668:	014a2900 	cmpeq	sl, r0, lsl #18
    266c:	103a0000 	eorsne	r0, sl, r0
    2670:	03050000 	movweq	r0, #20480	; 0x5000
    2674:	00009e28 	andeq	r9, r0, r8, lsr #28
    2678:	008ec425 	addeq	ip, lr, r5, lsr #8
    267c:	0011ad00 	andseq	sl, r1, r0, lsl #26
    2680:	000fc000 	andeq	ip, pc, r0
    2684:	53012000 	movwpl	r2, #4096	; 0x1000
    2688:	20589102 	subscs	r9, r8, r2, lsl #2
    268c:	91035201 	tstls	r3, r1, lsl #4
    2690:	01200654 	teqeq	r0, r4, asr r6
    2694:	cc0a0351 	stcgt	3, cr0, [sl], {81}	; 0x51
    2698:	50012001 	andpl	r2, r1, r1
    269c:	7bfc9103 	blvc	fff26ab0 <__bss_end__+0xfff1c780>
    26a0:	8ed82400 	cdphi	4, 13, cr2, cr8, cr0, {0}
    26a4:	11670000 	cmnne	r7, r0
    26a8:	ec250000 	stc	0, cr0, [r5], #-0
    26ac:	6e00008e 	cdpvs	0, 0, cr0, cr0, cr14, {4}
    26b0:	f8000011 			; <UNDEFINED> instruction: 0xf8000011
    26b4:	2000000f 	andcs	r0, r0, pc
    26b8:	08025301 	stmdaeq	r2, {r0, r8, r9, ip, lr}
    26bc:	520120c0 	andpl	r2, r1, #192	; 0xc0
    26c0:	9e280305 	cdpls	3, 2, cr0, cr8, cr5, {0}
    26c4:	01200000 	teqeq	r0, r0
    26c8:	6c030551 	cfstr32vs	mvfx0, [r3], {81}	; 0x51
    26cc:	2000009e 	mulcs	r0, lr, r0
    26d0:	03055001 	movweq	r5, #20481	; 0x5001
    26d4:	00009efc 	strdeq	r9, [r0], -ip
    26d8:	8ef02400 	cdphi	4, 15, cr2, cr0, cr0, {0}
    26dc:	11840000 	orrne	r0, r4, r0
    26e0:	fc1f0000 	ldc2	0, cr0, [pc], {-0}
    26e4:	e100008e 	smlabb	r0, lr, r0, r0
    26e8:	2000000e 	andcs	r0, r0, lr
    26ec:	91035101 	tstls	r3, r1, lsl #2
    26f0:	01207bfc 	strdeq	r7, [r0, -ip]!
    26f4:	00750250 	rsbseq	r0, r5, r0, asr r2
    26f8:	902a0000 	eorls	r0, sl, r0
    26fc:	2a000000 	bcs	2704 <_start-0x58fc>
    2700:	30000010 	andcc	r0, r0, r0, lsl r0
    2704:	00000081 	andeq	r0, r0, r1, lsl #1
    2708:	2a0001cb 	bcs	2e3c <_start-0x51c4>
    270c:	00000090 	muleq	r0, r0, r0
    2710:	0000103a 	andeq	r1, r0, sl, lsr r0
    2714:	0000812b 	andeq	r8, r0, fp, lsr #2
    2718:	07000e00 	streq	r0, [r0, -r0, lsl #28]
    271c:	0000102a 	andeq	r1, r0, sl, lsr #32
    2720:	0006d523 	andeq	sp, r6, r3, lsr #10
    2724:	25c50100 	strbcs	r0, [r5, #256]	; 0x100
    2728:	20000000 	andcs	r0, r0, r0
    272c:	4c00008f 	stcmi	0, cr0, [r0], {143}	; 0x8f
    2730:	01000000 	mrseq	r0, (UNDEF: 0)
    2734:	00111c9c 	mulseq	r1, ip, ip
    2738:	00751400 	rsbseq	r1, r5, r0, lsl #8
    273c:	0722c501 	streq	ip, [r2, -r1, lsl #10]!
    2740:	144b0000 	strbne	r0, [fp], #-0
    2744:	62140000 	andsvs	r0, r4, #0
    2748:	01006675 	tsteq	r0, r5, ror r6
    274c:	000c02c5 	andeq	r0, ip, r5, asr #5
    2750:	00146c00 	andseq	r6, r4, r0, lsl #24
    2754:	06a71300 	strteq	r1, [r7], r0, lsl #6
    2758:	c5010000 	strgt	r0, [r1, #-0]
    275c:	00000068 	andeq	r0, r0, r8, rrx
    2760:	0000148d 	andeq	r1, r0, sp, lsl #9
    2764:	646e6514 	strbtvs	r6, [lr], #-1300	; 0x514
    2768:	4fc50100 	svcmi	0x00c50100
    276c:	ae000000 	cdpge	0, 0, cr0, cr0, cr0, {0}
    2770:	16000014 			; <UNDEFINED> instruction: 0x16000014
    2774:	00736572 	rsbseq	r6, r3, r2, ror r5
    2778:	0025c601 	eoreq	ip, r5, r1, lsl #12
    277c:	14cf0000 	strbne	r0, [pc], #0	; 2784 <_start-0x587c>
    2780:	4a290000 	bmi	a42788 <__bss_end__+0xa38458>
    2784:	2c000001 	stccs	0, cr0, [r0], {1}
    2788:	05000011 	streq	r0, [r0, #-17]
    278c:	009e3803 	addseq	r3, lr, r3, lsl #16
    2790:	8f342500 	svchi	0x00342500
    2794:	0b1e0000 	bleq	78279c <__bss_end__+0x77846c>
    2798:	10da0000 	sbcsne	r0, sl, r0
    279c:	01200000 	teqeq	r0, r0
    27a0:	01f30352 	mvnseq	r0, r2, asr r3
    27a4:	51012052 	qaddpl	r2, r2, r1
    27a8:	5101f303 	tstpl	r1, r3, lsl #6
    27ac:	03500120 	cmpeq	r0, #32, 2
    27b0:	205001f3 	ldrshcs	r0, [r0], #-19	; 0xffffffed
    27b4:	02007d02 	andeq	r7, r0, #2, 26	; 0x80
    27b8:	2400ff09 	strcs	pc, [r0], #-3849	; 0xf09
    27bc:	00008f40 	andeq	r8, r0, r0, asr #30
    27c0:	00001167 	andeq	r1, r0, r7, ror #2
    27c4:	008f5425 	addeq	r5, pc, r5, lsr #8
    27c8:	00116e00 	andseq	r6, r1, r0, lsl #28
    27cc:	00111200 	andseq	r1, r1, r0, lsl #4
    27d0:	53012000 	movwpl	r2, #4096	; 0x1000
    27d4:	20c80802 	sbccs	r0, r8, r2, lsl #16
    27d8:	03055201 	movweq	r5, #20993	; 0x5201
    27dc:	00009e38 	andeq	r9, r0, r8, lsr lr
    27e0:	05510120 	ldrbeq	r0, [r1, #-288]	; 0x120
    27e4:	009e6c03 	addseq	r6, lr, r3, lsl #24
    27e8:	50012000 	andpl	r2, r1, r0
    27ec:	9ec40305 	cdpls	3, 12, cr0, cr4, cr5, {0}
    27f0:	24000000 	strcs	r0, [r0], #-0
    27f4:	00008f58 	andeq	r8, r0, r8, asr pc
    27f8:	00001184 	andeq	r1, r0, r4, lsl #3
    27fc:	00902a00 	addseq	r2, r0, r0, lsl #20
    2800:	112c0000 	teqne	ip, r0
    2804:	812b0000 	teqhi	fp, r0
    2808:	16000000 	strne	r0, [r0], -r0
    280c:	111c0700 	tstne	ip, r0, lsl #14
    2810:	ae310000 	cdpge	0, 3, cr0, cr1, cr0, {0}
    2814:	06000006 	streq	r0, [r0], -r6
    2818:	00114721 	andseq	r4, r1, r1, lsr #14
    281c:	002c3200 	eoreq	r3, ip, r0, lsl #4
    2820:	2c320000 	ldccs	0, cr0, [r2], #-0
    2824:	00000000 	andeq	r0, r0, r0
    2828:	00057a33 	andeq	r7, r5, r3, lsr sl
    282c:	2c570700 	mrrccs	7, 0, r0, r7, cr0
    2830:	34000000 	strcc	r0, [r0], #-0
    2834:	0000066a 	andeq	r0, r0, sl, ror #12
    2838:	00252406 	eoreq	r2, r5, r6, lsl #8
    283c:	11670000 	cmnne	r7, r0
    2840:	2c320000 	ldccs	0, cr0, [r2], #-0
    2844:	00000000 	andeq	r0, r0, r0
    2848:	00026b35 	andeq	r6, r2, r5, lsr fp
    284c:	341e0700 	ldrcc	r0, [lr], #-1792	; 0x700
    2850:	00000314 	andeq	r0, r0, r4, lsl r3
    2854:	00252907 	eoreq	r2, r5, r7, lsl #18
    2858:	11840000 	orrne	r0, r4, r0
    285c:	97320000 	ldrls	r0, [r2, -r0]!
    2860:	2f000000 	svccs	0x00000000
    2864:	00ed3500 	rsceq	r3, sp, r0, lsl #10
    2868:	66070000 	strvs	r0, [r7], -r0
    286c:	0006ec31 	andeq	lr, r6, r1, lsr ip
    2870:	9c1d0600 	ldcls	6, cr0, [sp], {-0}
    2874:	32000011 	andcc	r0, r0, #17
    2878:	0000002c 	andeq	r0, r0, ip, lsr #32
    287c:	06c63100 	strbeq	r3, [r6], r0, lsl #2
    2880:	1c060000 	stcne	0, cr0, [r6], {-0}
    2884:	000011ad 	andeq	r1, r0, sp, lsr #3
    2888:	00002c32 	andeq	r2, r0, r2, lsr ip
    288c:	11360000 	teqne	r6, r0
    2890:	08000003 	stmdaeq	r0, {r0, r1}
    2894:	00002502 	andeq	r2, r0, r2, lsl #10
    2898:	008a3200 	addeq	r3, sl, r0, lsl #4
    289c:	25320000 	ldrcs	r0, [r2, #-0]!
    28a0:	32000000 	andcc	r0, r0, #0
    28a4:	00000097 	muleq	r0, r7, r0
    28a8:	00010632 	andeq	r0, r1, r2, lsr r6
    28ac:	ff000000 			; <UNDEFINED> instruction: 0xff000000
    28b0:	04000003 	streq	r0, [r0], #-3
    28b4:	000e2600 	andeq	r2, lr, r0, lsl #12
    28b8:	6e010400 	cfcpysvs	mvf0, mvf1
    28bc:	01000000 	mrseq	r0, (UNDEF: 0)
    28c0:	0000086e 	andeq	r0, r0, lr, ror #16
    28c4:	000002ab 	andeq	r0, r0, fp, lsr #5
    28c8:	00008f6c 	andeq	r8, r0, ip, ror #30
    28cc:	00000154 	andeq	r0, r0, r4, asr r1
    28d0:	00000c91 	muleq	r0, r1, ip
    28d4:	69050402 	stmdbvs	r5, {r1, sl}
    28d8:	0300746e 	movweq	r7, #1134	; 0x46e
    28dc:	016a0704 	cmneq	sl, r4, lsl #14
    28e0:	01030000 	mrseq	r0, (UNDEF: 3)
    28e4:	0000e106 	andeq	lr, r0, r6, lsl #2
    28e8:	05020300 	streq	r0, [r2, #-768]	; 0x300
    28ec:	000001d0 	ldrdeq	r0, [r0], -r0	; <UNPREDICTABLE>
    28f0:	ac050403 	cfstrsge	mvf0, [r5], {3}
    28f4:	03000001 	movweq	r0, #1
    28f8:	01a70508 			; <UNDEFINED> instruction: 0x01a70508
    28fc:	01030000 	mrseq	r0, (UNDEF: 3)
    2900:	0000df08 	andeq	sp, r0, r8, lsl #30
    2904:	07020300 	streq	r0, [r2, -r0, lsl #6]
    2908:	00000043 	andeq	r0, r0, r3, asr #32
    290c:	65070403 	strvs	r0, [r7, #-1027]	; 0x403
    2910:	03000001 	movweq	r0, #1
    2914:	01600708 	cmneq	r0, r8, lsl #14
    2918:	04030000 	streq	r0, [r3], #-0
    291c:	00019e07 	andeq	r9, r1, r7, lsl #28
    2920:	08010300 	stmdaeq	r1, {r8, r9}
    2924:	000000e8 	andeq	r0, r0, r8, ror #1
    2928:	0c020104 	stfeqs	f0, [r2], {4}
    292c:	000000b2 	strheq	r0, [r0], -r2
    2930:	00088b05 	andeq	r8, r8, r5, lsl #22
    2934:	7f050000 	svcvc	0x00050000
    2938:	01000007 	tsteq	r0, r7
    293c:	00073805 	andeq	r3, r7, r5, lsl #16
    2940:	90050400 	andls	r0, r5, r0, lsl #8
    2944:	05000007 	streq	r0, [r0, #-7]
    2948:	00079f05 	andeq	r9, r7, r5, lsl #30
    294c:	ae050600 	cfmadd32ge	mvax0, mvfx0, mvfx5, mvfx0
    2950:	07000007 	streq	r0, [r0, -r7]
    2954:	00083e05 	andeq	r3, r8, r5, lsl #28
    2958:	bd050300 	stclt	3, cr0, [r5, #-0]
    295c:	02000007 	andeq	r0, r0, #7
    2960:	07f00600 	ldrbeq	r0, [r0, r0, lsl #12]!
    2964:	15020000 	strne	r0, [r2, #-0]
    2968:	00000079 	andeq	r0, r0, r9, ror r0
    296c:	0000d507 	andeq	sp, r0, r7, lsl #10
    2970:	6c370100 	ldfvss	f0, [r7], #-0
    2974:	9c00008f 	stcls	0, cr0, [r0], {143}	; 0x8f
    2978:	01000000 	mrseq	r0, (UNDEF: 0)
    297c:	0001c39c 	muleq	r1, ip, r3
    2980:	8f740800 	svchi	0x00740800
    2984:	03a80000 			; <UNDEFINED> instruction: 0x03a80000
    2988:	80090000 	andhi	r0, r9, r0
    298c:	af00008f 	svcge	0x0000008f
    2990:	f3000003 	vhadd.u8	d0, d0, d3
    2994:	0a000000 	beq	299c <_start-0x5664>
    2998:	32015101 	andcc	r5, r1, #1073741824	; 0x40000000
    299c:	0150010a 	cmpeq	r0, sl, lsl #2
    29a0:	8c09003e 	stchi	0, cr0, [r9], {62}	; 0x3e
    29a4:	af00008f 	svcge	0x0000008f
    29a8:	0b000003 	bleq	29bc <_start-0x5644>
    29ac:	0a000001 	beq	29b8 <_start-0x5648>
    29b0:	32015101 	andcc	r5, r1, #1073741824	; 0x40000000
    29b4:	0150010a 	cmpeq	r0, sl, lsl #2
    29b8:	9008003f 	andls	r0, r8, pc, lsr r0
    29bc:	a800008f 	stmdage	r0, {r0, r1, r2, r3, r7}
    29c0:	09000003 	stmdbeq	r0, {r0, r1}
    29c4:	00008fa0 	andeq	r8, r0, r0, lsr #31
    29c8:	000003c5 	andeq	r0, r0, r5, asr #7
    29cc:	00000128 	andeq	r0, r0, r8, lsr #2
    29d0:	0250010a 	subseq	r0, r0, #-2147483646	; 0x80000002
    29d4:	09000075 	stmdbeq	r0, {r0, r2, r4, r5, r6}
    29d8:	00008fac 	andeq	r8, r0, ip, lsr #31
    29dc:	000003e6 	andeq	r0, r0, r6, ror #7
    29e0:	0000013c 	andeq	r0, r0, ip, lsr r1
    29e4:	0250010a 	subseq	r0, r0, #-2147483646	; 0x80000002
    29e8:	08000075 	stmdaeq	r0, {r0, r2, r4, r5, r6}
    29ec:	00008fb0 			; <UNDEFINED> instruction: 0x00008fb0
    29f0:	000003a8 	andeq	r0, r0, r8, lsr #7
    29f4:	008fbc09 	addeq	fp, pc, r9, lsl #24
    29f8:	0003e600 	andeq	lr, r3, r0, lsl #12
    29fc:	00015800 	andeq	r5, r1, r0, lsl #16
    2a00:	51010a00 	tstpl	r1, r0, lsl #20
    2a04:	09003001 	stmdbeq	r0, {r0, ip, sp}
    2a08:	00008fc8 	andeq	r8, r0, r8, asr #31
    2a0c:	000003e6 	andeq	r0, r0, r6, ror #7
    2a10:	0000016b 	andeq	r0, r0, fp, ror #2
    2a14:	0151010a 	cmpeq	r1, sl, lsl #2
    2a18:	d4090030 	strle	r0, [r9], #-48	; 0x30
    2a1c:	e600008f 	str	r0, [r0], -pc, lsl #1
    2a20:	7e000003 	cdpvc	0, 0, cr0, cr0, cr3, {0}
    2a24:	0a000001 	beq	2a30 <_start-0x55d0>
    2a28:	36015101 	strcc	r5, [r1], -r1, lsl #2
    2a2c:	8fe00900 	svchi	0x00e00900
    2a30:	03e60000 	mvneq	r0, #0
    2a34:	01910000 	orrseq	r0, r1, r0
    2a38:	010a0000 	mrseq	r0, (UNDEF: 10)
    2a3c:	00330151 	eorseq	r0, r3, r1, asr r1
    2a40:	008fec09 	addeq	lr, pc, r9, lsl #24
    2a44:	0003e600 	andeq	lr, r3, r0, lsl #12
    2a48:	0001a600 	andeq	sl, r1, r0, lsl #12
    2a4c:	51010a00 	tstpl	r1, r0, lsl #20
    2a50:	010e0a03 	tsteq	lr, r3, lsl #20
    2a54:	8ff80900 	svchi	0x00f80900
    2a58:	03e60000 	mvneq	r0, #0
    2a5c:	01b90000 			; <UNDEFINED> instruction: 0x01b90000
    2a60:	010a0000 	mrseq	r0, (UNDEF: 10)
    2a64:	00330151 	eorseq	r0, r3, r1, asr r1
    2a68:	008ffc08 	addeq	pc, pc, r8, lsl #24
    2a6c:	0003a800 	andeq	sl, r3, r0, lsl #16
    2a70:	470b0000 	strmi	r0, [fp, -r0]
    2a74:	01000007 	tsteq	r0, r7
    2a78:	00002557 	andeq	r2, r0, r7, asr r5
    2a7c:	00900800 	addseq	r0, r0, r0, lsl #16
    2a80:	00001c00 	andeq	r1, r0, r0, lsl #24
    2a84:	e69c0100 	ldr	r0, [ip], r0, lsl #2
    2a88:	08000001 	stmdaeq	r0, {r0}
    2a8c:	00009018 	andeq	r9, r0, r8, lsl r0
    2a90:	000003c5 	andeq	r0, r0, r5, asr #7
    2a94:	061c0b00 	ldreq	r0, [ip], -r0, lsl #22
    2a98:	5d010000 	stcpl	0, cr0, [r1, #-0]
    2a9c:	00000025 	andeq	r0, r0, r5, lsr #32
    2aa0:	00009024 	andeq	r9, r0, r4, lsr #32
    2aa4:	00000028 	andeq	r0, r0, r8, lsr #32
    2aa8:	02129c01 	andseq	r9, r2, #256	; 0x100
    2aac:	2c080000 	stccs	0, cr0, [r8], {-0}
    2ab0:	c3000090 	movwgt	r0, #144	; 0x90
    2ab4:	08000001 	stmdaeq	r0, {r0}
    2ab8:	00009040 	andeq	r9, r0, r0, asr #32
    2abc:	000003c5 	andeq	r0, r0, r5, asr #7
    2ac0:	07fc0b00 	ldrbeq	r0, [ip, r0, lsl #22]!
    2ac4:	64010000 	strvs	r0, [r1], #-0
    2ac8:	00000025 	andeq	r0, r0, r5, lsr #32
    2acc:	0000904c 	andeq	r9, r0, ip, asr #32
    2ad0:	0000001c 	andeq	r0, r0, ip, lsl r0
    2ad4:	02359c01 	eorseq	r9, r5, #256	; 0x100
    2ad8:	5c080000 	stcpl	0, cr0, [r8], {-0}
    2adc:	c5000090 	strgt	r0, [r0, #-144]	; 0x90
    2ae0:	00000003 	andeq	r0, r0, r3
    2ae4:	0004b007 	andeq	fp, r4, r7
    2ae8:	686a0100 	stmdavs	sl!, {r8}^
    2aec:	2c000090 	stccs	0, cr0, [r0], {144}	; 0x90
    2af0:	01000000 	mrseq	r0, (UNDEF: 0)
    2af4:	0002719c 	muleq	r2, ip, r1
    2af8:	00630c00 	rsbeq	r0, r3, r0, lsl #24
    2afc:	002c6a01 	eoreq	r6, ip, r1, lsl #20
    2b00:	14ed0000 	strbtne	r0, [sp], #0
    2b04:	74080000 	strvc	r0, [r8], #-0
    2b08:	12000090 	andne	r0, r0, #144	; 0x90
    2b0c:	0d000002 	stceq	0, cr0, [r0, #-8]
    2b10:	0000908c 	andeq	r9, r0, ip, lsl #1
    2b14:	000003e6 	andeq	r0, r0, r6, ror #7
    2b18:	0251010a 	subseq	r0, r1, #-2147483646	; 0x80000002
    2b1c:	00000074 	andeq	r0, r0, r4, ror r0
    2b20:	0007650b 	andeq	r6, r7, fp, lsl #10
    2b24:	25740100 	ldrbcs	r0, [r4, #-256]!	; 0x100
    2b28:	94000000 	strls	r0, [r0], #-0
    2b2c:	0c000090 	stceq	0, cr0, [r0], {144}	; 0x90
    2b30:	01000000 	mrseq	r0, (UNDEF: 0)
    2b34:	0002949c 	muleq	r2, ip, r4
    2b38:	909c0800 	addsls	r0, ip, r0, lsl #16
    2b3c:	01c30000 	biceq	r0, r3, r0
    2b40:	0b000000 	bleq	2b48 <_start-0x54b8>
    2b44:	000008aa 	andeq	r0, r0, sl, lsr #17
    2b48:	00257801 	eoreq	r7, r5, r1, lsl #16
    2b4c:	90a00000 	adcls	r0, r0, r0
    2b50:	00200000 	eoreq	r0, r0, r0
    2b54:	9c010000 	stcls	0, cr0, [r1], {-0}
    2b58:	000002c0 	andeq	r0, r0, r0, asr #5
    2b5c:	0090a808 	addseq	sl, r0, r8, lsl #16
    2b60:	00027100 	andeq	r7, r2, r0, lsl #2
    2b64:	90b40800 	adcsls	r0, r4, r0, lsl #16
    2b68:	01e60000 	mvneq	r0, r0
    2b6c:	0e000000 	cdpeq	0, 0, cr0, cr0, cr0, {0}
    2b70:	00000816 	andeq	r0, r0, r6, lsl r8
    2b74:	02d11601 	sbcseq	r1, r1, #1048576	; 0x100000
    2b78:	03050000 	movweq	r0, #20480	; 0x5000
    2b7c:	0000978c 	andeq	r9, r0, ip, lsl #15
    2b80:	02d7040f 	sbcseq	r0, r7, #251658240	; 0xf000000
    2b84:	2c100000 	ldccs	0, cr0, [r0], {-0}
    2b88:	0e000000 	cdpeq	0, 0, cr0, cr0, cr0, {0}
    2b8c:	0000080a 	andeq	r0, r0, sl, lsl #16
    2b90:	02d11701 	sbcseq	r1, r1, #262144	; 0x40000
    2b94:	03050000 	movweq	r0, #20480	; 0x5000
    2b98:	0000975c 	andeq	r9, r0, ip, asr r7
    2b9c:	00071b0e 	andeq	r1, r7, lr, lsl #22
    2ba0:	d11a0100 	tstle	sl, r0, lsl #2
    2ba4:	05000002 	streq	r0, [r0, #-2]
    2ba8:	00977803 	addseq	r7, r7, r3, lsl #16
    2bac:	07cc0e00 	strbeq	r0, [ip, r0, lsl #28]
    2bb0:	1b010000 	blne	42bb8 <__bss_end__+0x38888>
    2bb4:	000002d1 	ldrdeq	r0, [r0], -r1
    2bb8:	97640305 	strbls	r0, [r4, -r5, lsl #6]!
    2bbc:	e10e0000 	mrs	r0, (UNDEF: 14)
    2bc0:	01000007 	tsteq	r0, r7
    2bc4:	0002d11c 	andeq	sp, r2, ip, lsl r1
    2bc8:	68030500 	stmdavs	r3, {r8, sl}
    2bcc:	0e000097 	mcreq	0, 0, r0, cr0, cr7, {4}
    2bd0:	0000087c 	andeq	r0, r0, ip, ror r8
    2bd4:	02d11d01 	sbcseq	r1, r1, #1, 26	; 0x40
    2bd8:	03050000 	movweq	r0, #20480	; 0x5000
    2bdc:	0000976c 	andeq	r9, r0, ip, ror #14
    2be0:	00070c0e 	andeq	r0, r7, lr, lsl #24
    2be4:	d11e0100 	tstle	lr, r0, lsl #2
    2be8:	05000002 	streq	r0, [r0, #-2]
    2bec:	00978803 	addseq	r8, r7, r3, lsl #16
    2bf0:	089b0e00 	ldmeq	fp, {r9, sl, fp}
    2bf4:	1f010000 	svcne	0x00010000
    2bf8:	000002d1 	ldrdeq	r0, [r0], -r1
    2bfc:	97740305 	ldrbls	r0, [r4, -r5, lsl #6]!
    2c00:	290e0000 	stmdbcs	lr, {}	; <UNPREDICTABLE>
    2c04:	01000007 	tsteq	r0, r7
    2c08:	0002d120 	andeq	sp, r2, r0, lsr #2
    2c0c:	84030500 	strhi	r0, [r3], #-1280	; 0x500
    2c10:	0e000097 	mcreq	0, 0, r0, cr0, cr7, {4}
    2c14:	0000085f 	andeq	r0, r0, pc, asr r8
    2c18:	02d12101 	sbcseq	r2, r1, #1073741824	; 0x40000000
    2c1c:	03050000 	movweq	r0, #20480	; 0x5000
    2c20:	00009780 	andeq	r9, r0, r0, lsl #15
    2c24:	0007550e 	andeq	r5, r7, lr, lsl #10
    2c28:	d1220100 	teqle	r2, r0, lsl #2
    2c2c:	05000002 	streq	r0, [r0, #-2]
    2c30:	00976003 	addseq	r6, r7, r3
    2c34:	082e0e00 	stmdaeq	lr!, {r9, sl, fp}
    2c38:	23010000 	movwcs	r0, #4096	; 0x1000
    2c3c:	000002d1 	ldrdeq	r0, [r0], -r1
    2c40:	977c0305 	ldrbls	r0, [ip, -r5, lsl #6]!
    2c44:	1e0e0000 	cdpne	0, 0, cr0, cr14, cr0, {0}
    2c48:	01000008 	tsteq	r0, r8
    2c4c:	0002d124 	andeq	sp, r2, r4, lsr #2
    2c50:	70030500 	andvc	r0, r3, r0, lsl #10
    2c54:	11000097 	swpne	r0, r7, [r0]	; <UNPREDICTABLE>
    2c58:	00000773 	andeq	r0, r0, r3, ror r7
    2c5c:	4d128703 	ldcmi	7, cr8, [r2, #-12]
    2c60:	02000008 	andeq	r0, r0, #8
    2c64:	0003c519 	andeq	ip, r3, r9, lsl r5
    2c68:	002c1300 	eoreq	r1, ip, r0, lsl #6
    2c6c:	b2130000 	andslt	r0, r3, #0
    2c70:	00000000 	andeq	r0, r0, r0
    2c74:	0008ba14 	andeq	fp, r8, r4, lsl sl
    2c78:	2ca60300 	stccs	3, cr0, [r6]
    2c7c:	da000000 	ble	2c84 <_start-0x537c>
    2c80:	13000003 	movwne	r0, #3
    2c84:	000003da 	ldrdeq	r0, [r0], -sl
    2c88:	e0040f00 	and	r0, r4, r0, lsl #30
    2c8c:	15000003 	strne	r0, [r0, #-3]
    2c90:	000003e5 	andeq	r0, r0, r5, ror #7
    2c94:	07db1216 	bfieq	r1, r6, #4, #24
    2c98:	9a030000 	bls	c2ca0 <__bss_end__+0xb8970>
    2c9c:	000003fc 	strdeq	r0, [r0], -ip
    2ca0:	0003fc13 	andeq	pc, r3, r3, lsl ip	; <UNPREDICTABLE>
    2ca4:	002c1300 	eoreq	r1, ip, r0, lsl #6
    2ca8:	0f000000 	svceq	0x00000000
    2cac:	0003e504 	andeq	lr, r3, r4, lsl #10
    2cb0:	08cf0000 	stmiaeq	pc, {}^	; <UNPREDICTABLE>
    2cb4:	00040000 	andeq	r0, r4, r0
    2cb8:	00000f54 	andeq	r0, r0, r4, asr pc
    2cbc:	006e0104 	rsbeq	r0, lr, r4, lsl #2
    2cc0:	0a010000 	beq	42cc8 <__bss_end__+0x38998>
    2cc4:	ab000009 	blge	2cf0 <_start-0x5310>
    2cc8:	28000002 	stmdacs	r0, {r1}
    2ccc:	bc000091 	stclt	0, cr0, [r0], {145}	; 0x91
    2cd0:	96000005 	strls	r0, [r0], -r5
    2cd4:	0200000d 	andeq	r0, r0, #13
    2cd8:	01600708 	cmneq	r0, r8, lsl #14
    2cdc:	04020000 	streq	r0, [r2], #-0
    2ce0:	00016a07 	andeq	r6, r1, r7, lsl #20
    2ce4:	06010200 	streq	r0, [r1], -r0, lsl #4
    2ce8:	000000e1 	andeq	r0, r0, r1, ror #1
    2cec:	d0050202 	andle	r0, r5, r2, lsl #4
    2cf0:	02000001 	andeq	r0, r0, #1
    2cf4:	01ac0504 			; <UNDEFINED> instruction: 0x01ac0504
    2cf8:	08020000 	stmdaeq	r2, {}	; <UNPREDICTABLE>
    2cfc:	0001a705 	andeq	sl, r1, r5, lsl #14
    2d00:	08010200 	stmdaeq	r1, {r9}
    2d04:	000000df 	ldrdeq	r0, [r0], -pc	; <UNPREDICTABLE>
    2d08:	43070202 	movwmi	r0, #29186	; 0x7202
    2d0c:	02000000 	andeq	r0, r0, #0
    2d10:	01650704 	cmneq	r5, r4, lsl #14
    2d14:	04030000 	streq	r0, [r3], #-0
    2d18:	746e6905 	strbtvc	r6, [lr], #-2309	; 0x905
    2d1c:	07040200 	streq	r0, [r4, -r0, lsl #4]
    2d20:	0000019e 	muleq	r0, lr, r1
    2d24:	e8080102 	stmda	r8, {r1, r8}
    2d28:	04000000 	streq	r0, [r0], #-0
    2d2c:	b20c0201 	andlt	r0, ip, #268435456	; 0x10000000
    2d30:	05000000 	streq	r0, [r0, #-0]
    2d34:	0000088b 	andeq	r0, r0, fp, lsl #17
    2d38:	077f0500 	ldrbeq	r0, [pc, -r0, lsl #10]!
    2d3c:	05010000 	streq	r0, [r1, #-0]
    2d40:	00000738 	andeq	r0, r0, r8, lsr r7
    2d44:	07900504 	ldreq	r0, [r0, r4, lsl #10]
    2d48:	05050000 	streq	r0, [r5, #-0]
    2d4c:	0000079f 	muleq	r0, pc, r7	; <UNPREDICTABLE>
    2d50:	07ae0506 	streq	r0, [lr, r6, lsl #10]!
    2d54:	05070000 	streq	r0, [r7, #-0]
    2d58:	0000083e 	andeq	r0, r0, lr, lsr r8
    2d5c:	07bd0503 	ldreq	r0, [sp, r3, lsl #10]!
    2d60:	00020000 	andeq	r0, r2, r0
    2d64:	0007f006 	andeq	pc, r7, r6
    2d68:	79150200 	ldmdbvc	r5, {r9}
    2d6c:	07000000 	streq	r0, [r0, -r0]
    2d70:	000006ec 	andeq	r0, r0, ip, ror #13
    2d74:	91283f01 	teqls	r8, r1, lsl #30
    2d78:	00d40000 	sbcseq	r0, r4, r0
    2d7c:	9c010000 	stcls	0, cr0, [r1], {-0}
    2d80:	00000133 	andeq	r0, r0, r3, lsr r1
    2d84:	6e697008 	cdpvs	0, 6, cr7, cr9, cr8, {0}
    2d88:	2c3f0100 	ldfcss	f0, [pc], #-0	; 2d90 <_start-0x5270>
    2d8c:	0b000000 	bleq	2d94 <_start-0x526c>
    2d90:	09000015 	stmdbeq	r0, {r0, r2, r4}
    2d94:	00000946 	andeq	r0, r0, r6, asr #18
    2d98:	01334701 	teqeq	r3, r1, lsl #14
    2d9c:	15290000 	strne	r0, [r9, #-0]!
    2da0:	2e090000 	cdpcs	0, 0, cr0, cr9, cr0, {0}
    2da4:	0100000a 	tsteq	r0, sl
    2da8:	00002c49 	andeq	r2, r0, r9, asr #24
    2dac:	00157e00 	andseq	r7, r5, r0, lsl #28
    2db0:	09d90900 	ldmibeq	r9, {r8, fp}^
    2db4:	57010000 	strpl	r0, [r1, -r0]
    2db8:	0000002c 	andeq	r0, r0, ip, lsr #32
    2dbc:	0000174a 	andeq	r1, r0, sl, asr #14
    2dc0:	0091bc0a 	addseq	fp, r1, sl, lsl #24
    2dc4:	00088e00 	andeq	r8, r8, r0, lsl #28
    2dc8:	00012200 	andeq	r2, r1, r0, lsl #4
    2dcc:	50010b00 	andpl	r0, r1, r0, lsl #22
    2dd0:	00007502 	andeq	r7, r0, r2, lsl #10
    2dd4:	0091f00c 	addseq	pc, r1, ip
    2dd8:	0008af00 	andeq	sl, r8, r0, lsl #30
    2ddc:	50010b00 	andpl	r0, r1, r0, lsl #22
    2de0:	00007502 	andeq	r7, r0, r2, lsl #10
    2de4:	39040d00 	stmdbcc	r4, {r8, sl, fp}
    2de8:	0e000001 	cdpeq	0, 0, cr0, cr0, cr1, {0}
    2dec:	0000002c 	andeq	r0, r0, ip, lsr #32
    2df0:	0009fe0f 	andeq	pc, r9, pc, lsl #28
    2df4:	03600100 	cmneq	r0, #0, 2
    2df8:	0000016c 	andeq	r0, r0, ip, ror #2
    2dfc:	6e697010 	mcrvs	0, 3, r7, cr9, cr0, {0}
    2e00:	2c600100 	stfcse	f0, [r0], #-0
    2e04:	11000000 	mrsne	r0, (UNDEF: 0)
    2e08:	00000946 	andeq	r0, r0, r6, asr #18
    2e0c:	01336701 	teqeq	r3, r1, lsl #14
    2e10:	d9110000 	ldmdble	r1, {}	; <UNPREDICTABLE>
    2e14:	01000009 	tsteq	r0, r9
    2e18:	00002c68 	andeq	r2, r0, r8, ror #24
    2e1c:	3e120000 	cdpcc	0, 1, cr0, cr2, cr0, {0}
    2e20:	fc000001 	stc2	0, cr0, [r0], {1}
    2e24:	38000091 	stmdacc	r0, {r0, r4, r7}
    2e28:	01000000 	mrseq	r0, (UNDEF: 0)
    2e2c:	0001b09c 	muleq	r1, ip, r0
    2e30:	014a1300 	mrseq	r1, (UNDEF: 122)
    2e34:	177a0000 	ldrbne	r0, [sl, -r0]!
    2e38:	55140000 	ldrpl	r0, [r4, #-0]
    2e3c:	9b000001 	blls	2e48 <_start-0x51b8>
    2e40:	14000017 	strne	r0, [r0], #-23
    2e44:	00000160 	andeq	r0, r0, r0, ror #2
    2e48:	000017d1 	ldrdeq	r1, [r0], -r1	; <UNPREDICTABLE>
    2e4c:	00922c0c 	addseq	r2, r2, ip, lsl #24
    2e50:	0008af00 	andeq	sl, r8, r0, lsl #30
    2e54:	51010b00 	tstpl	r1, r0, lsl #22
    2e58:	01f33107 	mvnseq	r3, r7, lsl #2
    2e5c:	241a4f50 	ldrcs	r4, [sl], #-3920	; 0xf50
    2e60:	fd0f0000 	stc2	0, cr0, [pc, #-0]	; 2e68 <_start-0x5198>
    2e64:	01000008 	tsteq	r0, r8
    2e68:	01de037b 	bicseq	r0, lr, fp, ror r3
    2e6c:	70100000 	andsvc	r0, r0, r0
    2e70:	01006e69 	tsteq	r0, r9, ror #28
    2e74:	00002c7b 	andeq	r2, r0, fp, ror ip
    2e78:	09461100 	stmdbeq	r6, {r8, ip}^
    2e7c:	81010000 	mrshi	r0, (UNDEF: 1)
    2e80:	00000133 	andeq	r0, r0, r3, lsr r1
    2e84:	0009d911 	andeq	sp, r9, r1, lsl r9
    2e88:	2c820100 	stfcss	f0, [r2], {0}
    2e8c:	00000000 	andeq	r0, r0, r0
    2e90:	0001b012 	andeq	fp, r1, r2, lsl r0
    2e94:	00923400 	addseq	r3, r2, r0, lsl #8
    2e98:	00003800 	andeq	r3, r0, r0, lsl #16
    2e9c:	229c0100 	addscs	r0, ip, #0, 2
    2ea0:	13000002 	movwne	r0, #2
    2ea4:	000001bc 			; <UNDEFINED> instruction: 0x000001bc
    2ea8:	00001811 	andeq	r1, r0, r1, lsl r8
    2eac:	0001c714 	andeq	ip, r1, r4, lsl r7
    2eb0:	00183200 	andseq	r3, r8, r0, lsl #4
    2eb4:	01d21400 	bicseq	r1, r2, r0, lsl #8
    2eb8:	18680000 	stmdane	r8!, {}^	; <UNPREDICTABLE>
    2ebc:	640c0000 	strvs	r0, [ip], #-0
    2ec0:	af000092 	svcge	0x00000092
    2ec4:	0b000008 	bleq	2eec <_start-0x5114>
    2ec8:	31075101 	tstcc	r7, r1, lsl #2
    2ecc:	4f5001f3 	svcmi	0x005001f3
    2ed0:	0000241a 	andeq	r2, r0, sl, lsl r4
    2ed4:	0006c607 	andeq	ip, r6, r7, lsl #12
    2ed8:	6c950100 	ldfvss	f0, [r5], {0}
    2edc:	cc000092 	stcgt	0, cr0, [r0], {146}	; 0x92
    2ee0:	01000000 	mrseq	r0, (UNDEF: 0)
    2ee4:	0002989c 	muleq	r2, ip, r8
    2ee8:	69700800 	ldmdbvs	r0!, {fp}^
    2eec:	9501006e 	strls	r0, [r1, #-110]	; 0x6e
    2ef0:	0000002c 	andeq	r0, r0, ip, lsr #32
    2ef4:	000018a8 	andeq	r1, r0, r8, lsr #17
    2ef8:	00094609 	andeq	r4, r9, r9, lsl #12
    2efc:	339b0100 	orrscc	r0, fp, #0, 2
    2f00:	c6000001 	strgt	r0, [r0], -r1
    2f04:	09000018 	stmdbeq	r0, {r3, r4}
    2f08:	00000a2e 	andeq	r0, r0, lr, lsr #20
    2f0c:	002c9d01 	eoreq	r9, ip, r1, lsl #26
    2f10:	191b0000 	ldmdbne	fp, {}	; <UNPREDICTABLE>
    2f14:	d9090000 	stmdble	r9, {}	; <UNPREDICTABLE>
    2f18:	01000009 	tsteq	r0, r9
    2f1c:	00002cab 	andeq	r2, r0, fp, lsr #25
    2f20:	001ae700 	andseq	lr, sl, r0, lsl #14
    2f24:	93000a00 	movwls	r0, #2560	; 0xa00
    2f28:	088e0000 	stmeq	lr, {}	; <UNPREDICTABLE>
    2f2c:	02870000 	addeq	r0, r7, #0
    2f30:	010b0000 	mrseq	r0, (UNDEF: 11)
    2f34:	00750250 	rsbseq	r0, r5, r0, asr r2
    2f38:	932c0c00 	teqls	ip, #0, 24
    2f3c:	08af0000 	stmiaeq	pc!, {}	; <UNPREDICTABLE>
    2f40:	010b0000 	mrseq	r0, (UNDEF: 11)
    2f44:	00750250 	rsbseq	r0, r5, r0, asr r2
    2f48:	6a150000 	bvs	542f50 <__bss_end__+0x538c20>
    2f4c:	01000006 	tsteq	r0, r6
    2f50:	000064b3 			; <UNDEFINED> instruction: 0x000064b3
    2f54:	00933800 	addseq	r3, r3, r0, lsl #16
    2f58:	00004c00 	andeq	r4, r0, r0, lsl #24
    2f5c:	e09c0100 	adds	r0, ip, r0, lsl #2
    2f60:	08000002 	stmdaeq	r0, {r1}
    2f64:	006e6970 	rsbeq	r6, lr, r0, ror r9
    2f68:	002cb301 	eoreq	fp, ip, r1, lsl #6
    2f6c:	1b050000 	blne	142f74 <__bss_end__+0x138c44>
    2f70:	76160000 	ldrvc	r0, [r6], -r0
    2f74:	2cb90100 	ldfcss	f0, [r9]
    2f78:	5d000000 	stcpl	0, cr0, [r0, #-0]
    2f7c:	1700001b 	smladne	r0, fp, r0, r0
    2f80:	00009358 	andeq	r9, r0, r8, asr r3
    2f84:	0000088e 	andeq	r0, r0, lr, lsl #17
    2f88:	00936817 	addseq	r6, r3, r7, lsl r8
    2f8c:	00088e00 	andeq	r8, r8, r0, lsl #28
    2f90:	ae070000 	cdpge	0, 0, cr0, cr7, cr0, {0}
    2f94:	01000006 	tsteq	r0, r6
    2f98:	009384c5 	addseq	r8, r3, r5, asr #9
    2f9c:	00007800 	andeq	r7, r0, r0, lsl #16
    2fa0:	aa9c0100 	bge	fe7033a8 <__bss_end__+0xfe6f9078>
    2fa4:	08000003 	stmdaeq	r0, {r0, r1}
    2fa8:	006e6970 	rsbeq	r6, lr, r0, ror r9
    2fac:	002cc501 	eoreq	ip, ip, r1, lsl #10
    2fb0:	1b930000 	blne	fe4c2fb8 <__bss_end__+0xfe4b8c88>
    2fb4:	76080000 	strvc	r0, [r8], -r0
    2fb8:	2cc50100 	stfcse	f0, [r5], {0}
    2fbc:	cd000000 	stcgt	0, cr0, [r0, #-0]
    2fc0:	1800001b 	stmdane	r0, {r0, r1, r3, r4}
    2fc4:	0000013e 	andeq	r0, r0, lr, lsr r1
    2fc8:	00009398 	muleq	r0, r8, r3
    2fcc:	00000030 	andeq	r0, r0, r0, lsr r0
    2fd0:	035fcc01 	cmpeq	pc, #256	; 0x100
    2fd4:	4a130000 	bmi	4c2fdc <__bss_end__+0x4b8cac>
    2fd8:	07000001 	streq	r0, [r0, -r1]
    2fdc:	1900001c 	stmdbne	r0, {r2, r3, r4}
    2fe0:	00009398 	muleq	r0, r8, r3
    2fe4:	00000030 	andeq	r0, r0, r0, lsr r0
    2fe8:	00015514 	andeq	r5, r1, r4, lsl r5
    2fec:	001c2800 	andseq	r2, ip, r0, lsl #16
    2ff0:	01601400 	cmneq	r0, r0, lsl #8
    2ff4:	1c5e0000 	mrane	r0, lr, acc0
    2ff8:	c40c0000 	strgt	r0, [ip], #-0
    2ffc:	af000093 	svcge	0x00000093
    3000:	0b000008 	bleq	3028 <_start-0x4fd8>
    3004:	31075101 	tstcc	r7, r1, lsl #2
    3008:	4f5001f3 	svcmi	0x005001f3
    300c:	0000241a 	andeq	r2, r0, sl, lsl r4
    3010:	01b01a00 	lslseq	r1, r0, #20
    3014:	93c80000 	bicls	r0, r8, #0
    3018:	00340000 	eorseq	r0, r4, r0
    301c:	ce010000 	cdpgt	0, 0, cr0, cr1, cr0, {0}
    3020:	0001bc13 	andeq	fp, r1, r3, lsl ip
    3024:	001c9e00 	andseq	r9, ip, r0, lsl #28
    3028:	93c81900 	bicls	r1, r8, #0, 18
    302c:	00340000 	eorseq	r0, r4, r0
    3030:	c7140000 	ldrgt	r0, [r4, -r0]
    3034:	bf000001 	svclt	0x00000001
    3038:	1400001c 	strne	r0, [r0], #-28
    303c:	000001d2 	ldrdeq	r0, [r0], -r2
    3040:	00001cf5 	strdeq	r1, [r0], -r5
    3044:	0093f40c 	addseq	pc, r3, ip, lsl #8
    3048:	0008af00 	andeq	sl, r8, r0, lsl #30
    304c:	51010b00 	tstpl	r1, r0, lsl #22
    3050:	01f33107 	mvnseq	r3, r7, lsl #2
    3054:	241a4f50 	ldrcs	r4, [sl], #-3920	; 0xf50
    3058:	00000000 	andeq	r0, r0, r0
    305c:	00084d07 	andeq	r4, r8, r7, lsl #26
    3060:	fcd10100 	ldc2l	1, cr0, [r1], {0}
    3064:	d8000093 	stmdale	r0, {r0, r1, r4, r7}
    3068:	01000000 	mrseq	r0, (UNDEF: 0)
    306c:	00042f9c 	muleq	r4, ip, pc	; <UNPREDICTABLE>
    3070:	69700800 	ldmdbvs	r0!, {fp}^
    3074:	d101006e 	tstle	r1, lr, rrx
    3078:	0000002c 	andeq	r0, r0, ip, lsr #32
    307c:	00001d35 	andeq	r1, r0, r5, lsr sp
    3080:	0009eb1b 	andeq	lr, r9, fp, lsl fp
    3084:	b2d10100 	sbcslt	r0, r1, #0, 2
    3088:	53000000 	movwpl	r0, #0
    308c:	0900001d 	stmdbeq	r0, {r0, r2, r3, r4}
    3090:	00000946 	andeq	r0, r0, r6, asr #18
    3094:	0133d901 	teqeq	r3, r1, lsl #18
    3098:	1d740000 	ldclne	0, cr0, [r4, #-0]
    309c:	2e090000 	cdpcs	0, 0, cr0, cr9, cr0, {0}
    30a0:	0100000a 	tsteq	r0, sl
    30a4:	00002cda 	ldrdeq	r2, [r0], -sl
    30a8:	001dc900 	andseq	ip, sp, r0, lsl #18
    30ac:	09d90900 	ldmibeq	r9, {r8, fp}^
    30b0:	e8010000 	stmda	r1, {}	; <UNPREDICTABLE>
    30b4:	0000002c 	andeq	r0, r0, ip, lsr #32
    30b8:	00001f95 	muleq	r0, r5, pc	; <UNPREDICTABLE>
    30bc:	0094980a 	addseq	r9, r4, sl, lsl #16
    30c0:	00088e00 	andeq	r8, r8, r0, lsl #28
    30c4:	00041e00 	andeq	r1, r4, r0, lsl #28
    30c8:	50010b00 	andpl	r0, r1, r0, lsl #22
    30cc:	00007602 	andeq	r7, r0, r2, lsl #12
    30d0:	0094c80c 	addseq	ip, r4, ip, lsl #16
    30d4:	0008af00 	andeq	sl, r8, r0, lsl #30
    30d8:	50010b00 	andpl	r0, r1, r0, lsl #22
    30dc:	00007602 	andeq	r7, r0, r2, lsl #12
    30e0:	08f11c00 	ldmeq	r1!, {sl, fp, ip}^
    30e4:	05010000 	streq	r0, [r1, #-0]
    30e8:	00006401 	andeq	r6, r0, r1, lsl #8
    30ec:	0094d400 	addseq	sp, r4, r0, lsl #8
    30f0:	00002c00 	andeq	r2, r0, r0, lsl #24
    30f4:	639c0100 	orrsvs	r0, ip, #0, 2
    30f8:	1d000004 	stcne	0, cr0, [r0, #-16]
    30fc:	000008f4 	strdeq	r0, [r0], -r4
    3100:	2c010501 	cfstr32cs	mvfx0, [r1], {1}
    3104:	c6000000 	strgt	r0, [r0], -r0
    3108:	1700001f 	smladne	r0, pc, r0, r0	; <UNPREDICTABLE>
    310c:	000094e4 	andeq	r9, r0, r4, ror #9
    3110:	0000088e 	andeq	r0, r0, lr, lsl #17
    3114:	09891e00 	stmibeq	r9, {r9, sl, fp, ip}
    3118:	14010000 	strne	r0, [r1], #-0
    311c:	00950001 	addseq	r0, r5, r1
    3120:	00008400 	andeq	r8, r0, r0, lsl #8
    3124:	279c0100 	ldrcs	r0, [ip, r0, lsl #2]
    3128:	1f000005 	svcne	0x00000005
    312c:	006e6970 	rsbeq	r6, lr, r0, ror r9
    3130:	2c011401 	cfstrscs	mvf1, [r1], {1}
    3134:	e7000000 	str	r0, [r0, -r0]
    3138:	2000001f 	andcs	r0, r0, pc, lsl r0
    313c:	00000918 	andeq	r0, r0, r8, lsl r9
    3140:	2c012601 	stccs	6, cr2, [r1], {1}
    3144:	13000000 	movwne	r0, #0
    3148:	21000020 	tstcs	r0, r0, lsr #32
    314c:	0000951c 	andeq	r9, r0, ip, lsl r5
    3150:	0000001c 	andeq	r0, r0, ip, lsl r0
    3154:	000004c9 	andeq	r0, r0, r9, asr #9
    3158:	0009d920 	andeq	sp, r9, r0, lsr #18
    315c:	011d0100 	tsteq	sp, r0, lsl #2
    3160:	0000002c 	andeq	r0, r0, ip, lsr #32
    3164:	00002031 	andeq	r2, r0, r1, lsr r0
    3168:	00952817 	addseq	r2, r5, r7, lsl r8
    316c:	00088e00 	andeq	r8, r8, r0, lsl #28
    3170:	95381700 	ldrls	r1, [r8, #-1792]!	; 0x700
    3174:	08af0000 	stmiaeq	pc!, {}	; <UNPREDICTABLE>
    3178:	21000000 	mrscs	r0, (UNDEF: 0)
    317c:	0000953c 	andeq	r9, r0, ip, lsr r5
    3180:	00000020 	andeq	r0, r0, r0, lsr #32
    3184:	000004f9 	strdeq	r0, [r0], -r9
    3188:	0009d920 	andeq	sp, r9, r0, lsr #18
    318c:	01210100 	teqeq	r1, r0, lsl #2
    3190:	0000002c 	andeq	r0, r0, ip, lsr #32
    3194:	0000204f 	andeq	r2, r0, pc, asr #32
    3198:	00954817 	addseq	r4, r5, r7, lsl r8
    319c:	00088e00 	andeq	r8, r8, r0, lsl #28
    31a0:	955c1700 	ldrbls	r1, [ip, #-1792]	; 0x700
    31a4:	08af0000 	stmiaeq	pc!, {}	; <UNPREDICTABLE>
    31a8:	17000000 	strne	r0, [r0, -r0]
    31ac:	00009514 	andeq	r9, r0, r4, lsl r5
    31b0:	000008cb 	andeq	r0, r0, fp, asr #17
    31b4:	00956017 	addseq	r6, r5, r7, lsl r0
    31b8:	0008cb00 	andeq	ip, r8, r0, lsl #22
    31bc:	956c1700 	strbls	r1, [ip, #-1792]!	; 0x700
    31c0:	088e0000 	stmeq	lr, {}	; <UNPREDICTABLE>
    31c4:	78170000 	ldmdavc	r7, {}	; <UNPREDICTABLE>
    31c8:	af000095 	svcge	0x00000095
    31cc:	17000008 	strne	r0, [r0, -r8]
    31d0:	0000957c 	andeq	r9, r0, ip, ror r5
    31d4:	000008cb 	andeq	r0, r0, fp, asr #17
    31d8:	0a181e00 	beq	60a9e0 <__bss_end__+0x6006b0>
    31dc:	31010000 	mrscc	r0, (UNDEF: 1)
    31e0:	00958401 	addseq	r8, r5, r1, lsl #8
    31e4:	00008400 	andeq	r8, r0, r0, lsl #8
    31e8:	eb9c0100 	bl	fe7035f0 <__bss_end__+0xfe6f92c0>
    31ec:	1f000005 	svcne	0x00000005
    31f0:	006e6970 	rsbeq	r6, lr, r0, ror r9
    31f4:	2c013101 	stfcss	f3, [r1], {1}
    31f8:	6d000000 	stcvs	0, cr0, [r0, #-0]
    31fc:	20000020 	andcs	r0, r0, r0, lsr #32
    3200:	00000918 	andeq	r0, r0, r8, lsl r9
    3204:	2c014201 	sfmcs	f4, 4, [r1], {1}
    3208:	99000000 	stmdbls	r0, {}	; <UNPREDICTABLE>
    320c:	21000020 	tstcs	r0, r0, lsr #32
    3210:	000095a0 	andeq	r9, r0, r0, lsr #11
    3214:	0000001c 	andeq	r0, r0, ip, lsl r0
    3218:	0000058d 	andeq	r0, r0, sp, lsl #11
    321c:	0009d920 	andeq	sp, r9, r0, lsr #18
    3220:	01390100 	teqeq	r9, r0, lsl #2
    3224:	0000002c 	andeq	r0, r0, ip, lsr #32
    3228:	000020b7 	strheq	r2, [r0], -r7
    322c:	0095ac17 	addseq	sl, r5, r7, lsl ip
    3230:	00088e00 	andeq	r8, r8, r0, lsl #28
    3234:	95bc1700 	ldrls	r1, [ip, #1792]!	; 0x700
    3238:	08af0000 	stmiaeq	pc!, {}	; <UNPREDICTABLE>
    323c:	21000000 	mrscs	r0, (UNDEF: 0)
    3240:	000095c0 	andeq	r9, r0, r0, asr #11
    3244:	00000020 	andeq	r0, r0, r0, lsr #32
    3248:	000005bd 			; <UNDEFINED> instruction: 0x000005bd
    324c:	0009d920 	andeq	sp, r9, r0, lsr #18
    3250:	013d0100 	teqeq	sp, r0, lsl #2
    3254:	0000002c 	andeq	r0, r0, ip, lsr #32
    3258:	000020d5 	ldrdeq	r2, [r0], -r5
    325c:	0095cc17 	addseq	ip, r5, r7, lsl ip
    3260:	00088e00 	andeq	r8, r8, r0, lsl #28
    3264:	95e01700 	strbls	r1, [r0, #1792]!	; 0x700
    3268:	08af0000 	stmiaeq	pc!, {}	; <UNPREDICTABLE>
    326c:	17000000 	strne	r0, [r0, -r0]
    3270:	00009598 	muleq	r0, r8, r5
    3274:	000008cb 	andeq	r0, r0, fp, asr #17
    3278:	0095e417 	addseq	lr, r5, r7, lsl r4
    327c:	0008cb00 	andeq	ip, r8, r0, lsl #22
    3280:	95f01700 	ldrbls	r1, [r0, #1792]!	; 0x700
    3284:	088e0000 	stmeq	lr, {}	; <UNPREDICTABLE>
    3288:	fc170000 	ldc2	0, cr0, [r7], {-0}
    328c:	af000095 	svcge	0x00000095
    3290:	17000008 	strne	r0, [r0, -r8]
    3294:	00009600 	andeq	r9, r0, r0, lsl #12
    3298:	000008cb 	andeq	r0, r0, fp, asr #17
    329c:	08c01c00 	stmiaeq	r0, {sl, fp, ip}^
    32a0:	4c010000 	stcmi	0, cr0, [r1], {-0}
    32a4:	00006401 	andeq	r6, r0, r1, lsl #8
    32a8:	00960800 	addseq	r0, r6, r0, lsl #16
    32ac:	00008400 	andeq	r8, r0, r0, lsl #8
    32b0:	919c0100 	orrsls	r0, ip, r0, lsl #2
    32b4:	1f000006 	svcne	0x00000006
    32b8:	006e6970 	rsbeq	r6, lr, r0, ror r9
    32bc:	2c014c01 	stccs	12, cr4, [r1], {1}
    32c0:	f3000000 	vhadd.u8	d0, d0, d0
    32c4:	21000020 	tstcs	r0, r0, lsr #32
    32c8:	00009624 	andeq	r9, r0, r4, lsr #12
    32cc:	00000024 	andeq	r0, r0, r4, lsr #32
    32d0:	00000645 	andeq	r0, r0, r5, asr #12
    32d4:	00092f20 	andeq	r2, r9, r0, lsr #30
    32d8:	01530100 	cmpeq	r3, r0, lsl #2
    32dc:	0000002c 	andeq	r0, r0, ip, lsr #32
    32e0:	00002135 	andeq	r2, r0, r5, lsr r1
    32e4:	00963017 	addseq	r3, r6, r7, lsl r0
    32e8:	00088e00 	andeq	r8, r8, r0, lsl #28
    32ec:	96401700 	strbls	r1, [r0], -r0, lsl #14
    32f0:	08cb0000 	stmiaeq	fp, {}^	; <UNPREDICTABLE>
    32f4:	21000000 	mrscs	r0, (UNDEF: 0)
    32f8:	00009648 	andeq	r9, r0, r8, asr #12
    32fc:	0000002c 	andeq	r0, r0, ip, lsr #32
    3300:	0000067e 	andeq	r0, r0, lr, ror r6
    3304:	00092f20 	andeq	r2, r9, r0, lsr #30
    3308:	01560100 	cmpeq	r6, r0, lsl #2
    330c:	0000002c 	andeq	r0, r0, ip, lsr #32
    3310:	0000214f 	andeq	r2, r0, pc, asr #2
    3314:	00965417 	addseq	r5, r6, r7, lsl r4
    3318:	00088e00 	andeq	r8, r8, r0, lsl #28
    331c:	96601700 	strbtls	r1, [r0], -r0, lsl #14
    3320:	08cb0000 	stmiaeq	fp, {}^	; <UNPREDICTABLE>
    3324:	6c170000 	ldcvs	0, cr0, [r7], {-0}
    3328:	cb000096 	blgt	3588 <_start-0x4a78>
    332c:	00000008 	andeq	r0, r0, r8
    3330:	00961c17 	addseq	r1, r6, r7, lsl ip
    3334:	0008cb00 	andeq	ip, r8, r0, lsl #22
    3338:	96781700 	ldrbtls	r1, [r8], -r0, lsl #14
    333c:	08cb0000 	stmiaeq	fp, {}^	; <UNPREDICTABLE>
    3340:	1e000000 	cdpne	0, 0, cr0, cr0, cr0, {0}
    3344:	000009ac 	andeq	r0, r0, ip, lsr #19
    3348:	8c015f01 	stchi	15, cr5, [r1], {1}
    334c:	58000096 	stmdapl	r0, {r1, r2, r4, r7}
    3350:	01000000 	mrseq	r0, (UNDEF: 0)
    3354:	0006f69c 	muleq	r6, ip, r6
    3358:	69701f00 	ldmdbvs	r0!, {r8, r9, sl, fp, ip}^
    335c:	5f01006e 	svcpl	0x0001006e
    3360:	00002c01 	andeq	r2, r0, r1, lsl #24
    3364:	00216200 	eoreq	r6, r1, r0, lsl #4
    3368:	96a01700 	strtls	r1, [r0], r0, lsl #14
    336c:	08cb0000 	stmiaeq	fp, {}^	; <UNPREDICTABLE>
    3370:	bc0a0000 	stclt	0, cr0, [sl], {-0}
    3374:	af000096 	svcge	0x00000096
    3378:	d6000008 	strle	r0, [r0], -r8
    337c:	0b000006 	bleq	339c <_start-0x4c64>
    3380:	31045101 	tstcc	r4, r1, lsl #2
    3384:	00240074 	eoreq	r0, r4, r4, ror r0
    3388:	0096d80a 	addseq	sp, r6, sl, lsl #16
    338c:	0008af00 	andeq	sl, r8, r0, lsl #30
    3390:	0006ec00 	andeq	lr, r6, r0, lsl #24
    3394:	51010b00 	tstpl	r1, r0, lsl #22
    3398:	00743104 	rsbseq	r3, r4, r4, lsl #2
    339c:	dc170024 	ldcle	0, cr0, [r7], {36}	; 0x24
    33a0:	cb000096 	blgt	3600 <_start-0x4a00>
    33a4:	00000008 	andeq	r0, r0, r8
    33a8:	00097722 	andeq	r7, r9, r2, lsr #14
    33ac:	33280100 	teqcc	r8, #0, 2
    33b0:	05000001 	streq	r0, [r0, #-1]
    33b4:	0097ec03 	addseq	lr, r7, r3, lsl #24
    33b8:	09e12200 	stmibeq	r1!, {r9, sp}^
    33bc:	29010000 	stmdbcs	r1, {}	; <UNPREDICTABLE>
    33c0:	00000133 	andeq	r0, r0, r3, lsr r1
    33c4:	97e80305 	strbls	r0, [r8, r5, lsl #6]!
    33c8:	39220000 	stmdbcc	r2!, {}	; <UNPREDICTABLE>
    33cc:	0100000a 	tsteq	r0, sl
    33d0:	0001332a 	andeq	r3, r1, sl, lsr #6
    33d4:	e4030500 	str	r0, [r3], #-1280	; 0x500
    33d8:	22000097 	andcs	r0, r0, #151	; 0x97
    33dc:	0000094f 	andeq	r0, r0, pc, asr #18
    33e0:	01332c01 	teqeq	r3, r1, lsl #24
    33e4:	03050000 	movweq	r0, #20480	; 0x5000
    33e8:	00009790 	muleq	r0, r0, r7
    33ec:	00095722 	andeq	r5, r9, r2, lsr #14
    33f0:	332d0100 	teqcc	sp, #0, 2
    33f4:	05000001 	streq	r0, [r0, #-1]
    33f8:	00979403 	addseq	r9, r7, r3, lsl #8
    33fc:	08d42200 	ldmeq	r4, {r9, sp}^
    3400:	2e010000 	cdpcs	0, 0, cr0, cr1, cr0, {0}
    3404:	00000133 	andeq	r0, r0, r3, lsr r1
    3408:	97980305 	ldrls	r0, [r8, r5, lsl #6]
    340c:	5f220000 	svcpl	0x00220000
    3410:	01000009 	tsteq	r0, r9
    3414:	0001332f 	andeq	r3, r1, pc, lsr #6
    3418:	9c030500 	cfstr32ls	mvfx0, [r3], {-0}
    341c:	22000097 	andcs	r0, r0, #151	; 0x97
    3420:	00000967 	andeq	r0, r0, r7, ror #18
    3424:	01333001 	teqeq	r3, r1
    3428:	03050000 	movweq	r0, #20480	; 0x5000
    342c:	000097a0 	andeq	r9, r0, r0, lsr #15
    3430:	00096f22 	andeq	r6, r9, r2, lsr #30
    3434:	33310100 	teqcc	r1, #0, 2
    3438:	05000001 	streq	r0, [r0, #-1]
    343c:	0097a403 	addseq	sl, r7, r3, lsl #8
    3440:	09212200 	stmdbeq	r1!, {r9, sp}
    3444:	33010000 	movwcc	r0, #4096	; 0x1000
    3448:	00000133 	andeq	r0, r0, r3, lsr r1
    344c:	97a80305 	strls	r0, [r8, r5, lsl #6]!
    3450:	28220000 	stmdacs	r2!, {}	; <UNPREDICTABLE>
    3454:	01000009 	tsteq	r0, r9
    3458:	00013334 	andeq	r3, r1, r4, lsr r3
    345c:	ac030500 	cfstr32ge	mvfx0, [r3], {-0}
    3460:	22000097 	andcs	r0, r0, #151	; 0x97
    3464:	000008dc 	ldrdeq	r0, [r0], -ip
    3468:	01333601 	teqeq	r3, r1, lsl #12
    346c:	03050000 	movweq	r0, #20480	; 0x5000
    3470:	000097b0 			; <UNDEFINED> instruction: 0x000097b0
    3474:	00098222 	andeq	r8, r9, r2, lsr #4
    3478:	33370100 	teqcc	r7, #0, 2
    347c:	05000001 	streq	r0, [r0, #-1]
    3480:	0097b403 	addseq	fp, r7, r3, lsl #8
    3484:	09382200 	ldmdbeq	r8!, {r9, sp}
    3488:	39010000 	stmdbcc	r1, {}	; <UNPREDICTABLE>
    348c:	00000133 	andeq	r0, r0, r3, lsr r1
    3490:	97b80305 	ldrls	r0, [r8, r5, lsl #6]!
    3494:	3f220000 	svccc	0x00220000
    3498:	01000009 	tsteq	r0, r9
    349c:	0001333a 	andeq	r3, r1, sl, lsr r3
    34a0:	bc030500 	cfstr32lt	mvfx0, [r3], {-0}
    34a4:	22000097 	andcs	r0, r0, #151	; 0x97
    34a8:	000009bd 			; <UNDEFINED> instruction: 0x000009bd
    34ac:	0133f001 	teqeq	r3, r1
    34b0:	03050000 	movweq	r0, #20480	; 0x5000
    34b4:	000097e0 	andeq	r9, r0, r0, ror #15
    34b8:	0009cb22 	andeq	ip, r9, r2, lsr #22
    34bc:	33f10100 	mvnscc	r0, #0, 2
    34c0:	05000001 	streq	r0, [r0, #-1]
    34c4:	0097c003 	addseq	ip, r7, r3
    34c8:	09f02200 	ldmibeq	r0!, {r9, sp}^
    34cc:	f3010000 	vhadd.u8	d0, d1, d0
    34d0:	00000133 	andeq	r0, r0, r3, lsr r1
    34d4:	97d80305 	ldrbls	r0, [r8, r5, lsl #6]
    34d8:	f7220000 			; <UNDEFINED> instruction: 0xf7220000
    34dc:	01000009 	tsteq	r0, r9
    34e0:	000133f4 	strdeq	r3, [r1], -r4
    34e4:	dc030500 	cfstr32le	mvfx0, [r3], {-0}
    34e8:	22000097 	andcs	r0, r0, #151	; 0x97
    34ec:	0000099e 	muleq	r0, lr, r9
    34f0:	0133f601 	teqeq	r3, r1, lsl #12
    34f4:	03050000 	movweq	r0, #20480	; 0x5000
    34f8:	000097c4 	andeq	r9, r0, r4, asr #15
    34fc:	0009a522 	andeq	sl, r9, r2, lsr #10
    3500:	33f70100 	mvnscc	r0, #0, 2
    3504:	05000001 	streq	r0, [r0, #-1]
    3508:	0097c803 	addseq	ip, r7, r3, lsl #16
    350c:	0a0a2200 	beq	28bd14 <__bss_end__+0x2819e4>
    3510:	f9010000 			; <UNDEFINED> instruction: 0xf9010000
    3514:	00000133 	andeq	r0, r0, r3, lsr r1
    3518:	97d00305 	ldrbls	r0, [r0, r5, lsl #6]
    351c:	11220000 	teqne	r2, r0
    3520:	0100000a 	tsteq	r0, sl
    3524:	000133fa 	strdeq	r3, [r1], -sl
    3528:	d4030500 	strle	r0, [r3], #-1280	; 0x500
    352c:	22000097 	andcs	r0, r0, #151	; 0x97
    3530:	000008e3 	andeq	r0, r0, r3, ror #17
    3534:	0133fc01 	teqeq	r3, r1, lsl #24
    3538:	03050000 	movweq	r0, #20480	; 0x5000
    353c:	000097cc 	andeq	r9, r0, ip, asr #15
    3540:	0008ba23 	andeq	fp, r8, r3, lsr #20
    3544:	2c200100 	stfcss	f0, [r0], #-0
    3548:	a3000000 	movwge	r0, #0
    354c:	24000008 	strcs	r0, [r0], #-8
    3550:	000008a3 	andeq	r0, r0, r3, lsr #17
    3554:	a9040d00 	stmdbge	r4, {r8, sl, fp}
    3558:	25000008 	strcs	r0, [r0, #-8]
    355c:	000008ae 	andeq	r0, r0, lr, lsr #17
    3560:	07db2726 	ldrbeq	r2, [fp, r6, lsr #14]
    3564:	1e010000 	cdpne	0, 0, cr0, cr1, cr0, {0}
    3568:	000008c5 	andeq	r0, r0, r5, asr #17
    356c:	0008c524 	andeq	ip, r8, r4, lsr #10
    3570:	002c2400 	eoreq	r2, ip, r0, lsl #8
    3574:	0d000000 	stceq	0, cr0, [r0, #-0]
    3578:	0008ae04 	andeq	sl, r8, r4, lsl #28
    357c:	07732800 	ldrbeq	r2, [r3, -r0, lsl #16]!
    3580:	87030000 	strhi	r0, [r3, -r0]
    3584:	0001c300 	andeq	ip, r1, r0, lsl #6
    3588:	97000400 	strls	r0, [r0, -r0, lsl #8]
    358c:	04000011 	streq	r0, [r0], #-17
    3590:	00006e01 	andeq	r6, r0, r1, lsl #28
    3594:	0a580100 	beq	160399c <__bss_end__+0x15f966c>
    3598:	02ab0000 	adceq	r0, fp, #0
    359c:	96e40000 	strbtls	r0, [r4], r0
    35a0:	00500000 	subseq	r0, r0, r0
    35a4:	0f220000 	svceq	0x00220000
    35a8:	04020000 	streq	r0, [r2], #-0
    35ac:	746e6905 	strbtvc	r6, [lr], #-2309	; 0x905
    35b0:	0a430300 	beq	10c41b8 <__bss_end__+0x10b9e88>
    35b4:	d4020000 	strle	r0, [r2], #-0
    35b8:	00000037 	andeq	r0, r0, r7, lsr r0
    35bc:	6a070404 	bvs	1c45d4 <__bss_end__+0x1ba2a4>
    35c0:	04000001 	streq	r0, [r0], #-1
    35c4:	00e10601 	rsceq	r0, r1, r1, lsl #12
    35c8:	02040000 	andeq	r0, r4, #0
    35cc:	0001d005 	andeq	sp, r1, r5
    35d0:	05040400 	streq	r0, [r4, #-1024]	; 0x400
    35d4:	000001ac 	andeq	r0, r0, ip, lsr #3
    35d8:	a7050804 	strge	r0, [r5, -r4, lsl #16]
    35dc:	03000001 	movweq	r0, #1
    35e0:	00000177 	andeq	r0, r0, r7, ror r1
    35e4:	00652e03 	rsbeq	r2, r5, r3, lsl #28
    35e8:	01040000 	mrseq	r0, (UNDEF: 4)
    35ec:	0000df08 	andeq	sp, r0, r8, lsl #30
    35f0:	07020400 	streq	r0, [r2, -r0, lsl #8]
    35f4:	00000043 	andeq	r0, r0, r3, asr #32
    35f8:	00026203 	andeq	r6, r2, r3, lsl #4
    35fc:	7e340300 	cdpvc	3, 3, cr0, cr4, cr0, {0}
    3600:	04000000 	streq	r0, [r0], #-0
    3604:	01650704 	cmneq	r5, r4, lsl #14
    3608:	08040000 	stmdaeq	r4, {}	; <UNPREDICTABLE>
    360c:	00016007 	andeq	r6, r1, r7
    3610:	07040400 	streq	r0, [r4, -r0, lsl #8]
    3614:	0000019e 	muleq	r0, lr, r1
    3618:	01040405 	tsteq	r4, r5, lsl #8
    361c:	0000e808 	andeq	lr, r0, r8, lsl #16
    3620:	040c0600 	streq	r0, [ip], #-1536	; 0x600
    3624:	0000d30e 	andeq	sp, r0, lr, lsl #6
    3628:	78740700 	ldmdavc	r4!, {r8, r9, sl}^
    362c:	5a0f0400 	bpl	3c4634 <__bss_end__+0x3ba304>
    3630:	00000000 	andeq	r0, r0, r0
    3634:	00787207 	rsbseq	r7, r8, r7, lsl #4
    3638:	005a0f04 	subseq	r0, sl, r4, lsl #30
    363c:	08010000 	stmdaeq	r1, {}	; <UNPREDICTABLE>
    3640:	00000488 	andeq	r0, r0, r8, lsl #9
    3644:	00731004 	rsbseq	r1, r3, r4
    3648:	08040000 	stmdaeq	r4, {}	; <UNPREDICTABLE>
    364c:	00000439 	andeq	r0, r0, r9, lsr r4
    3650:	00731104 	rsbseq	r1, r3, r4, lsl #2
    3654:	00080000 	andeq	r0, r8, r0
    3658:	00047103 	andeq	r7, r4, r3, lsl #2
    365c:	9c120400 	cfldrsls	mvf0, [r2], {-0}
    3660:	09000000 	stmdbeq	r0, {}	; <UNPREDICTABLE>
    3664:	f9100501 			; <UNDEFINED> instruction: 0xf9100501
    3668:	0a000000 	beq	3670 <_start-0x4990>
    366c:	0000048d 	andeq	r0, r0, sp, lsl #9
    3670:	047b0a01 	ldrbteq	r0, [fp], #-2561	; 0xa01
    3674:	0a020000 	beq	8367c <__bss_end__+0x7934c>
    3678:	00000463 	andeq	r0, r0, r3, ror #8
    367c:	a2030003 	andge	r0, r3, #3
    3680:	05000004 	streq	r0, [r0, #-4]
    3684:	0000de10 	andeq	sp, r0, r0, lsl lr
    3688:	05140600 	ldreq	r0, [r4, #-1536]	; 0x600
    368c:	00013114 	andeq	r3, r1, r4, lsl r1
    3690:	05090800 	streq	r0, [r9, #-2048]	; 0x800
    3694:	15050000 	strne	r0, [r5, #-0]
    3698:	00000037 	andeq	r0, r0, r7, lsr r0
    369c:	04fd0800 	ldrbteq	r0, [sp], #2048	; 0x800
    36a0:	18050000 	stmdane	r5, {}	; <UNPREDICTABLE>
    36a4:	000000f9 	strdeq	r0, [r0], -r9
    36a8:	04c80804 	strbeq	r0, [r8], #2052	; 0x804
    36ac:	1b050000 	blne	1436b4 <__bss_end__+0x139384>
    36b0:	000000d3 	ldrdeq	r0, [r0], -r3
    36b4:	ba030008 	blt	c36dc <__bss_end__+0xb93ac>
    36b8:	05000004 	streq	r0, [r0, #-4]
    36bc:	00010420 	andeq	r0, r1, r0, lsr #8
    36c0:	0a510b00 	beq	14462c8 <__bss_end__+0x143bf98>
    36c4:	05010000 	streq	r0, [r1, #-0]
    36c8:	0000017e 	andeq	r0, r0, lr, ror r1
    36cc:	000096e4 	andeq	r9, r0, r4, ror #13
    36d0:	00000028 	andeq	r0, r0, r8, lsr #32
    36d4:	017e9c01 	cmneq	lr, r1, lsl #24
    36d8:	630c0000 	movwvs	r0, #49152	; 0xc000
    36dc:	7e060100 	adfvcs	f0, f6, f0
    36e0:	00000001 	andeq	r0, r0, r1
    36e4:	0d090000 	stceq	0, cr0, [r9, #-0]
    36e8:	000096f8 	strdeq	r9, [r0], -r8
    36ec:	000001ab 	andeq	r0, r0, fp, lsr #3
    36f0:	0152010e 	cmpeq	r2, lr, lsl #2
    36f4:	51010e34 	tstpl	r1, r4, lsr lr
    36f8:	010e3001 	tsteq	lr, r1
    36fc:	47420350 	smlsldmi	r0, r2, r0, r3
    3700:	0f000024 	svceq	0x00000024
    3704:	00013104 	andeq	r3, r1, r4, lsl #2
    3708:	04d00b00 	ldrbeq	r0, [r0], #2816	; 0xb00
    370c:	0c010000 	stceq	0, cr0, [r1], {-0}
    3710:	0000017e 	andeq	r0, r0, lr, ror r1
    3714:	0000970c 	andeq	r9, r0, ip, lsl #14
    3718:	00000028 	andeq	r0, r0, r8, lsr #32
    371c:	01ab9c01 			; <UNDEFINED> instruction: 0x01ab9c01
    3720:	630c0000 	movwvs	r0, #49152	; 0xc000
    3724:	7e0d0100 	adfvce	f0, f5, f0
    3728:	00000001 	andeq	r0, r0, r1
    372c:	00090000 	andeq	r0, r9, r0
    3730:	000a4a10 	andeq	r4, sl, r0, lsl sl
    3734:	931b0600 	tstls	fp, #0, 12
    3738:	11000000 	mrsne	r0, (UNDEF: 0)
    373c:	00000093 	muleq	r0, r3, r0
    3740:	00002511 	andeq	r2, r0, r1, lsl r5
    3744:	002c1100 	eoreq	r1, ip, r0, lsl #2
    3748:	00000000 	andeq	r0, r0, r0
    374c:	000000db 	ldrdeq	r0, [r0], -fp
    3750:	127b0004 	rsbsne	r0, fp, #4
    3754:	01040000 	mrseq	r0, (UNDEF: 4)
    3758:	0000006e 	andeq	r0, r0, lr, rrx
    375c:	000a7301 	andeq	r7, sl, r1, lsl #6
    3760:	0002ab00 	andeq	sl, r2, r0, lsl #22
    3764:	00973400 	addseq	r3, r7, r0, lsl #8
    3768:	00002000 	andeq	r2, r0, r0
    376c:	00104e00 	andseq	r4, r0, r0, lsl #28
    3770:	06010200 	streq	r0, [r1], -r0, lsl #4
    3774:	000000e1 	andeq	r0, r0, r1, ror #1
    3778:	df080102 	svcle	0x00080102
    377c:	02000000 	andeq	r0, r0, #0
    3780:	01d00502 	bicseq	r0, r0, r2, lsl #10
    3784:	02020000 	andeq	r0, r2, #0
    3788:	00004307 	andeq	r4, r0, r7, lsl #6
    378c:	05040300 	streq	r0, [r4, #-768]	; 0x300
    3790:	00746e69 	rsbseq	r6, r4, r9, ror #28
    3794:	6a070402 	bvs	1c47a4 <__bss_end__+0x1ba474>
    3798:	02000001 	andeq	r0, r0, #1
    379c:	01a70508 			; <UNDEFINED> instruction: 0x01a70508
    37a0:	08020000 	stmdaeq	r2, {}	; <UNPREDICTABLE>
    37a4:	00016007 	andeq	r6, r1, r7
    37a8:	05040200 	streq	r0, [r4, #-512]	; 0x200
    37ac:	000001ac 	andeq	r0, r0, ip, lsr #3
    37b0:	9e070402 	cdpls	4, 0, cr0, cr7, cr2, {0}
    37b4:	04000001 	streq	r0, [r0], #-1
    37b8:	07040204 	streq	r0, [r4, -r4, lsl #4]
    37bc:	00000165 	andeq	r0, r0, r5, ror #2
    37c0:	007a0405 	rsbseq	r0, sl, r5, lsl #8
    37c4:	01020000 	mrseq	r0, (UNDEF: 2)
    37c8:	0000e808 	andeq	lr, r0, r8, lsl #16
    37cc:	0a430600 	beq	10c4fd4 <__bss_end__+0x10baca4>
    37d0:	d4020000 	strle	r0, [r2], #-0
    37d4:	00000048 	andeq	r0, r0, r8, asr #32
    37d8:	000a4a07 	andeq	r4, sl, r7, lsl #20
    37dc:	6b1b0300 	blvs	6c43e4 <__bss_end__+0x6ba0b4>
    37e0:	34000000 	strcc	r0, [r0], #-0
    37e4:	20000097 	mulcs	r0, r7, r0
    37e8:	01000000 	mrseq	r0, (UNDEF: 0)
    37ec:	705f089c 			; <UNDEFINED> instruction: 0x705f089c
    37f0:	6b030100 	blvs	c3bf8 <__bss_end__+0xb98c8>
    37f4:	01000000 	mrseq	r0, (UNDEF: 0)
    37f8:	00630850 	rsbeq	r0, r3, r0, asr r8
    37fc:	00410301 	subeq	r0, r1, r1, lsl #6
    3800:	51010000 	mrspl	r0, (UNDEF: 1)
    3804:	01006e09 	tsteq	r0, r9, lsl #28
    3808:	00008103 	andeq	r8, r0, r3, lsl #2
    380c:	00218e00 	eoreq	r8, r1, r0, lsl #28
    3810:	00700a00 	rsbseq	r0, r0, r0, lsl #20
    3814:	00740401 	rsbseq	r0, r4, r1, lsl #8
    3818:	21af0000 			; <UNDEFINED> instruction: 0x21af0000
    381c:	650b0000 	strvs	r0, [fp, #-0]
    3820:	74040100 	strvc	r0, [r4], #-256	; 0x100
    3824:	01000000 	mrseq	r0, (UNDEF: 0)
    3828:	Address 0x0000000000003828 is out of bounds.


Disassembly of section .debug_abbrev:

00000000 <.debug_abbrev>:
       0:	25011101 	strcs	r1, [r1, #-257]	; 0x101
       4:	030b130e 	movweq	r1, #45838	; 0xb30e
       8:	110e1b0e 	tstne	lr, lr, lsl #22
       c:	10061201 	andne	r1, r6, r1, lsl #4
      10:	02000017 	andeq	r0, r0, #23
      14:	0b0b0024 	bleq	2c00ac <__bss_end__+0x2b5d7c>
      18:	08030b3e 	stmdaeq	r3, {r1, r2, r3, r4, r5, r8, r9, fp}
      1c:	24030000 	strcs	r0, [r3], #-0
      20:	3e0b0b00 	vmlacc.f64	d0, d11, d0
      24:	000e030b 	andeq	r0, lr, fp, lsl #6
      28:	00160400 	andseq	r0, r6, r0, lsl #8
      2c:	0b3a0e03 	bleq	e83840 <__bss_end__+0xe79510>
      30:	13490b3b 	movtne	r0, #39739	; 0x9b3b
      34:	0f050000 	svceq	0x00050000
      38:	000b0b00 	andeq	r0, fp, r0, lsl #22
      3c:	000f0600 	andeq	r0, pc, r0, lsl #12
      40:	13490b0b 	movtne	r0, #39691	; 0x9b0b
      44:	26070000 	strcs	r0, [r7], -r0
      48:	00134900 	andseq	r4, r3, r0, lsl #18
      4c:	01010800 	tsteq	r1, r0, lsl #16
      50:	13011349 	movwne	r1, #4937	; 0x1349
      54:	21090000 	mrscs	r0, (UNDEF: 9)
      58:	2f134900 	svccs	0x00134900
      5c:	0a00000b 	beq	90 <_start-0x7f70>
      60:	0b0b0104 	bleq	2c0478 <__bss_end__+0x2b6148>
      64:	0b3b0b3a 	bleq	ec2d54 <__bss_end__+0xeb8a24>
      68:	00001301 	andeq	r1, r0, r1, lsl #6
      6c:	0300280b 	movweq	r2, #2059	; 0x80b
      70:	000d1c0e 	andeq	r1, sp, lr, lsl #24
      74:	012e0c00 	teqeq	lr, r0, lsl #24
      78:	0b3a0e03 	bleq	e8388c <__bss_end__+0xe7955c>
      7c:	19270b3b 	stmdbne	r7!, {r0, r1, r3, r4, r5, r8, r9, fp}
      80:	06120111 			; <UNDEFINED> instruction: 0x06120111
      84:	42971840 	addsmi	r1, r7, #64, 16	; 0x400000
      88:	00130119 	andseq	r0, r3, r9, lsl r1
      8c:	00050d00 	andeq	r0, r5, r0, lsl #26
      90:	0b3a0e03 	bleq	e838a4 <__bss_end__+0xe79574>
      94:	13490b3b 	movtne	r0, #39739	; 0x9b3b
      98:	00001702 	andeq	r1, r0, r2, lsl #14
      9c:	0300050e 	movweq	r0, #1294	; 0x50e
      a0:	3b0b3a08 	blcc	2ce8c8 <__bss_end__+0x2c4598>
      a4:	0213490b 	andseq	r4, r3, #180224	; 0x2c000
      a8:	0f000017 	svceq	0x00000017
      ac:	08030034 	stmdaeq	r3, {r2, r4, r5}
      b0:	0b3b0b3a 	bleq	ec2da0 <__bss_end__+0xeb8a70>
      b4:	17021349 	strne	r1, [r2, -r9, asr #6]
      b8:	0b100000 	bleq	4000c0 <__bss_end__+0x3f5d90>
      bc:	12011101 	andne	r1, r1, #1073741824	; 0x40000000
      c0:	11000006 	tstne	r0, r6
      c4:	00018289 	andeq	r8, r1, r9, lsl #5
      c8:	13310111 	teqne	r1, #1073741828	; 0x40000004
      cc:	2e120000 	cdpcs	0, 1, cr0, cr2, cr0, {0}
      d0:	03193f01 	tsteq	r9, #1, 30
      d4:	3b0b3a0e 	blcc	2ce914 <__bss_end__+0x2c45e4>
      d8:	1119270b 	tstne	r9, fp, lsl #14
      dc:	40061201 	andmi	r1, r6, r1, lsl #4
      e0:	19429718 	stmdbne	r2, {r3, r4, r8, r9, sl, ip, pc}^
      e4:	00001301 	andeq	r1, r0, r1, lsl #6
      e8:	03003413 	movweq	r3, #1043	; 0x413
      ec:	3b0b3a08 	blcc	2ce914 <__bss_end__+0x2c45e4>
      f0:	0213490b 	andseq	r4, r3, #180224	; 0x2c000
      f4:	14000018 	strne	r0, [r0], #-24
      f8:	0e030034 	mcreq	0, 0, r0, cr3, cr4, {1}
      fc:	0b3b0b3a 	bleq	ec2dec <__bss_end__+0xeb8abc>
     100:	18021349 	stmdane	r2, {r0, r3, r6, r8, r9, ip}
     104:	34150000 	ldrcc	r0, [r5], #-0
     108:	490e0300 	stmdbmi	lr, {r8, r9}
     10c:	02193413 	andseq	r3, r9, #318767104	; 0x13000000
     110:	16000018 			; <UNDEFINED> instruction: 0x16000018
     114:	0e030034 	mcreq	0, 0, r0, cr3, cr4, {1}
     118:	0b3b0b3a 	bleq	ec2e08 <__bss_end__+0xeb8ad8>
     11c:	00001349 	andeq	r1, r0, r9, asr #6
     120:	11010b17 	tstne	r1, r7, lsl fp
     124:	01061201 	tsteq	r6, r1, lsl #4
     128:	18000013 	stmdane	r0, {r0, r1, r4}
     12c:	01018289 	smlabbeq	r1, r9, r2, r8
     130:	13310111 	teqne	r1, #1073741828	; 0x40000004
     134:	00001301 	andeq	r1, r0, r1, lsl #6
     138:	01828a19 	orreq	r8, r2, r9, lsl sl
     13c:	91180200 	tstls	r8, r0, lsl #4
     140:	00001842 	andeq	r1, r0, r2, asr #16
     144:	0182891a 	orreq	r8, r2, sl, lsl r9
     148:	31011101 	tstcc	r1, r1, lsl #2
     14c:	1b000013 	blne	1a0 <_start-0x7e60>
     150:	193f002e 	ldmdbne	pc!, {r1, r2, r3, r5}	; <UNPREDICTABLE>
     154:	0b3a0e03 	bleq	e83968 <__bss_end__+0xe79638>
     158:	19270b3b 	stmdbne	r7!, {r0, r1, r3, r4, r5, r8, r9, fp}
     15c:	193c1349 	ldmdbne	ip!, {r0, r3, r6, r8, r9, ip}
     160:	2e1c0000 	cdpcs	0, 1, cr0, cr12, cr0, {0}
     164:	03193f01 	tsteq	r9, #1, 30
     168:	3b0b3a0e 	blcc	2ce9a8 <__bss_end__+0x2c4678>
     16c:	4919270b 	ldmdbmi	r9, {r0, r1, r3, r8, r9, sl, sp}
     170:	01193c13 	tsteq	r9, r3, lsl ip
     174:	1d000013 	stcne	0, cr0, [r0, #-76]	; 0xffffffb4
     178:	13490005 	movtne	r0, #36869	; 0x9005
     17c:	181e0000 	ldmdane	lr, {}	; <UNPREDICTABLE>
     180:	1f000000 	svcne	0x00000000
     184:	193f012e 	ldmdbne	pc!, {r1, r2, r3, r5, r8}	; <UNPREDICTABLE>
     188:	0b3a0e03 	bleq	e8399c <__bss_end__+0xe7966c>
     18c:	19270b3b 	stmdbne	r7!, {r0, r1, r3, r4, r5, r8, r9, fp}
     190:	1301193c 	movwne	r1, #6460	; 0x193c
     194:	2e200000 	cdpcs	0, 2, cr0, cr0, cr0, {0}
     198:	03193f00 	tsteq	r9, #0, 30
     19c:	3b0b3a0e 	blcc	2ce9dc <__bss_end__+0x2c46ac>
     1a0:	3c19270b 	ldccc	7, cr2, [r9], {11}
     1a4:	21000019 	tstcs	r0, r9, lsl r0
     1a8:	00000026 	andeq	r0, r0, r6, lsr #32
     1ac:	01110100 	tsteq	r1, r0, lsl #2
     1b0:	0b130e25 	bleq	4c3a4c <__bss_end__+0x4b971c>
     1b4:	0e1b0e03 	cdpeq	14, 1, cr0, cr11, cr3, {0}
     1b8:	06120111 			; <UNDEFINED> instruction: 0x06120111
     1bc:	00001710 	andeq	r1, r0, r0, lsl r7
     1c0:	0b002402 	bleq	91d0 <gpio_set_output+0xa8>
     1c4:	030b3e0b 	movweq	r3, #48651	; 0xbe0b
     1c8:	0300000e 	movweq	r0, #14
     1cc:	0e030016 	mcreq	0, 0, r0, cr3, cr6, {0}
     1d0:	0b3b0b3a 	bleq	ec2ec0 <__bss_end__+0xeb8b90>
     1d4:	00001349 	andeq	r1, r0, r9, asr #6
     1d8:	0b002404 	bleq	91f0 <gpio_set_output+0xc8>
     1dc:	030b3e0b 	movweq	r3, #48651	; 0xbe0b
     1e0:	05000008 	streq	r0, [r0, #-8]
     1e4:	0e03012e 	adfeqsp	f0, f3, #0.5
     1e8:	0b3b0b3a 	bleq	ec2ed8 <__bss_end__+0xeb8ba8>
     1ec:	13491927 	movtne	r1, #39207	; 0x9927
     1f0:	06120111 			; <UNDEFINED> instruction: 0x06120111
     1f4:	42971840 	addsmi	r1, r7, #64, 16	; 0x400000
     1f8:	00130119 	andseq	r0, r3, r9, lsl r1
     1fc:	00050600 	andeq	r0, r5, r0, lsl #12
     200:	0b3a0803 	bleq	e82214 <__bss_end__+0xe77ee4>
     204:	13490b3b 	movtne	r0, #39739	; 0x9b3b
     208:	00001702 	andeq	r1, r0, r2, lsl #14
     20c:	03000507 	movweq	r0, #1287	; 0x507
     210:	3b0b3a0e 	blcc	2cea50 <__bss_end__+0x2c4720>
     214:	0213490b 	andseq	r4, r3, #180224	; 0x2c000
     218:	08000017 	stmdaeq	r0, {r0, r1, r2, r4}
     21c:	08030034 	stmdaeq	r3, {r2, r4, r5}
     220:	0b3b0b3a 	bleq	ec2f10 <__bss_end__+0xeb8be0>
     224:	17021349 	strne	r1, [r2, -r9, asr #6]
     228:	0f090000 	svceq	0x00090000
     22c:	490b0b00 	stmdbmi	fp, {r8, r9, fp}
     230:	0a000013 	beq	284 <_start-0x7d7c>
     234:	00000026 	andeq	r0, r0, r6, lsr #32
     238:	4900260b 	stmdbmi	r0, {r0, r1, r3, r9, sl, sp}
     23c:	0c000013 	stceq	0, cr0, [r0], {19}
     240:	193f012e 	ldmdbne	pc!, {r1, r2, r3, r5, r8}	; <UNPREDICTABLE>
     244:	0b3a0e03 	bleq	e83a58 <__bss_end__+0xe79728>
     248:	19270b3b 	stmdbne	r7!, {r0, r1, r3, r4, r5, r8, r9, fp}
     24c:	01111349 	tsteq	r1, r9, asr #6
     250:	18400612 	stmdane	r0, {r1, r4, r9, sl}^
     254:	01194297 			; <UNDEFINED> instruction: 0x01194297
     258:	0d000013 	stceq	0, cr0, [r0, #-76]	; 0xffffffb4
     25c:	01018289 	smlabbeq	r1, r9, r2, r8
     260:	13310111 	teqne	r1, #1073741828	; 0x40000004
     264:	8a0e0000 	bhi	38026c <__bss_end__+0x375f3c>
     268:	02000182 	andeq	r0, r0, #-2147483616	; 0x80000020
     26c:	18429118 	stmdane	r2, {r3, r4, r8, ip, pc}^
     270:	010f0000 	mrseq	r0, CPSR
     274:	01134901 	tsteq	r3, r1, lsl #18
     278:	10000013 	andne	r0, r0, r3, lsl r0
     27c:	13490021 	movtne	r0, #36897	; 0x9021
     280:	00000b2f 	andeq	r0, r0, pc, lsr #22
     284:	03003411 	movweq	r3, #1041	; 0x411
     288:	3b0b3a0e 	blcc	2ceac8 <__bss_end__+0x2c4798>
     28c:	0213490b 	andseq	r4, r3, #180224	; 0x2c000
     290:	00000018 	andeq	r0, r0, r8, lsl r0
     294:	25011101 	strcs	r1, [r1, #-257]	; 0x101
     298:	030b130e 	movweq	r1, #45838	; 0xb30e
     29c:	110e1b0e 	tstne	lr, lr, lsl #22
     2a0:	10061201 	andne	r1, r6, r1, lsl #4
     2a4:	02000017 	andeq	r0, r0, #23
     2a8:	0e030016 	mcreq	0, 0, r0, cr3, cr6, {0}
     2ac:	0b3b0b3a 	bleq	ec2f9c <__bss_end__+0xeb8c6c>
     2b0:	00001349 	andeq	r1, r0, r9, asr #6
     2b4:	03011303 	movweq	r1, #4867	; 0x1303
     2b8:	3a0b0b0e 	bcc	2c2ef8 <__bss_end__+0x2b8bc8>
     2bc:	010b3b0b 	tsteq	fp, fp, lsl #22
     2c0:	04000013 	streq	r0, [r0], #-19
     2c4:	0e03000d 	cdpeq	0, 0, cr0, cr3, cr13, {0}
     2c8:	0b381349 	bleq	e04ff4 <__bss_end__+0xdfacc4>
     2cc:	00001934 	andeq	r1, r0, r4, lsr r9
     2d0:	0b000f05 	bleq	3eec <_start-0x4114>
     2d4:	0600000b 	streq	r0, [r0], -fp
     2d8:	0b0b0024 	bleq	2c0370 <__bss_end__+0x2b6040>
     2dc:	08030b3e 	stmdaeq	r3, {r1, r2, r3, r4, r5, r8, r9, fp}
     2e0:	24070000 	strcs	r0, [r7], #-0
     2e4:	3e0b0b00 	vmlacc.f64	d0, d11, d0
     2e8:	000e030b 	andeq	r0, lr, fp, lsl #6
     2ec:	000f0800 	andeq	r0, pc, r0, lsl #16
     2f0:	13490b0b 	movtne	r0, #39691	; 0x9b0b
     2f4:	26090000 	strcs	r0, [r9], -r0
     2f8:	00134900 	andseq	r4, r3, r0, lsl #18
     2fc:	012e0a00 	teqeq	lr, r0, lsl #20
     300:	0e03193f 	mcreq	9, 0, r1, cr3, cr15, {1}
     304:	0b3b0b3a 	bleq	ec2ff4 <__bss_end__+0xeb8cc4>
     308:	13491927 	movtne	r1, #39207	; 0x9927
     30c:	06120111 			; <UNDEFINED> instruction: 0x06120111
     310:	42971840 	addsmi	r1, r7, #64, 16	; 0x400000
     314:	00130119 	andseq	r0, r3, r9, lsl r1
     318:	00050b00 	andeq	r0, r5, r0, lsl #22
     31c:	0b3a0803 	bleq	e82330 <__bss_end__+0xe78000>
     320:	13490b3b 	movtne	r0, #39739	; 0x9b3b
     324:	00001802 	andeq	r1, r0, r2, lsl #16
     328:	0000180c 	andeq	r1, r0, ip, lsl #16
     32c:	00340d00 	eorseq	r0, r4, r0, lsl #26
     330:	0b3a0803 	bleq	e82344 <__bss_end__+0xe78014>
     334:	13490b3b 	movtne	r0, #39739	; 0x9b3b
     338:	00001802 	andeq	r1, r0, r2, lsl #16
     33c:	0300340e 	movweq	r3, #1038	; 0x40e
     340:	3b0b3a0e 	blcc	2ceb80 <__bss_end__+0x2c4850>
     344:	0213490b 	andseq	r4, r3, #180224	; 0x2c000
     348:	0f000018 	svceq	0x00000018
     34c:	08030034 	stmdaeq	r3, {r2, r4, r5}
     350:	0b3b0b3a 	bleq	ec3040 <__bss_end__+0xeb8d10>
     354:	17021349 	strne	r1, [r2, -r9, asr #6]
     358:	89100000 	ldmdbhi	r0, {}	; <UNPREDICTABLE>
     35c:	11010182 	smlabbne	r1, r2, r1, r0
     360:	01133101 	tsteq	r3, r1, lsl #2
     364:	11000013 	tstne	r0, r3, lsl r0
     368:	0001828a 	andeq	r8, r1, sl, lsl #5
     36c:	42911802 	addsmi	r1, r1, #131072	; 0x20000
     370:	12000018 	andne	r0, r0, #24
     374:	01018289 	smlabbeq	r1, r9, r2, r8
     378:	00000111 	andeq	r0, r0, r1, lsl r1
     37c:	49010113 	stmdbmi	r1, {r0, r1, r4, r8}
     380:	00130113 	andseq	r0, r3, r3, lsl r1
     384:	00211400 	eoreq	r1, r1, r0, lsl #8
     388:	052f1349 	streq	r1, [pc, #-841]!	; 47 <_start-0x7fb9>
     38c:	15150000 	ldrne	r0, [r5, #-0]
     390:	49192701 	ldmdbmi	r9, {r0, r8, r9, sl, sp}
     394:	00130113 	andseq	r0, r3, r3, lsl r1
     398:	00051600 	andeq	r1, r5, r0, lsl #12
     39c:	00001349 	andeq	r1, r0, r9, asr #6
     3a0:	03003417 	movweq	r3, #1047	; 0x417
     3a4:	3b0b3a0e 	blcc	2cebe4 <__bss_end__+0x2c48b4>
     3a8:	3f13490b 	svccc	0x0013490b
     3ac:	00193c19 	andseq	r3, r9, r9, lsl ip
     3b0:	012e1800 	teqeq	lr, r0, lsl #16
     3b4:	0e03193f 	mcreq	9, 0, r1, cr3, cr15, {1}
     3b8:	0b3b0b3a 	bleq	ec30a8 <__bss_end__+0xeb8d78>
     3bc:	13491927 	movtne	r1, #39207	; 0x9927
     3c0:	0000193c 	andeq	r1, r0, ip, lsr r9
     3c4:	01110100 	tsteq	r1, r0, lsl #2
     3c8:	0b130e25 	bleq	4c3c64 <__bss_end__+0x4b9934>
     3cc:	0e1b0e03 	cdpeq	14, 1, cr0, cr11, cr3, {0}
     3d0:	06120111 			; <UNDEFINED> instruction: 0x06120111
     3d4:	00001710 	andeq	r1, r0, r0, lsl r7
     3d8:	0b002402 	bleq	93e8 <gpio_write+0x64>
     3dc:	030b3e0b 	movweq	r3, #48651	; 0xbe0b
     3e0:	03000008 	movweq	r0, #8
     3e4:	0b0b0024 	bleq	2c047c <__bss_end__+0x2b614c>
     3e8:	0e030b3e 	vmoveq.16	d3[0], r0
     3ec:	2e040000 	cdpcs	0, 0, cr0, cr4, cr0, {0}
     3f0:	3a0e0301 	bcc	380ffc <__bss_end__+0x376ccc>
     3f4:	270b3b0b 	strcs	r3, [fp, -fp, lsl #22]
     3f8:	11134919 	tstne	r3, r9, lsl r9
     3fc:	40061201 	andmi	r1, r6, r1, lsl #4
     400:	19429718 	stmdbne	r2, {r3, r4, r8, r9, sl, ip, pc}^
     404:	00001301 	andeq	r1, r0, r1, lsl #6
     408:	03000505 	movweq	r0, #1285	; 0x505
     40c:	3b0b3a08 	blcc	2cec34 <__bss_end__+0x2c4904>
     410:	0213490b 	andseq	r4, r3, #180224	; 0x2c000
     414:	06000017 			; <UNDEFINED> instruction: 0x06000017
     418:	01018289 	smlabbeq	r1, r9, r2, r8
     41c:	13310111 	teqne	r1, #1073741828	; 0x40000004
     420:	8a070000 	bhi	1c0428 <__bss_end__+0x1b60f8>
     424:	02000182 	andeq	r0, r0, #-2147483616	; 0x80000020
     428:	18429118 	stmdane	r2, {r3, r4, r8, ip, pc}^
     42c:	2e080000 	cdpcs	0, 0, cr0, cr8, cr0, {0}
     430:	03193f00 	tsteq	r9, #0, 30
     434:	3b0b3a0e 	blcc	2cec74 <__bss_end__+0x2c4944>
     438:	1119270b 	tstne	r9, fp, lsl #14
     43c:	40061201 	andmi	r1, r6, r1, lsl #4
     440:	19429718 	stmdbne	r2, {r3, r4, r8, r9, sl, ip, pc}^
     444:	2e090000 	cdpcs	0, 0, cr0, cr9, cr0, {0}
     448:	03193f01 	tsteq	r9, #1, 30
     44c:	3b0b3a0e 	blcc	2cec8c <__bss_end__+0x2c495c>
     450:	1119270b 	tstne	r9, fp, lsl #14
     454:	40061201 	andmi	r1, r6, r1, lsl #4
     458:	19429718 	stmdbne	r2, {r3, r4, r8, r9, sl, ip, pc}^
     45c:	00001301 	andeq	r1, r0, r1, lsl #6
     460:	0300050a 	movweq	r0, #1290	; 0x50a
     464:	3b0b3a08 	blcc	2cec8c <__bss_end__+0x2c495c>
     468:	0213490b 	andseq	r4, r3, #180224	; 0x2c000
     46c:	0b000018 	bleq	4d4 <_start-0x7b2c>
     470:	19270115 	stmdbne	r7!, {r0, r2, r4, r8}
     474:	13011349 	movwne	r1, #4937	; 0x1349
     478:	050c0000 	streq	r0, [ip, #-0]
     47c:	00134900 	andseq	r4, r3, r0, lsl #18
     480:	000f0d00 	andeq	r0, pc, r0, lsl #26
     484:	13490b0b 	movtne	r0, #39691	; 0x9b0b
     488:	340e0000 	strcc	r0, [lr], #-0
     48c:	3a0e0300 	bcc	381094 <__bss_end__+0x376d64>
     490:	490b3b0b 	stmdbmi	fp, {r0, r1, r3, r8, r9, fp, ip, sp}
     494:	02193f13 	andseq	r3, r9, #19, 30	; 0x4c
     498:	0f000018 	svceq	0x00000018
     49c:	193f012e 	ldmdbne	pc!, {r1, r2, r3, r5, r8}	; <UNPREDICTABLE>
     4a0:	0b3a0e03 	bleq	e83cb4 <__bss_end__+0xe79984>
     4a4:	19270b3b 	stmdbne	r7!, {r0, r1, r3, r4, r5, r8, r9, fp}
     4a8:	0000193c 	andeq	r1, r0, ip, lsr r9
     4ac:	01110100 	tsteq	r1, r0, lsl #2
     4b0:	0b130e25 	bleq	4c3d4c <__bss_end__+0x4b9a1c>
     4b4:	0e1b0e03 	cdpeq	14, 1, cr0, cr11, cr3, {0}
     4b8:	06120111 			; <UNDEFINED> instruction: 0x06120111
     4bc:	00001710 	andeq	r1, r0, r0, lsl r7
     4c0:	0b002402 	bleq	94d0 <gpio_set_function+0xd4>
     4c4:	030b3e0b 	movweq	r3, #48651	; 0xbe0b
     4c8:	03000008 	movweq	r0, #8
     4cc:	0b0b0024 	bleq	2c0564 <__bss_end__+0x2b6234>
     4d0:	0e030b3e 	vmoveq.16	d3[0], r0
     4d4:	0f040000 	svceq	0x00040000
     4d8:	490b0b00 	stmdbmi	fp, {r8, r9, fp}
     4dc:	05000013 	streq	r0, [r0, #-19]
     4e0:	13490026 	movtne	r0, #36902	; 0x9026
     4e4:	2e060000 	cdpcs	0, 0, cr0, cr6, cr0, {0}
     4e8:	03193f01 	tsteq	r9, #1, 30
     4ec:	3b0b3a0e 	blcc	2ced2c <__bss_end__+0x2c49fc>
     4f0:	4919270b 	ldmdbmi	r9, {r0, r1, r3, r8, r9, sl, sp}
     4f4:	12011113 	andne	r1, r1, #-1073741820	; 0xc0000004
     4f8:	96184006 	ldrls	r4, [r8], -r6
     4fc:	13011942 	movwne	r1, #6466	; 0x1942
     500:	05070000 	streq	r0, [r7, #-0]
     504:	3a080300 	bcc	20110c <__bss_end__+0x1f6ddc>
     508:	490b3b0b 	stmdbmi	fp, {r0, r1, r3, r8, r9, fp, ip, sp}
     50c:	00170213 	andseq	r0, r7, r3, lsl r2
     510:	01150800 	tsteq	r5, r0, lsl #16
     514:	13491927 	movtne	r1, #39207	; 0x9927
     518:	00001301 	andeq	r1, r0, r1, lsl #6
     51c:	49000509 	stmdbmi	r0, {r0, r3, r8, sl}
     520:	0a000013 	beq	574 <_start-0x7a8c>
     524:	0e030034 	mcreq	0, 0, r0, cr3, cr4, {1}
     528:	0b3b0b3a 	bleq	ec3218 <__bss_end__+0xeb8ee8>
     52c:	193f1349 	ldmdbne	pc!, {r0, r3, r6, r8, r9, ip}	; <UNPREDICTABLE>
     530:	0000193c 	andeq	r1, r0, ip, lsr r9
     534:	0300340b 	movweq	r3, #1035	; 0x40b
     538:	3b0b3a0e 	blcc	2ced78 <__bss_end__+0x2c4a48>
     53c:	3f13490b 	svccc	0x0013490b
     540:	00180219 	andseq	r0, r8, r9, lsl r2
     544:	11010000 	mrsne	r0, (UNDEF: 1)
     548:	130e2501 	movwne	r2, #58625	; 0xe501
     54c:	1b0e030b 	blne	381180 <__bss_end__+0x376e50>
     550:	1201110e 	andne	r1, r1, #-2147483645	; 0x80000003
     554:	00171006 	andseq	r1, r7, r6
     558:	00240200 	eoreq	r0, r4, r0, lsl #4
     55c:	0b3e0b0b 	bleq	f83190 <__bss_end__+0xf78e60>
     560:	00000803 	andeq	r0, r0, r3, lsl #16
     564:	0b002403 	bleq	9578 <gpio_int_rising_edge+0x78>
     568:	030b3e0b 	movweq	r3, #48651	; 0xbe0b
     56c:	0400000e 	streq	r0, [r0], #-14
     570:	0b0b000f 	bleq	2c05b4 <__bss_end__+0x2b6284>
     574:	0f050000 	svceq	0x00050000
     578:	490b0b00 	stmdbmi	fp, {r8, r9, fp}
     57c:	06000013 			; <UNDEFINED> instruction: 0x06000013
     580:	13490026 	movtne	r0, #36902	; 0x9026
     584:	16070000 	strne	r0, [r7], -r0
     588:	3a0e0300 	bcc	381190 <__bss_end__+0x376e60>
     58c:	490b3b0b 	stmdbmi	fp, {r0, r1, r3, r8, r9, fp, ip, sp}
     590:	08000013 	stmdaeq	r0, {r0, r1, r4}
     594:	0e030113 	mcreq	1, 0, r0, cr3, cr3, {0}
     598:	0b3a0b0b 	bleq	e831cc <__bss_end__+0xe78e9c>
     59c:	13010b3b 	movwne	r0, #6971	; 0x1b3b
     5a0:	0d090000 	stceq	0, cr0, [r9, #-0]
     5a4:	490e0300 	stmdbmi	lr, {r8, r9}
     5a8:	340b3813 	strcc	r3, [fp], #-2067	; 0x813
     5ac:	0a000019 	beq	618 <_start-0x79e8>
     5b0:	0e03012e 	adfeqsp	f0, f3, #0.5
     5b4:	0b3b0b3a 	bleq	ec32a4 <__bss_end__+0xeb8f74>
     5b8:	13491927 	movtne	r1, #39207	; 0x9927
     5bc:	06120111 			; <UNDEFINED> instruction: 0x06120111
     5c0:	42971840 	addsmi	r1, r7, #64, 16	; 0x400000
     5c4:	00130119 	andseq	r0, r3, r9, lsl r1
     5c8:	00050b00 	andeq	r0, r5, r0, lsl #22
     5cc:	0b3a0803 	bleq	e825e0 <__bss_end__+0xe782b0>
     5d0:	13490b3b 	movtne	r0, #39739	; 0x9b3b
     5d4:	00001702 	andeq	r1, r0, r2, lsl #14
     5d8:	03012e0c 	movweq	r2, #7692	; 0x1e0c
     5dc:	3b0b3a08 	blcc	2cee04 <__bss_end__+0x2c4ad4>
     5e0:	4919270b 	ldmdbmi	r9, {r0, r1, r3, r8, r9, sl, sp}
     5e4:	12011113 	andne	r1, r1, #-1073741820	; 0xc0000004
     5e8:	97184006 	ldrls	r4, [r8, -r6]
     5ec:	13011942 	movwne	r1, #6466	; 0x1942
     5f0:	050d0000 	streq	r0, [sp, #-0]
     5f4:	3a0e0300 	bcc	3811fc <__bss_end__+0x376ecc>
     5f8:	490b3b0b 	stmdbmi	fp, {r0, r1, r3, r8, r9, fp, ip, sp}
     5fc:	00170213 	andseq	r0, r7, r3, lsl r2
     600:	00050e00 	andeq	r0, r5, r0, lsl #28
     604:	0b3a0e03 	bleq	e83e18 <__bss_end__+0xe79ae8>
     608:	13490b3b 	movtne	r0, #39739	; 0x9b3b
     60c:	00001802 	andeq	r1, r0, r2, lsl #16
     610:	0300340f 	movweq	r3, #1039	; 0x40f
     614:	3b0b3a08 	blcc	2cee3c <__bss_end__+0x2c4b0c>
     618:	0213490b 	andseq	r4, r3, #180224	; 0x2c000
     61c:	10000018 	andne	r0, r0, r8, lsl r0
     620:	08030034 	stmdaeq	r3, {r2, r4, r5}
     624:	0b3b0b3a 	bleq	ec3314 <__bss_end__+0xeb8fe4>
     628:	17021349 	strne	r1, [r2, -r9, asr #6]
     62c:	34110000 	ldrcc	r0, [r1], #-0
     630:	490e0300 	stmdbmi	lr, {r8, r9}
     634:	02193413 	andseq	r3, r9, #318767104	; 0x13000000
     638:	12000018 	andne	r0, r0, #24
     63c:	0111010b 	tsteq	r1, fp, lsl #2
     640:	13010612 	movwne	r0, #5650	; 0x1612
     644:	34130000 	ldrcc	r0, [r3], #-0
     648:	3a0e0300 	bcc	381250 <__bss_end__+0x376f20>
     64c:	490b3b0b 	stmdbmi	fp, {r0, r1, r3, r8, r9, fp, ip, sp}
     650:	00170213 	andseq	r0, r7, r3, lsl r2
     654:	82891400 	addhi	r1, r9, #0, 8
     658:	01110001 	tsteq	r1, r1
     65c:	00001331 	andeq	r1, r0, r1, lsr r3
     660:	01828915 	orreq	r8, r2, r5, lsl r9
     664:	31011101 	tstcc	r1, r1, lsl #2
     668:	00130113 	andseq	r0, r3, r3, lsl r1
     66c:	828a1600 	addhi	r1, sl, #0, 12
     670:	18020001 	stmdane	r2, {r0}
     674:	00184291 	mulseq	r8, r1, r2
     678:	82891700 	addhi	r1, r9, #0, 14
     67c:	01110101 	tsteq	r1, r1, lsl #2
     680:	00001331 	andeq	r1, r0, r1, lsr r3
     684:	49010118 	stmdbmi	r1, {r3, r4, r8}
     688:	00130113 	andseq	r0, r3, r3, lsl r1
     68c:	00211900 	eoreq	r1, r1, r0, lsl #18
     690:	0b2f1349 	bleq	bc53bc <__bss_end__+0xbbb08c>
     694:	2e1a0000 	cdpcs	0, 1, cr0, cr10, cr0, {0}
     698:	03193f01 	tsteq	r9, #1, 30
     69c:	3b0b3a0e 	blcc	2ceedc <__bss_end__+0x2c4bac>
     6a0:	1119270b 	tstne	r9, fp, lsl #14
     6a4:	40061201 	andmi	r1, r6, r1, lsl #4
     6a8:	19429718 	stmdbne	r2, {r3, r4, r8, r9, sl, ip, pc}^
     6ac:	00001301 	andeq	r1, r0, r1, lsl #6
     6b0:	2701151b 	smladcs	r1, fp, r5, r1
     6b4:	01134919 	tsteq	r3, r9, lsl r9
     6b8:	1c000013 	stcne	0, cr0, [r0], {19}
     6bc:	13490005 	movtne	r0, #36869	; 0x9005
     6c0:	2e1d0000 	cdpcs	0, 1, cr0, cr13, cr0, {0}
     6c4:	03193f01 	tsteq	r9, #1, 30
     6c8:	3b0b3a0e 	blcc	2cef08 <__bss_end__+0x2c4bd8>
     6cc:	4919270b 	ldmdbmi	r9, {r0, r1, r3, r8, r9, sl, sp}
     6d0:	12011113 	andne	r1, r1, #-1073741820	; 0xc0000004
     6d4:	97184006 	ldrls	r4, [r8, -r6]
     6d8:	13011942 	movwne	r1, #6466	; 0x1942
     6dc:	0b1e0000 	bleq	7806e4 <__bss_end__+0x7763b4>
     6e0:	00175501 	andseq	r5, r7, r1, lsl #10
     6e4:	00341f00 	eorseq	r1, r4, r0, lsl #30
     6e8:	0b3a0e03 	bleq	e83efc <__bss_end__+0xe79bcc>
     6ec:	13490b3b 	movtne	r0, #39739	; 0x9b3b
     6f0:	193c193f 	ldmdbne	ip!, {r0, r1, r2, r3, r4, r5, r8, fp, ip}
     6f4:	2e200000 	cdpcs	0, 2, cr0, cr0, cr0, {0}
     6f8:	03193f00 	tsteq	r9, #0, 30
     6fc:	3b0b3a0e 	blcc	2cef3c <__bss_end__+0x2c4c0c>
     700:	3c19270b 	ldccc	7, cr2, [r9], {11}
     704:	21000019 	tstcs	r0, r9, lsl r0
     708:	193f012e 	ldmdbne	pc!, {r1, r2, r3, r5, r8}	; <UNPREDICTABLE>
     70c:	0b3a0e03 	bleq	e83f20 <__bss_end__+0xe79bf0>
     710:	19270b3b 	stmdbne	r7!, {r0, r1, r3, r4, r5, r8, r9, fp}
     714:	193c1349 	ldmdbne	ip!, {r0, r3, r6, r8, r9, ip}
     718:	00001301 	andeq	r1, r0, r1, lsl #6
     71c:	00001822 	andeq	r1, r0, r2, lsr #16
     720:	11010000 	mrsne	r0, (UNDEF: 1)
     724:	130e2501 	movwne	r2, #58625	; 0xe501
     728:	1b0e030b 	blne	38135c <__bss_end__+0x37702c>
     72c:	1201110e 	andne	r1, r1, #-2147483645	; 0x80000003
     730:	00171006 	andseq	r1, r7, r6
     734:	00240200 	eoreq	r0, r4, r0, lsl #4
     738:	0b3e0b0b 	bleq	f8336c <__bss_end__+0xf7903c>
     73c:	00000803 	andeq	r0, r0, r3, lsl #16
     740:	0b002403 	bleq	9754 <rpi_putchar>
     744:	030b3e0b 	movweq	r3, #48651	; 0xbe0b
     748:	0400000e 	streq	r0, [r0], #-14
     74c:	0b0b000f 	bleq	2c0790 <__bss_end__+0x2b6460>
     750:	00001349 	andeq	r1, r0, r9, asr #6
     754:	49002605 	stmdbmi	r0, {r0, r2, r9, sl, sp}
     758:	06000013 			; <UNDEFINED> instruction: 0x06000013
     75c:	193f012e 	ldmdbne	pc!, {r1, r2, r3, r5, r8}	; <UNPREDICTABLE>
     760:	0b3a0e03 	bleq	e83f74 <__bss_end__+0xe79c44>
     764:	19270b3b 	stmdbne	r7!, {r0, r1, r3, r4, r5, r8, r9, fp}
     768:	06120111 			; <UNDEFINED> instruction: 0x06120111
     76c:	42971840 	addsmi	r1, r7, #64, 16	; 0x400000
     770:	00130119 	andseq	r0, r3, r9, lsl r1
     774:	82890700 	addhi	r0, r9, #0, 14
     778:	01110101 	tsteq	r1, r1, lsl #2
     77c:	00001301 	andeq	r1, r0, r1, lsl #6
     780:	01828a08 	orreq	r8, r2, r8, lsl #20
     784:	91180200 	tstls	r8, r0, lsl #4
     788:	00001842 	andeq	r1, r0, r2, asr #16
     78c:	01828909 	orreq	r8, r2, r9, lsl #18
     790:	31011101 	tstcc	r1, r1, lsl #2
     794:	00130113 	andseq	r0, r3, r3, lsl r1
     798:	82890a00 	addhi	r0, r9, #0, 20
     79c:	01110001 	tsteq	r1, r1
     7a0:	00001331 	andeq	r1, r0, r1, lsr r3
     7a4:	2701150b 	strcs	r1, [r1, -fp, lsl #10]
     7a8:	01134919 	tsteq	r3, r9, lsl r9
     7ac:	0c000013 	stceq	0, cr0, [r0], {19}
     7b0:	13490005 	movtne	r0, #36869	; 0x9005
     7b4:	340d0000 	strcc	r0, [sp], #-0
     7b8:	3a0e0300 	bcc	3813c0 <__bss_end__+0x377090>
     7bc:	490b3b0b 	stmdbmi	fp, {r0, r1, r3, r8, r9, fp, ip, sp}
     7c0:	3c193f13 	ldccc	15, cr3, [r9], {19}
     7c4:	0e000019 	mcreq	0, 0, r0, cr0, cr9, {0}
     7c8:	193f012e 	ldmdbne	pc!, {r1, r2, r3, r5, r8}	; <UNPREDICTABLE>
     7cc:	0b3a0e03 	bleq	e83fe0 <__bss_end__+0xe79cb0>
     7d0:	19270b3b 	stmdbne	r7!, {r0, r1, r3, r4, r5, r8, r9, fp}
     7d4:	1301193c 	movwne	r1, #6460	; 0x193c
     7d8:	2e0f0000 	cdpcs	0, 0, cr0, cr15, cr0, {0}
     7dc:	03193f00 	tsteq	r9, #0, 30
     7e0:	3b0b3a0e 	blcc	2cf020 <__bss_end__+0x2c4cf0>
     7e4:	3c19270b 	ldccc	7, cr2, [r9], {11}
     7e8:	00000019 	andeq	r0, r0, r9, lsl r0
     7ec:	25011101 	strcs	r1, [r1, #-257]	; 0x101
     7f0:	030b130e 	movweq	r1, #45838	; 0xb30e
     7f4:	110e1b0e 	tstne	lr, lr, lsl #22
     7f8:	10061201 	andne	r1, r6, r1, lsl #4
     7fc:	02000017 	andeq	r0, r0, #23
     800:	0b0b0024 	bleq	2c0898 <__bss_end__+0x2b6568>
     804:	08030b3e 	stmdaeq	r3, {r1, r2, r3, r4, r5, r8, r9, fp}
     808:	24030000 	strcs	r0, [r3], #-0
     80c:	3e0b0b00 	vmlacc.f64	d0, d11, d0
     810:	000e030b 	andeq	r0, lr, fp, lsl #6
     814:	00160400 	andseq	r0, r6, r0, lsl #8
     818:	0b3a0e03 	bleq	e8402c <__bss_end__+0xe79cfc>
     81c:	13490b3b 	movtne	r0, #39739	; 0x9b3b
     820:	0f050000 	svceq	0x00050000
     824:	490b0b00 	stmdbmi	fp, {r8, r9, fp}
     828:	06000013 			; <UNDEFINED> instruction: 0x06000013
     82c:	13490026 	movtne	r0, #36902	; 0x9026
     830:	13070000 	movwne	r0, #28672	; 0x7000
     834:	3a0b0b01 	bcc	2c3440 <__bss_end__+0x2b9110>
     838:	010b3b0b 	tsteq	fp, fp, lsl #22
     83c:	08000013 	stmdaeq	r0, {r0, r1, r4}
     840:	0803000d 	stmdaeq	r3, {r0, r2, r3}
     844:	0b3b0b3a 	bleq	ec3534 <__bss_end__+0xeb9204>
     848:	0b381349 	bleq	e05574 <__bss_end__+0xdfb244>
     84c:	0d090000 	stceq	0, cr0, [r9, #-0]
     850:	3a0e0300 	bcc	381458 <__bss_end__+0x377128>
     854:	490b3b0b 	stmdbmi	fp, {r0, r1, r3, r8, r9, fp, ip, sp}
     858:	000b3813 	andeq	r3, fp, r3, lsl r8
     85c:	01040a00 	tsteq	r4, r0, lsl #20
     860:	0b3a0b0b 	bleq	e83494 <__bss_end__+0xe79164>
     864:	13010b3b 	movwne	r0, #6971	; 0x1b3b
     868:	280b0000 	stmdacs	fp, {}	; <UNPREDICTABLE>
     86c:	1c0e0300 	stcne	3, cr0, [lr], {-0}
     870:	0c00000d 	stceq	0, cr0, [r0], {13}
     874:	0e03012e 	adfeqsp	f0, f3, #0.5
     878:	0b3b0b3a 	bleq	ec3568 <__bss_end__+0xeb9238>
     87c:	13491927 	movtne	r1, #39207	; 0x9927
     880:	06120111 			; <UNDEFINED> instruction: 0x06120111
     884:	42971840 	addsmi	r1, r7, #64, 16	; 0x400000
     888:	00130119 	andseq	r0, r3, r9, lsl r1
     88c:	00050d00 	andeq	r0, r5, r0, lsl #26
     890:	0b3a0803 	bleq	e828a4 <__bss_end__+0xe78574>
     894:	13490b3b 	movtne	r0, #39739	; 0x9b3b
     898:	00001702 	andeq	r1, r0, r2, lsl #14
     89c:	0182890e 	orreq	r8, r2, lr, lsl #18
     8a0:	31011101 	tstcc	r1, r1, lsl #2
     8a4:	0f000013 	svceq	0x00000013
     8a8:	0001828a 	andeq	r8, r1, sl, lsl #5
     8ac:	42911802 	addsmi	r1, r1, #131072	; 0x20000
     8b0:	10000018 	andne	r0, r0, r8, lsl r0
     8b4:	193f012e 	ldmdbne	pc!, {r1, r2, r3, r5, r8}	; <UNPREDICTABLE>
     8b8:	0b3a0e03 	bleq	e840cc <__bss_end__+0xe79d9c>
     8bc:	01110b3b 	tsteq	r1, fp, lsr fp
     8c0:	18400612 	stmdane	r0, {r1, r4, r9, sl}^
     8c4:	01194297 			; <UNDEFINED> instruction: 0x01194297
     8c8:	11000013 	tstne	r0, r3, lsl r0
     8cc:	0e030034 	mcreq	0, 0, r0, cr3, cr4, {1}
     8d0:	0b3b0b3a 	bleq	ec35c0 <__bss_end__+0xeb9290>
     8d4:	193f1349 	ldmdbne	pc!, {r0, r3, r6, r8, r9, ip}	; <UNPREDICTABLE>
     8d8:	0000193c 	andeq	r1, r0, ip, lsr r9
     8dc:	3f002e12 	svccc	0x00002e12
     8e0:	3a0e0319 	bcc	38154c <__bss_end__+0x37721c>
     8e4:	270b3b0b 	strcs	r3, [fp, -fp, lsl #22]
     8e8:	00193c19 	andseq	r3, r9, r9, lsl ip
     8ec:	00341300 	eorseq	r1, r4, r0, lsl #6
     8f0:	0b3a0803 	bleq	e82904 <__bss_end__+0xe785d4>
     8f4:	13490b3b 	movtne	r0, #39739	; 0x9b3b
     8f8:	00001702 	andeq	r1, r0, r2, lsl #14
     8fc:	03003414 	movweq	r3, #1044	; 0x414
     900:	3b0b3a0e 	blcc	2cf140 <__bss_end__+0x2c4e10>
     904:	0013490b 	andseq	r4, r3, fp, lsl #18
     908:	82891500 	addhi	r1, r9, #0, 10
     90c:	01110001 	tsteq	r1, r1
     910:	00001331 	andeq	r1, r0, r1, lsr r3
     914:	01828916 	orreq	r8, r2, r6, lsl r9
     918:	31011101 	tstcc	r1, r1, lsl #2
     91c:	00130113 	andseq	r0, r3, r3, lsl r1
     920:	00341700 	eorseq	r1, r4, r0, lsl #14
     924:	0b3a0e03 	bleq	e84138 <__bss_end__+0xe79e08>
     928:	13490b3b 	movtne	r0, #39739	; 0x9b3b
     92c:	00001802 	andeq	r1, r0, r2, lsl #16
     930:	27011518 	smladcs	r1, r8, r5, r1
     934:	01134919 	tsteq	r3, r9, lsl r9
     938:	19000013 	stmdbne	r0, {r0, r1, r4}
     93c:	13490005 	movtne	r0, #36869	; 0x9005
     940:	2e1a0000 	cdpcs	0, 1, cr0, cr10, cr0, {0}
     944:	03193f01 	tsteq	r9, #1, 30
     948:	3b0b3a0e 	blcc	2cf188 <__bss_end__+0x2c4e58>
     94c:	3c19270b 	ldccc	7, cr2, [r9], {11}
     950:	00130119 	andseq	r0, r3, r9, lsl r1
     954:	002e1b00 	eoreq	r1, lr, r0, lsl #22
     958:	0e03193f 	mcreq	9, 0, r1, cr3, cr15, {1}
     95c:	0b3b0b3a 	bleq	ec364c <__bss_end__+0xeb931c>
     960:	13491927 	movtne	r1, #39207	; 0x9927
     964:	0000193c 	andeq	r1, r0, ip, lsr r9
     968:	3f012e1c 	svccc	0x00012e1c
     96c:	3a0e0319 	bcc	3815d8 <__bss_end__+0x3772a8>
     970:	270b3b0b 	strcs	r3, [fp, -fp, lsl #22]
     974:	3c134919 	ldccc	9, cr4, [r3], {25}
     978:	00130119 	andseq	r0, r3, r9, lsl r1
     97c:	00181d00 	andseq	r1, r8, r0, lsl #26
     980:	01000000 	mrseq	r0, (UNDEF: 0)
     984:	0e250111 	mcreq	1, 1, r0, cr5, cr1, {0}
     988:	0e030b13 	vmoveq.32	d3[0], r0
     98c:	17550e1b 	smmlane	r5, fp, lr, r0
     990:	17100111 			; <UNDEFINED> instruction: 0x17100111
     994:	24020000 	strcs	r0, [r2], #-0
     998:	3e0b0b00 	vmlacc.f64	d0, d11, d0
     99c:	0008030b 	andeq	r0, r8, fp, lsl #6
     9a0:	00240300 	eoreq	r0, r4, r0, lsl #6
     9a4:	0b3e0b0b 	bleq	f835d8 <__bss_end__+0xf792a8>
     9a8:	00000e03 	andeq	r0, r0, r3, lsl #28
     9ac:	3f012e04 	svccc	0x00012e04
     9b0:	3a0e0319 	bcc	38161c <__bss_end__+0x3772ec>
     9b4:	270b3b0b 	strcs	r3, [fp, -fp, lsl #22]
     9b8:	11134919 	tstne	r3, r9, lsl r9
     9bc:	40061201 	andmi	r1, r6, r1, lsl #4
     9c0:	19429718 	stmdbne	r2, {r3, r4, r8, r9, sl, ip, pc}^
     9c4:	00001301 	andeq	r1, r0, r1, lsl #6
     9c8:	03003405 	movweq	r3, #1029	; 0x405
     9cc:	3b0b3a0e 	blcc	2cf20c <__bss_end__+0x2c4edc>
     9d0:	0213490b 	andseq	r4, r3, #180224	; 0x2c000
     9d4:	06000017 			; <UNDEFINED> instruction: 0x06000017
     9d8:	193f012e 	ldmdbne	pc!, {r1, r2, r3, r5, r8}	; <UNPREDICTABLE>
     9dc:	0b3a0e03 	bleq	e841f0 <__bss_end__+0xe79ec0>
     9e0:	19270b3b 	stmdbne	r7!, {r0, r1, r3, r4, r5, r8, r9, fp}
     9e4:	06120111 			; <UNDEFINED> instruction: 0x06120111
     9e8:	42971840 	addsmi	r1, r7, #64, 16	; 0x400000
     9ec:	00130119 	andseq	r0, r3, r9, lsl r1
     9f0:	00340700 	eorseq	r0, r4, r0, lsl #14
     9f4:	0b3a0e03 	bleq	e84208 <__bss_end__+0xe79ed8>
     9f8:	13490b3b 	movtne	r0, #39739	; 0x9b3b
     9fc:	0000061c 	andeq	r0, r0, ip, lsl r6
     a00:	03003408 	movweq	r3, #1032	; 0x408
     a04:	3b0b3a0e 	blcc	2cf244 <__bss_end__+0x2c4f14>
     a08:	1c13490b 	ldcne	9, cr4, [r3], {11}
     a0c:	0900000b 	stmdbeq	r0, {r0, r1, r3}
     a10:	00018289 	andeq	r8, r1, r9, lsl #5
     a14:	13310111 	teqne	r1, #1073741828	; 0x40000004
     a18:	890a0000 	stmdbhi	sl, {}	; <UNPREDICTABLE>
     a1c:	11010182 	smlabbne	r1, r2, r1, r0
     a20:	01133101 	tsteq	r3, r1, lsl #2
     a24:	0b000013 	bleq	a78 <_start-0x7588>
     a28:	0001828a 	andeq	r8, r1, sl, lsl #5
     a2c:	42911802 	addsmi	r1, r1, #131072	; 0x20000
     a30:	0c000018 	stceq	0, cr0, [r0], {24}
     a34:	01018289 	smlabbeq	r1, r9, r2, r8
     a38:	13310111 	teqne	r1, #1073741828	; 0x40000004
     a3c:	260d0000 	strcs	r0, [sp], -r0
     a40:	00134900 	andseq	r4, r3, r0, lsl #18
     a44:	012e0e00 	teqeq	lr, r0, lsl #28
     a48:	0e03193f 	mcreq	9, 0, r1, cr3, cr15, {1}
     a4c:	0b3b0b3a 	bleq	ec373c <__bss_end__+0xeb940c>
     a50:	193c1927 	ldmdbne	ip!, {r0, r1, r2, r5, r8, fp, ip}
     a54:	00001301 	andeq	r1, r0, r1, lsl #6
     a58:	4900050f 	stmdbmi	r0, {r0, r1, r2, r3, r8, sl}
     a5c:	10000013 	andne	r0, r0, r3, lsl r0
     a60:	193f012e 	ldmdbne	pc!, {r1, r2, r3, r5, r8}	; <UNPREDICTABLE>
     a64:	0b3a0e03 	bleq	e84278 <__bss_end__+0xe79f48>
     a68:	19270b3b 	stmdbne	r7!, {r0, r1, r3, r4, r5, r8, r9, fp}
     a6c:	0000193c 	andeq	r1, r0, ip, lsr r9
     a70:	01110100 	tsteq	r1, r0, lsl #2
     a74:	0b130e25 	bleq	4c4310 <__bss_end__+0x4b9fe0>
     a78:	0e1b0e03 	cdpeq	14, 1, cr0, cr11, cr3, {0}
     a7c:	06120111 			; <UNDEFINED> instruction: 0x06120111
     a80:	00001710 	andeq	r1, r0, r0, lsl r7
     a84:	0b002402 	bleq	9a94 <crc32_tab+0x1fc>
     a88:	030b3e0b 	movweq	r3, #48651	; 0xbe0b
     a8c:	03000008 	movweq	r0, #8
     a90:	0b0b0024 	bleq	2c0b28 <__bss_end__+0x2b67f8>
     a94:	0e030b3e 	vmoveq.16	d3[0], r0
     a98:	2e040000 	cdpcs	0, 0, cr0, cr4, cr0, {0}
     a9c:	03193f01 	tsteq	r9, #1, 30
     aa0:	3b0b3a0e 	blcc	2cf2e0 <__bss_end__+0x2c4fb0>
     aa4:	1119270b 	tstne	r9, fp, lsl #14
     aa8:	40061201 	andmi	r1, r6, r1, lsl #4
     aac:	19429718 	stmdbne	r2, {r3, r4, r8, r9, sl, ip, pc}^
     ab0:	00001301 	andeq	r1, r0, r1, lsl #6
     ab4:	03000505 	movweq	r0, #1285	; 0x505
     ab8:	3b0b3a0e 	blcc	2cf2f8 <__bss_end__+0x2c4fc8>
     abc:	0213490b 	andseq	r4, r3, #180224	; 0x2c000
     ac0:	06000017 			; <UNDEFINED> instruction: 0x06000017
     ac4:	193f012e 	ldmdbne	pc!, {r1, r2, r3, r5, r8}	; <UNPREDICTABLE>
     ac8:	0b3a0e03 	bleq	e842dc <__bss_end__+0xe79fac>
     acc:	19270b3b 	stmdbne	r7!, {r0, r1, r3, r4, r5, r8, r9, fp}
     ad0:	01111349 	tsteq	r1, r9, asr #6
     ad4:	18400612 	stmdane	r0, {r1, r4, r9, sl}^
     ad8:	01194297 			; <UNDEFINED> instruction: 0x01194297
     adc:	07000013 	smladeq	r0, r3, r0, r0
     ae0:	01018289 	smlabbeq	r1, r9, r2, r8
     ae4:	13310111 	teqne	r1, #1073741828	; 0x40000004
     ae8:	8a080000 	bhi	200af0 <__bss_end__+0x1f67c0>
     aec:	02000182 	andeq	r0, r0, #-2147483616	; 0x80000020
     af0:	18429118 	stmdane	r2, {r3, r4, r8, ip, pc}^
     af4:	34090000 	strcc	r0, [r9], #-0
     af8:	3a080300 	bcc	201700 <__bss_end__+0x1f73d0>
     afc:	490b3b0b 	stmdbmi	fp, {r0, r1, r3, r8, r9, fp, ip, sp}
     b00:	00180213 	andseq	r0, r8, r3, lsl r2
     b04:	82890a00 	addhi	r0, r9, #0, 20
     b08:	01110001 	tsteq	r1, r1
     b0c:	00001331 	andeq	r1, r0, r1, lsr r3
     b10:	0300050b 	movweq	r0, #1291	; 0x50b
     b14:	3b0b3a08 	blcc	2cf33c <__bss_end__+0x2c500c>
     b18:	0213490b 	andseq	r4, r3, #180224	; 0x2c000
     b1c:	0c000017 	stceq	0, cr0, [r0], {23}
     b20:	0111010b 	tsteq	r1, fp, lsl #2
     b24:	13010612 	movwne	r0, #5650	; 0x1612
     b28:	340d0000 	strcc	r0, [sp], #-0
     b2c:	3a080300 	bcc	201734 <__bss_end__+0x1f7404>
     b30:	490b3b0b 	stmdbmi	fp, {r0, r1, r3, r8, r9, fp, ip, sp}
     b34:	00170213 	andseq	r0, r7, r3, lsl r2
     b38:	012e0e00 	teqeq	lr, r0, lsl #28
     b3c:	0e03193f 	mcreq	9, 0, r1, cr3, cr15, {1}
     b40:	0b3b0b3a 	bleq	ec3830 <__bss_end__+0xeb9500>
     b44:	13491927 	movtne	r1, #39207	; 0x9927
     b48:	0000193c 	andeq	r1, r0, ip, lsr r9
     b4c:	4900050f 	stmdbmi	r0, {r0, r1, r2, r3, r8, sl}
     b50:	00000013 	andeq	r0, r0, r3, lsl r0
     b54:	25011101 	strcs	r1, [r1, #-257]	; 0x101
     b58:	030b130e 	movweq	r1, #45838	; 0xb30e
     b5c:	110e1b0e 	tstne	lr, lr, lsl #22
     b60:	10061201 	andne	r1, r6, r1, lsl #4
     b64:	02000017 	andeq	r0, r0, #23
     b68:	0b0b0024 	bleq	2c0c00 <__bss_end__+0x2b68d0>
     b6c:	08030b3e 	stmdaeq	r3, {r1, r2, r3, r4, r5, r8, r9, fp}
     b70:	24030000 	strcs	r0, [r3], #-0
     b74:	3e0b0b00 	vmlacc.f64	d0, d11, d0
     b78:	000e030b 	andeq	r0, lr, fp, lsl #6
     b7c:	00160400 	andseq	r0, r6, r0, lsl #8
     b80:	0b3a0e03 	bleq	e84394 <__bss_end__+0xe7a064>
     b84:	13490b3b 	movtne	r0, #39739	; 0x9b3b
     b88:	0f050000 	svceq	0x00050000
     b8c:	000b0b00 	andeq	r0, fp, r0, lsl #22
     b90:	000f0600 	andeq	r0, pc, r0, lsl #12
     b94:	13490b0b 	movtne	r0, #39691	; 0x9b0b
     b98:	26070000 	strcs	r0, [r7], -r0
     b9c:	00134900 	andseq	r4, r3, r0, lsl #18
     ba0:	01130800 	tsteq	r3, r0, lsl #16
     ba4:	0b3a0b0b 	bleq	e837d8 <__bss_end__+0xe794a8>
     ba8:	13010b3b 	movwne	r0, #6971	; 0x1b3b
     bac:	0d090000 	stceq	0, cr0, [r9, #-0]
     bb0:	3a080300 	bcc	2017b8 <__bss_end__+0x1f7488>
     bb4:	490b3b0b 	stmdbmi	fp, {r0, r1, r3, r8, r9, fp, ip, sp}
     bb8:	000b3813 	andeq	r3, fp, r3, lsl r8
     bbc:	000d0a00 	andeq	r0, sp, r0, lsl #20
     bc0:	0b3a0e03 	bleq	e843d4 <__bss_end__+0xe7a0a4>
     bc4:	13490b3b 	movtne	r0, #39739	; 0x9b3b
     bc8:	00000b38 	andeq	r0, r0, r8, lsr fp
     bcc:	0301130b 	movweq	r1, #4875	; 0x130b
     bd0:	3a0b0b0e 	bcc	2c3810 <__bss_end__+0x2b94e0>
     bd4:	010b3b0b 	tsteq	fp, fp, lsl #22
     bd8:	0c000013 	stceq	0, cr0, [r0], {19}
     bdc:	0e03000d 	cdpeq	0, 0, cr0, cr3, cr13, {0}
     be0:	0b381349 	bleq	e0590c <__bss_end__+0xdfb5dc>
     be4:	00001934 	andeq	r1, r0, r4, lsr r9
     be8:	03012e0d 	movweq	r2, #7693	; 0x1e0d
     bec:	3b0b3a0e 	blcc	2cf42c <__bss_end__+0x2c50fc>
     bf0:	2019270b 	andscs	r2, r9, fp, lsl #14
     bf4:	0013010b 	andseq	r0, r3, fp, lsl #2
     bf8:	00050e00 	andeq	r0, r5, r0, lsl #28
     bfc:	0b3a0e03 	bleq	e84410 <__bss_end__+0xe7a0e0>
     c00:	13490b3b 	movtne	r0, #39739	; 0x9b3b
     c04:	050f0000 	streq	r0, [pc, #-0]	; c0c <_start-0x73f4>
     c08:	3a080300 	bcc	201810 <__bss_end__+0x1f74e0>
     c0c:	490b3b0b 	stmdbmi	fp, {r0, r1, r3, r8, r9, fp, ip, sp}
     c10:	10000013 	andne	r0, r0, r3, lsl r0
     c14:	0000010b 	andeq	r0, r0, fp, lsl #2
     c18:	03003411 	movweq	r3, #1041	; 0x411
     c1c:	3b0b3a0e 	blcc	2cf45c <__bss_end__+0x2c512c>
     c20:	0013490b 	andseq	r4, r3, fp, lsl #18
     c24:	012e1200 	teqeq	lr, r0, lsl #4
     c28:	0e03193f 	mcreq	9, 0, r1, cr3, cr15, {1}
     c2c:	0b3b0b3a 	bleq	ec391c <__bss_end__+0xeb95ec>
     c30:	01111927 	tsteq	r1, r7, lsr #18
     c34:	18400612 	stmdane	r0, {r1, r4, r9, sl}^
     c38:	01194297 			; <UNDEFINED> instruction: 0x01194297
     c3c:	13000013 	movwne	r0, #19
     c40:	0e030005 	cdpeq	0, 0, cr0, cr3, cr5, {0}
     c44:	0b3b0b3a 	bleq	ec3934 <__bss_end__+0xeb9604>
     c48:	17021349 	strne	r1, [r2, -r9, asr #6]
     c4c:	05140000 	ldreq	r0, [r4, #-0]
     c50:	3a080300 	bcc	201858 <__bss_end__+0x1f7528>
     c54:	490b3b0b 	stmdbmi	fp, {r0, r1, r3, r8, r9, fp, ip, sp}
     c58:	00170213 	andseq	r0, r7, r3, lsl r2
     c5c:	00341500 	eorseq	r1, r4, r0, lsl #10
     c60:	0b3a0803 	bleq	e82c74 <__bss_end__+0xe78944>
     c64:	13490b3b 	movtne	r0, #39739	; 0x9b3b
     c68:	00001802 	andeq	r1, r0, r2, lsl #16
     c6c:	03003416 	movweq	r3, #1046	; 0x416
     c70:	3b0b3a08 	blcc	2cf498 <__bss_end__+0x2c5168>
     c74:	0213490b 	andseq	r4, r3, #180224	; 0x2c000
     c78:	17000017 	smladne	r0, r7, r0, r0
     c7c:	0111010b 	tsteq	r1, fp, lsl #2
     c80:	13010612 	movwne	r0, #5650	; 0x1612
     c84:	34180000 	ldrcc	r0, [r8], #-0
     c88:	3a0e0300 	bcc	381890 <__bss_end__+0x377560>
     c8c:	490b3b0b 	stmdbmi	fp, {r0, r1, r3, r8, r9, fp, ip, sp}
     c90:	00180213 	andseq	r0, r8, r3, lsl r2
     c94:	011d1900 	tsteq	sp, r0, lsl #18
     c98:	01111331 	tsteq	r1, r1, lsr r3
     c9c:	0b580612 	bleq	16024ec <__bss_end__+0x15f81bc>
     ca0:	13010b59 	movwne	r0, #7001	; 0x1b59
     ca4:	051a0000 	ldreq	r0, [sl, #-0]
     ca8:	02133100 	andseq	r3, r3, #0, 2
     cac:	1b000017 	blne	d10 <_start-0x72f0>
     cb0:	13310005 	teqne	r1, #5
     cb4:	00001802 	andeq	r1, r0, r2, lsl #16
     cb8:	3100051c 	tstcc	r0, ip, lsl r5
     cbc:	000b1c13 	andeq	r1, fp, r3, lsl ip
     cc0:	010b1d00 	tsteq	fp, r0, lsl #26
     cc4:	06120111 			; <UNDEFINED> instruction: 0x06120111
     cc8:	341e0000 	ldrcc	r0, [lr], #-0
     ccc:	02133100 	andseq	r3, r3, #0, 2
     cd0:	1f000017 	svcne	0x00000017
     cd4:	01018289 	smlabbeq	r1, r9, r2, r8
     cd8:	13310111 	teqne	r1, #1073741828	; 0x40000004
     cdc:	8a200000 	bhi	800ce4 <__bss_end__+0x7f69b4>
     ce0:	02000182 	andeq	r0, r0, #-2147483616	; 0x80000020
     ce4:	18429118 	stmdane	r2, {r3, r4, r8, ip, pc}^
     ce8:	1d210000 	stcne	0, cr0, [r1, #-0]
     cec:	11133101 	tstne	r3, r1, lsl #2
     cf0:	58061201 	stmdapl	r6, {r0, r9, ip}
     cf4:	000b590b 	andeq	r5, fp, fp, lsl #18
     cf8:	012e2200 	teqeq	lr, r0, lsl #4
     cfc:	0b3a0e03 	bleq	e84510 <__bss_end__+0xe7a1e0>
     d00:	19270b3b 	stmdbne	r7!, {r0, r1, r3, r4, r5, r8, r9, fp}
     d04:	0b201349 	bleq	805a30 <__bss_end__+0x7fb700>
     d08:	00001301 	andeq	r1, r0, r1, lsl #6
     d0c:	3f012e23 	svccc	0x00012e23
     d10:	3a0e0319 	bcc	38197c <__bss_end__+0x37764c>
     d14:	270b3b0b 	strcs	r3, [fp, -fp, lsl #22]
     d18:	11134919 	tstne	r3, r9, lsl r9
     d1c:	40061201 	andmi	r1, r6, r1, lsl #4
     d20:	19429718 	stmdbne	r2, {r3, r4, r8, r9, sl, ip, pc}^
     d24:	00001301 	andeq	r1, r0, r1, lsl #6
     d28:	01828924 	orreq	r8, r2, r4, lsr #18
     d2c:	31011100 	mrscc	r1, (UNDEF: 17)
     d30:	25000013 	strcs	r0, [r0, #-19]
     d34:	01018289 	smlabbeq	r1, r9, r2, r8
     d38:	13310111 	teqne	r1, #1073741828	; 0x40000004
     d3c:	00001301 	andeq	r1, r0, r1, lsl #6
     d40:	03003426 	movweq	r3, #1062	; 0x426
     d44:	3b0b3a0e 	blcc	2cf584 <__bss_end__+0x2c5254>
     d48:	0213490b 	andseq	r4, r3, #180224	; 0x2c000
     d4c:	27000017 	smladcs	r0, r7, r0, r0
     d50:	13310005 	teqne	r1, #5
     d54:	05280000 	streq	r0, [r8, #-0]!
     d58:	3a0e0300 	bcc	381960 <__bss_end__+0x377630>
     d5c:	490b3b0b 	stmdbmi	fp, {r0, r1, r3, r8, r9, fp, ip, sp}
     d60:	00180213 	andseq	r0, r8, r3, lsl r2
     d64:	00342900 	eorseq	r2, r4, r0, lsl #18
     d68:	13490e03 	movtne	r0, #40451	; 0x9e03
     d6c:	18021934 	stmdane	r2, {r2, r4, r5, r8, fp, ip}
     d70:	012a0000 	teqeq	sl, r0
     d74:	01134901 	tsteq	r3, r1, lsl #18
     d78:	2b000013 	blcs	dcc <_start-0x7234>
     d7c:	13490021 	movtne	r0, #36897	; 0x9021
     d80:	00000b2f 	andeq	r0, r0, pc, lsr #22
     d84:	0300342c 	movweq	r3, #1068	; 0x42c
     d88:	3b0b3a08 	blcc	2cf5b0 <__bss_end__+0x2c5280>
     d8c:	1c13490b 	ldcne	9, cr4, [r3], {11}
     d90:	2d000006 	stccs	0, cr0, [r0, #-24]	; 0xffffffe8
     d94:	08030034 	stmdaeq	r3, {r2, r4, r5}
     d98:	0b3b0b3a 	bleq	ec3a88 <__bss_end__+0xeb9758>
     d9c:	0b1c1349 	bleq	705ac8 <__bss_end__+0x6fb798>
     da0:	052e0000 	streq	r0, [lr, #-0]!
     da4:	3a080300 	bcc	2019ac <__bss_end__+0x1f767c>
     da8:	490b3b0b 	stmdbmi	fp, {r0, r1, r3, r8, r9, fp, ip, sp}
     dac:	00180213 	andseq	r0, r8, r3, lsl r2
     db0:	00182f00 	andseq	r2, r8, r0, lsl #30
     db4:	21300000 	teqcs	r0, r0
     db8:	2f134900 	svccs	0x00134900
     dbc:	31000005 	tstcc	r0, r5
     dc0:	193f012e 	ldmdbne	pc!, {r1, r2, r3, r5, r8}	; <UNPREDICTABLE>
     dc4:	0b3a0e03 	bleq	e845d8 <__bss_end__+0xe7a2a8>
     dc8:	19270b3b 	stmdbne	r7!, {r0, r1, r3, r4, r5, r8, r9, fp}
     dcc:	1301193c 	movwne	r1, #6460	; 0x193c
     dd0:	05320000 	ldreq	r0, [r2, #-0]!
     dd4:	00134900 	andseq	r4, r3, r0, lsl #18
     dd8:	002e3300 	eoreq	r3, lr, r0, lsl #6
     ddc:	0e03193f 	mcreq	9, 0, r1, cr3, cr15, {1}
     de0:	0b3b0b3a 	bleq	ec3ad0 <__bss_end__+0xeb97a0>
     de4:	13491927 	movtne	r1, #39207	; 0x9927
     de8:	0000193c 	andeq	r1, r0, ip, lsr r9
     dec:	3f012e34 	svccc	0x00012e34
     df0:	3a0e0319 	bcc	381a5c <__bss_end__+0x37772c>
     df4:	270b3b0b 	strcs	r3, [fp, -fp, lsl #22]
     df8:	3c134919 	ldccc	9, cr4, [r3], {25}
     dfc:	00130119 	andseq	r0, r3, r9, lsl r1
     e00:	002e3500 	eoreq	r3, lr, r0, lsl #10
     e04:	0e03193f 	mcreq	9, 0, r1, cr3, cr15, {1}
     e08:	0b3b0b3a 	bleq	ec3af8 <__bss_end__+0xeb97c8>
     e0c:	193c1927 	ldmdbne	ip!, {r0, r1, r2, r5, r8, fp, ip}
     e10:	2e360000 	cdpcs	0, 3, cr0, cr6, cr0, {0}
     e14:	03193f01 	tsteq	r9, #1, 30
     e18:	3b0b3a0e 	blcc	2cf658 <__bss_end__+0x2c5328>
     e1c:	4919270b 	ldmdbmi	r9, {r0, r1, r3, r8, r9, sl, sp}
     e20:	00193c13 	andseq	r3, r9, r3, lsl ip
     e24:	11010000 	mrsne	r0, (UNDEF: 1)
     e28:	130e2501 	movwne	r2, #58625	; 0xe501
     e2c:	1b0e030b 	blne	381a60 <__bss_end__+0x377730>
     e30:	1201110e 	andne	r1, r1, #-2147483645	; 0x80000003
     e34:	00171006 	andseq	r1, r7, r6
     e38:	00240200 	eoreq	r0, r4, r0, lsl #4
     e3c:	0b3e0b0b 	bleq	f83a70 <__bss_end__+0xf79740>
     e40:	00000803 	andeq	r0, r0, r3, lsl #16
     e44:	0b002403 	bleq	9e58 <__FUNCTION__.4327+0x20>
     e48:	030b3e0b 	movweq	r3, #48651	; 0xbe0b
     e4c:	0400000e 	streq	r0, [r0], #-14
     e50:	0b0b0104 	bleq	2c1268 <__bss_end__+0x2b6f38>
     e54:	0b3b0b3a 	bleq	ec3b44 <__bss_end__+0xeb9814>
     e58:	00001301 	andeq	r1, r0, r1, lsl #6
     e5c:	03002805 	movweq	r2, #2053	; 0x805
     e60:	000d1c0e 	andeq	r1, sp, lr, lsl #24
     e64:	00160600 	andseq	r0, r6, r0, lsl #12
     e68:	0b3a0e03 	bleq	e8467c <__bss_end__+0xe7a34c>
     e6c:	13490b3b 	movtne	r0, #39739	; 0x9b3b
     e70:	2e070000 	cdpcs	0, 0, cr0, cr7, cr0, {0}
     e74:	03193f01 	tsteq	r9, #1, 30
     e78:	3b0b3a0e 	blcc	2cf6b8 <__bss_end__+0x2c5388>
     e7c:	1119270b 	tstne	r9, fp, lsl #14
     e80:	40061201 	andmi	r1, r6, r1, lsl #4
     e84:	19429718 	stmdbne	r2, {r3, r4, r8, r9, sl, ip, pc}^
     e88:	00001301 	andeq	r1, r0, r1, lsl #6
     e8c:	01828908 	orreq	r8, r2, r8, lsl #18
     e90:	31011100 	mrscc	r1, (UNDEF: 17)
     e94:	09000013 	stmdbeq	r0, {r0, r1, r4}
     e98:	01018289 	smlabbeq	r1, r9, r2, r8
     e9c:	13310111 	teqne	r1, #1073741828	; 0x40000004
     ea0:	00001301 	andeq	r1, r0, r1, lsl #6
     ea4:	01828a0a 	orreq	r8, r2, sl, lsl #20
     ea8:	91180200 	tstls	r8, r0, lsl #4
     eac:	00001842 	andeq	r1, r0, r2, asr #16
     eb0:	3f012e0b 	svccc	0x00012e0b
     eb4:	3a0e0319 	bcc	381b20 <__bss_end__+0x3777f0>
     eb8:	270b3b0b 	strcs	r3, [fp, -fp, lsl #22]
     ebc:	11134919 	tstne	r3, r9, lsl r9
     ec0:	40061201 	andmi	r1, r6, r1, lsl #4
     ec4:	19429718 	stmdbne	r2, {r3, r4, r8, r9, sl, ip, pc}^
     ec8:	00001301 	andeq	r1, r0, r1, lsl #6
     ecc:	0300050c 	movweq	r0, #1292	; 0x50c
     ed0:	3b0b3a08 	blcc	2cf6f8 <__bss_end__+0x2c53c8>
     ed4:	0213490b 	andseq	r4, r3, #180224	; 0x2c000
     ed8:	0d000017 	stceq	0, cr0, [r0, #-92]	; 0xffffffa4
     edc:	01018289 	smlabbeq	r1, r9, r2, r8
     ee0:	13310111 	teqne	r1, #1073741828	; 0x40000004
     ee4:	340e0000 	strcc	r0, [lr], #-0
     ee8:	3a0e0300 	bcc	381af0 <__bss_end__+0x3777c0>
     eec:	490b3b0b 	stmdbmi	fp, {r0, r1, r3, r8, r9, fp, ip, sp}
     ef0:	02193f13 	andseq	r3, r9, #19, 30	; 0x4c
     ef4:	0f000018 	svceq	0x00000018
     ef8:	0b0b000f 	bleq	2c0f3c <__bss_end__+0x2b6c0c>
     efc:	00001349 	andeq	r1, r0, r9, asr #6
     f00:	49003510 	stmdbmi	r0, {r4, r8, sl, ip, sp}
     f04:	11000013 	tstne	r0, r3, lsl r0
     f08:	193f002e 	ldmdbne	pc!, {r1, r2, r3, r5}	; <UNPREDICTABLE>
     f0c:	0b3a0e03 	bleq	e84720 <__bss_end__+0xe7a3f0>
     f10:	19270b3b 	stmdbne	r7!, {r0, r1, r3, r4, r5, r8, r9, fp}
     f14:	0000193c 	andeq	r1, r0, ip, lsr r9
     f18:	3f012e12 	svccc	0x00012e12
     f1c:	3a0e0319 	bcc	381b88 <__bss_end__+0x377858>
     f20:	270b3b0b 	strcs	r3, [fp, -fp, lsl #22]
     f24:	01193c19 	tsteq	r9, r9, lsl ip
     f28:	13000013 	movwne	r0, #19
     f2c:	13490005 	movtne	r0, #36869	; 0x9005
     f30:	2e140000 	cdpcs	0, 1, cr0, cr4, cr0, {0}
     f34:	03193f01 	tsteq	r9, #1, 30
     f38:	3b0b3a0e 	blcc	2cf778 <__bss_end__+0x2c5448>
     f3c:	4919270b 	ldmdbmi	r9, {r0, r1, r3, r8, r9, sl, sp}
     f40:	01193c13 	tsteq	r9, r3, lsl ip
     f44:	15000013 	strne	r0, [r0, #-19]
     f48:	13490026 	movtne	r0, #36902	; 0x9026
     f4c:	35160000 	ldrcc	r0, [r6, #-0]
     f50:	00000000 	andeq	r0, r0, r0
     f54:	25011101 	strcs	r1, [r1, #-257]	; 0x101
     f58:	030b130e 	movweq	r1, #45838	; 0xb30e
     f5c:	110e1b0e 	tstne	lr, lr, lsl #22
     f60:	10061201 	andne	r1, r6, r1, lsl #4
     f64:	02000017 	andeq	r0, r0, #23
     f68:	0b0b0024 	bleq	2c1000 <__bss_end__+0x2b6cd0>
     f6c:	0e030b3e 	vmoveq.16	d3[0], r0
     f70:	24030000 	strcs	r0, [r3], #-0
     f74:	3e0b0b00 	vmlacc.f64	d0, d11, d0
     f78:	0008030b 	andeq	r0, r8, fp, lsl #6
     f7c:	01040400 	tsteq	r4, r0, lsl #8
     f80:	0b3a0b0b 	bleq	e83bb4 <__bss_end__+0xe79884>
     f84:	13010b3b 	movwne	r0, #6971	; 0x1b3b
     f88:	28050000 	stmdacs	r5, {}	; <UNPREDICTABLE>
     f8c:	1c0e0300 	stcne	3, cr0, [lr], {-0}
     f90:	0600000d 	streq	r0, [r0], -sp
     f94:	0e030016 	mcreq	0, 0, r0, cr3, cr6, {0}
     f98:	0b3b0b3a 	bleq	ec3c88 <__bss_end__+0xeb9958>
     f9c:	00001349 	andeq	r1, r0, r9, asr #6
     fa0:	3f012e07 	svccc	0x00012e07
     fa4:	3a0e0319 	bcc	381c10 <__bss_end__+0x3778e0>
     fa8:	270b3b0b 	strcs	r3, [fp, -fp, lsl #22]
     fac:	12011119 	andne	r1, r1, #1073741830	; 0x40000006
     fb0:	97184006 	ldrls	r4, [r8, -r6]
     fb4:	13011942 	movwne	r1, #6466	; 0x1942
     fb8:	05080000 	streq	r0, [r8, #-0]
     fbc:	3a080300 	bcc	201bc4 <__bss_end__+0x1f7894>
     fc0:	490b3b0b 	stmdbmi	fp, {r0, r1, r3, r8, r9, fp, ip, sp}
     fc4:	00170213 	andseq	r0, r7, r3, lsl r2
     fc8:	00340900 	eorseq	r0, r4, r0, lsl #18
     fcc:	0b3a0e03 	bleq	e847e0 <__bss_end__+0xe7a4b0>
     fd0:	13490b3b 	movtne	r0, #39739	; 0x9b3b
     fd4:	00001702 	andeq	r1, r0, r2, lsl #14
     fd8:	0182890a 	orreq	r8, r2, sl, lsl #18
     fdc:	31011101 	tstcc	r1, r1, lsl #2
     fe0:	00130113 	andseq	r0, r3, r3, lsl r1
     fe4:	828a0b00 	addhi	r0, sl, #0, 22
     fe8:	18020001 	stmdane	r2, {r0}
     fec:	00184291 	mulseq	r8, r1, r2
     ff0:	82890c00 	addhi	r0, r9, #0, 24
     ff4:	01110101 	tsteq	r1, r1, lsl #2
     ff8:	00001331 	andeq	r1, r0, r1, lsr r3
     ffc:	0b000f0d 	bleq	4c38 <_start-0x33c8>
    1000:	0013490b 	andseq	r4, r3, fp, lsl #18
    1004:	00350e00 	eorseq	r0, r5, r0, lsl #28
    1008:	00001349 	andeq	r1, r0, r9, asr #6
    100c:	3f012e0f 	svccc	0x00012e0f
    1010:	3a0e0319 	bcc	381c7c <__bss_end__+0x37794c>
    1014:	270b3b0b 	strcs	r3, [fp, -fp, lsl #22]
    1018:	010b2019 	tsteq	fp, r9, lsl r0
    101c:	10000013 	andne	r0, r0, r3, lsl r0
    1020:	08030005 	stmdaeq	r3, {r0, r2}
    1024:	0b3b0b3a 	bleq	ec3d14 <__bss_end__+0xeb99e4>
    1028:	00001349 	andeq	r1, r0, r9, asr #6
    102c:	03003411 	movweq	r3, #1041	; 0x411
    1030:	3b0b3a0e 	blcc	2cf870 <__bss_end__+0x2c5540>
    1034:	0013490b 	andseq	r4, r3, fp, lsl #18
    1038:	012e1200 	teqeq	lr, r0, lsl #4
    103c:	01111331 	tsteq	r1, r1, lsr r3
    1040:	18400612 	stmdane	r0, {r1, r4, r9, sl}^
    1044:	01194297 			; <UNDEFINED> instruction: 0x01194297
    1048:	13000013 	movwne	r0, #19
    104c:	13310005 	teqne	r1, #5
    1050:	00001702 	andeq	r1, r0, r2, lsl #14
    1054:	31003414 	tstcc	r0, r4, lsl r4
    1058:	00170213 	andseq	r0, r7, r3, lsl r2
    105c:	012e1500 	teqeq	lr, r0, lsl #10
    1060:	0e03193f 	mcreq	9, 0, r1, cr3, cr15, {1}
    1064:	0b3b0b3a 	bleq	ec3d54 <__bss_end__+0xeb9a24>
    1068:	13491927 	movtne	r1, #39207	; 0x9927
    106c:	06120111 			; <UNDEFINED> instruction: 0x06120111
    1070:	42971840 	addsmi	r1, r7, #64, 16	; 0x400000
    1074:	00130119 	andseq	r0, r3, r9, lsl r1
    1078:	00341600 	eorseq	r1, r4, r0, lsl #12
    107c:	0b3a0803 	bleq	e83090 <__bss_end__+0xe78d60>
    1080:	13490b3b 	movtne	r0, #39739	; 0x9b3b
    1084:	00001702 	andeq	r1, r0, r2, lsl #14
    1088:	01828917 	orreq	r8, r2, r7, lsl r9
    108c:	31011100 	mrscc	r1, (UNDEF: 17)
    1090:	18000013 	stmdane	r0, {r0, r1, r4}
    1094:	1331011d 	teqne	r1, #1073741831	; 0x40000007
    1098:	06120111 			; <UNDEFINED> instruction: 0x06120111
    109c:	0b590b58 	bleq	1643e04 <__bss_end__+0x1639ad4>
    10a0:	00001301 	andeq	r1, r0, r1, lsl #6
    10a4:	11010b19 	tstne	r1, r9, lsl fp
    10a8:	00061201 	andeq	r1, r6, r1, lsl #4
    10ac:	011d1a00 	tsteq	sp, r0, lsl #20
    10b0:	01111331 	tsteq	r1, r1, lsr r3
    10b4:	0b580612 	bleq	1602904 <__bss_end__+0x15f85d4>
    10b8:	00000b59 	andeq	r0, r0, r9, asr fp
    10bc:	0300051b 	movweq	r0, #1307	; 0x51b
    10c0:	3b0b3a0e 	blcc	2cf900 <__bss_end__+0x2c55d0>
    10c4:	0213490b 	andseq	r4, r3, #180224	; 0x2c000
    10c8:	1c000017 	stcne	0, cr0, [r0], {23}
    10cc:	193f012e 	ldmdbne	pc!, {r1, r2, r3, r5, r8}	; <UNPREDICTABLE>
    10d0:	0b3a0e03 	bleq	e848e4 <__bss_end__+0xe7a5b4>
    10d4:	1927053b 	stmdbne	r7!, {r0, r1, r3, r4, r5, r8, sl}
    10d8:	01111349 	tsteq	r1, r9, asr #6
    10dc:	18400612 	stmdane	r0, {r1, r4, r9, sl}^
    10e0:	01194297 			; <UNDEFINED> instruction: 0x01194297
    10e4:	1d000013 	stcne	0, cr0, [r0, #-76]	; 0xffffffb4
    10e8:	0e030005 	cdpeq	0, 0, cr0, cr3, cr5, {0}
    10ec:	053b0b3a 	ldreq	r0, [fp, #-2874]!	; 0xb3a
    10f0:	17021349 	strne	r1, [r2, -r9, asr #6]
    10f4:	2e1e0000 	cdpcs	0, 1, cr0, cr14, cr0, {0}
    10f8:	03193f01 	tsteq	r9, #1, 30
    10fc:	3b0b3a0e 	blcc	2cf93c <__bss_end__+0x2c560c>
    1100:	11192705 	tstne	r9, r5, lsl #14
    1104:	40061201 	andmi	r1, r6, r1, lsl #4
    1108:	19429718 	stmdbne	r2, {r3, r4, r8, r9, sl, ip, pc}^
    110c:	00001301 	andeq	r1, r0, r1, lsl #6
    1110:	0300051f 	movweq	r0, #1311	; 0x51f
    1114:	3b0b3a08 	blcc	2cf93c <__bss_end__+0x2c560c>
    1118:	02134905 	andseq	r4, r3, #81920	; 0x14000
    111c:	20000017 	andcs	r0, r0, r7, lsl r0
    1120:	0e030034 	mcreq	0, 0, r0, cr3, cr4, {1}
    1124:	053b0b3a 	ldreq	r0, [fp, #-2874]!	; 0xb3a
    1128:	17021349 	strne	r1, [r2, -r9, asr #6]
    112c:	0b210000 	bleq	841134 <__bss_end__+0x836e04>
    1130:	12011101 	andne	r1, r1, #1073741824	; 0x40000000
    1134:	00130106 	andseq	r0, r3, r6, lsl #2
    1138:	00342200 	eorseq	r2, r4, r0, lsl #4
    113c:	0b3a0e03 	bleq	e84950 <__bss_end__+0xe7a620>
    1140:	13490b3b 	movtne	r0, #39739	; 0x9b3b
    1144:	1802193f 	stmdane	r2, {r0, r1, r2, r3, r4, r5, r8, fp, ip}
    1148:	2e230000 	cdpcs	0, 2, cr0, cr3, cr0, {0}
    114c:	03193f01 	tsteq	r9, #1, 30
    1150:	3b0b3a0e 	blcc	2cf990 <__bss_end__+0x2c5660>
    1154:	4919270b 	ldmdbmi	r9, {r0, r1, r3, r8, r9, sl, sp}
    1158:	01193c13 	tsteq	r9, r3, lsl ip
    115c:	24000013 	strcs	r0, [r0], #-19
    1160:	13490005 	movtne	r0, #36869	; 0x9005
    1164:	26250000 	strtcs	r0, [r5], -r0
    1168:	00134900 	andseq	r4, r3, r0, lsl #18
    116c:	00352600 	eorseq	r2, r5, r0, lsl #12
    1170:	2e270000 	cdpcs	0, 2, cr0, cr7, cr0, {0}
    1174:	03193f01 	tsteq	r9, #1, 30
    1178:	3b0b3a0e 	blcc	2cf9b8 <__bss_end__+0x2c5688>
    117c:	3c19270b 	ldccc	7, cr2, [r9], {11}
    1180:	00130119 	andseq	r0, r3, r9, lsl r1
    1184:	002e2800 	eoreq	r2, lr, r0, lsl #16
    1188:	0e03193f 	mcreq	9, 0, r1, cr3, cr15, {1}
    118c:	0b3b0b3a 	bleq	ec3e7c <__bss_end__+0xeb9b4c>
    1190:	193c1927 	ldmdbne	ip!, {r0, r1, r2, r5, r8, fp, ip}
    1194:	01000000 	mrseq	r0, (UNDEF: 0)
    1198:	0e250111 	mcreq	1, 1, r0, cr5, cr1, {0}
    119c:	0e030b13 	vmoveq.32	d3[0], r0
    11a0:	01110e1b 	tsteq	r1, fp, lsl lr
    11a4:	17100612 			; <UNDEFINED> instruction: 0x17100612
    11a8:	24020000 	strcs	r0, [r2], #-0
    11ac:	3e0b0b00 	vmlacc.f64	d0, d11, d0
    11b0:	0008030b 	andeq	r0, r8, fp, lsl #6
    11b4:	00160300 	andseq	r0, r6, r0, lsl #6
    11b8:	0b3a0e03 	bleq	e849cc <__bss_end__+0xe7a69c>
    11bc:	13490b3b 	movtne	r0, #39739	; 0x9b3b
    11c0:	24040000 	strcs	r0, [r4], #-0
    11c4:	3e0b0b00 	vmlacc.f64	d0, d11, d0
    11c8:	000e030b 	andeq	r0, lr, fp, lsl #6
    11cc:	000f0500 	andeq	r0, pc, r0, lsl #10
    11d0:	00000b0b 	andeq	r0, r0, fp, lsl #22
    11d4:	0b011306 	bleq	45df4 <__bss_end__+0x3bac4>
    11d8:	3b0b3a0b 	blcc	2cfa0c <__bss_end__+0x2c56dc>
    11dc:	0013010b 	andseq	r0, r3, fp, lsl #2
    11e0:	000d0700 	andeq	r0, sp, r0, lsl #14
    11e4:	0b3a0803 	bleq	e831f8 <__bss_end__+0xe78ec8>
    11e8:	13490b3b 	movtne	r0, #39739	; 0x9b3b
    11ec:	00000b38 	andeq	r0, r0, r8, lsr fp
    11f0:	03000d08 	movweq	r0, #3336	; 0xd08
    11f4:	3b0b3a0e 	blcc	2cfa34 <__bss_end__+0x2c5704>
    11f8:	3813490b 	ldmdacc	r3, {r0, r1, r3, r8, fp, lr}
    11fc:	0900000b 	stmdbeq	r0, {r0, r1, r3}
    1200:	0b0b0104 	bleq	2c1618 <__bss_end__+0x2b72e8>
    1204:	0b3b0b3a 	bleq	ec3ef4 <__bss_end__+0xeb9bc4>
    1208:	00001301 	andeq	r1, r0, r1, lsl #6
    120c:	0300280a 	movweq	r2, #2058	; 0x80a
    1210:	000d1c0e 	andeq	r1, sp, lr, lsl #24
    1214:	012e0b00 	teqeq	lr, r0, lsl #22
    1218:	0e03193f 	mcreq	9, 0, r1, cr3, cr15, {1}
    121c:	0b3b0b3a 	bleq	ec3f0c <__bss_end__+0xeb9bdc>
    1220:	13491927 	movtne	r1, #39207	; 0x9927
    1224:	06120111 			; <UNDEFINED> instruction: 0x06120111
    1228:	42971840 	addsmi	r1, r7, #64, 16	; 0x400000
    122c:	00130119 	andseq	r0, r3, r9, lsl r1
    1230:	00340c00 	eorseq	r0, r4, r0, lsl #24
    1234:	0b3a0803 	bleq	e83248 <__bss_end__+0xe78f18>
    1238:	13490b3b 	movtne	r0, #39739	; 0x9b3b
    123c:	0000061c 	andeq	r0, r0, ip, lsl r6
    1240:	0182890d 	orreq	r8, r2, sp, lsl #18
    1244:	31011101 	tstcc	r1, r1, lsl #2
    1248:	0e000013 	mcreq	0, 0, r0, cr0, cr3, {0}
    124c:	0001828a 	andeq	r8, r1, sl, lsl #5
    1250:	42911802 	addsmi	r1, r1, #131072	; 0x20000
    1254:	0f000018 	svceq	0x00000018
    1258:	0b0b000f 	bleq	2c129c <__bss_end__+0x2b6f6c>
    125c:	00001349 	andeq	r1, r0, r9, asr #6
    1260:	3f012e10 	svccc	0x00012e10
    1264:	3a0e0319 	bcc	381ed0 <__bss_end__+0x377ba0>
    1268:	270b3b0b 	strcs	r3, [fp, -fp, lsl #22]
    126c:	3c134919 	ldccc	9, cr4, [r3], {25}
    1270:	11000019 	tstne	r0, r9, lsl r0
    1274:	13490005 	movtne	r0, #36869	; 0x9005
    1278:	01000000 	mrseq	r0, (UNDEF: 0)
    127c:	0e250111 	mcreq	1, 1, r0, cr5, cr1, {0}
    1280:	0e030b13 	vmoveq.32	d3[0], r0
    1284:	01110e1b 	tsteq	r1, fp, lsl lr
    1288:	17100612 			; <UNDEFINED> instruction: 0x17100612
    128c:	24020000 	strcs	r0, [r2], #-0
    1290:	3e0b0b00 	vmlacc.f64	d0, d11, d0
    1294:	000e030b 	andeq	r0, lr, fp, lsl #6
    1298:	00240300 	eoreq	r0, r4, r0, lsl #6
    129c:	0b3e0b0b 	bleq	f83ed0 <__bss_end__+0xf79ba0>
    12a0:	00000803 	andeq	r0, r0, r3, lsl #16
    12a4:	0b000f04 	bleq	4ebc <_start-0x3144>
    12a8:	0500000b 	streq	r0, [r0, #-11]
    12ac:	0b0b000f 	bleq	2c12f0 <__bss_end__+0x2b6fc0>
    12b0:	00001349 	andeq	r1, r0, r9, asr #6
    12b4:	03001606 	movweq	r1, #1542	; 0x606
    12b8:	3b0b3a0e 	blcc	2cfaf8 <__bss_end__+0x2c57c8>
    12bc:	0013490b 	andseq	r4, r3, fp, lsl #18
    12c0:	012e0700 	teqeq	lr, r0, lsl #14
    12c4:	0e03193f 	mcreq	9, 0, r1, cr3, cr15, {1}
    12c8:	0b3b0b3a 	bleq	ec3fb8 <__bss_end__+0xeb9c88>
    12cc:	13491927 	movtne	r1, #39207	; 0x9927
    12d0:	06120111 			; <UNDEFINED> instruction: 0x06120111
    12d4:	42971840 	addsmi	r1, r7, #64, 16	; 0x400000
    12d8:	08000019 	stmdaeq	r0, {r0, r3, r4}
    12dc:	08030005 	stmdaeq	r3, {r0, r2}
    12e0:	0b3b0b3a 	bleq	ec3fd0 <__bss_end__+0xeb9ca0>
    12e4:	18021349 	stmdane	r2, {r0, r3, r6, r8, r9, ip}
    12e8:	05090000 	streq	r0, [r9, #-0]
    12ec:	3a080300 	bcc	201ef4 <__bss_end__+0x1f7bc4>
    12f0:	490b3b0b 	stmdbmi	fp, {r0, r1, r3, r8, r9, fp, ip, sp}
    12f4:	00170213 	andseq	r0, r7, r3, lsl r2
    12f8:	00340a00 	eorseq	r0, r4, r0, lsl #20
    12fc:	0b3a0803 	bleq	e83310 <__bss_end__+0xe78fe0>
    1300:	13490b3b 	movtne	r0, #39739	; 0x9b3b
    1304:	00001702 	andeq	r1, r0, r2, lsl #14
    1308:	0300340b 	movweq	r3, #1035	; 0x40b
    130c:	3b0b3a08 	blcc	2cfb34 <__bss_end__+0x2c5804>
    1310:	0213490b 	andseq	r4, r3, #180224	; 0x2c000
    1314:	00000018 	andeq	r0, r0, r8, lsl r0

Disassembly of section .debug_loc:

00000000 <.debug_loc>:
       0:	00000000 	andeq	r0, r0, r0
       4:	00000014 	andeq	r0, r0, r4, lsl r0
       8:	14500001 	ldrbne	r0, [r0], #-1
       c:	2c000000 	stccs	0, cr0, [r0], {-0}
      10:	01000000 	mrseq	r0, (UNDEF: 0)
      14:	00005600 	andeq	r5, r0, r0, lsl #12
	...
      20:	00140000 	andseq	r0, r4, r0
      24:	00010000 	andeq	r0, r1, r0
      28:	00001451 	andeq	r1, r0, r1, asr r4
      2c:	00002c00 	andeq	r2, r0, r0, lsl #24
      30:	55000100 	strpl	r0, [r0, #-256]	; 0x100
	...
      3c:	0000000c 	andeq	r0, r0, ip
      40:	00000014 	andeq	r0, r0, r4, lsl r0
      44:	14500001 	ldrbne	r0, [r0], #-1
      48:	2c000000 	stccs	0, cr0, [r0], {-0}
      4c:	01000000 	mrseq	r0, (UNDEF: 0)
      50:	00005600 	andeq	r5, r0, r0, lsl #12
      54:	00000000 	andeq	r0, r0, r0
      58:	000c0000 	andeq	r0, ip, r0
      5c:	00140000 	andseq	r0, r4, r0
      60:	00020000 	andeq	r0, r2, r0
      64:	00149f30 	andseq	r9, r4, r0, lsr pc
      68:	002c0000 	eoreq	r0, ip, r0
      6c:	00010000 	andeq	r0, r1, r0
      70:	00000054 	andeq	r0, r0, r4, asr r0
      74:	00000000 	andeq	r0, r0, r0
      78:	0000f400 	andeq	pc, r0, r0, lsl #8
      7c:	00010400 	andeq	r0, r1, r0, lsl #8
      80:	30000200 	andcc	r0, r0, r0, lsl #4
      84:	0001049f 	muleq	r1, pc, r4	; <UNPREDICTABLE>
      88:	00015800 	andeq	r5, r1, r0, lsl #16
      8c:	54000100 	strpl	r0, [r0], #-256	; 0x100
	...
      9c:	0000000c 	andeq	r0, r0, ip
      a0:	0c500001 	mrrceq	0, 0, r0, r0, cr1	; <UNPREDICTABLE>
      a4:	40000000 	andmi	r0, r0, r0
      a8:	04000000 	streq	r0, [r0], #-0
      ac:	5001f300 	andpl	pc, r1, r0, lsl #6
      b0:	0000009f 	muleq	r0, pc, r0	; <UNPREDICTABLE>
	...
      bc:	00000c00 	andeq	r0, r0, r0, lsl #24
      c0:	51000100 	mrspl	r0, (UNDEF: 16)
      c4:	0000000c 	andeq	r0, r0, ip
      c8:	00000028 	andeq	r0, r0, r8, lsr #32
      cc:	28530001 	ldmdacs	r3, {r0}^
      d0:	2c000000 	stccs	0, cr0, [r0], {-0}
      d4:	01000000 	mrseq	r0, (UNDEF: 0)
      d8:	002c5100 	eoreq	r5, ip, r0, lsl #2
      dc:	00400000 	subeq	r0, r0, r0
      e0:	00010000 	andeq	r0, r1, r0
      e4:	00000053 	andeq	r0, r0, r3, asr r0
	...
      f0:	00000400 	andeq	r0, r0, r0, lsl #8
      f4:	52000100 	andpl	r0, r0, #0, 2
      f8:	00000004 	andeq	r0, r0, r4
      fc:	00000040 	andeq	r0, r0, r0, asr #32
     100:	00520001 	subseq	r0, r2, r1
	...
     10c:	0c000000 	stceq	0, cr0, [r0], {-0}
     110:	01000000 	mrseq	r0, (UNDEF: 0)
     114:	000c5000 	andeq	r5, ip, r0
     118:	00280000 	eoreq	r0, r8, r0
     11c:	00030000 	andeq	r0, r3, r0
     120:	289f0170 	ldmcs	pc, {r4, r5, r6, r8}	; <UNPREDICTABLE>
     124:	38000000 	stmdacc	r0, {}	; <UNPREDICTABLE>
     128:	01000000 	mrseq	r0, (UNDEF: 0)
     12c:	00005000 	andeq	r5, r0, r0
     130:	00000000 	andeq	r0, r0, r0
     134:	00400000 	subeq	r0, r0, r0
     138:	004b0000 	subeq	r0, fp, r0
     13c:	00010000 	andeq	r0, r1, r0
     140:	00004b50 	andeq	r4, r0, r0, asr fp
     144:	00005000 	andeq	r5, r0, r0
     148:	f3000400 	vshl.u8	d0, d0, d0
     14c:	009f5001 	addseq	r5, pc, r1
     150:	00000000 	andeq	r0, r0, r0
     154:	40000000 	andmi	r0, r0, r0
     158:	4b000000 	blmi	160 <_start-0x7ea0>
     15c:	01000000 	mrseq	r0, (UNDEF: 0)
     160:	004b5100 	subeq	r5, fp, r0, lsl #2
     164:	00500000 	subseq	r0, r0, r0
     168:	00040000 	andeq	r0, r4, r0
     16c:	9f5101f3 	svcls	0x005101f3
	...
     178:	0000002c 	andeq	r0, r0, ip, lsr #32
     17c:	00000038 	andeq	r0, r0, r8, lsr r0
     180:	38500001 	ldmdacc	r0, {r0}^
     184:	48000000 	stmdami	r0, {}	; <UNPREDICTABLE>
     188:	01000000 	mrseq	r0, (UNDEF: 0)
     18c:	00485500 	subeq	r5, r8, r0, lsl #10
     190:	00580000 	subseq	r0, r8, r0
     194:	00010000 	andeq	r0, r1, r0
     198:	00000050 	andeq	r0, r0, r0, asr r0
	...
     1a4:	00000b00 	andeq	r0, r0, r0, lsl #22
     1a8:	50000100 	andpl	r0, r0, r0, lsl #2
     1ac:	0000000b 	andeq	r0, r0, fp
     1b0:	00000014 	andeq	r0, r0, r4, lsl r0
     1b4:	00540001 	subseq	r0, r4, r1
	...
     1c0:	10000000 	andne	r0, r0, r0
     1c4:	01000000 	mrseq	r0, (UNDEF: 0)
     1c8:	00105000 	andseq	r5, r0, r0
     1cc:	00340000 	eorseq	r0, r4, r0
     1d0:	00010000 	andeq	r0, r1, r0
     1d4:	00000054 	andeq	r0, r0, r4, asr r0
	...
     1e0:	00000400 	andeq	r0, r0, r0, lsl #8
     1e4:	50000100 	andpl	r0, r0, r0, lsl #2
     1e8:	00000004 	andeq	r0, r0, r4
     1ec:	0000000c 	andeq	r0, r0, ip
     1f0:	30700003 	rsbscc	r0, r0, r3
     1f4:	00000c9f 	muleq	r0, pc, ip	; <UNPREDICTABLE>
     1f8:	00001400 	andeq	r1, r0, r0, lsl #8
     1fc:	f3000400 	vshl.u8	d0, d0, d0
     200:	009f5001 	addseq	r5, pc, r1
     204:	00000000 	andeq	r0, r0, r0
     208:	14000000 	strne	r0, [r0], #-0
     20c:	20000000 	andcs	r0, r0, r0
     210:	01000000 	mrseq	r0, (UNDEF: 0)
     214:	00205000 	eoreq	r5, r0, r0
     218:	002c0000 	eoreq	r0, ip, r0
     21c:	00030000 	andeq	r0, r3, r0
     220:	2c9f0170 	ldfcss	f0, [pc], {112}	; 0x70
     224:	40000000 	andmi	r0, r0, r0
     228:	01000000 	mrseq	r0, (UNDEF: 0)
     22c:	00005000 	andeq	r5, r0, r0
     230:	00000000 	andeq	r0, r0, r0
     234:	00140000 	andseq	r0, r4, r0
     238:	00180000 	andseq	r0, r8, r0
     23c:	00010000 	andeq	r0, r1, r0
     240:	00001851 	andeq	r1, r0, r1, asr r8
     244:	00004000 	andeq	r4, r0, r0
     248:	f3000400 	vshl.u8	d0, d0, d0
     24c:	009f5101 	addseq	r5, pc, r1, lsl #2
     250:	00000000 	andeq	r0, r0, r0
     254:	40000000 	andmi	r0, r0, r0
     258:	60000000 	andvs	r0, r0, r0
     25c:	01000000 	mrseq	r0, (UNDEF: 0)
     260:	00605000 	rsbeq	r5, r0, r0
     264:	006c0000 	rsbeq	r0, ip, r0
     268:	00030000 	andeq	r0, r3, r0
     26c:	6c9f0171 	ldfvss	f0, [pc], {113}	; 0x71
     270:	74000000 	strvc	r0, [r0], #-0
     274:	01000000 	mrseq	r0, (UNDEF: 0)
     278:	00745100 	rsbseq	r5, r4, r0, lsl #2
     27c:	00800000 	addeq	r0, r0, r0
     280:	00030000 	andeq	r0, r3, r0
     284:	009f0171 	addseq	r0, pc, r1, ror r1	; <UNPREDICTABLE>
     288:	00000000 	andeq	r0, r0, r0
     28c:	40000000 	andmi	r0, r0, r0
     290:	50000000 	andpl	r0, r0, r0
     294:	01000000 	mrseq	r0, (UNDEF: 0)
     298:	00505100 	subseq	r5, r0, r0, lsl #2
     29c:	00800000 	addeq	r0, r0, r0
     2a0:	00040000 	andeq	r0, r4, r0
     2a4:	9f5101f3 	svcls	0x005101f3
	...
     2b0:	00000040 	andeq	r0, r0, r0, asr #32
     2b4:	00000058 	andeq	r0, r0, r8, asr r0
     2b8:	58520001 	ldmdapl	r2, {r0}^
     2bc:	64000000 	strvs	r0, [r0], #-0
     2c0:	01000000 	mrseq	r0, (UNDEF: 0)
     2c4:	00645200 	rsbeq	r5, r4, r0, lsl #4
     2c8:	00680000 	rsbeq	r0, r8, r0
     2cc:	00030000 	andeq	r0, r3, r0
     2d0:	689f0172 	ldmvs	pc, {r1, r4, r5, r6, r8}	; <UNPREDICTABLE>
     2d4:	80000000 	andhi	r0, r0, r0
     2d8:	01000000 	mrseq	r0, (UNDEF: 0)
     2dc:	00005200 	andeq	r5, r0, r0, lsl #4
     2e0:	00000000 	andeq	r0, r0, r0
     2e4:	00400000 	subeq	r0, r0, r0
     2e8:	00540000 	subseq	r0, r4, r0
     2ec:	00010000 	andeq	r0, r1, r0
     2f0:	00005453 	andeq	r5, r0, r3, asr r4
     2f4:	00007800 	andeq	r7, r0, r0, lsl #16
     2f8:	53000100 	movwpl	r0, #256	; 0x100
	...
     304:	00000048 	andeq	r0, r0, r8, asr #32
     308:	00000060 	andeq	r0, r0, r0, rrx
     30c:	605c0001 	subsvs	r0, ip, r1
     310:	80000000 	andhi	r0, r0, r0
     314:	0a000000 	beq	31c <_start-0x7ce4>
     318:	5201f300 	andpl	pc, r1, #0, 6
     31c:	1c5301f3 	ldfnee	f0, [r3], {243}	; 0xf3
     320:	009f0123 	addseq	r0, pc, r3, lsr #2
     324:	00000000 	andeq	r0, r0, r0
     328:	80000000 	andhi	r0, r0, r0
     32c:	a4000000 	strge	r0, [r0], #-0
     330:	01000000 	mrseq	r0, (UNDEF: 0)
     334:	00a45000 	adceq	r5, r4, r0
     338:	01180000 	tsteq	r8, r0
     33c:	00030000 	andeq	r0, r3, r0
     340:	189f0270 	ldmne	pc, {r4, r5, r6, r9}	; <UNPREDICTABLE>
     344:	1c000001 	stcne	0, cr0, [r0], {1}
     348:	04000002 	streq	r0, [r0], #-2
     34c:	5001f300 	andpl	pc, r1, r0, lsl #6
     350:	0000009f 	muleq	r0, pc, r0	; <UNPREDICTABLE>
     354:	00000000 	andeq	r0, r0, r0
     358:	00008000 	andeq	r8, r0, r0
     35c:	0000f000 	andeq	pc, r0, r0
     360:	51000100 	mrspl	r0, (UNDEF: 16)
     364:	000000f0 	strdeq	r0, [r0], -r0	; <UNPREDICTABLE>
     368:	00000160 	andeq	r0, r0, r0, ror #2
     36c:	60550001 	subsvs	r0, r5, r1
     370:	68000001 	stmdavs	r0, {r0}
     374:	01000001 	tsteq	r0, r1
     378:	01685100 	cmneq	r8, r0, lsl #2
     37c:	01880000 	orreq	r0, r8, r0
     380:	00010000 	andeq	r0, r1, r0
     384:	00018855 	andeq	r8, r1, r5, asr r8
     388:	00019c00 	andeq	r9, r1, r0, lsl #24
     38c:	51000100 	mrspl	r0, (UNDEF: 16)
     390:	0000019c 	muleq	r0, ip, r1
     394:	000001bc 			; <UNDEFINED> instruction: 0x000001bc
     398:	bc550001 	mrrclt	0, 0, r0, r5, cr1
     39c:	bf000001 	svclt	0x00000001
     3a0:	01000001 	tsteq	r0, r1
     3a4:	01bf5100 			; <UNDEFINED> instruction: 0x01bf5100
     3a8:	02000000 	andeq	r0, r0, #0
     3ac:	00010000 	andeq	r0, r1, r0
     3b0:	00020055 	andeq	r0, r2, r5, asr r0
     3b4:	00021c00 	andeq	r1, r2, r0, lsl #24
     3b8:	f3000400 	vshl.u8	d0, d0, d0
     3bc:	009f5101 	addseq	r5, pc, r1, lsl #2
     3c0:	00000000 	andeq	r0, r0, r0
     3c4:	80000000 	andhi	r0, r0, r0
     3c8:	94000000 	strls	r0, [r0], #-0
     3cc:	01000000 	mrseq	r0, (UNDEF: 0)
     3d0:	00945200 	addseq	r5, r4, r0, lsl #4
     3d4:	02000000 	andeq	r0, r0, #0
     3d8:	00010000 	andeq	r0, r1, r0
     3dc:	00020054 	andeq	r0, r2, r4, asr r0
     3e0:	00021c00 	andeq	r1, r2, r0, lsl #24
     3e4:	f3000400 	vshl.u8	d0, d0, d0
     3e8:	009f5201 	addseq	r5, pc, r1, lsl #4
     3ec:	00000000 	andeq	r0, r0, r0
     3f0:	80000000 	andhi	r0, r0, r0
     3f4:	00000000 	andeq	r0, r0, r0
     3f8:	01000001 	tsteq	r0, r1
     3fc:	01045300 	mrseq	r5, LR_abt
     400:	01080000 	mrseq	r0, (UNDEF: 8)
     404:	00010000 	andeq	r0, r1, r0
     408:	00016053 	andeq	r6, r1, r3, asr r0
     40c:	00016800 	andeq	r6, r1, r0, lsl #16
     410:	53000100 	movwpl	r0, #256	; 0x100
     414:	00000168 	andeq	r0, r0, r8, ror #2
     418:	00000188 	andeq	r0, r0, r8, lsl #3
     41c:	01f30004 	mvnseq	r0, r4
     420:	01889f53 	orreq	r9, r8, r3, asr pc
     424:	01900000 	orrseq	r0, r0, r0
     428:	00010000 	andeq	r0, r1, r0
     42c:	00019053 	andeq	r9, r1, r3, asr r0
     430:	00019400 	andeq	r9, r1, r0, lsl #8
     434:	5c000100 	stfpls	f0, [r0], {-0}
     438:	00000194 	muleq	r0, r4, r1
     43c:	0000019c 	muleq	r0, ip, r1
     440:	9c530001 	mrrcls	0, 0, r0, r3, cr1
     444:	bc000001 	stclt	0, cr0, [r0], {1}
     448:	04000001 	streq	r0, [r0], #-1
     44c:	5301f300 	movwpl	pc, #4864	; 0x1300	; <UNPREDICTABLE>
     450:	0001bc9f 	muleq	r1, pc, ip	; <UNPREDICTABLE>
     454:	0001bf00 	andeq	fp, r1, r0, lsl #30
     458:	53000100 	movwpl	r0, #256	; 0x100
     45c:	000001bf 			; <UNDEFINED> instruction: 0x000001bf
     460:	000001d8 	ldrdeq	r0, [r0], -r8
     464:	01f30004 	mvnseq	r0, r4
     468:	00009f53 	andeq	r9, r0, r3, asr pc
     46c:	00000000 	andeq	r0, r0, r0
     470:	00800000 	addeq	r0, r0, r0
     474:	009c0000 	addseq	r0, ip, r0
     478:	00020000 	andeq	r0, r2, r0
     47c:	009c0091 	umullseq	r0, ip, r1, r0
     480:	01bf0000 			; <UNDEFINED> instruction: 0x01bf0000
     484:	00010000 	andeq	r0, r1, r0
     488:	0001d852 	andeq	sp, r1, r2, asr r8
     48c:	0001e300 	andeq	lr, r1, r0, lsl #6
     490:	52000100 	andpl	r0, r0, #0, 2
	...
     49c:	0000009c 	muleq	r0, ip, r0
     4a0:	00000118 	andeq	r0, r0, r8, lsl r1
     4a4:	185d0001 	ldmdane	sp, {r0}^
     4a8:	1c000001 	stcne	0, cr0, [r0], {1}
     4ac:	01000001 	tsteq	r0, r1
     4b0:	011c5300 	tsteq	ip, r0, lsl #6
     4b4:	01200000 	teqeq	r0, r0
     4b8:	00010000 	andeq	r0, r1, r0
     4bc:	00012051 	andeq	r2, r1, r1, asr r0
     4c0:	00016000 	andeq	r6, r1, r0
     4c4:	53000100 	movwpl	r0, #256	; 0x100
     4c8:	00000160 	andeq	r0, r0, r0, ror #2
     4cc:	00000168 	andeq	r0, r0, r8, ror #2
     4d0:	685d0001 	ldmdavs	sp, {r0}^
     4d4:	6c000001 	stcvs	0, cr0, [r0], {1}
     4d8:	01000001 	tsteq	r0, r1
     4dc:	016c5e00 	cmneq	ip, r0, lsl #28
     4e0:	01880000 	orreq	r0, r8, r0
     4e4:	00010000 	andeq	r0, r1, r0
     4e8:	00018853 	andeq	r8, r1, r3, asr r8
     4ec:	00019000 	andeq	r9, r1, r0
     4f0:	91000400 	tstls	r0, r0, lsl #8
     4f4:	909f7fa1 	addsls	r7, pc, r1, lsr #31
     4f8:	94000001 	strls	r0, [r0], #-1
     4fc:	01000001 	tsteq	r0, r1
     500:	01945300 	orrseq	r5, r4, r0, lsl #6
     504:	019c0000 	orrseq	r0, ip, r0
     508:	00010000 	andeq	r0, r1, r0
     50c:	00019c5d 	andeq	r9, r1, sp, asr ip
     510:	0001a000 	andeq	sl, r1, r0
     514:	5e000100 	adfpls	f0, f0, f0
     518:	000001a0 	andeq	r0, r0, r0, lsr #3
     51c:	000001bc 			; <UNDEFINED> instruction: 0x000001bc
     520:	bc530001 	mrrclt	0, 0, r0, r3, cr1
     524:	d8000001 	stmdale	r0, {r0}
     528:	01000001 	tsteq	r0, r1
     52c:	01d85d00 	bicseq	r5, r8, r0, lsl #26
     530:	01e30000 	mvneq	r0, r0
     534:	00010000 	andeq	r0, r1, r0
     538:	00000053 	andeq	r0, r0, r3, asr r0
     53c:	00000000 	andeq	r0, r0, r0
     540:	0000a000 	andeq	sl, r0, r0
     544:	0000ec00 	andeq	lr, r0, r0, lsl #24
     548:	5c000100 	stfpls	f0, [r0], {-0}
     54c:	000000ec 	andeq	r0, r0, ip, ror #1
     550:	00000100 	andeq	r0, r0, r0, lsl #2
     554:	00530001 	subseq	r0, r3, r1
     558:	04000001 	streq	r0, [r0], #-1
     55c:	01000001 	tsteq	r0, r1
     560:	01045c00 	tsteq	r4, r0, lsl #24
     564:	01080000 	mrseq	r0, (UNDEF: 8)
     568:	00010000 	andeq	r0, r1, r0
     56c:	00010853 	andeq	r0, r1, r3, asr r8
     570:	00011800 	andeq	r1, r1, r0, lsl #16
     574:	5c000100 	stfpls	f0, [r0], {-0}
     578:	00000118 	andeq	r0, r0, r8, lsl r1
     57c:	0000011c 	andeq	r0, r0, ip, lsl r1
     580:	1c500001 	mrrcne	0, 0, r0, r0, cr1	; <UNPREDICTABLE>
     584:	3c000001 	stccc	0, cr0, [r0], {1}
     588:	01000001 	tsteq	r0, r1
     58c:	01445c00 	cmpeq	r4, r0, lsl #24
     590:	01580000 	cmpeq	r8, r0
     594:	00010000 	andeq	r0, r1, r0
     598:	00015850 	andeq	r5, r1, r0, asr r8
     59c:	00016000 	andeq	r6, r1, r0
     5a0:	5c000100 	stfpls	f0, [r0], {-0}
     5a4:	00000160 	andeq	r0, r0, r0, ror #2
     5a8:	00000168 	andeq	r0, r0, r8, ror #2
     5ac:	68530001 	ldmdavs	r3, {r0}^
     5b0:	78000001 	stmdavc	r0, {r0}
     5b4:	01000001 	tsteq	r0, r1
     5b8:	01785c00 	cmneq	r8, r0, lsl #24
     5bc:	01800000 	orreq	r0, r0, r0
     5c0:	00050000 	andeq	r0, r5, r0
     5c4:	2534007c 	ldrcs	r0, [r4, #-124]!	; 0x7c
     5c8:	0001809f 	muleq	r1, pc, r0	; <UNPREDICTABLE>
     5cc:	00018800 	andeq	r8, r1, r0, lsl #16
     5d0:	5c000100 	stfpls	f0, [r0], {-0}
     5d4:	00000188 	andeq	r0, r0, r8, lsl #3
     5d8:	00000190 	muleq	r0, r0, r1
     5dc:	90530001 	subsls	r0, r3, r1
     5e0:	94000001 	strls	r0, [r0], #-1
     5e4:	01000001 	tsteq	r0, r1
     5e8:	01945c00 	orrseq	r5, r4, r0, lsl #24
     5ec:	019c0000 	orrseq	r0, ip, r0
     5f0:	00010000 	andeq	r0, r1, r0
     5f4:	00019c53 	andeq	r9, r1, r3, asr ip
     5f8:	0001ac00 	andeq	sl, r1, r0, lsl #24
     5fc:	5c000100 	stfpls	f0, [r0], {-0}
     600:	000001ac 	andeq	r0, r0, ip, lsr #3
     604:	000001b4 			; <UNDEFINED> instruction: 0x000001b4
     608:	007c0005 	rsbseq	r0, ip, r5
     60c:	b49f2531 	ldrlt	r2, [pc], #1329	; 614 <_start-0x79ec>
     610:	bc000001 	stclt	0, cr0, [r0], {1}
     614:	01000001 	tsteq	r0, r1
     618:	01bc5c00 			; <UNDEFINED> instruction: 0x01bc5c00
     61c:	01bf0000 			; <UNDEFINED> instruction: 0x01bf0000
     620:	00010000 	andeq	r0, r1, r0
     624:	0001bf53 	andeq	fp, r1, r3, asr pc
     628:	0001d800 	andeq	sp, r1, r0, lsl #16
     62c:	f3000400 	vshl.u8	d0, d0, d0
     630:	d89f5301 	ldmle	pc, {r0, r8, r9, ip, lr}	; <UNPREDICTABLE>
     634:	e3000001 	movw	r0, #1
     638:	01000001 	tsteq	r0, r1
     63c:	00005c00 	andeq	r5, r0, r0, lsl #24
     640:	00000000 	andeq	r0, r0, r0
     644:	00ec0000 	rsceq	r0, ip, r0
     648:	00fc0000 	rscseq	r0, ip, r0
     64c:	00020000 	andeq	r0, r2, r0
     650:	00fc9f30 	rscseq	r9, ip, r0, lsr pc
     654:	01040000 	mrseq	r0, (UNDEF: 4)
     658:	00020000 	andeq	r0, r2, r0
     65c:	01049f31 	tsteq	r4, r1, lsr pc
     660:	01080000 	mrseq	r0, (UNDEF: 8)
     664:	00020000 	andeq	r0, r2, r0
     668:	00009f30 	andeq	r9, r0, r0, lsr pc
     66c:	00000000 	andeq	r0, r0, r0
     670:	021c0000 	andseq	r0, ip, #0
     674:	022b0000 	eoreq	r0, fp, #0
     678:	00010000 	andeq	r0, r1, r0
     67c:	00022b50 	andeq	r2, r2, r0, asr fp
     680:	00024400 	andeq	r4, r2, r0, lsl #8
     684:	f3000400 	vshl.u8	d0, d0, d0
     688:	449f5001 	ldrmi	r5, [pc], #1	; 690 <_start-0x7970>
     68c:	70000002 	andvc	r0, r0, r2
     690:	01000002 	tsteq	r0, r2
     694:	00005000 	andeq	r5, r0, r0
     698:	00000000 	andeq	r0, r0, r0
     69c:	021c0000 	andseq	r0, ip, #0
     6a0:	022b0000 	eoreq	r0, fp, #0
     6a4:	00010000 	andeq	r0, r1, r0
     6a8:	00022b51 	andeq	r2, r2, r1, asr fp
     6ac:	00024400 	andeq	r4, r2, r0, lsl #8
     6b0:	f3000400 	vshl.u8	d0, d0, d0
     6b4:	449f5101 	ldrmi	r5, [pc], #257	; 6bc <_start-0x7944>
     6b8:	70000002 	andvc	r0, r0, r2
     6bc:	01000002 	tsteq	r0, r2
     6c0:	00005100 	andeq	r5, r0, r0, lsl #2
     6c4:	00000000 	andeq	r0, r0, r0
     6c8:	02700000 	rsbseq	r0, r0, #0
     6cc:	029c0000 	addseq	r0, ip, #0
     6d0:	00010000 	andeq	r0, r1, r0
     6d4:	00029c50 	andeq	r9, r2, r0, asr ip
     6d8:	0004e400 	andeq	lr, r4, r0, lsl #8
     6dc:	5a000100 	bpl	ae4 <_start-0x751c>
     6e0:	000004e4 	andeq	r0, r0, r4, ror #9
     6e4:	000004f8 	strdeq	r0, [r0], -r8
     6e8:	01f30004 	mvnseq	r0, r4
     6ec:	00009f50 	andeq	r9, r0, r0, asr pc
     6f0:	00000000 	andeq	r0, r0, r0
     6f4:	02700000 	rsbseq	r0, r0, #0
     6f8:	02840000 	addeq	r0, r4, #0
     6fc:	00010000 	andeq	r0, r1, r0
     700:	00028451 	andeq	r8, r2, r1, asr r4
     704:	00029c00 	andeq	r9, r2, r0, lsl #24
     708:	71000300 	mrsvc	r0, LR_irq
     70c:	029c9f01 	addseq	r9, ip, #1, 30
     710:	04f80000 	ldrbteq	r0, [r8], #0
     714:	00040000 	andeq	r0, r4, r0
     718:	9f5101f3 	svcls	0x005101f3
	...
     724:	00000270 	andeq	r0, r0, r0, ror r2
     728:	000002a4 	andeq	r0, r0, r4, lsr #5
     72c:	a4520001 	ldrbge	r0, [r2], #-1
     730:	cc000002 	stcgt	0, cr0, [r0], {2}
     734:	01000002 	tsteq	r0, r2
     738:	02cc5200 	sbceq	r5, ip, #0, 4
     73c:	04940000 	ldreq	r0, [r4], #0
     740:	00010000 	andeq	r0, r1, r0
     744:	00049456 	andeq	r9, r4, r6, asr r4
     748:	0004f800 	andeq	pc, r4, r0, lsl #16
     74c:	52000100 	andpl	r0, r0, #0, 2
	...
     758:	00000270 	andeq	r0, r0, r0, ror r2
     75c:	0000028c 	andeq	r0, r0, ip, lsl #5
     760:	00530001 	subseq	r0, r3, r1
     764:	00000000 	andeq	r0, r0, r0
     768:	80000000 	andhi	r0, r0, r0
     76c:	9c000002 	stcls	0, cr0, [r0], {2}
     770:	01000002 	tsteq	r0, r2
     774:	029c5000 	addseq	r5, ip, #0
     778:	02a00000 	adceq	r0, r0, #0
     77c:	00010000 	andeq	r0, r1, r0
     780:	0002a054 	andeq	sl, r2, r4, asr r0
     784:	0002ac00 	andeq	sl, r2, r0, lsl #24
     788:	74000300 	strvc	r0, [r0], #-768	; 0x300
     78c:	02ac9f01 	adceq	r9, ip, #1, 30
     790:	02b80000 	adcseq	r0, r8, #0
     794:	00010000 	andeq	r0, r1, r0
     798:	0002b854 	andeq	fp, r2, r4, asr r8
     79c:	0002c400 	andeq	ip, r2, r0, lsl #8
     7a0:	74000300 	strvc	r0, [r0], #-768	; 0x300
     7a4:	02c49f01 	sbceq	r9, r4, #1, 30
     7a8:	04980000 	ldreq	r0, [r8], #0
     7ac:	00010000 	andeq	r0, r1, r0
     7b0:	00049854 	andeq	r9, r4, r4, asr r8
     7b4:	0004a400 	andeq	sl, r4, r0, lsl #8
     7b8:	74000300 	strvc	r0, [r0], #-768	; 0x300
     7bc:	04a49f01 	strteq	r9, [r4], #3841	; 0xf01
     7c0:	04d00000 	ldrbeq	r0, [r0], #0
     7c4:	00010000 	andeq	r0, r1, r0
     7c8:	0004d054 	andeq	sp, r4, r4, asr r0
     7cc:	0004dc00 	andeq	sp, r4, r0, lsl #24
     7d0:	50000100 	andpl	r0, r0, r0, lsl #2
     7d4:	000004dc 	ldrdeq	r0, [r0], -ip
     7d8:	000004e4 	andeq	r0, r0, r4, ror #9
     7dc:	01740003 	cmneq	r4, r3
     7e0:	0000009f 	muleq	r0, pc, r0	; <UNPREDICTABLE>
     7e4:	00000000 	andeq	r0, r0, r0
     7e8:	00028800 	andeq	r8, r2, r0, lsl #16
     7ec:	0004e400 	andeq	lr, r4, r0, lsl #8
     7f0:	58000100 	stmdapl	r0, {r8}
     7f4:	000004e4 	andeq	r0, r0, r4, ror #9
     7f8:	000004f8 	strdeq	r0, [r0], -r8
     7fc:	01f3000a 	mvnseq	r0, sl
     800:	5001f351 	andpl	pc, r1, r1, asr r3	; <UNPREDICTABLE>
     804:	9f1c3122 	svcls	0x001c3122
	...
     810:	000003cc 	andeq	r0, r0, ip, asr #7
     814:	000003d0 	ldrdeq	r0, [r0], -r0	; <UNPREDICTABLE>
     818:	f0500001 			; <UNDEFINED> instruction: 0xf0500001
     81c:	f4000003 	vst4.8	{d0-d3}, [r0], r3
     820:	01000003 	tsteq	r0, r3
     824:	04145000 	ldreq	r5, [r4], #-0
     828:	04180000 	ldreq	r0, [r8], #-0
     82c:	00010000 	andeq	r0, r1, r0
     830:	00043850 	andeq	r3, r4, r0, asr r8
     834:	00043c00 	andeq	r3, r4, r0, lsl #24
     838:	50000100 	andpl	r0, r0, r0, lsl #2
     83c:	00000444 	andeq	r0, r0, r4, asr #8
     840:	00000448 	andeq	r0, r0, r8, asr #8
     844:	68500001 	ldmdavs	r0, {r0}^
     848:	6c000004 	stcvs	0, cr0, [r0], {4}
     84c:	01000004 	tsteq	r0, r4
     850:	04905000 	ldreq	r5, [r0], #0
     854:	04b80000 	ldrteq	r0, [r8], #0
     858:	00010000 	andeq	r0, r1, r0
     85c:	00000050 	andeq	r0, r0, r0, asr r0
     860:	00000000 	andeq	r0, r0, r0
     864:	0002cc00 	andeq	ip, r2, r0, lsl #24
     868:	0002d400 	andeq	sp, r2, r0, lsl #8
     86c:	30000200 	andcc	r0, r0, r0, lsl #4
     870:	0002d49f 	muleq	r2, pc, r4	; <UNPREDICTABLE>
     874:	0002d800 	andeq	sp, r2, r0, lsl #16
     878:	57000100 	strpl	r0, [r0, -r0, lsl #2]
     87c:	000002e4 	andeq	r0, r0, r4, ror #5
     880:	000004b8 			; <UNDEFINED> instruction: 0x000004b8
     884:	00570001 	subseq	r0, r7, r1
	...
     890:	0c000000 	stceq	0, cr0, [r0], {-0}
     894:	01000000 	mrseq	r0, (UNDEF: 0)
     898:	000c5000 	andeq	r5, ip, r0
     89c:	00200000 	eoreq	r0, r0, r0
     8a0:	00010000 	andeq	r0, r1, r0
     8a4:	00000054 	andeq	r0, r0, r4, asr r0
     8a8:	00000000 	andeq	r0, r0, r0
     8ac:	00003400 	andeq	r3, r0, r0, lsl #8
     8b0:	00003c00 	andeq	r3, r0, r0, lsl #24
     8b4:	73000300 	movwvc	r0, #768	; 0x300
     8b8:	003c9f04 	eorseq	r9, ip, r4, lsl #30
     8bc:	00470000 	subeq	r0, r7, r0
     8c0:	00010000 	andeq	r0, r1, r0
     8c4:	00000053 	andeq	r0, r0, r3, asr r0
     8c8:	00000000 	andeq	r0, r0, r0
     8cc:	00004800 	andeq	r4, r0, r0, lsl #16
     8d0:	00007400 	andeq	r7, r0, r0, lsl #8
     8d4:	50000100 	andpl	r0, r0, r0, lsl #2
     8d8:	00000074 	andeq	r0, r0, r4, ror r0
     8dc:	00000083 	andeq	r0, r0, r3, lsl #1
     8e0:	78730003 	ldmdavc	r3!, {r0, r1}^
     8e4:	0000009f 	muleq	r0, pc, r0	; <UNPREDICTABLE>
     8e8:	00000000 	andeq	r0, r0, r0
     8ec:	00885000 	addeq	r5, r8, r0
     8f0:	00885400 	addeq	r5, r8, r0, lsl #8
     8f4:	30000200 	andcc	r0, r0, r0, lsl #4
     8f8:	0088549f 	umulleq	r5, r8, pc, r4	; <UNPREDICTABLE>
     8fc:	00885800 	addeq	r5, r8, r0, lsl #16
     900:	50000100 	andpl	r0, r0, r0, lsl #2
	...
     90c:	00008868 	andeq	r8, r0, r8, ror #16
     910:	0000886c 	andeq	r8, r0, ip, ror #16
     914:	9f300002 	svcls	0x00300002
     918:	0000886c 	andeq	r8, r0, ip, ror #16
     91c:	00008870 	andeq	r8, r0, r0, ror r8
     920:	74530001 	ldrbvc	r0, [r3], #-1
     924:	7c000088 	stcvc	0, cr0, [r0], {136}	; 0x88
     928:	01000088 	smlabbeq	r0, r8, r0, r0
     92c:	00005300 	andeq	r5, r0, r0, lsl #6
	...
     938:	00040000 	andeq	r0, r4, r0
     93c:	00010000 	andeq	r0, r1, r0
     940:	00000450 	andeq	r0, r0, r0, asr r4
     944:	00000c00 	andeq	r0, r0, r0, lsl #24
     948:	53000100 	movwpl	r0, #256	; 0x100
     94c:	0000000c 	andeq	r0, r0, ip
     950:	00000010 	andeq	r0, r0, r0, lsl r0
     954:	10500001 	subsne	r0, r0, r1
     958:	1c000000 	stcne	0, cr0, [r0], {-0}
     95c:	01000000 	mrseq	r0, (UNDEF: 0)
     960:	00005300 	andeq	r5, r0, r0, lsl #6
     964:	00000000 	andeq	r0, r0, r0
     968:	003c0000 	eorseq	r0, ip, r0
     96c:	00470000 	subeq	r0, r7, r0
     970:	00010000 	andeq	r0, r1, r0
     974:	00004750 	andeq	r4, r0, r0, asr r7
     978:	00006000 	andeq	r6, r0, r0
     97c:	55000100 	strpl	r0, [r0, #-256]	; 0x100
	...
     988:	00000050 	andeq	r0, r0, r0, asr r0
     98c:	00000054 	andeq	r0, r0, r4, asr r0
     990:	00500001 	subseq	r0, r0, r1
     994:	00000000 	andeq	r0, r0, r0
     998:	60000000 	andvs	r0, r0, r0
     99c:	6c000000 	stcvs	0, cr0, [r0], {-0}
     9a0:	01000000 	mrseq	r0, (UNDEF: 0)
     9a4:	006c5000 	rsbeq	r5, ip, r0
     9a8:	00740000 	rsbseq	r0, r4, r0
     9ac:	00040000 	andeq	r0, r4, r0
     9b0:	9f5001f3 	svcls	0x005001f3
	...
     9bc:	00000074 	andeq	r0, r0, r4, ror r0
     9c0:	00000080 	andeq	r0, r0, r0, lsl #1
     9c4:	80500001 	subshi	r0, r0, r1
     9c8:	88000000 	stmdahi	r0, {}	; <UNPREDICTABLE>
     9cc:	04000000 	streq	r0, [r0], #-0
     9d0:	5001f300 	andpl	pc, r1, r0, lsl #6
     9d4:	0000009f 	muleq	r0, pc, r0	; <UNPREDICTABLE>
	...
     9e0:	00001800 	andeq	r1, r0, r0, lsl #16
     9e4:	50000100 	andpl	r0, r0, r0, lsl #2
     9e8:	00000018 	andeq	r0, r0, r8, lsl r0
     9ec:	00000154 	andeq	r0, r0, r4, asr r1
     9f0:	01f30004 	mvnseq	r0, r4
     9f4:	00009f50 	andeq	r9, r0, r0, asr pc
	...
     a00:	001c0000 	andseq	r0, ip, r0
     a04:	00010000 	andeq	r0, r1, r0
     a08:	00001c51 	andeq	r1, r0, r1, asr ip
     a0c:	00015400 	andeq	r5, r1, r0, lsl #8
     a10:	f3000400 	vshl.u8	d0, d0, d0
     a14:	009f5101 	addseq	r5, pc, r1, lsl #2
     a18:	00000000 	andeq	r0, r0, r0
     a1c:	10000000 	andne	r0, r0, r0
     a20:	34000000 	strcc	r0, [r0], #-0
     a24:	01000001 	tsteq	r0, r1
     a28:	00005500 	andeq	r5, r0, r0, lsl #10
     a2c:	00000000 	andeq	r0, r0, r0
     a30:	00100000 	andseq	r0, r0, r0
     a34:	00340000 	eorseq	r0, r4, r0
     a38:	00010000 	andeq	r0, r1, r0
     a3c:	00003455 	andeq	r3, r0, r5, asr r4
     a40:	00013400 	andeq	r3, r1, r0, lsl #8
     a44:	58000100 	stmdapl	r0, {r8}
     a48:	00000134 	andeq	r0, r0, r4, lsr r1
     a4c:	00000154 	andeq	r0, r0, r4, asr r1
     a50:	00550001 	subseq	r0, r5, r1
     a54:	00000000 	andeq	r0, r0, r0
     a58:	14000000 	strne	r0, [r0], #-0
     a5c:	34000000 	strcc	r0, [r0], #-0
     a60:	01000001 	tsteq	r0, r1
     a64:	00005500 	andeq	r5, r0, r0, lsl #10
     a68:	00000000 	andeq	r0, r0, r0
     a6c:	00200000 	eoreq	r0, r0, r0
     a70:	01340000 	teqeq	r4, r0
     a74:	00010000 	andeq	r0, r1, r0
     a78:	00000055 	andeq	r0, r0, r5, asr r0
     a7c:	00000000 	andeq	r0, r0, r0
     a80:	00002400 	andeq	r2, r0, r0, lsl #8
     a84:	00002800 	andeq	r2, r0, r0, lsl #16
     a88:	53000100 	movwpl	r0, #256	; 0x100
	...
     a94:	00000034 	andeq	r0, r0, r4, lsr r0
     a98:	00000054 	andeq	r0, r0, r4, asr r0
     a9c:	54580001 	ldrbpl	r0, [r8], #-1
     aa0:	34000000 	strcc	r0, [r0], #-0
     aa4:	05000001 	streq	r0, [r0, #-1]
     aa8:	31007500 	tstcc	r0, r0, lsl #10
     aac:	00009f24 	andeq	r9, r0, r4, lsr #30
     ab0:	00000000 	andeq	r0, r0, r0
     ab4:	00340000 	eorseq	r0, r4, r0
     ab8:	003c0000 	eorseq	r0, ip, r0
     abc:	00050000 	andeq	r0, r5, r0
     ac0:	1a310077 	bne	c40ca4 <__bss_end__+0xc36974>
     ac4:	00003c9f 	muleq	r0, pc, ip	; <UNPREDICTABLE>
     ac8:	00003f00 	andeq	r3, r0, r0, lsl #30
     acc:	51000100 	mrspl	r0, (UNDEF: 16)
     ad0:	0000003f 	andeq	r0, r0, pc, lsr r0
     ad4:	00000154 	andeq	r0, r0, r4, asr r1
     ad8:	00770005 	rsbseq	r0, r7, r5
     adc:	009f1a31 	addseq	r1, pc, r1, lsr sl	; <UNPREDICTABLE>
     ae0:	00000000 	andeq	r0, r0, r0
     ae4:	40000000 	andmi	r0, r0, r0
     ae8:	54000000 	strpl	r0, [r0], #-0
     aec:	01000000 	mrseq	r0, (UNDEF: 0)
     af0:	00545800 	subseq	r5, r4, r0, lsl #16
     af4:	01340000 	teqeq	r4, r0
     af8:	00050000 	andeq	r0, r5, r0
     afc:	24310075 	ldrtcs	r0, [r1], #-117	; 0x75
     b00:	0000009f 	muleq	r0, pc, r0	; <UNPREDICTABLE>
     b04:	00000000 	andeq	r0, r0, r0
     b08:	00004400 	andeq	r4, r0, r0, lsl #8
     b0c:	00004800 	andeq	r4, r0, r0, lsl #16
     b10:	53000100 	movwpl	r0, #256	; 0x100
	...
     b1c:	00000054 	andeq	r0, r0, r4, asr r0
     b20:	00000074 	andeq	r0, r0, r4, ror r0
     b24:	74580001 	ldrbvc	r0, [r8], #-1
     b28:	34000000 	strcc	r0, [r0], #-0
     b2c:	08000001 	stmdaeq	r0, {r0}
     b30:	31007500 	tstcc	r0, r0, lsl #10
     b34:	22007524 	andcs	r7, r0, #36, 10	; 0x9000000
     b38:	0000009f 	muleq	r0, pc, r0	; <UNPREDICTABLE>
     b3c:	00000000 	andeq	r0, r0, r0
     b40:	00006000 	andeq	r6, r0, r0
     b44:	00007400 	andeq	r7, r0, r0, lsl #8
     b48:	58000100 	stmdapl	r0, {r8}
     b4c:	00000074 	andeq	r0, r0, r4, ror r0
     b50:	00000134 	andeq	r0, r0, r4, lsr r1
     b54:	00750008 	rsbseq	r0, r5, r8
     b58:	00752431 	rsbseq	r2, r5, r1, lsr r4
     b5c:	00009f22 	andeq	r9, r0, r2, lsr #30
     b60:	00000000 	andeq	r0, r0, r0
     b64:	00640000 	rsbeq	r0, r4, r0
     b68:	00680000 	rsbeq	r0, r8, r0
     b6c:	00010000 	andeq	r0, r1, r0
     b70:	00000053 	andeq	r0, r0, r3, asr r0
     b74:	00000000 	andeq	r0, r0, r0
     b78:	00007400 	andeq	r7, r0, r0, lsl #8
     b7c:	00009400 	andeq	r9, r0, r0, lsl #8
     b80:	58000100 	stmdapl	r0, {r8}
     b84:	00000094 	muleq	r0, r4, r0
     b88:	00000134 	andeq	r0, r0, r4, lsr r1
     b8c:	00750005 	rsbseq	r0, r5, r5
     b90:	009f2432 	addseq	r2, pc, r2, lsr r4	; <UNPREDICTABLE>
     b94:	00000000 	andeq	r0, r0, r0
     b98:	80000000 	andhi	r0, r0, r0
     b9c:	94000000 	strls	r0, [r0], #-0
     ba0:	01000000 	mrseq	r0, (UNDEF: 0)
     ba4:	00945800 	addseq	r5, r4, r0, lsl #16
     ba8:	01340000 	teqeq	r4, r0
     bac:	00050000 	andeq	r0, r5, r0
     bb0:	24320075 	ldrtcs	r0, [r2], #-117	; 0x75
     bb4:	0000009f 	muleq	r0, pc, r0	; <UNPREDICTABLE>
     bb8:	00000000 	andeq	r0, r0, r0
     bbc:	00008400 	andeq	r8, r0, r0, lsl #8
     bc0:	00008800 	andeq	r8, r0, r0, lsl #16
     bc4:	53000100 	movwpl	r0, #256	; 0x100
	...
     bd0:	00000094 	muleq	r0, r4, r0
     bd4:	000000b4 	strheq	r0, [r0], -r4
     bd8:	b4580001 	ldrblt	r0, [r8], #-1
     bdc:	34000000 	strcc	r0, [r0], #-0
     be0:	08000001 	stmdaeq	r0, {r0}
     be4:	32007500 	andcc	r7, r0, #0, 10
     be8:	22007524 	andcs	r7, r0, #36, 10	; 0x9000000
     bec:	0000009f 	muleq	r0, pc, r0	; <UNPREDICTABLE>
     bf0:	00000000 	andeq	r0, r0, r0
     bf4:	0000a000 	andeq	sl, r0, r0
     bf8:	0000b400 	andeq	fp, r0, r0, lsl #8
     bfc:	58000100 	stmdapl	r0, {r8}
     c00:	000000b4 	strheq	r0, [r0], -r4
     c04:	00000134 	andeq	r0, r0, r4, lsr r1
     c08:	00750008 	rsbseq	r0, r5, r8
     c0c:	00752432 	rsbseq	r2, r5, r2, lsr r4
     c10:	00009f22 	andeq	r9, r0, r2, lsr #30
     c14:	00000000 	andeq	r0, r0, r0
     c18:	00a40000 	adceq	r0, r4, r0
     c1c:	00a80000 	adceq	r0, r8, r0
     c20:	00010000 	andeq	r0, r1, r0
     c24:	00000053 	andeq	r0, r0, r3, asr r0
     c28:	00000000 	andeq	r0, r0, r0
     c2c:	0000b400 	andeq	fp, r0, r0, lsl #8
     c30:	0000d400 	andeq	sp, r0, r0, lsl #8
     c34:	58000100 	stmdapl	r0, {r8}
     c38:	000000d4 	ldrdeq	r0, [r0], -r4
     c3c:	00000134 	andeq	r0, r0, r4, lsr r1
     c40:	0075000a 	rsbseq	r0, r5, sl
     c44:	00752432 	rsbseq	r2, r5, r2, lsr r4
     c48:	9f222431 	svcls	0x00222431
	...
     c54:	000000c0 	andeq	r0, r0, r0, asr #1
     c58:	000000d4 	ldrdeq	r0, [r0], -r4
     c5c:	d4580001 	ldrble	r0, [r8], #-1
     c60:	34000000 	strcc	r0, [r0], #-0
     c64:	0a000001 	beq	c70 <_start-0x7390>
     c68:	32007500 	andcc	r7, r0, #0, 10
     c6c:	31007524 	tstcc	r0, r4, lsr #10
     c70:	009f2224 	addseq	r2, pc, r4, lsr #4
     c74:	00000000 	andeq	r0, r0, r0
     c78:	c4000000 	strgt	r0, [r0], #-0
     c7c:	c8000000 	stmdagt	r0, {}	; <UNPREDICTABLE>
     c80:	01000000 	mrseq	r0, (UNDEF: 0)
     c84:	00005300 	andeq	r5, r0, r0, lsl #6
     c88:	00000000 	andeq	r0, r0, r0
     c8c:	00d40000 	sbcseq	r0, r4, r0
     c90:	00f40000 	rscseq	r0, r4, r0
     c94:	00010000 	andeq	r0, r1, r0
     c98:	0000f458 	andeq	pc, r0, r8, asr r4	; <UNPREDICTABLE>
     c9c:	00013400 	andeq	r3, r1, r0, lsl #8
     ca0:	75000d00 	strvc	r0, [r0, #-3328]	; 0xd00
     ca4:	75243200 	strvc	r3, [r4, #-512]!	; 0x200
     ca8:	22243100 	eorcs	r3, r4, #0, 2
     cac:	9f220075 	svcls	0x00220075
	...
     cb8:	000000e0 	andeq	r0, r0, r0, ror #1
     cbc:	000000f4 	strdeq	r0, [r0], -r4
     cc0:	f4580001 			; <UNDEFINED> instruction: 0xf4580001
     cc4:	34000000 	strcc	r0, [r0], #-0
     cc8:	0d000001 	stceq	0, cr0, [r0, #-4]
     ccc:	32007500 	andcc	r7, r0, #0, 10
     cd0:	31007524 	tstcc	r0, r4, lsr #10
     cd4:	00752224 	rsbseq	r2, r5, r4, lsr #4
     cd8:	00009f22 	andeq	r9, r0, r2, lsr #30
     cdc:	00000000 	andeq	r0, r0, r0
     ce0:	00e40000 	rsceq	r0, r4, r0
     ce4:	00e80000 	rsceq	r0, r8, r0
     ce8:	00010000 	andeq	r0, r1, r0
     cec:	00000053 	andeq	r0, r0, r3, asr r0
     cf0:	00000000 	andeq	r0, r0, r0
     cf4:	0000f400 	andeq	pc, r0, r0, lsl #8
     cf8:	00011400 	andeq	r1, r1, r0, lsl #8
     cfc:	58000100 	stmdapl	r0, {r8}
     d00:	00000114 	andeq	r0, r0, r4, lsl r1
     d04:	00000134 	andeq	r0, r0, r4, lsr r1
     d08:	00750005 	rsbseq	r0, r5, r5
     d0c:	009f2433 	addseq	r2, pc, r3, lsr r4	; <UNPREDICTABLE>
	...
     d18:	14000001 	strne	r0, [r0], #-1
     d1c:	01000001 	tsteq	r0, r1
     d20:	01145800 	tsteq	r4, r0, lsl #16
     d24:	01340000 	teqeq	r4, r0
     d28:	00050000 	andeq	r0, r5, r0
     d2c:	24330075 	ldrtcs	r0, [r3], #-117	; 0x75
     d30:	0000009f 	muleq	r0, pc, r0	; <UNPREDICTABLE>
     d34:	00000000 	andeq	r0, r0, r0
     d38:	00010400 	andeq	r0, r1, r0, lsl #8
     d3c:	00010800 	andeq	r0, r1, r0, lsl #16
     d40:	53000100 	movwpl	r0, #256	; 0x100
	...
     d4c:	00000114 	andeq	r0, r0, r4, lsl r1
     d50:	0000011c 	andeq	r0, r0, ip, lsl r1
     d54:	00770006 	rsbseq	r0, r7, r6
     d58:	9f1a8008 	svcls	0x001a8008
     d5c:	0000011c 	andeq	r0, r0, ip, lsl r1
     d60:	0000011f 	andeq	r0, r0, pc, lsl r1
     d64:	1f510001 	svcne	0x00510001
     d68:	54000001 	strpl	r0, [r0], #-1
     d6c:	06000001 	streq	r0, [r0], -r1
     d70:	08007700 	stmdaeq	r0, {r8, r9, sl, ip, sp, lr}
     d74:	009f1a80 	addseq	r1, pc, r0, lsl #21
     d78:	00000000 	andeq	r0, r0, r0
     d7c:	24000000 	strcs	r0, [r0], #-0
     d80:	28000001 	stmdacs	r0, {r0}
     d84:	01000001 	tsteq	r0, r1
     d88:	00005300 	andeq	r5, r0, r0, lsl #6
     d8c:	00000000 	andeq	r0, r0, r0
     d90:	01440000 	mrseq	r0, (UNDEF: 68)
     d94:	01480000 	mrseq	r0, (UNDEF: 72)
     d98:	00010000 	andeq	r0, r1, r0
     d9c:	00000053 	andeq	r0, r0, r3, asr r0
     da0:	00000000 	andeq	r0, r0, r0
     da4:	00015400 	andeq	r5, r1, r0, lsl #8
     da8:	00016b00 	andeq	r6, r1, r0, lsl #22
     dac:	50000100 	andpl	r0, r0, r0, lsl #2
     db0:	0000016b 	andeq	r0, r0, fp, ror #2
     db4:	000001d0 	ldrdeq	r0, [r0], -r0	; <UNPREDICTABLE>
     db8:	d0590001 	subsle	r0, r9, r1
     dbc:	0c000001 	stceq	0, cr0, [r0], {1}
     dc0:	04000003 	streq	r0, [r0], #-3
     dc4:	5001f300 	andpl	pc, r1, r0, lsl #6
     dc8:	00030c9f 	muleq	r3, pc, ip	; <UNPREDICTABLE>
     dcc:	00031400 	andeq	r1, r3, r0, lsl #8
     dd0:	59000100 	stmdbpl	r0, {r8}
     dd4:	00000314 	andeq	r0, r0, r4, lsl r3
     dd8:	0000031c 	andeq	r0, r0, ip, lsl r3
     ddc:	01f30004 	mvnseq	r0, r4
     de0:	00009f50 	andeq	r9, r0, r0, asr pc
     de4:	00000000 	andeq	r0, r0, r0
     de8:	01540000 	cmpeq	r4, r0
     dec:	016b0000 	cmneq	fp, r0
     df0:	00010000 	andeq	r0, r1, r0
     df4:	00016b51 	andeq	r6, r1, r1, asr fp
     df8:	00031c00 	andeq	r1, r3, r0, lsl #24
     dfc:	56000100 	strpl	r0, [r0], -r0, lsl #2
	...
     e08:	000001a8 	andeq	r0, r0, r8, lsr #3
     e0c:	00000298 	muleq	r0, r8, r2
     e10:	00580001 	subseq	r0, r8, r1
     e14:	00000000 	andeq	r0, r0, r0
     e18:	ac000000 	stcge	0, cr0, [r0], {-0}
     e1c:	d0000001 	andle	r0, r0, r1
     e20:	01000002 	tsteq	r0, r2
     e24:	00005400 	andeq	r5, r0, r0, lsl #8
     e28:	00000000 	andeq	r0, r0, r0
     e2c:	01ac0000 			; <UNDEFINED> instruction: 0x01ac0000
     e30:	02d00000 	sbcseq	r0, r0, #0
     e34:	00050000 	andeq	r0, r5, r0
     e38:	25310074 	ldrcs	r0, [r1, #-116]!	; 0x74
     e3c:	0000009f 	muleq	r0, pc, r0	; <UNPREDICTABLE>
     e40:	00000000 	andeq	r0, r0, r0
     e44:	0001ac00 	andeq	sl, r1, r0, lsl #24
     e48:	0001d000 	andeq	sp, r1, r0
     e4c:	30000200 	andcc	r0, r0, r0, lsl #4
     e50:	0001d09f 	muleq	r1, pc, r0	; <UNPREDICTABLE>
     e54:	00030c00 	andeq	r0, r3, r0, lsl #24
     e58:	59000100 	stmdbpl	r0, {r8}
     e5c:	00000314 	andeq	r0, r0, r4, lsl r3
     e60:	0000031c 	andeq	r0, r0, ip, lsl r3
     e64:	00590001 	subseq	r0, r9, r1
     e68:	00000000 	andeq	r0, r0, r0
     e6c:	68000000 	stmdavs	r0, {}	; <UNPREDICTABLE>
     e70:	6b000001 	blvs	e7c <_start-0x7184>
     e74:	01000001 	tsteq	r0, r1
     e78:	016b5100 	cmneq	fp, r0, lsl #2
     e7c:	031c0000 	tsteq	ip, #0
     e80:	00010000 	andeq	r0, r1, r0
     e84:	00000056 	andeq	r0, r0, r6, asr r0
     e88:	00000000 	andeq	r0, r0, r0
     e8c:	00017000 	andeq	r7, r1, r0
     e90:	0001ac00 	andeq	sl, r1, r0, lsl #24
     e94:	54000100 	strpl	r0, [r0], #-256	; 0x100
     e98:	0000030c 	andeq	r0, r0, ip, lsl #6
     e9c:	00000314 	andeq	r0, r0, r4, lsl r3
     ea0:	00540001 	subseq	r0, r4, r1
     ea4:	00000000 	andeq	r0, r0, r0
     ea8:	a8000000 	stmdage	r0, {}	; <UNPREDICTABLE>
     eac:	c4000001 	strgt	r0, [r0], #-1
     eb0:	01000001 	tsteq	r0, r1
     eb4:	00005800 	andeq	r5, r0, r0, lsl #16
     eb8:	00000000 	andeq	r0, r0, r0
     ebc:	01b00000 	movseq	r0, r0
     ec0:	01cb0000 	biceq	r0, fp, r0
     ec4:	00010000 	andeq	r0, r1, r0
     ec8:	0001cb52 	andeq	ip, r1, r2, asr fp
     ecc:	0002d000 	andeq	sp, r2, r0
     ed0:	74000800 	strvc	r0, [r0], #-2048	; 0x800
     ed4:	74253100 	strtvc	r3, [r5], #-256	; 0x100
     ed8:	009f2200 	addseq	r2, pc, r0, lsl #4
     edc:	00000000 	andeq	r0, r0, r0
     ee0:	b0000000 	andlt	r0, r0, r0
     ee4:	c4000001 	strgt	r0, [r0], #-1
     ee8:	01000001 	tsteq	r0, r1
     eec:	00005800 	andeq	r5, r0, r0, lsl #16
     ef0:	00000000 	andeq	r0, r0, r0
     ef4:	01b40000 			; <UNDEFINED> instruction: 0x01b40000
     ef8:	01b80000 			; <UNDEFINED> instruction: 0x01b80000
     efc:	00010000 	andeq	r0, r1, r0
     f00:	00000053 	andeq	r0, r0, r3, asr r0
     f04:	00000000 	andeq	r0, r0, r0
     f08:	0001d000 	andeq	sp, r1, r0
     f0c:	0002d000 	andeq	sp, r2, r0
     f10:	54000100 	strpl	r0, [r0], #-256	; 0x100
	...
     f1c:	000001d0 	ldrdeq	r0, [r0], -r0	; <UNPREDICTABLE>
     f20:	000001e4 	andeq	r0, r0, r4, ror #3
     f24:	00580001 	subseq	r0, r8, r1
     f28:	00000000 	andeq	r0, r0, r0
     f2c:	d4000000 	strle	r0, [r0], #-0
     f30:	d8000001 	stmdale	r0, {r0}
     f34:	01000001 	tsteq	r0, r1
     f38:	00005300 	andeq	r5, r0, r0, lsl #6
     f3c:	00000000 	andeq	r0, r0, r0
     f40:	01f40000 	mvnseq	r0, r0
     f44:	02d00000 	sbcseq	r0, r0, #0
     f48:	00010000 	andeq	r0, r1, r0
     f4c:	00000054 	andeq	r0, r0, r4, asr r0
     f50:	00000000 	andeq	r0, r0, r0
     f54:	0001f400 	andeq	pc, r1, r0, lsl #8
     f58:	00020800 	andeq	r0, r2, r0, lsl #16
     f5c:	58000100 	stmdapl	r0, {r8}
	...
     f68:	000001f8 	strdeq	r0, [r0], -r8
     f6c:	000001fc 	strdeq	r0, [r0], -ip
     f70:	00530001 	subseq	r0, r3, r1
     f74:	00000000 	andeq	r0, r0, r0
     f78:	18000000 	stmdane	r0, {}	; <UNPREDICTABLE>
     f7c:	d0000002 	andle	r0, r0, r2
     f80:	01000002 	tsteq	r0, r2
     f84:	00005400 	andeq	r5, r0, r0, lsl #8
     f88:	00000000 	andeq	r0, r0, r0
     f8c:	02180000 	andseq	r0, r8, #0
     f90:	022c0000 	eoreq	r0, ip, #0
     f94:	00010000 	andeq	r0, r1, r0
     f98:	00000058 	andeq	r0, r0, r8, asr r0
     f9c:	00000000 	andeq	r0, r0, r0
     fa0:	00021c00 	andeq	r1, r2, r0, lsl #24
     fa4:	00022000 	andeq	r2, r2, r0
     fa8:	53000100 	movwpl	r0, #256	; 0x100
	...
     fb4:	0000023c 	andeq	r0, r0, ip, lsr r2
     fb8:	000002d0 	ldrdeq	r0, [r0], -r0	; <UNPREDICTABLE>
     fbc:	00540001 	subseq	r0, r4, r1
     fc0:	00000000 	andeq	r0, r0, r0
     fc4:	3c000000 	stccc	0, cr0, [r0], {-0}
     fc8:	50000002 	andpl	r0, r0, r2
     fcc:	01000002 	tsteq	r0, r2
     fd0:	00005800 	andeq	r5, r0, r0, lsl #16
     fd4:	00000000 	andeq	r0, r0, r0
     fd8:	02400000 	subeq	r0, r0, #0
     fdc:	02440000 	subeq	r0, r4, #0
     fe0:	00010000 	andeq	r0, r1, r0
     fe4:	00000053 	andeq	r0, r0, r3, asr r0
     fe8:	00000000 	andeq	r0, r0, r0
     fec:	00026000 	andeq	r6, r2, r0
     ff0:	0002d000 	andeq	sp, r2, r0
     ff4:	54000100 	strpl	r0, [r0], #-256	; 0x100
	...
    1000:	00000260 	andeq	r0, r0, r0, ror #4
    1004:	00000274 	andeq	r0, r0, r4, ror r2
    1008:	00580001 	subseq	r0, r8, r1
    100c:	00000000 	andeq	r0, r0, r0
    1010:	64000000 	strvs	r0, [r0], #-0
    1014:	68000002 	stmdavs	r0, {r1}
    1018:	01000002 	tsteq	r0, r2
    101c:	00005300 	andeq	r5, r0, r0, lsl #6
    1020:	00000000 	andeq	r0, r0, r0
    1024:	02840000 	addeq	r0, r4, #0
    1028:	02d00000 	sbcseq	r0, r0, #0
    102c:	00010000 	andeq	r0, r1, r0
    1030:	00000054 	andeq	r0, r0, r4, asr r0
    1034:	00000000 	andeq	r0, r0, r0
    1038:	00028400 	andeq	r8, r2, r0, lsl #8
    103c:	00029800 	andeq	r9, r2, r0, lsl #16
    1040:	58000100 	stmdapl	r0, {r8}
	...
    104c:	00000288 	andeq	r0, r0, r8, lsl #5
    1050:	0000028c 	andeq	r0, r0, ip, lsl #5
    1054:	00530001 	subseq	r0, r3, r1
    1058:	00000000 	andeq	r0, r0, r0
    105c:	a8000000 	stmdage	r0, {}	; <UNPREDICTABLE>
    1060:	d0000002 	andle	r0, r0, r2
    1064:	01000002 	tsteq	r0, r2
    1068:	00005400 	andeq	r5, r0, r0, lsl #8
    106c:	00000000 	andeq	r0, r0, r0
    1070:	02ac0000 	adceq	r0, ip, #0
    1074:	02b00000 	adcseq	r0, r0, #0
    1078:	00010000 	andeq	r0, r1, r0
    107c:	00000053 	andeq	r0, r0, r3, asr r0
    1080:	00000000 	andeq	r0, r0, r0
    1084:	0002c800 	andeq	ip, r2, r0, lsl #16
    1088:	00030c00 	andeq	r0, r3, r0, lsl #24
    108c:	30000200 	andcc	r0, r0, r0, lsl #4
    1090:	0003149f 	muleq	r3, pc, r4	; <UNPREDICTABLE>
    1094:	00031c00 	andeq	r1, r3, r0, lsl #24
    1098:	30000200 	andcc	r0, r0, r0, lsl #4
    109c:	0000009f 	muleq	r0, pc, r0	; <UNPREDICTABLE>
    10a0:	00000000 	andeq	r0, r0, r0
    10a4:	0002c800 	andeq	ip, r2, r0, lsl #16
    10a8:	00030c00 	andeq	r0, r3, r0, lsl #24
    10ac:	55000100 	strpl	r0, [r0, #-256]	; 0x100
    10b0:	00000314 	andeq	r0, r0, r4, lsl r3
    10b4:	0000031c 	andeq	r0, r0, ip, lsl r3
    10b8:	00550001 	subseq	r0, r5, r1
    10bc:	00000000 	andeq	r0, r0, r0
    10c0:	d0000000 	andle	r0, r0, r0
    10c4:	0c000002 	stceq	0, cr0, [r0], {2}
    10c8:	01000003 	tsteq	r0, r3
    10cc:	03145400 	tsteq	r4, #0, 8
    10d0:	031c0000 	tsteq	ip, #0
    10d4:	00010000 	andeq	r0, r1, r0
    10d8:	00000054 	andeq	r0, r0, r4, asr r0
    10dc:	00000000 	andeq	r0, r0, r0
    10e0:	00031c00 	andeq	r1, r3, r0, lsl #24
    10e4:	00033b00 	andeq	r3, r3, r0, lsl #22
    10e8:	50000100 	andpl	r0, r0, r0, lsl #2
    10ec:	0000033b 	andeq	r0, r0, fp, lsr r3
    10f0:	00000354 	andeq	r0, r0, r4, asr r3
    10f4:	54580001 	ldrbpl	r0, [r8], #-1
    10f8:	64000003 	strvs	r0, [r0], #-3
    10fc:	01000003 	tsteq	r0, r3
    1100:	03645000 	cmneq	r4, #0
    1104:	03ac0000 			; <UNDEFINED> instruction: 0x03ac0000
    1108:	00010000 	andeq	r0, r1, r0
    110c:	00000058 	andeq	r0, r0, r8, asr r0
    1110:	00000000 	andeq	r0, r0, r0
    1114:	00031c00 	andeq	r1, r3, r0, lsl #24
    1118:	00033b00 	andeq	r3, r3, r0, lsl #22
    111c:	51000100 	mrspl	r0, (UNDEF: 16)
    1120:	0000033b 	andeq	r0, r0, fp, lsr r3
    1124:	00000354 	andeq	r0, r0, r4, asr r3
    1128:	54560001 	ldrbpl	r0, [r6], #-1
    112c:	64000003 	strvs	r0, [r0], #-3
    1130:	01000003 	tsteq	r0, r3
    1134:	03645100 	cmneq	r4, #0, 2
    1138:	03ac0000 			; <UNDEFINED> instruction: 0x03ac0000
    113c:	00010000 	andeq	r0, r1, r0
    1140:	00000056 	andeq	r0, r0, r6, asr r0
    1144:	00000000 	andeq	r0, r0, r0
    1148:	00031c00 	andeq	r1, r3, r0, lsl #24
    114c:	00033b00 	andeq	r3, r3, r0, lsl #22
    1150:	52000100 	andpl	r0, r0, #0, 2
    1154:	0000033b 	andeq	r0, r0, fp, lsr r3
    1158:	00000354 	andeq	r0, r0, r4, asr r3
    115c:	01f30004 	mvnseq	r0, r4
    1160:	03549f52 	cmpeq	r4, #328	; 0x148
    1164:	03640000 	cmneq	r4, #0
    1168:	00010000 	andeq	r0, r1, r0
    116c:	00036452 	andeq	r6, r3, r2, asr r4
    1170:	0003ac00 	andeq	sl, r3, r0, lsl #24
    1174:	77000300 	strvc	r0, [r0, -r0, lsl #6]
    1178:	00009f01 	andeq	r9, r0, r1, lsl #30
    117c:	00000000 	andeq	r0, r0, r0
    1180:	031c0000 	tsteq	ip, #0
    1184:	033b0000 	teqeq	fp, #0
    1188:	00010000 	andeq	r0, r1, r0
    118c:	00033b53 	andeq	r3, r3, r3, asr fp
    1190:	00035400 	andeq	r5, r3, r0, lsl #8
    1194:	f3000400 	vshl.u8	d0, d0, d0
    1198:	549f5301 	ldrpl	r5, [pc], #769	; 11a0 <_start-0x6e60>
    119c:	64000003 	strvs	r0, [r0], #-3
    11a0:	01000003 	tsteq	r0, r3
    11a4:	03645300 	cmneq	r4, #0, 6
    11a8:	03ac0000 			; <UNDEFINED> instruction: 0x03ac0000
    11ac:	00040000 	andeq	r0, r4, r0
    11b0:	9f5301f3 	svcls	0x005301f3
	...
    11bc:	0000035c 	andeq	r0, r0, ip, asr r3
    11c0:	00000364 	andeq	r0, r0, r4, ror #6
    11c4:	9f300002 	svcls	0x00300002
    11c8:	00000364 	andeq	r0, r0, r4, ror #6
    11cc:	000003ac 	andeq	r0, r0, ip, lsr #7
    11d0:	00540001 	subseq	r0, r4, r1
    11d4:	00000000 	andeq	r0, r0, r0
    11d8:	74000000 	strvc	r0, [r0], #-0
    11dc:	84000003 	strhi	r0, [r0], #-3
    11e0:	01000003 	tsteq	r0, r3
    11e4:	00005000 	andeq	r5, r0, r0
    11e8:	00000000 	andeq	r0, r0, r0
    11ec:	03ac0000 			; <UNDEFINED> instruction: 0x03ac0000
    11f0:	03c70000 	biceq	r0, r7, #0
    11f4:	00010000 	andeq	r0, r1, r0
    11f8:	0003c750 	andeq	ip, r3, r0, asr r7
    11fc:	0003e000 	andeq	lr, r3, r0
    1200:	57000100 	strpl	r0, [r0, -r0, lsl #2]
    1204:	000003e0 	andeq	r0, r0, r0, ror #7
    1208:	000003f0 	strdeq	r0, [r0], -r0	; <UNPREDICTABLE>
    120c:	f0500001 			; <UNDEFINED> instruction: 0xf0500001
    1210:	28000003 	stmdacs	r0, {r0, r1}
    1214:	01000004 	tsteq	r0, r4
    1218:	00005700 	andeq	r5, r0, r0, lsl #14
    121c:	00000000 	andeq	r0, r0, r0
    1220:	03ac0000 			; <UNDEFINED> instruction: 0x03ac0000
    1224:	03c70000 	biceq	r0, r7, #0
    1228:	00010000 	andeq	r0, r1, r0
    122c:	0003c751 	andeq	ip, r3, r1, asr r7
    1230:	0003e000 	andeq	lr, r3, r0
    1234:	55000100 	strpl	r0, [r0, #-256]	; 0x100
    1238:	000003e0 	andeq	r0, r0, r0, ror #7
    123c:	000003f0 	strdeq	r0, [r0], -r0	; <UNPREDICTABLE>
    1240:	f0510001 			; <UNDEFINED> instruction: 0xf0510001
    1244:	28000003 	stmdacs	r0, {r0, r1}
    1248:	01000004 	tsteq	r0, r4
    124c:	00005500 	andeq	r5, r0, r0, lsl #10
    1250:	00000000 	andeq	r0, r0, r0
    1254:	03ac0000 			; <UNDEFINED> instruction: 0x03ac0000
    1258:	03c70000 	biceq	r0, r7, #0
    125c:	00010000 	andeq	r0, r1, r0
    1260:	0003c752 	andeq	ip, r3, r2, asr r7
    1264:	0003e000 	andeq	lr, r3, r0
    1268:	f3000400 	vshl.u8	d0, d0, d0
    126c:	e09f5201 	adds	r5, pc, r1, lsl #4
    1270:	f0000003 			; <UNDEFINED> instruction: 0xf0000003
    1274:	01000003 	tsteq	r0, r3
    1278:	03f05200 	mvnseq	r5, #0, 4
    127c:	04280000 	strteq	r0, [r8], #-0
    1280:	00030000 	andeq	r0, r3, r0
    1284:	009f0176 	addseq	r0, pc, r6, ror r1	; <UNPREDICTABLE>
    1288:	00000000 	andeq	r0, r0, r0
    128c:	ac000000 	stcge	0, cr0, [r0], {-0}
    1290:	c7000003 	strgt	r0, [r0, -r3]
    1294:	01000003 	tsteq	r0, r3
    1298:	03c75300 	biceq	r5, r7, #0, 6
    129c:	03e00000 	mvneq	r0, #0
    12a0:	00010000 	andeq	r0, r1, r0
    12a4:	0003e058 	andeq	lr, r3, r8, asr r0
    12a8:	0003f000 	andeq	pc, r3, r0
    12ac:	53000100 	movwpl	r0, #256	; 0x100
    12b0:	000003f0 	strdeq	r0, [r0], -r0	; <UNPREDICTABLE>
    12b4:	00000428 	andeq	r0, r0, r8, lsr #8
    12b8:	00580001 	subseq	r0, r8, r1
    12bc:	00000000 	andeq	r0, r0, r0
    12c0:	e8000000 	stmda	r0, {}	; <UNPREDICTABLE>
    12c4:	f0000003 			; <UNDEFINED> instruction: 0xf0000003
    12c8:	02000003 	andeq	r0, r0, #3
    12cc:	f09f3000 			; <UNDEFINED> instruction: 0xf09f3000
    12d0:	28000003 	stmdacs	r0, {r0, r1}
    12d4:	01000004 	tsteq	r0, r4
    12d8:	00005400 	andeq	r5, r0, r0, lsl #8
    12dc:	00000000 	andeq	r0, r0, r0
    12e0:	04280000 	strteq	r0, [r8], #-0
    12e4:	04470000 	strbeq	r0, [r7], #-0
    12e8:	00010000 	andeq	r0, r1, r0
    12ec:	00044751 	andeq	r4, r4, r1, asr r7
    12f0:	0004e800 	andeq	lr, r4, r0, lsl #16
    12f4:	f3000400 	vshl.u8	d0, d0, d0
    12f8:	009f5101 	addseq	r5, pc, r1, lsl #2
    12fc:	00000000 	andeq	r0, r0, r0
    1300:	28000000 	stmdacs	r0, {}	; <UNPREDICTABLE>
    1304:	47000004 	strmi	r0, [r0, -r4]
    1308:	01000004 	tsteq	r0, r4
    130c:	04475200 	strbeq	r5, [r7], #-512	; 0x200
    1310:	04e80000 	strbteq	r0, [r8], #0
    1314:	00040000 	andeq	r0, r4, r0
    1318:	9f5201f3 	svcls	0x005201f3
	...
    1324:	00000428 	andeq	r0, r0, r8, lsr #8
    1328:	00000447 	andeq	r0, r0, r7, asr #8
    132c:	47530001 	ldrbmi	r0, [r3, -r1]
    1330:	e8000004 	stmda	r0, {r2}
    1334:	01000004 	tsteq	r0, r4
    1338:	00005500 	andeq	r5, r0, r0, lsl #10
    133c:	00000000 	andeq	r0, r0, r0
    1340:	04680000 	strbteq	r0, [r8], #-0
    1344:	04a70000 	strteq	r0, [r7], #0
    1348:	00010000 	andeq	r0, r1, r0
    134c:	0004a752 	andeq	sl, r4, r2, asr r7
    1350:	0004c000 	andeq	ip, r4, r0
    1354:	75000600 	strvc	r0, [r0, #-1536]	; 0x600
    1358:	1e007700 	cdpne	7, 0, cr7, cr0, cr0, {0}
    135c:	0004c09f 	muleq	r4, pc, r0	; <UNPREDICTABLE>
    1360:	0004e800 	andeq	lr, r4, r0, lsl #16
    1364:	52000100 	andpl	r0, r0, #0, 2
	...
    1370:	000004e8 	andeq	r0, r0, r8, ror #9
    1374:	000004f3 	strdeq	r0, [r0], -r3
    1378:	f3500001 	vhadd.u16	d16, d0, d1
    137c:	24000004 	strcs	r0, [r0], #-4
    1380:	04000005 	streq	r0, [r0], #-5
    1384:	5001f300 	andpl	pc, r1, r0, lsl #6
    1388:	0000009f 	muleq	r0, pc, r0	; <UNPREDICTABLE>
    138c:	00000000 	andeq	r0, r0, r0
    1390:	0004f400 	andeq	pc, r4, r0, lsl #8
    1394:	0004ff00 	andeq	pc, r4, r0, lsl #30
    1398:	50000100 	andpl	r0, r0, r0, lsl #2
	...
    13a4:	00000524 	andeq	r0, r0, r4, lsr #10
    13a8:	00000534 	andeq	r0, r0, r4, lsr r5
    13ac:	34500001 	ldrbcc	r0, [r0], #-1
    13b0:	50000005 	andpl	r0, r0, r5
    13b4:	01000005 	tsteq	r0, r5
    13b8:	00005500 	andeq	r5, r0, r0, lsl #10
    13bc:	00000000 	andeq	r0, r0, r0
    13c0:	05240000 	streq	r0, [r4, #-0]!
    13c4:	05340000 	ldreq	r0, [r4, #-0]!
    13c8:	00010000 	andeq	r0, r1, r0
    13cc:	00053451 	andeq	r3, r5, r1, asr r4
    13d0:	00055000 	andeq	r5, r5, r0
    13d4:	54000100 	strpl	r0, [r0], #-256	; 0x100
	...
    13e0:	00000550 	andeq	r0, r0, r0, asr r5
    13e4:	0000056c 	andeq	r0, r0, ip, ror #10
    13e8:	6c500001 	mrrcvs	0, 0, r0, r0, cr1	; <UNPREDICTABLE>
    13ec:	bc000005 	stclt	0, cr0, [r0], {5}
    13f0:	01000005 	tsteq	r0, r5
    13f4:	05bc5500 	ldreq	r5, [ip, #1280]!	; 0x500
    13f8:	05d40000 	ldrbeq	r0, [r4]
    13fc:	00040000 	andeq	r0, r4, r0
    1400:	9f5001f3 	svcls	0x005001f3
	...
    140c:	0000057c 	andeq	r0, r0, ip, ror r5
    1410:	0000058b 	andeq	r0, r0, fp, lsl #11
    1414:	8b500001 	blhi	1401420 <__bss_end__+0x13f70f0>
    1418:	a4000005 	strge	r0, [r0], #-5
    141c:	01000005 	tsteq	r0, r5
    1420:	05a45400 	streq	r5, [r4, #1024]!	; 0x400
    1424:	05a80000 	streq	r0, [r8, #0]!
    1428:	00010000 	andeq	r0, r1, r0
    142c:	0005a850 	andeq	sl, r5, r0, asr r8
    1430:	0005bc00 	andeq	fp, r5, r0, lsl #24
    1434:	54000100 	strpl	r0, [r0], #-256	; 0x100
    1438:	000005bc 			; <UNDEFINED> instruction: 0x000005bc
    143c:	000005d4 	ldrdeq	r0, [r0], -r4
    1440:	00500001 	subseq	r0, r0, r1
    1444:	00000000 	andeq	r0, r0, r0
    1448:	d4000000 	strle	r0, [r0], #-0
    144c:	e7000005 	str	r0, [r0, -r5]
    1450:	01000005 	tsteq	r0, r5
    1454:	05e75000 	strbeq	r5, [r7, #0]!
    1458:	06200000 	strteq	r0, [r0], -r0
    145c:	00040000 	andeq	r0, r4, r0
    1460:	9f5001f3 	svcls	0x005001f3
	...
    146c:	000005d4 	ldrdeq	r0, [r0], -r4
    1470:	000005e7 	andeq	r0, r0, r7, ror #11
    1474:	e7510001 	ldrb	r0, [r1, -r1]
    1478:	20000005 	andcs	r0, r0, r5
    147c:	04000006 	streq	r0, [r0], #-6
    1480:	5101f300 	mrspl	pc, SP_irq	; <UNPREDICTABLE>
    1484:	0000009f 	muleq	r0, pc, r0	; <UNPREDICTABLE>
    1488:	00000000 	andeq	r0, r0, r0
    148c:	0005d400 	andeq	sp, r5, r0, lsl #8
    1490:	0005e700 	andeq	lr, r5, r0, lsl #14
    1494:	52000100 	andpl	r0, r0, #0, 2
    1498:	000005e7 	andeq	r0, r0, r7, ror #11
    149c:	00000620 	andeq	r0, r0, r0, lsr #12
    14a0:	01f30004 	mvnseq	r0, r4
    14a4:	00009f52 	andeq	r9, r0, r2, asr pc
    14a8:	00000000 	andeq	r0, r0, r0
    14ac:	05d40000 	ldrbeq	r0, [r4]
    14b0:	05e70000 	strbeq	r0, [r7, #0]!
    14b4:	00010000 	andeq	r0, r1, r0
    14b8:	0005e753 	andeq	lr, r5, r3, asr r7
    14bc:	00062000 	andeq	r2, r6, r0
    14c0:	f3000400 	vshl.u8	d0, d0, d0
    14c4:	009f5301 	addseq	r5, pc, r1, lsl #6
    14c8:	00000000 	andeq	r0, r0, r0
    14cc:	e8000000 	stmda	r0, {}	; <UNPREDICTABLE>
    14d0:	f3000005 	vhadd.u8	d0, d0, d5
    14d4:	01000005 	tsteq	r0, r5
    14d8:	060c5000 	streq	r5, [ip], -r0
    14dc:	06200000 	strteq	r0, [r0], -r0
    14e0:	00010000 	andeq	r0, r1, r0
    14e4:	00000050 	andeq	r0, r0, r0, asr r0
    14e8:	00000000 	andeq	r0, r0, r0
    14ec:	0000fc00 	andeq	pc, r0, r0, lsl #24
    14f0:	00010400 	andeq	r0, r1, r0, lsl #8
    14f4:	50000100 	andpl	r0, r0, r0, lsl #2
    14f8:	00000104 	andeq	r0, r0, r4, lsl #2
    14fc:	00000128 	andeq	r0, r0, r8, lsr #2
    1500:	00540001 	subseq	r0, r4, r1
	...
    150c:	90000000 	andls	r0, r0, r0
    1510:	01000000 	mrseq	r0, (UNDEF: 0)
    1514:	00905000 	addseq	r5, r0, r0
    1518:	00d40000 	sbcseq	r0, r4, r0
    151c:	00010000 	andeq	r0, r1, r0
    1520:	00000054 	andeq	r0, r0, r4, asr r0
    1524:	00000000 	andeq	r0, r0, r0
    1528:	00004800 	andeq	r4, r0, r0, lsl #16
    152c:	00004c00 	andeq	r4, r0, r0, lsl #24
    1530:	55000100 	strpl	r0, [r0, #-256]	; 0x100
    1534:	00000054 	andeq	r0, r0, r4, asr r0
    1538:	00000058 	andeq	r0, r0, r8, asr r0
    153c:	60550001 	subsvs	r0, r5, r1
    1540:	64000000 	strvs	r0, [r0], #-0
    1544:	01000000 	mrseq	r0, (UNDEF: 0)
    1548:	006c5500 	rsbeq	r5, ip, r0, lsl #10
    154c:	00700000 	rsbseq	r0, r0, r0
    1550:	00010000 	andeq	r0, r1, r0
    1554:	00007855 	andeq	r7, r0, r5, asr r8
    1558:	00007c00 	andeq	r7, r0, r0, lsl #24
    155c:	55000100 	strpl	r0, [r0, #-256]	; 0x100
    1560:	00000084 	andeq	r0, r0, r4, lsl #1
    1564:	00000088 	andeq	r0, r0, r8, lsl #1
    1568:	8c550001 	mrrchi	0, 0, r0, r5, cr1
    156c:	d4000000 	strle	r0, [r0], #-0
    1570:	01000000 	mrseq	r0, (UNDEF: 0)
    1574:	00005500 	andeq	r5, r0, r0, lsl #10
    1578:	00000000 	andeq	r0, r0, r0
    157c:	001c0000 	andseq	r0, ip, r0
    1580:	00440000 	subeq	r0, r4, r0
    1584:	00010000 	andeq	r0, r1, r0
    1588:	00004453 	andeq	r4, r0, r3, asr r4
    158c:	00004c00 	andeq	r4, r0, r0, lsl #24
    1590:	70001c00 	andvc	r1, r0, r0, lsl #24
    1594:	f72cf700 			; <UNDEFINED> instruction: 0xf72cf700
    1598:	0825f425 	stmdaeq	r5!, {r0, r2, r5, sl, ip, sp, lr, pc}
    159c:	cccccccd 	stclgt	12, cr12, [ip], {205}	; 0xcd
    15a0:	00000000 	andeq	r0, r0, r0
    15a4:	f720081e 			; <UNDEFINED> instruction: 0xf720081e
    15a8:	2cf72525 	cfldr64cs	mvdx2, [r7], #148	; 0x94
    15ac:	4c9f2533 	cfldr32mi	mvfx2, [pc], {51}	; 0x33
    15b0:	50000000 	andpl	r0, r0, r0
    15b4:	01000000 	mrseq	r0, (UNDEF: 0)
    15b8:	00505300 	subseq	r5, r0, r0, lsl #6
    15bc:	00580000 	subseq	r0, r8, r0
    15c0:	001c0000 	andseq	r0, ip, r0
    15c4:	2cf70070 	ldclcs	0, cr0, [r7], #448	; 0x1c0
    15c8:	25f425f7 	ldrbcs	r2, [r4, #1527]!	; 0x5f7
    15cc:	cccccd08 	stclgt	13, cr12, [ip], {8}
    15d0:	000000cc 	andeq	r0, r0, ip, asr #1
    15d4:	20081e00 	andcs	r1, r8, r0, lsl #28
    15d8:	f72525f7 			; <UNDEFINED> instruction: 0xf72525f7
    15dc:	9f25332c 	svcls	0x0025332c
    15e0:	00000058 	andeq	r0, r0, r8, asr r0
    15e4:	0000005c 	andeq	r0, r0, ip, asr r0
    15e8:	5c530001 	mrrcpl	0, 0, r0, r3, cr1
    15ec:	64000000 	strvs	r0, [r0], #-0
    15f0:	1c000000 	stcne	0, cr0, [r0], {-0}
    15f4:	f7007000 			; <UNDEFINED> instruction: 0xf7007000
    15f8:	f425f72c 	vld1.8	{d15}, [r5 :128], ip
    15fc:	cccd0825 	stclgt	8, cr0, [sp], {37}	; 0x25
    1600:	0000cccc 	andeq	ip, r0, ip, asr #25
    1604:	081e0000 	ldmdaeq	lr, {}	; <UNPREDICTABLE>
    1608:	2525f720 	strcs	pc, [r5, #-1824]!	; 0x720
    160c:	25332cf7 	ldrcs	r2, [r3, #-3319]!	; 0xcf7
    1610:	0000649f 	muleq	r0, pc, r4	; <UNPREDICTABLE>
    1614:	00006800 	andeq	r6, r0, r0, lsl #16
    1618:	53000100 	movwpl	r0, #256	; 0x100
    161c:	00000068 	andeq	r0, r0, r8, rrx
    1620:	00000070 	andeq	r0, r0, r0, ror r0
    1624:	0070001c 	rsbseq	r0, r0, ip, lsl r0
    1628:	25f72cf7 	ldrbcs	r2, [r7, #3319]!	; 0xcf7
    162c:	cd0825f4 	cfstr32gt	mvfx2, [r8, #-976]	; 0xfffffc30
    1630:	00cccccc 	sbceq	ip, ip, ip, asr #25
    1634:	1e000000 	cdpne	0, 0, cr0, cr0, cr0, {0}
    1638:	25f72008 	ldrbcs	r2, [r7, #8]!
    163c:	332cf725 	msrcc	CPSR_fs, #9699328	; 0x940000
    1640:	00709f25 	rsbseq	r9, r0, r5, lsr #30
    1644:	00740000 	rsbseq	r0, r4, r0
    1648:	00010000 	andeq	r0, r1, r0
    164c:	00007453 	andeq	r7, r0, r3, asr r4
    1650:	00007c00 	andeq	r7, r0, r0, lsl #24
    1654:	70001c00 	andvc	r1, r0, r0, lsl #24
    1658:	f72cf700 			; <UNDEFINED> instruction: 0xf72cf700
    165c:	0825f425 	stmdaeq	r5!, {r0, r2, r5, sl, ip, sp, lr, pc}
    1660:	cccccccd 	stclgt	12, cr12, [ip], {205}	; 0xcd
    1664:	00000000 	andeq	r0, r0, r0
    1668:	f720081e 			; <UNDEFINED> instruction: 0xf720081e
    166c:	2cf72525 	cfldr64cs	mvdx2, [r7], #148	; 0x94
    1670:	7c9f2533 	cfldr32vc	mvfx2, [pc], {51}	; 0x33
    1674:	80000000 	andhi	r0, r0, r0
    1678:	01000000 	mrseq	r0, (UNDEF: 0)
    167c:	00805300 	addeq	r5, r0, r0, lsl #6
    1680:	00880000 	addeq	r0, r8, r0
    1684:	001c0000 	andseq	r0, ip, r0
    1688:	2cf70070 	ldclcs	0, cr0, [r7], #448	; 0x1c0
    168c:	25f425f7 	ldrbcs	r2, [r4, #1527]!	; 0x5f7
    1690:	cccccd08 	stclgt	13, cr12, [ip], {8}
    1694:	000000cc 	andeq	r0, r0, ip, asr #1
    1698:	20081e00 	andcs	r1, r8, r0, lsl #28
    169c:	f72525f7 			; <UNDEFINED> instruction: 0xf72525f7
    16a0:	9f25332c 	svcls	0x0025332c
    16a4:	00000088 	andeq	r0, r0, r8, lsl #1
    16a8:	0000008c 	andeq	r0, r0, ip, lsl #1
    16ac:	8c530001 	mrrchi	0, 0, r0, r3, cr1
    16b0:	90000000 	andls	r0, r0, r0
    16b4:	1c000000 	stcne	0, cr0, [r0], {-0}
    16b8:	f7007000 			; <UNDEFINED> instruction: 0xf7007000
    16bc:	f425f72c 	vld1.8	{d15}, [r5 :128], ip
    16c0:	cccd0825 	stclgt	8, cr0, [sp], {37}	; 0x25
    16c4:	0000cccc 	andeq	ip, r0, ip, asr #25
    16c8:	081e0000 	ldmdaeq	lr, {}	; <UNPREDICTABLE>
    16cc:	2525f720 	strcs	pc, [r5, #-1824]!	; 0x720
    16d0:	25332cf7 	ldrcs	r2, [r3, #-3319]!	; 0xcf7
    16d4:	0000909f 	muleq	r0, pc, r0	; <UNPREDICTABLE>
    16d8:	00009800 	andeq	r9, r0, r0, lsl #16
    16dc:	74001c00 	strvc	r1, [r0], #-3072	; 0xc00
    16e0:	f72cf700 			; <UNDEFINED> instruction: 0xf72cf700
    16e4:	0825f425 	stmdaeq	r5!, {r0, r2, r5, sl, ip, sp, lr, pc}
    16e8:	cccccccd 	stclgt	12, cr12, [ip], {205}	; 0xcd
    16ec:	00000000 	andeq	r0, r0, r0
    16f0:	f720081e 			; <UNDEFINED> instruction: 0xf720081e
    16f4:	2cf72525 	cfldr64cs	mvdx2, [r7], #148	; 0x94
    16f8:	989f2533 	ldmls	pc, {r0, r1, r4, r5, r8, sl, sp}	; <UNPREDICTABLE>
    16fc:	9c000000 	stcls	0, cr0, [r0], {-0}
    1700:	17000000 	strne	r0, [r0, -r0]
    1704:	f7007400 			; <UNDEFINED> instruction: 0xf7007400
    1708:	7125f72c 	msrvc	SP_abt, ip
    170c:	f72cf700 			; <UNDEFINED> instruction: 0xf72cf700
    1710:	20081e25 	andcs	r1, r8, r5, lsr #28
    1714:	f72525f7 			; <UNDEFINED> instruction: 0xf72525f7
    1718:	9f25332c 	svcls	0x0025332c
    171c:	0000009c 	muleq	r0, ip, r0
    1720:	000000d4 	ldrdeq	r0, [r0], -r4
    1724:	0074001c 	rsbseq	r0, r4, ip, lsl r0
    1728:	25f72cf7 	ldrbcs	r2, [r7, #3319]!	; 0xcf7
    172c:	cd0825f4 	cfstr32gt	mvfx2, [r8, #-976]	; 0xfffffc30
    1730:	00cccccc 	sbceq	ip, ip, ip, asr #25
    1734:	1e000000 	cdpne	0, 0, cr0, cr0, cr0, {0}
    1738:	25f72008 	ldrbcs	r2, [r7, #8]!
    173c:	332cf725 	msrcc	CPSR_fs, #9699328	; 0x940000
    1740:	00009f25 	andeq	r9, r0, r5, lsr #30
    1744:	00000000 	andeq	r0, r0, r0
    1748:	00940000 	addseq	r0, r4, r0
    174c:	00b80000 	adcseq	r0, r8, r0
    1750:	00010000 	andeq	r0, r1, r0
    1754:	0000b850 	andeq	fp, r0, r0, asr r8
    1758:	0000c400 	andeq	ip, r0, r0, lsl #8
    175c:	31000800 	tstcc	r0, r0, lsl #16
    1760:	73240071 	teqvc	r4, #113	; 0x71
    1764:	c49f2100 	ldrgt	r2, [pc], #256	; 176c <_start-0x6894>
    1768:	c7000000 	strgt	r0, [r0, -r0]
    176c:	01000000 	mrseq	r0, (UNDEF: 0)
    1770:	00005100 	andeq	r5, r0, r0, lsl #2
    1774:	00000000 	andeq	r0, r0, r0
    1778:	00d40000 	sbcseq	r0, r4, r0
    177c:	00f80000 	rscseq	r0, r8, r0
    1780:	00010000 	andeq	r0, r1, r0
    1784:	0000f850 	andeq	pc, r0, r0, asr r8	; <UNPREDICTABLE>
    1788:	00010c00 	andeq	r0, r1, r0, lsl #24
    178c:	f3000400 	vshl.u8	d0, d0, d0
    1790:	009f5001 	addseq	r5, pc, r1
    1794:	00000000 	andeq	r0, r0, r0
    1798:	e0000000 	and	r0, r0, r0
    179c:	e8000000 	stmda	r0, {}	; <UNPREDICTABLE>
    17a0:	02000000 	andeq	r0, r0, #0
    17a4:	e89f3000 	ldm	pc, {ip, sp}	; <UNPREDICTABLE>
    17a8:	e8000000 	stmda	r0, {}	; <UNPREDICTABLE>
    17ac:	01000000 	mrseq	r0, (UNDEF: 0)
    17b0:	00e85200 	rsceq	r5, r8, r0, lsl #4
    17b4:	00f00000 	rscseq	r0, r0, r0
    17b8:	00020000 	andeq	r0, r2, r0
    17bc:	00f09f30 	rscseq	r9, r0, r0, lsr pc
    17c0:	01030000 	mrseq	r0, (UNDEF: 3)
    17c4:	00010000 	andeq	r0, r1, r0
    17c8:	00000052 	andeq	r0, r0, r2, asr r0
    17cc:	00000000 	andeq	r0, r0, r0
    17d0:	0000e000 	andeq	lr, r0, r0
    17d4:	0000f400 	andeq	pc, r0, r0, lsl #8
    17d8:	30000200 	andcc	r0, r0, r0, lsl #4
    17dc:	0000f49f 	muleq	r0, pc, r4	; <UNPREDICTABLE>
    17e0:	00010000 	andeq	r0, r1, r0
    17e4:	31000500 	tstcc	r0, r0, lsl #10
    17e8:	9f240073 	svcls	0x00240073
    17ec:	00000100 	andeq	r0, r0, r0, lsl #2
    17f0:	00000103 	andeq	r0, r0, r3, lsl #2
    17f4:	03510001 	cmpeq	r1, #1
    17f8:	0c000001 	stceq	0, cr0, [r0], {1}
    17fc:	08000001 	stmdaeq	r0, {r0}
    1800:	01f33100 	mvnseq	r3, r0, lsl #2
    1804:	241a4f50 	ldrcs	r4, [sl], #-3920	; 0xf50
    1808:	0000009f 	muleq	r0, pc, r0	; <UNPREDICTABLE>
    180c:	00000000 	andeq	r0, r0, r0
    1810:	00010c00 	andeq	r0, r1, r0, lsl #24
    1814:	00013000 	andeq	r3, r1, r0
    1818:	50000100 	andpl	r0, r0, r0, lsl #2
    181c:	00000130 	andeq	r0, r0, r0, lsr r1
    1820:	00000144 	andeq	r0, r0, r4, asr #2
    1824:	01f30004 	mvnseq	r0, r4
    1828:	00009f50 	andeq	r9, r0, r0, asr pc
    182c:	00000000 	andeq	r0, r0, r0
    1830:	01180000 	tsteq	r8, r0
    1834:	01200000 	teqeq	r0, r0
    1838:	00020000 	andeq	r0, r2, r0
    183c:	01209f30 	teqeq	r0, r0, lsr pc
    1840:	01200000 	teqeq	r0, r0
    1844:	00010000 	andeq	r0, r1, r0
    1848:	00012052 	andeq	r2, r1, r2, asr r0
    184c:	00012800 	andeq	r2, r1, r0, lsl #16
    1850:	30000200 	andcc	r0, r0, r0, lsl #4
    1854:	0001289f 	muleq	r1, pc, r8	; <UNPREDICTABLE>
    1858:	00013b00 	andeq	r3, r1, r0, lsl #22
    185c:	52000100 	andpl	r0, r0, #0, 2
	...
    1868:	00000118 	andeq	r0, r0, r8, lsl r1
    186c:	0000012c 	andeq	r0, r0, ip, lsr #2
    1870:	9f300002 	svcls	0x00300002
    1874:	0000012c 	andeq	r0, r0, ip, lsr #2
    1878:	00000138 	andeq	r0, r0, r8, lsr r1
    187c:	73310005 	teqvc	r1, #5
    1880:	389f2400 	ldmcc	pc, {sl, sp}	; <UNPREDICTABLE>
    1884:	3b000001 	blcc	1890 <_start-0x6770>
    1888:	01000001 	tsteq	r0, r1
    188c:	013b5100 	teqeq	fp, r0, lsl #2
    1890:	01440000 	mrseq	r0, (UNDEF: 68)
    1894:	00080000 	andeq	r0, r8, r0
    1898:	5001f331 	andpl	pc, r1, r1, lsr r3	; <UNPREDICTABLE>
    189c:	9f241a4f 	svcls	0x00241a4f
	...
    18a8:	00000144 	andeq	r0, r0, r4, asr #2
    18ac:	000001d4 	ldrdeq	r0, [r0], -r4
    18b0:	d4500001 	ldrble	r0, [r0], #-1
    18b4:	10000001 	andne	r0, r0, r1
    18b8:	01000002 	tsteq	r0, r2
    18bc:	00005400 	andeq	r5, r0, r0, lsl #8
    18c0:	00000000 	andeq	r0, r0, r0
    18c4:	018c0000 	orreq	r0, ip, r0
    18c8:	01900000 	orrseq	r0, r0, r0
    18cc:	00010000 	andeq	r0, r1, r0
    18d0:	00019855 	andeq	r9, r1, r5, asr r8
    18d4:	00019c00 	andeq	r9, r1, r0, lsl #24
    18d8:	55000100 	strpl	r0, [r0, #-256]	; 0x100
    18dc:	000001a4 	andeq	r0, r0, r4, lsr #3
    18e0:	000001a8 	andeq	r0, r0, r8, lsr #3
    18e4:	b0550001 	subslt	r0, r5, r1
    18e8:	b4000001 	strlt	r0, [r0], #-1
    18ec:	01000001 	tsteq	r0, r1
    18f0:	01bc5500 			; <UNDEFINED> instruction: 0x01bc5500
    18f4:	01c00000 	biceq	r0, r0, r0
    18f8:	00010000 	andeq	r0, r1, r0
    18fc:	0001c855 	andeq	ip, r1, r5, asr r8
    1900:	0001cc00 	andeq	ip, r1, r0, lsl #24
    1904:	55000100 	strpl	r0, [r0, #-256]	; 0x100
    1908:	000001d0 	ldrdeq	r0, [r0], -r0	; <UNPREDICTABLE>
    190c:	00000210 	andeq	r0, r0, r0, lsl r2
    1910:	00550001 	subseq	r0, r5, r1
    1914:	00000000 	andeq	r0, r0, r0
    1918:	60000000 	andvs	r0, r0, r0
    191c:	88000001 	stmdahi	r0, {r0}
    1920:	01000001 	tsteq	r0, r1
    1924:	01885300 	orreq	r5, r8, r0, lsl #6
    1928:	01900000 	orrseq	r0, r0, r0
    192c:	001c0000 	andseq	r0, ip, r0
    1930:	2cf70070 	ldclcs	0, cr0, [r7], #448	; 0x1c0
    1934:	25f425f7 	ldrbcs	r2, [r4, #1527]!	; 0x5f7
    1938:	cccccd08 	stclgt	13, cr12, [ip], {8}
    193c:	000000cc 	andeq	r0, r0, ip, asr #1
    1940:	20081e00 	andcs	r1, r8, r0, lsl #28
    1944:	f72525f7 			; <UNDEFINED> instruction: 0xf72525f7
    1948:	9f25332c 	svcls	0x0025332c
    194c:	00000190 	muleq	r0, r0, r1
    1950:	00000194 	muleq	r0, r4, r1
    1954:	94530001 	ldrbls	r0, [r3], #-1
    1958:	9c000001 	stcls	0, cr0, [r0], {1}
    195c:	1c000001 	stcne	0, cr0, [r0], {1}
    1960:	f7007000 			; <UNDEFINED> instruction: 0xf7007000
    1964:	f425f72c 	vld1.8	{d15}, [r5 :128], ip
    1968:	cccd0825 	stclgt	8, cr0, [sp], {37}	; 0x25
    196c:	0000cccc 	andeq	ip, r0, ip, asr #25
    1970:	081e0000 	ldmdaeq	lr, {}	; <UNPREDICTABLE>
    1974:	2525f720 	strcs	pc, [r5, #-1824]!	; 0x720
    1978:	25332cf7 	ldrcs	r2, [r3, #-3319]!	; 0xcf7
    197c:	00019c9f 	muleq	r1, pc, ip	; <UNPREDICTABLE>
    1980:	0001a000 	andeq	sl, r1, r0
    1984:	53000100 	movwpl	r0, #256	; 0x100
    1988:	000001a0 	andeq	r0, r0, r0, lsr #3
    198c:	000001a8 	andeq	r0, r0, r8, lsr #3
    1990:	0070001c 	rsbseq	r0, r0, ip, lsl r0
    1994:	25f72cf7 	ldrbcs	r2, [r7, #3319]!	; 0xcf7
    1998:	cd0825f4 	cfstr32gt	mvfx2, [r8, #-976]	; 0xfffffc30
    199c:	00cccccc 	sbceq	ip, ip, ip, asr #25
    19a0:	1e000000 	cdpne	0, 0, cr0, cr0, cr0, {0}
    19a4:	25f72008 	ldrbcs	r2, [r7, #8]!
    19a8:	332cf725 	msrcc	CPSR_fs, #9699328	; 0x940000
    19ac:	01a89f25 			; <UNDEFINED> instruction: 0x01a89f25
    19b0:	01ac0000 			; <UNDEFINED> instruction: 0x01ac0000
    19b4:	00010000 	andeq	r0, r1, r0
    19b8:	0001ac53 	andeq	sl, r1, r3, asr ip
    19bc:	0001b400 	andeq	fp, r1, r0, lsl #8
    19c0:	70001c00 	andvc	r1, r0, r0, lsl #24
    19c4:	f72cf700 			; <UNDEFINED> instruction: 0xf72cf700
    19c8:	0825f425 	stmdaeq	r5!, {r0, r2, r5, sl, ip, sp, lr, pc}
    19cc:	cccccccd 	stclgt	12, cr12, [ip], {205}	; 0xcd
    19d0:	00000000 	andeq	r0, r0, r0
    19d4:	f720081e 			; <UNDEFINED> instruction: 0xf720081e
    19d8:	2cf72525 	cfldr64cs	mvdx2, [r7], #148	; 0x94
    19dc:	b49f2533 	ldrlt	r2, [pc], #1331	; 19e4 <_start-0x661c>
    19e0:	b8000001 	stmdalt	r0, {r0}
    19e4:	01000001 	tsteq	r0, r1
    19e8:	01b85300 			; <UNDEFINED> instruction: 0x01b85300
    19ec:	01c00000 	biceq	r0, r0, r0
    19f0:	001c0000 	andseq	r0, ip, r0
    19f4:	2cf70070 	ldclcs	0, cr0, [r7], #448	; 0x1c0
    19f8:	25f425f7 	ldrbcs	r2, [r4, #1527]!	; 0x5f7
    19fc:	cccccd08 	stclgt	13, cr12, [ip], {8}
    1a00:	000000cc 	andeq	r0, r0, ip, asr #1
    1a04:	20081e00 	andcs	r1, r8, r0, lsl #28
    1a08:	f72525f7 			; <UNDEFINED> instruction: 0xf72525f7
    1a0c:	9f25332c 	svcls	0x0025332c
    1a10:	000001c0 	andeq	r0, r0, r0, asr #3
    1a14:	000001c4 	andeq	r0, r0, r4, asr #3
    1a18:	c4530001 	ldrbgt	r0, [r3], #-1
    1a1c:	cc000001 	stcgt	0, cr0, [r0], {1}
    1a20:	1c000001 	stcne	0, cr0, [r0], {1}
    1a24:	f7007000 			; <UNDEFINED> instruction: 0xf7007000
    1a28:	f425f72c 	vld1.8	{d15}, [r5 :128], ip
    1a2c:	cccd0825 	stclgt	8, cr0, [sp], {37}	; 0x25
    1a30:	0000cccc 	andeq	ip, r0, ip, asr #25
    1a34:	081e0000 	ldmdaeq	lr, {}	; <UNPREDICTABLE>
    1a38:	2525f720 	strcs	pc, [r5, #-1824]!	; 0x720
    1a3c:	25332cf7 	ldrcs	r2, [r3, #-3319]!	; 0xcf7
    1a40:	0001cc9f 	muleq	r1, pc, ip	; <UNPREDICTABLE>
    1a44:	0001d000 	andeq	sp, r1, r0
    1a48:	53000100 	movwpl	r0, #256	; 0x100
    1a4c:	000001d0 	ldrdeq	r0, [r0], -r0	; <UNPREDICTABLE>
    1a50:	000001d4 	ldrdeq	r0, [r0], -r4
    1a54:	0070001c 	rsbseq	r0, r0, ip, lsl r0
    1a58:	25f72cf7 	ldrbcs	r2, [r7, #3319]!	; 0xcf7
    1a5c:	cd0825f4 	cfstr32gt	mvfx2, [r8, #-976]	; 0xfffffc30
    1a60:	00cccccc 	sbceq	ip, ip, ip, asr #25
    1a64:	1e000000 	cdpne	0, 0, cr0, cr0, cr0, {0}
    1a68:	25f72008 	ldrbcs	r2, [r7, #8]!
    1a6c:	332cf725 	msrcc	CPSR_fs, #9699328	; 0x940000
    1a70:	01d49f25 	bicseq	r9, r4, r5, lsr #30
    1a74:	01dc0000 	bicseq	r0, ip, r0
    1a78:	001c0000 	andseq	r0, ip, r0
    1a7c:	2cf70074 	ldclcs	0, cr0, [r7], #464	; 0x1d0
    1a80:	25f425f7 	ldrbcs	r2, [r4, #1527]!	; 0x5f7
    1a84:	cccccd08 	stclgt	13, cr12, [ip], {8}
    1a88:	000000cc 	andeq	r0, r0, ip, asr #1
    1a8c:	20081e00 	andcs	r1, r8, r0, lsl #28
    1a90:	f72525f7 			; <UNDEFINED> instruction: 0xf72525f7
    1a94:	9f25332c 	svcls	0x0025332c
    1a98:	000001dc 	ldrdeq	r0, [r0], -ip
    1a9c:	000001e0 	andeq	r0, r0, r0, ror #3
    1aa0:	00740017 	rsbseq	r0, r4, r7, lsl r0
    1aa4:	25f72cf7 	ldrbcs	r2, [r7, #3319]!	; 0xcf7
    1aa8:	2cf70071 	ldclcs	0, cr0, [r7], #452	; 0x1c4
    1aac:	081e25f7 	ldmdaeq	lr, {r0, r1, r2, r4, r5, r6, r7, r8, sl, sp}
    1ab0:	2525f720 	strcs	pc, [r5, #-1824]!	; 0x720
    1ab4:	25332cf7 	ldrcs	r2, [r3, #-3319]!	; 0xcf7
    1ab8:	0001e09f 	muleq	r1, pc, r0	; <UNPREDICTABLE>
    1abc:	00021000 	andeq	r1, r2, r0
    1ac0:	74001c00 	strvc	r1, [r0], #-3072	; 0xc00
    1ac4:	f72cf700 			; <UNDEFINED> instruction: 0xf72cf700
    1ac8:	0825f425 	stmdaeq	r5!, {r0, r2, r5, sl, ip, sp, lr, pc}
    1acc:	cccccccd 	stclgt	12, cr12, [ip], {205}	; 0xcd
    1ad0:	00000000 	andeq	r0, r0, r0
    1ad4:	f720081e 			; <UNDEFINED> instruction: 0xf720081e
    1ad8:	2cf72525 	cfldr64cs	mvdx2, [r7], #148	; 0x94
    1adc:	009f2533 	addseq	r2, pc, r3, lsr r5	; <UNPREDICTABLE>
    1ae0:	00000000 	andeq	r0, r0, r0
    1ae4:	d8000000 	stmdale	r0, {}	; <UNPREDICTABLE>
    1ae8:	fc000001 	stc2	0, cr0, [r0], {1}
    1aec:	01000001 	tsteq	r0, r1
    1af0:	01fc5000 	mvnseq	r5, r0
    1af4:	02030000 	andeq	r0, r3, #0
    1af8:	00010000 	andeq	r0, r1, r0
    1afc:	00000051 	andeq	r0, r0, r1, asr r0
    1b00:	00000000 	andeq	r0, r0, r0
    1b04:	00021000 	andeq	r1, r2, r0
    1b08:	00022c00 	andeq	r2, r2, r0, lsl #24
    1b0c:	50000100 	andpl	r0, r0, r0, lsl #2
    1b10:	0000022c 	andeq	r0, r0, ip, lsr #4
    1b14:	00000234 	andeq	r0, r0, r4, lsr r2
    1b18:	34540001 	ldrbcc	r0, [r4], #-1
    1b1c:	3c000002 	stccc	0, cr0, [r0], {2}
    1b20:	01000002 	tsteq	r0, r2
    1b24:	023c5000 	eorseq	r5, ip, #0
    1b28:	02440000 	subeq	r0, r4, #0
    1b2c:	00010000 	andeq	r0, r1, r0
    1b30:	00024454 	andeq	r4, r2, r4, asr r4
    1b34:	00025000 	andeq	r5, r2, r0
    1b38:	f3000400 	vshl.u8	d0, d0, d0
    1b3c:	509f5001 	addspl	r5, pc, r1
    1b40:	54000002 	strpl	r0, [r0], #-2
    1b44:	01000002 	tsteq	r0, r2
    1b48:	02545000 	subseq	r5, r4, #0
    1b4c:	025c0000 	subseq	r0, ip, #0
    1b50:	00010000 	andeq	r0, r1, r0
    1b54:	00000054 	andeq	r0, r0, r4, asr r0
    1b58:	00000000 	andeq	r0, r0, r0
    1b5c:	00022000 	andeq	r2, r2, r0
    1b60:	00023000 	andeq	r3, r2, r0
    1b64:	30000200 	andcc	r0, r0, r0, lsl #4
    1b68:	0002309f 	muleq	r2, pc, r0	; <UNPREDICTABLE>
    1b6c:	00023400 	andeq	r3, r2, r0, lsl #8
    1b70:	50000100 	andpl	r0, r0, r0, lsl #2
    1b74:	00000234 	andeq	r0, r0, r4, lsr r2
    1b78:	00000240 	andeq	r0, r0, r0, asr #4
    1b7c:	9f300002 	svcls	0x00300002
    1b80:	00000240 	andeq	r0, r0, r0, asr #4
    1b84:	0000024c 	andeq	r0, r0, ip, asr #4
    1b88:	00500001 	subseq	r0, r0, r1
    1b8c:	00000000 	andeq	r0, r0, r0
    1b90:	5c000000 	stcpl	0, cr0, [r0], {-0}
    1b94:	90000002 	andls	r0, r0, r2
    1b98:	01000002 	tsteq	r0, r2
    1b9c:	02905000 	addseq	r5, r0, #0
    1ba0:	02a00000 	adceq	r0, r0, #0
    1ba4:	00040000 	andeq	r0, r4, r0
    1ba8:	9f5001f3 	svcls	0x005001f3
    1bac:	000002a0 	andeq	r0, r0, r0, lsr #5
    1bb0:	000002c0 	andeq	r0, r0, r0, asr #5
    1bb4:	c0500001 	subsgt	r0, r0, r1
    1bb8:	d4000002 	strle	r0, [r0], #-2
    1bbc:	04000002 	streq	r0, [r0], #-2
    1bc0:	5001f300 	andpl	pc, r1, r0, lsl #6
    1bc4:	0000009f 	muleq	r0, pc, r0	; <UNPREDICTABLE>
    1bc8:	00000000 	andeq	r0, r0, r0
    1bcc:	00025c00 	andeq	r5, r2, r0, lsl #24
    1bd0:	00029400 	andeq	r9, r2, r0, lsl #8
    1bd4:	51000100 	mrspl	r0, (UNDEF: 16)
    1bd8:	00000294 	muleq	r0, r4, r2
    1bdc:	000002a0 	andeq	r0, r0, r0, lsr #5
    1be0:	01f30004 	mvnseq	r0, r4
    1be4:	02a09f51 	adceq	r9, r0, #324	; 0x144
    1be8:	02c40000 	sbceq	r0, r4, #0
    1bec:	00010000 	andeq	r0, r1, r0
    1bf0:	0002c451 	andeq	ip, r2, r1, asr r4
    1bf4:	0002d400 	andeq	sp, r2, r0, lsl #8
    1bf8:	f3000400 	vshl.u8	d0, d0, d0
    1bfc:	009f5101 	addseq	r5, pc, r1, lsl #2
    1c00:	00000000 	andeq	r0, r0, r0
    1c04:	70000000 	andvc	r0, r0, r0
    1c08:	90000002 	andls	r0, r0, r2
    1c0c:	01000002 	tsteq	r0, r2
    1c10:	02905000 	addseq	r5, r0, #0
    1c14:	02a00000 	adceq	r0, r0, #0
    1c18:	00040000 	andeq	r0, r4, r0
    1c1c:	9f5001f3 	svcls	0x005001f3
	...
    1c28:	00000278 	andeq	r0, r0, r8, ror r2
    1c2c:	00000280 	andeq	r0, r0, r0, lsl #5
    1c30:	9f300002 	svcls	0x00300002
    1c34:	00000280 	andeq	r0, r0, r0, lsl #5
    1c38:	00000280 	andeq	r0, r0, r0, lsl #5
    1c3c:	80520001 	subshi	r0, r2, r1
    1c40:	88000002 	stmdahi	r0, {r1}
    1c44:	02000002 	andeq	r0, r0, #2
    1c48:	889f3000 	ldmhi	pc, {ip, sp}	; <UNPREDICTABLE>
    1c4c:	9b000002 	blls	1c5c <_start-0x63a4>
    1c50:	01000002 	tsteq	r0, r2
    1c54:	00005200 	andeq	r5, r0, r0, lsl #4
    1c58:	00000000 	andeq	r0, r0, r0
    1c5c:	02780000 	rsbseq	r0, r8, #0
    1c60:	028c0000 	addeq	r0, ip, #0
    1c64:	00020000 	andeq	r0, r2, r0
    1c68:	028c9f30 	addeq	r9, ip, #48, 30	; 0xc0
    1c6c:	02980000 	addseq	r0, r8, #0
    1c70:	00050000 	andeq	r0, r5, r0
    1c74:	24007331 	strcs	r7, [r0], #-817	; 0x331
    1c78:	0002989f 	muleq	r2, pc, r8	; <UNPREDICTABLE>
    1c7c:	00029b00 	andeq	r9, r2, r0, lsl #22
    1c80:	51000100 	mrspl	r0, (UNDEF: 16)
    1c84:	0000029b 	muleq	r0, fp, r2
    1c88:	000002a0 	andeq	r0, r0, r0, lsr #5
    1c8c:	f3310008 	vhadd.u<illegal width 64>	d0, d1, d8
    1c90:	1a4f5001 	bne	13d5c9c <__bss_end__+0x13cb96c>
    1c94:	00009f24 	andeq	r9, r0, r4, lsr #30
    1c98:	00000000 	andeq	r0, r0, r0
    1c9c:	02a00000 	adceq	r0, r0, #0
    1ca0:	02c00000 	sbceq	r0, r0, #0
    1ca4:	00010000 	andeq	r0, r1, r0
    1ca8:	0002c050 	andeq	ip, r2, r0, asr r0
    1cac:	0002d400 	andeq	sp, r2, r0, lsl #8
    1cb0:	f3000400 	vshl.u8	d0, d0, d0
    1cb4:	009f5001 	addseq	r5, pc, r1
    1cb8:	00000000 	andeq	r0, r0, r0
    1cbc:	a8000000 	stmdage	r0, {}	; <UNPREDICTABLE>
    1cc0:	b0000002 	andlt	r0, r0, r2
    1cc4:	02000002 	andeq	r0, r0, #2
    1cc8:	b09f3000 	addslt	r3, pc, r0
    1ccc:	b0000002 	andlt	r0, r0, r2
    1cd0:	01000002 	tsteq	r0, r2
    1cd4:	02b05200 	adcseq	r5, r0, #0, 4
    1cd8:	02b80000 	adcseq	r0, r8, #0
    1cdc:	00020000 	andeq	r0, r2, r0
    1ce0:	02b89f30 	adcseq	r9, r8, #48, 30	; 0xc0
    1ce4:	02cb0000 	sbceq	r0, fp, #0
    1ce8:	00010000 	andeq	r0, r1, r0
    1cec:	00000052 	andeq	r0, r0, r2, asr r0
    1cf0:	00000000 	andeq	r0, r0, r0
    1cf4:	0002a800 	andeq	sl, r2, r0, lsl #16
    1cf8:	0002bc00 	andeq	fp, r2, r0, lsl #24
    1cfc:	30000200 	andcc	r0, r0, r0, lsl #4
    1d00:	0002bc9f 	muleq	r2, pc, ip	; <UNPREDICTABLE>
    1d04:	0002c800 	andeq	ip, r2, r0, lsl #16
    1d08:	31000500 	tstcc	r0, r0, lsl #10
    1d0c:	9f240073 	svcls	0x00240073
    1d10:	000002c8 	andeq	r0, r0, r8, asr #5
    1d14:	000002cb 	andeq	r0, r0, fp, asr #5
    1d18:	cb510001 	blgt	1441d24 <__bss_end__+0x14379f4>
    1d1c:	d4000002 	strle	r0, [r0], #-2
    1d20:	08000002 	stmdaeq	r0, {r1}
    1d24:	01f33100 	mvnseq	r3, r0, lsl #2
    1d28:	241a4f50 	ldrcs	r4, [sl], #-3920	; 0xf50
    1d2c:	0000009f 	muleq	r0, pc, r0	; <UNPREDICTABLE>
    1d30:	00000000 	andeq	r0, r0, r0
    1d34:	0002d400 	andeq	sp, r2, r0, lsl #8
    1d38:	00036c00 	andeq	r6, r3, r0, lsl #24
    1d3c:	50000100 	andpl	r0, r0, r0, lsl #2
    1d40:	0000036c 	andeq	r0, r0, ip, ror #6
    1d44:	000003ac 	andeq	r0, r0, ip, lsr #7
    1d48:	00540001 	subseq	r0, r4, r1
    1d4c:	00000000 	andeq	r0, r0, r0
    1d50:	d4000000 	strle	r0, [r0], #-0
    1d54:	6f000002 	svcvs	0x00000002
    1d58:	01000003 	tsteq	r0, r3
    1d5c:	036f5100 	cmneq	pc, #0, 2
    1d60:	03ac0000 			; <UNDEFINED> instruction: 0x03ac0000
    1d64:	00040000 	andeq	r0, r4, r0
    1d68:	9f5101f3 	svcls	0x005101f3
	...
    1d74:	00000324 	andeq	r0, r0, r4, lsr #6
    1d78:	00000328 	andeq	r0, r0, r8, lsr #6
    1d7c:	30560001 	subscc	r0, r6, r1
    1d80:	34000003 	strcc	r0, [r0], #-3
    1d84:	01000003 	tsteq	r0, r3
    1d88:	033c5600 	teqeq	ip, #0, 12
    1d8c:	03400000 	movteq	r0, #0
    1d90:	00010000 	andeq	r0, r1, r0
    1d94:	00034856 	andeq	r4, r3, r6, asr r8
    1d98:	00034c00 	andeq	r4, r3, r0, lsl #24
    1d9c:	56000100 	strpl	r0, [r0], -r0, lsl #2
    1da0:	00000354 	andeq	r0, r0, r4, asr r3
    1da4:	00000358 	andeq	r0, r0, r8, asr r3
    1da8:	60560001 	subsvs	r0, r6, r1
    1dac:	64000003 	strvs	r0, [r0], #-3
    1db0:	01000003 	tsteq	r0, r3
    1db4:	03685600 	cmneq	r8, #0, 12
    1db8:	03ac0000 			; <UNDEFINED> instruction: 0x03ac0000
    1dbc:	00010000 	andeq	r0, r1, r0
    1dc0:	00000056 	andeq	r0, r0, r6, asr r0
    1dc4:	00000000 	andeq	r0, r0, r0
    1dc8:	0002f800 	andeq	pc, r2, r0, lsl #16
    1dcc:	00032000 	andeq	r2, r3, r0
    1dd0:	53000100 	movwpl	r0, #256	; 0x100
    1dd4:	00000320 	andeq	r0, r0, r0, lsr #6
    1dd8:	00000328 	andeq	r0, r0, r8, lsr #6
    1ddc:	0070001c 	rsbseq	r0, r0, ip, lsl r0
    1de0:	25f72cf7 	ldrbcs	r2, [r7, #3319]!	; 0xcf7
    1de4:	cd0825f4 	cfstr32gt	mvfx2, [r8, #-976]	; 0xfffffc30
    1de8:	00cccccc 	sbceq	ip, ip, ip, asr #25
    1dec:	1e000000 	cdpne	0, 0, cr0, cr0, cr0, {0}
    1df0:	25f72008 	ldrbcs	r2, [r7, #8]!
    1df4:	332cf725 	msrcc	CPSR_fs, #9699328	; 0x940000
    1df8:	03289f25 	teqeq	r8, #37, 30	; 0x94
    1dfc:	032c0000 	teqeq	ip, #0
    1e00:	00010000 	andeq	r0, r1, r0
    1e04:	00032c53 	andeq	r2, r3, r3, asr ip
    1e08:	00033400 	andeq	r3, r3, r0, lsl #8
    1e0c:	70001c00 	andvc	r1, r0, r0, lsl #24
    1e10:	f72cf700 			; <UNDEFINED> instruction: 0xf72cf700
    1e14:	0825f425 	stmdaeq	r5!, {r0, r2, r5, sl, ip, sp, lr, pc}
    1e18:	cccccccd 	stclgt	12, cr12, [ip], {205}	; 0xcd
    1e1c:	00000000 	andeq	r0, r0, r0
    1e20:	f720081e 			; <UNDEFINED> instruction: 0xf720081e
    1e24:	2cf72525 	cfldr64cs	mvdx2, [r7], #148	; 0x94
    1e28:	349f2533 	ldrcc	r2, [pc], #1331	; 1e30 <_start-0x61d0>
    1e2c:	38000003 	stmdacc	r0, {r0, r1}
    1e30:	01000003 	tsteq	r0, r3
    1e34:	03385300 	teqeq	r8, #0, 6
    1e38:	03400000 	movteq	r0, #0
    1e3c:	001c0000 	andseq	r0, ip, r0
    1e40:	2cf70070 	ldclcs	0, cr0, [r7], #448	; 0x1c0
    1e44:	25f425f7 	ldrbcs	r2, [r4, #1527]!	; 0x5f7
    1e48:	cccccd08 	stclgt	13, cr12, [ip], {8}
    1e4c:	000000cc 	andeq	r0, r0, ip, asr #1
    1e50:	20081e00 	andcs	r1, r8, r0, lsl #28
    1e54:	f72525f7 			; <UNDEFINED> instruction: 0xf72525f7
    1e58:	9f25332c 	svcls	0x0025332c
    1e5c:	00000340 	andeq	r0, r0, r0, asr #6
    1e60:	00000344 	andeq	r0, r0, r4, asr #6
    1e64:	44530001 	ldrbmi	r0, [r3], #-1
    1e68:	4c000003 	stcmi	0, cr0, [r0], {3}
    1e6c:	1c000003 	stcne	0, cr0, [r0], {3}
    1e70:	f7007000 			; <UNDEFINED> instruction: 0xf7007000
    1e74:	f425f72c 	vld1.8	{d15}, [r5 :128], ip
    1e78:	cccd0825 	stclgt	8, cr0, [sp], {37}	; 0x25
    1e7c:	0000cccc 	andeq	ip, r0, ip, asr #25
    1e80:	081e0000 	ldmdaeq	lr, {}	; <UNPREDICTABLE>
    1e84:	2525f720 	strcs	pc, [r5, #-1824]!	; 0x720
    1e88:	25332cf7 	ldrcs	r2, [r3, #-3319]!	; 0xcf7
    1e8c:	00034c9f 	muleq	r3, pc, ip	; <UNPREDICTABLE>
    1e90:	00035000 	andeq	r5, r3, r0
    1e94:	53000100 	movwpl	r0, #256	; 0x100
    1e98:	00000350 	andeq	r0, r0, r0, asr r3
    1e9c:	00000358 	andeq	r0, r0, r8, asr r3
    1ea0:	0070001c 	rsbseq	r0, r0, ip, lsl r0
    1ea4:	25f72cf7 	ldrbcs	r2, [r7, #3319]!	; 0xcf7
    1ea8:	cd0825f4 	cfstr32gt	mvfx2, [r8, #-976]	; 0xfffffc30
    1eac:	00cccccc 	sbceq	ip, ip, ip, asr #25
    1eb0:	1e000000 	cdpne	0, 0, cr0, cr0, cr0, {0}
    1eb4:	25f72008 	ldrbcs	r2, [r7, #8]!
    1eb8:	332cf725 	msrcc	CPSR_fs, #9699328	; 0x940000
    1ebc:	03589f25 	cmpeq	r8, #37, 30	; 0x94
    1ec0:	035c0000 	cmpeq	ip, #0
    1ec4:	00010000 	andeq	r0, r1, r0
    1ec8:	00035c53 	andeq	r5, r3, r3, asr ip
    1ecc:	00036400 	andeq	r6, r3, r0, lsl #8
    1ed0:	70001c00 	andvc	r1, r0, r0, lsl #24
    1ed4:	f72cf700 			; <UNDEFINED> instruction: 0xf72cf700
    1ed8:	0825f425 	stmdaeq	r5!, {r0, r2, r5, sl, ip, sp, lr, pc}
    1edc:	cccccccd 	stclgt	12, cr12, [ip], {205}	; 0xcd
    1ee0:	00000000 	andeq	r0, r0, r0
    1ee4:	f720081e 			; <UNDEFINED> instruction: 0xf720081e
    1ee8:	2cf72525 	cfldr64cs	mvdx2, [r7], #148	; 0x94
    1eec:	649f2533 	ldrvs	r2, [pc], #1331	; 1ef4 <_start-0x610c>
    1ef0:	68000003 	stmdavs	r0, {r0, r1}
    1ef4:	01000003 	tsteq	r0, r3
    1ef8:	03685300 	cmneq	r8, #0, 6
    1efc:	036c0000 	cmneq	ip, #0
    1f00:	001c0000 	andseq	r0, ip, r0
    1f04:	2cf70070 	ldclcs	0, cr0, [r7], #448	; 0x1c0
    1f08:	25f425f7 	ldrbcs	r2, [r4, #1527]!	; 0x5f7
    1f0c:	cccccd08 	stclgt	13, cr12, [ip], {8}
    1f10:	000000cc 	andeq	r0, r0, ip, asr #1
    1f14:	20081e00 	andcs	r1, r8, r0, lsl #28
    1f18:	f72525f7 			; <UNDEFINED> instruction: 0xf72525f7
    1f1c:	9f25332c 	svcls	0x0025332c
    1f20:	0000036c 	andeq	r0, r0, ip, ror #6
    1f24:	00000374 	andeq	r0, r0, r4, ror r3
    1f28:	0074001c 	rsbseq	r0, r4, ip, lsl r0
    1f2c:	25f72cf7 	ldrbcs	r2, [r7, #3319]!	; 0xcf7
    1f30:	cd0825f4 	cfstr32gt	mvfx2, [r8, #-976]	; 0xfffffc30
    1f34:	00cccccc 	sbceq	ip, ip, ip, asr #25
    1f38:	1e000000 	cdpne	0, 0, cr0, cr0, cr0, {0}
    1f3c:	25f72008 	ldrbcs	r2, [r7, #8]!
    1f40:	332cf725 	msrcc	CPSR_fs, #9699328	; 0x940000
    1f44:	03749f25 	cmneq	r4, #37, 30	; 0x94
    1f48:	03780000 	cmneq	r8, #0
    1f4c:	00170000 	andseq	r0, r7, r0
    1f50:	2cf70074 	ldclcs	0, cr0, [r7], #464	; 0x1d0
    1f54:	007325f7 	ldrshteq	r2, [r3], #-87	; 0xffffffa9
    1f58:	25f72cf7 	ldrbcs	r2, [r7, #3319]!	; 0xcf7
    1f5c:	f720081e 			; <UNDEFINED> instruction: 0xf720081e
    1f60:	2cf72525 	cfldr64cs	mvdx2, [r7], #148	; 0x94
    1f64:	789f2533 	ldmvc	pc, {r0, r1, r4, r5, r8, sl, sp}	; <UNPREDICTABLE>
    1f68:	ac000003 	stcge	0, cr0, [r0], {3}
    1f6c:	1c000003 	stcne	0, cr0, [r0], {3}
    1f70:	f7007400 			; <UNDEFINED> instruction: 0xf7007400
    1f74:	f425f72c 	vld1.8	{d15}, [r5 :128], ip
    1f78:	cccd0825 	stclgt	8, cr0, [sp], {37}	; 0x25
    1f7c:	0000cccc 	andeq	ip, r0, ip, asr #25
    1f80:	081e0000 	ldmdaeq	lr, {}	; <UNPREDICTABLE>
    1f84:	2525f720 	strcs	pc, [r5, #-1824]!	; 0x720
    1f88:	25332cf7 	ldrcs	r2, [r3, #-3319]!	; 0xcf7
    1f8c:	0000009f 	muleq	r0, pc, r0	; <UNPREDICTABLE>
    1f90:	00000000 	andeq	r0, r0, r0
    1f94:	00037000 	andeq	r7, r3, r0
    1f98:	00039400 	andeq	r9, r3, r0, lsl #8
    1f9c:	50000100 	andpl	r0, r0, r0, lsl #2
    1fa0:	00000394 	muleq	r0, r4, r3
    1fa4:	0000039c 	muleq	r0, ip, r3
    1fa8:	00750009 	rsbseq	r0, r5, r9
    1fac:	71240073 	teqvc	r4, r3, ror r0
    1fb0:	9c9f2100 	ldflss	f2, [pc], {0}
    1fb4:	9f000003 	svcls	0x00000003
    1fb8:	01000003 	tsteq	r0, r3
    1fbc:	00005100 	andeq	r5, r0, r0, lsl #2
    1fc0:	00000000 	andeq	r0, r0, r0
    1fc4:	03ac0000 			; <UNDEFINED> instruction: 0x03ac0000
    1fc8:	03b80000 			; <UNDEFINED> instruction: 0x03b80000
    1fcc:	00010000 	andeq	r0, r1, r0
    1fd0:	0003b850 	andeq	fp, r3, r0, asr r8
    1fd4:	0003d800 	andeq	sp, r3, r0, lsl #16
    1fd8:	f3000400 	vshl.u8	d0, d0, d0
    1fdc:	009f5001 	addseq	r5, pc, r1
    1fe0:	00000000 	andeq	r0, r0, r0
    1fe4:	d8000000 	stmdale	r0, {}	; <UNPREDICTABLE>
    1fe8:	eb000003 	bl	1ffc <_start-0x6004>
    1fec:	01000003 	tsteq	r0, r3
    1ff0:	03eb5000 	mvneq	r5, #0
    1ff4:	04240000 	strteq	r0, [r4], #-0
    1ff8:	00010000 	andeq	r0, r1, r0
    1ffc:	00042454 	andeq	r2, r4, r4, asr r4
    2000:	00045c00 	andeq	r5, r4, r0, lsl #24
    2004:	f3000400 	vshl.u8	d0, d0, d0
    2008:	009f5001 	addseq	r5, pc, r1
    200c:	00000000 	andeq	r0, r0, r0
    2010:	44000000 	strmi	r0, [r0], #-0
    2014:	48000004 	stmdami	r0, {r2}
    2018:	01000004 	tsteq	r0, r4
    201c:	04485000 	strbeq	r5, [r8], #-0
    2020:	044f0000 	strbeq	r0, [pc], #-0	; 2028 <_start-0x5fd8>
    2024:	00010000 	andeq	r0, r1, r0
    2028:	00000051 	andeq	r0, r0, r1, asr r0
    202c:	00000000 	andeq	r0, r0, r0
    2030:	00040000 	andeq	r0, r4, r0
    2034:	00040800 	andeq	r0, r4, r0, lsl #16
    2038:	50000100 	andpl	r0, r0, r0, lsl #2
    203c:	00000408 	andeq	r0, r0, r8, lsl #8
    2040:	0000040f 	andeq	r0, r0, pc, lsl #8
    2044:	00510001 	subseq	r0, r1, r1
    2048:	00000000 	andeq	r0, r0, r0
    204c:	20000000 	andcs	r0, r0, r0
    2050:	2c000004 	stccs	0, cr0, [r0], {4}
    2054:	01000004 	tsteq	r0, r4
    2058:	042c5000 	strteq	r5, [ip], #-0
    205c:	04330000 	ldrteq	r0, [r3], #-0
    2060:	00010000 	andeq	r0, r1, r0
    2064:	00000051 	andeq	r0, r0, r1, asr r0
    2068:	00000000 	andeq	r0, r0, r0
    206c:	00045c00 	andeq	r5, r4, r0, lsl #24
    2070:	00046f00 	andeq	r6, r4, r0, lsl #30
    2074:	50000100 	andpl	r0, r0, r0, lsl #2
    2078:	0000046f 	andeq	r0, r0, pc, ror #8
    207c:	000004a8 	andeq	r0, r0, r8, lsr #9
    2080:	a8540001 	ldmdage	r4, {r0}^
    2084:	e0000004 	and	r0, r0, r4
    2088:	04000004 	streq	r0, [r0], #-4
    208c:	5001f300 	andpl	pc, r1, r0, lsl #6
    2090:	0000009f 	muleq	r0, pc, r0	; <UNPREDICTABLE>
    2094:	00000000 	andeq	r0, r0, r0
    2098:	0004c800 	andeq	ip, r4, r0, lsl #16
    209c:	0004cc00 	andeq	ip, r4, r0, lsl #24
    20a0:	50000100 	andpl	r0, r0, r0, lsl #2
    20a4:	000004cc 	andeq	r0, r0, ip, asr #9
    20a8:	000004d3 	ldrdeq	r0, [r0], -r3
    20ac:	00510001 	subseq	r0, r1, r1
    20b0:	00000000 	andeq	r0, r0, r0
    20b4:	84000000 	strhi	r0, [r0], #-0
    20b8:	8c000004 	stchi	0, cr0, [r0], {4}
    20bc:	01000004 	tsteq	r0, r4
    20c0:	048c5000 	streq	r5, [ip], #0
    20c4:	04930000 	ldreq	r0, [r3], #0
    20c8:	00010000 	andeq	r0, r1, r0
    20cc:	00000051 	andeq	r0, r0, r1, asr r0
    20d0:	00000000 	andeq	r0, r0, r0
    20d4:	0004a400 	andeq	sl, r4, r0, lsl #8
    20d8:	0004b000 	andeq	fp, r4, r0
    20dc:	50000100 	andpl	r0, r0, r0, lsl #2
    20e0:	000004b0 			; <UNDEFINED> instruction: 0x000004b0
    20e4:	000004b7 			; <UNDEFINED> instruction: 0x000004b7
    20e8:	00510001 	subseq	r0, r1, r1
    20ec:	00000000 	andeq	r0, r0, r0
    20f0:	e0000000 	and	r0, r0, r0
    20f4:	f3000004 	vhadd.u8	d0, d0, d4
    20f8:	01000004 	tsteq	r0, r4
    20fc:	04f35000 	ldrbteq	r5, [r3], #0
    2100:	05340000 	ldreq	r0, [r4, #-0]!
    2104:	00010000 	andeq	r0, r1, r0
    2108:	00053454 	andeq	r3, r5, r4, asr r4
    210c:	00055800 	andeq	r5, r5, r0, lsl #16
    2110:	f3000400 	vshl.u8	d0, d0, d0
    2114:	589f5001 	ldmpl	pc, {r0, ip, lr}	; <UNPREDICTABLE>
    2118:	5c000005 	stcpl	0, cr0, [r0], {5}
    211c:	01000005 	tsteq	r0, r5
    2120:	055c5000 	ldrbeq	r5, [ip, #-0]
    2124:	05640000 	strbeq	r0, [r4, #-0]!
    2128:	00010000 	andeq	r0, r1, r0
    212c:	00000054 	andeq	r0, r0, r4, asr r0
    2130:	00000000 	andeq	r0, r0, r0
    2134:	00050800 	andeq	r0, r5, r0, lsl #16
    2138:	00051700 	andeq	r1, r5, r0, lsl #14
    213c:	31000800 	tstcc	r0, r0, lsl #16
    2140:	70240074 	eorvc	r0, r4, r4, ror r0
    2144:	009f1a00 	addseq	r1, pc, r0, lsl #20
    2148:	00000000 	andeq	r0, r0, r0
    214c:	34000000 	strcc	r0, [r0], #-0
    2150:	4c000005 	stcmi	0, cr0, [r0], {5}
    2154:	01000005 	tsteq	r0, r5
    2158:	00005400 	andeq	r5, r0, r0, lsl #8
    215c:	00000000 	andeq	r0, r0, r0
    2160:	05640000 	strbeq	r0, [r4, #-0]!
    2164:	05770000 	ldrbeq	r0, [r7, #-0]!
    2168:	00010000 	andeq	r0, r1, r0
    216c:	00057750 	andeq	r7, r5, r0, asr r7
    2170:	00059c00 	andeq	r9, r5, r0, lsl #24
    2174:	54000100 	strpl	r0, [r0], #-256	; 0x100
    2178:	0000059c 	muleq	r0, ip, r5
    217c:	000005bc 			; <UNDEFINED> instruction: 0x000005bc
    2180:	01f30004 	mvnseq	r0, r4
    2184:	00009f50 	andeq	r9, r0, r0, asr pc
	...
    2190:	00040000 	andeq	r0, r4, r0
    2194:	00010000 	andeq	r0, r1, r0
    2198:	00000452 	andeq	r0, r0, r2, asr r4
    219c:	00002000 	andeq	r2, r0, r0
    21a0:	f3000400 	vshl.u8	d0, d0, d0
    21a4:	009f5201 	addseq	r5, pc, r1, lsl #4
	...
    21b0:	0c000000 	stceq	0, cr0, [r0], {-0}
    21b4:	01000000 	mrseq	r0, (UNDEF: 0)
    21b8:	000c5000 	andeq	r5, ip, r0
    21bc:	00140000 	andseq	r0, r4, r0
    21c0:	00030000 	andeq	r0, r3, r0
    21c4:	149f0173 	ldrne	r0, [pc], #371	; 21cc <_start-0x5e34>
    21c8:	20000000 	andcs	r0, r0, r0
    21cc:	01000000 	mrseq	r0, (UNDEF: 0)
    21d0:	00005300 	andeq	r5, r0, r0, lsl #6
    21d4:	00000000 	andeq	r0, r0, r0
	...

Disassembly of section .debug_aranges:

00000000 <.debug_aranges>:
   0:	0000001c 	andeq	r0, r0, ip, lsl r0
   4:	00000002 	andeq	r0, r0, r2
   8:	00040000 	andeq	r0, r4, r0
   c:	00000000 	andeq	r0, r0, r0
  10:	00008010 	andeq	r8, r0, r0, lsl r0
  14:	00000158 	andeq	r0, r0, r8, asr r1
	...
  20:	0000001c 	andeq	r0, r0, ip, lsl r0
  24:	03e30002 	mvneq	r0, #2
  28:	00040000 	andeq	r0, r4, r0
  2c:	00000000 	andeq	r0, r0, r0
  30:	00008168 	andeq	r8, r0, r8, ror #2
  34:	00000050 	andeq	r0, r0, r0, asr r0
	...
  40:	0000001c 	andeq	r0, r0, ip, lsl r0
  44:	054d0002 	strbeq	r0, [sp, #-2]
  48:	00040000 	andeq	r0, r4, r0
  4c:	00000000 	andeq	r0, r0, r0
  50:	000081b8 			; <UNDEFINED> instruction: 0x000081b8
  54:	00000058 	andeq	r0, r0, r8, asr r0
	...
  60:	0000001c 	andeq	r0, r0, ip, lsl r0
  64:	06e20002 	strbteq	r0, [r2], r2
  68:	00040000 	andeq	r0, r4, r0
  6c:	00000000 	andeq	r0, r0, r0
  70:	00008210 	andeq	r8, r0, r0, lsl r2
  74:	0000003c 	andeq	r0, r0, ip, lsr r0
	...
  80:	0000001c 	andeq	r0, r0, ip, lsl r0
  84:	07f90002 	ldrbeq	r0, [r9, r2]!
  88:	00040000 	andeq	r0, r4, r0
  8c:	00000000 	andeq	r0, r0, r0
  90:	0000824c 	andeq	r8, r0, ip, asr #4
  94:	00000034 	andeq	r0, r0, r4, lsr r0
	...
  a0:	0000001c 	andeq	r0, r0, ip, lsl r0
  a4:	08eb0002 	stmiaeq	fp!, {r1}^
  a8:	00040000 	andeq	r0, r4, r0
  ac:	00000000 	andeq	r0, r0, r0
  b0:	00008280 	andeq	r8, r0, r0, lsl #5
  b4:	000004f8 	strdeq	r0, [r0], -r8
	...
  c0:	0000001c 	andeq	r0, r0, ip, lsl r0
  c4:	0f700002 	svceq	0x00700002
  c8:	00040000 	andeq	r0, r4, r0
  cc:	00000000 	andeq	r0, r0, r0
  d0:	00008778 	andeq	r8, r0, r8, ror r7
  d4:	00000028 	andeq	r0, r0, r8, lsr #32
	...
  e0:	0000001c 	andeq	r0, r0, ip, lsl r0
  e4:	10730002 	rsbsne	r0, r3, r2
  e8:	00040000 	andeq	r0, r4, r0
  ec:	00000000 	andeq	r0, r0, r0
  f0:	000087a0 	andeq	r8, r0, r0, lsr #15
  f4:	000000b0 	strheq	r0, [r0], -r0	; <UNPREDICTABLE>
	...
 100:	0000001c 	andeq	r0, r0, ip, lsl r0
 104:	13540002 	cmpne	r4, #2
 108:	00040000 	andeq	r0, r4, r0
 10c:	00000000 	andeq	r0, r0, r0
 110:	00008850 	andeq	r8, r0, r0, asr r8
 114:	00000074 	andeq	r0, r0, r4, ror r0
	...
 120:	0000001c 	andeq	r0, r0, ip, lsl r0
 124:	15050002 	strne	r0, [r5, #-2]
 128:	00040000 	andeq	r0, r4, r0
 12c:	00000000 	andeq	r0, r0, r0
 130:	000088c4 	andeq	r8, r0, r4, asr #17
 134:	00000088 	andeq	r0, r0, r8, lsl #1
	...
 140:	0000001c 	andeq	r0, r0, ip, lsl r0
 144:	16e10002 	strbtne	r0, [r1], r2
 148:	00040000 	andeq	r0, r4, r0
 14c:	00000000 	andeq	r0, r0, r0
 150:	0000894c 	andeq	r8, r0, ip, asr #18
 154:	00000620 	andeq	r0, r0, r0, lsr #12
	...
 160:	0000001c 	andeq	r0, r0, ip, lsl r0
 164:	28af0002 	stmiacs	pc!, {r1}	; <UNPREDICTABLE>
 168:	00040000 	andeq	r0, r4, r0
 16c:	00000000 	andeq	r0, r0, r0
 170:	00008f6c 	andeq	r8, r0, ip, ror #30
 174:	00000154 	andeq	r0, r0, r4, asr r1
	...
 180:	0000001c 	andeq	r0, r0, ip, lsl r0
 184:	2cb20002 	ldccs	0, cr0, [r2], #8
 188:	00040000 	andeq	r0, r4, r0
 18c:	00000000 	andeq	r0, r0, r0
 190:	00009128 	andeq	r9, r0, r8, lsr #2
 194:	000005bc 			; <UNDEFINED> instruction: 0x000005bc
	...
 1a0:	0000001c 	andeq	r0, r0, ip, lsl r0
 1a4:	35850002 	strcc	r0, [r5, #2]
 1a8:	00040000 	andeq	r0, r4, r0
 1ac:	00000000 	andeq	r0, r0, r0
 1b0:	000096e4 	andeq	r9, r0, r4, ror #13
 1b4:	00000050 	andeq	r0, r0, r0, asr r0
	...
 1c0:	0000001c 	andeq	r0, r0, ip, lsl r0
 1c4:	374c0002 	strbcc	r0, [ip, -r2]
 1c8:	00040000 	andeq	r0, r4, r0
 1cc:	00000000 	andeq	r0, r0, r0
 1d0:	00009734 	andeq	r9, r0, r4, lsr r7
 1d4:	00000020 	andeq	r0, r0, r0, lsr #32
	...

Disassembly of section .debug_line:

00000000 <.debug_line>:
       0:	0000018a 	andeq	r0, r0, sl, lsl #3
       4:	01310002 	teqeq	r1, r2
       8:	01020000 	mrseq	r0, (UNDEF: 2)
       c:	000d0efb 	strdeq	r0, [sp], -fp
      10:	01010101 	tsteq	r1, r1, lsl #2
      14:	01000000 	mrseq	r0, (UNDEF: 0)
      18:	2f010000 	svccs	0x00010000
      1c:	2f727375 	svccs	0x00727375
      20:	61636f6c 	cmnvs	r3, ip, ror #30
      24:	65432f6c 	strbvs	r2, [r3, #-3948]	; 0xf6c
      28:	72616c6c 	rsbvc	r6, r1, #108, 24	; 0x6c00
      2c:	6d72612f 	ldfvse	f6, [r2, #-188]!	; 0xffffff44
      30:	6e6f6e2d 	cdpvs	14, 6, cr6, cr15, cr13, {1}
      34:	61652d65 	cmnvs	r5, r5, ror #26
      38:	342f6962 	strtcc	r6, [pc], #-2402	; 40 <_start-0x7fc0>
      3c:	332e382e 	teqcc	lr, #3014656	; 0x2e0000
      40:	3173632d 	cmncc	r3, sp, lsr #6
      44:	2f653037 	svccs	0x00653037
      48:	2f62696c 	svccs	0x0062696c
      4c:	2f636367 	svccs	0x00636367
      50:	2d6d7261 	sfmcs	f7, 2, [sp, #-388]!	; 0xfffffe7c
      54:	656e6f6e 	strbvs	r6, [lr, #-3950]!	; 0xf6e
      58:	6261652d 	rsbvs	r6, r1, #188743680	; 0xb400000
      5c:	2e342f69 	cdpcs	15, 3, cr2, cr4, cr9, {3}
      60:	2f332e38 	svccs	0x00332e38
      64:	6c636e69 	stclvs	14, cr6, [r3], #-420	; 0xfffffe5c
      68:	00656475 	rsbeq	r6, r5, r5, ror r4
      6c:	6573552f 	ldrbvs	r5, [r3, #-1327]!	; 0x52f
      70:	622f7372 	eorvs	r7, pc, #-939524095	; 0xc8000001
      74:	6e616972 	mcrvs	9, 3, r6, cr1, cr2, {3}
      78:	2f6e756a 	svccs	0x006e756a
      7c:	6b736544 	blvs	1cd9594 <__bss_end__+0x1ccf264>
      80:	2f706f74 	svccs	0x00706f74
      84:	6f686373 	svcvs	0x00686373
      88:	572f6c6f 	strpl	r6, [pc, -pc, ror #24]!
      8c:	65746e69 	ldrbvs	r6, [r4, #-3689]!	; 0xe69
      90:	32393172 	eorscc	r3, r9, #-2147483620	; 0x8000001c
      94:	53432f30 	movtpl	r2, #16176	; 0x3f30
      98:	45303431 	ldrmi	r3, [r0, #-1073]!	; 0x431
      9c:	3173632f 	cmncc	r3, pc, lsr #6
      a0:	2d653034 	stclcs	0, cr3, [r5, #-208]!	; 0xffffff30
      a4:	69773032 	ldmdbvs	r7!, {r1, r4, r5, ip, sp}^
      a8:	696c2f6e 	stmdbvs	ip!, {r1, r2, r3, r5, r6, r8, r9, sl, fp, sp}^
      ac:	00697062 	rsbeq	r7, r9, r2, rrx
      b0:	6573552f 	ldrbvs	r5, [r3, #-1327]!	; 0x52f
      b4:	622f7372 	eorvs	r7, pc, #-939524095	; 0xc8000001
      b8:	6e616972 	mcrvs	9, 3, r6, cr1, cr2, {3}
      bc:	2f6e756a 	svccs	0x006e756a
      c0:	6b736544 	blvs	1cd95d8 <__bss_end__+0x1ccf2a8>
      c4:	2f706f74 	svccs	0x00706f74
      c8:	6f686373 	svcvs	0x00686373
      cc:	572f6c6f 	strpl	r6, [pc, -pc, ror #24]!
      d0:	65746e69 	ldrbvs	r6, [r4, #-3689]!	; 0xe69
      d4:	32393172 	eorscc	r3, r9, #-2147483620	; 0x8000001c
      d8:	53432f30 	movtpl	r2, #16176	; 0x3f30
      dc:	45303431 	ldrmi	r3, [r0, #-1073]!	; 0x431
      e0:	3173632f 	cmncc	r3, pc, lsr #6
      e4:	2d653034 	stclcs	0, cr3, [r5, #-208]!	; 0xffffff30
      e8:	69773032 	ldmdbvs	r7!, {r1, r4, r5, ip, sp}^
      ec:	696c2f6e 	stmdbvs	ip!, {r1, r2, r3, r5, r6, r8, r9, sl, fp, sp}^
      f0:	2f697062 	svccs	0x00697062
      f4:	6362696c 	cmnvs	r2, #108, 18	; 0x1b0000
      f8:	65670000 	strbvs	r0, [r7, #-0]!
      fc:	6f632d74 	svcvs	0x00632d74
     100:	632e6564 	teqvs	lr, #100, 10	; 0x19000000
     104:	00000000 	andeq	r0, r0, r0
     108:	69647473 	stmdbvs	r4!, {r0, r1, r4, r5, r6, sl, ip, sp, lr}^
     10c:	672d746e 	strvs	r7, [sp, -lr, ror #8]!
     110:	682e6363 	stmdavs	lr!, {r0, r1, r5, r6, r8, r9, sp, lr}
     114:	00000100 	andeq	r0, r0, r0, lsl #2
     118:	2e697072 	mcrcs	0, 3, r7, cr9, cr2, {3}
     11c:	00020068 	andeq	r0, r2, r8, rrx
     120:	63726300 	cmnvs	r2, #0, 6
     124:	0300682e 	movweq	r6, #2094	; 0x82e
     128:	69700000 	ldmdbvs	r0!, {}^	; <UNPREDICTABLE>
     12c:	73656d2d 	cmnvc	r5, #2880	; 0xb40
     130:	65676173 	strbvs	r6, [r7, #-371]!	; 0x173
     134:	0200682e 	andeq	r6, r0, #3014656	; 0x2e0000
     138:	00000000 	andeq	r0, r0, r0
     13c:	80100205 	andshi	r0, r0, r5, lsl #4
     140:	1d030000 	stcne	0, cr0, [r3, #-0]
     144:	02006801 	andeq	r6, r0, #65536	; 0x10000
     148:	004b0204 	subeq	r0, fp, r4, lsl #4
     14c:	49020402 	stmdbmi	r2, {r1, sl}
     150:	01040200 	mrseq	r0, R12_usr
     154:	4c062e06 	stcmi	14, cr2, [r6], {6}
     158:	03314b30 	teqeq	r1, #48, 22	; 0xc000
     15c:	67524a0b 	ldrbvs	r4, [r2, -fp, lsl #20]
     160:	676c6767 	strbvs	r6, [ip, -r7, ror #14]!
     164:	5a0867d9 	bpl	21a0d0 <__bss_end__+0x20fda0>
     168:	302f8768 	eorcc	r8, pc, r8, ror #14
     16c:	0402002b 	streq	r0, [r2], #-43	; 0x2b
     170:	02002f02 	andeq	r2, r0, #2, 30
     174:	00bb0204 	adcseq	r0, fp, r4, lsl #4
     178:	67020402 	strvs	r0, [r2, -r2, lsl #8]
     17c:	02040200 	andeq	r0, r4, #0, 4
     180:	04020047 	streq	r0, [r2], #-71	; 0x47
     184:	062e0601 	strteq	r0, [lr], -r1, lsl #12
     188:	000e024f 	andeq	r0, lr, pc, asr #4
     18c:	00a60101 	adceq	r0, r6, r1, lsl #2
     190:	00020000 	andeq	r0, r2, r0
     194:	00000082 	andeq	r0, r0, r2, lsl #1
     198:	0efb0102 	cdpeq	1, 15, cr0, cr11, cr2, {0}
     19c:	0101000d 	tsteq	r1, sp
     1a0:	00000101 	andeq	r0, r0, r1, lsl #2
     1a4:	00000100 	andeq	r0, r0, r0, lsl #2
     1a8:	62696c01 	rsbvs	r6, r9, #256	; 0x100
     1ac:	752f0063 	strvc	r0, [pc, #-99]!	; 151 <_start-0x7eaf>
     1b0:	6c2f7273 	sfmvs	f7, 4, [pc], #-460	; ffffffec <__bss_end__+0xffff5cbc>
     1b4:	6c61636f 	stclvs	3, cr6, [r1], #-444	; 0xfffffe44
     1b8:	6c65432f 	stclvs	3, cr4, [r5], #-188	; 0xffffff44
     1bc:	2f72616c 	svccs	0x0072616c
     1c0:	2d6d7261 	sfmcs	f7, 2, [sp, #-388]!	; 0xfffffe7c
     1c4:	656e6f6e 	strbvs	r6, [lr, #-3950]!	; 0xf6e
     1c8:	6261652d 	rsbvs	r6, r1, #188743680	; 0xb400000
     1cc:	2e342f69 	cdpcs	15, 3, cr2, cr4, cr9, {3}
     1d0:	2d332e38 	ldccs	14, cr2, [r3, #-224]!	; 0xffffff20
     1d4:	37317363 	ldrcc	r7, [r1, -r3, ror #6]!
     1d8:	6c2f6530 	cfstr32vs	mvfx6, [pc], #-192	; 120 <_start-0x7ee0>
     1dc:	672f6269 	strvs	r6, [pc, -r9, ror #4]!
     1e0:	612f6363 	teqvs	pc, r3, ror #6
     1e4:	6e2d6d72 	mcrvs	13, 1, r6, cr13, cr2, {3}
     1e8:	2d656e6f 	stclcs	14, cr6, [r5, #-444]!	; 0xfffffe44
     1ec:	69626165 	stmdbvs	r2!, {r0, r2, r5, r6, r8, sp, lr}^
     1f0:	382e342f 	stmdacc	lr!, {r0, r1, r2, r3, r5, sl, ip, sp}
     1f4:	692f332e 	stmdbvs	pc!, {r1, r2, r3, r5, r8, r9, ip, sp}	; <UNPREDICTABLE>
     1f8:	756c636e 	strbvc	r6, [ip, #-878]!	; 0x36e
     1fc:	00006564 	andeq	r6, r0, r4, ror #10
     200:	2e637263 	cdpcs	2, 6, cr7, cr3, cr3, {3}
     204:	00010063 	andeq	r0, r1, r3, rrx
     208:	64747300 	ldrbtvs	r7, [r4], #-768	; 0x300
     20c:	2d746e69 	ldclcs	14, cr6, [r4, #-420]!	; 0xfffffe5c
     210:	2e636367 	cdpcs	3, 6, cr6, cr3, cr7, {3}
     214:	00020068 	andeq	r0, r2, r8, rrx
     218:	05000000 	streq	r0, [r0, #-0]
     21c:	00816802 	addeq	r6, r1, r2, lsl #16
     220:	01350300 	teqeq	r5, r0, lsl #6
     224:	2f2d3015 	svccs	0x002d3015
     228:	02002f9d 	andeq	r2, r0, #628	; 0x274
     22c:	692d0104 	pushvs	{r2, r8}
     230:	024b2f68 	subeq	r2, fp, #104, 30	; 0x1a0
     234:	01010002 	tsteq	r1, r2
     238:	00000102 	andeq	r0, r0, r2, lsl #2
     23c:	00eb0002 	rsceq	r0, fp, r2
     240:	01020000 	mrseq	r0, (UNDEF: 2)
     244:	000d0efb 	strdeq	r0, [sp], -fp
     248:	01010101 	tsteq	r1, r1, lsl #2
     24c:	01000000 	mrseq	r0, (UNDEF: 0)
     250:	6c010000 	stcvs	0, cr0, [r1], {-0}
     254:	00636269 	rsbeq	r6, r3, r9, ror #4
     258:	7273752f 	rsbsvc	r7, r3, #197132288	; 0xbc00000
     25c:	636f6c2f 	cmnvs	pc, #12032	; 0x2f00
     260:	432f6c61 	teqmi	pc, #24832	; 0x6100
     264:	616c6c65 	cmnvs	ip, r5, ror #24
     268:	72612f72 	rsbvc	r2, r1, #456	; 0x1c8
     26c:	6f6e2d6d 	svcvs	0x006e2d6d
     270:	652d656e 	strvs	r6, [sp, #-1390]!	; 0x56e
     274:	2f696261 	svccs	0x00696261
     278:	2e382e34 	mrccs	14, 1, r2, cr8, cr4, {1}
     27c:	73632d33 	cmnvc	r3, #3264	; 0xcc0
     280:	65303731 	ldrvs	r3, [r0, #-1841]!	; 0x731
     284:	62696c2f 	rsbvs	r6, r9, #12032	; 0x2f00
     288:	6363672f 	cmnvs	r3, #12320768	; 0xbc0000
     28c:	6d72612f 	ldfvse	f6, [r2, #-188]!	; 0xffffff44
     290:	6e6f6e2d 	cdpvs	14, 6, cr6, cr15, cr13, {1}
     294:	61652d65 	cmnvs	r5, r5, ror #26
     298:	342f6962 	strtcc	r6, [pc], #-2402	; 2a0 <_start-0x7d60>
     29c:	332e382e 	teqcc	lr, #3014656	; 0x2e0000
     2a0:	636e692f 	cmnvs	lr, #770048	; 0xbc000
     2a4:	6564756c 	strbvs	r7, [r4, #-1388]!	; 0x56c
     2a8:	73552f00 	cmpvc	r5, #0, 30
     2ac:	2f737265 	svccs	0x00737265
     2b0:	61697262 	cmnvs	r9, r2, ror #4
     2b4:	6e756a6e 	vsubvs.f32	s13, s10, s29
     2b8:	7365442f 	cmnvc	r5, #788529152	; 0x2f000000
     2bc:	706f746b 	rsbvc	r7, pc, fp, ror #8
     2c0:	6863732f 	stmdavs	r3!, {r0, r1, r2, r3, r5, r8, r9, ip, sp, lr}^
     2c4:	2f6c6f6f 	svccs	0x006c6f6f
     2c8:	746e6957 	strbtvc	r6, [lr], #-2391	; 0x957
     2cc:	39317265 	ldmdbcc	r1!, {r0, r2, r5, r6, r9, ip, sp, lr}
     2d0:	432f3032 	teqmi	pc, #50	; 0x32
     2d4:	30343153 	eorscc	r3, r4, r3, asr r1
     2d8:	73632f45 	cmnvc	r3, #276	; 0x114
     2dc:	65303431 	ldrvs	r3, [r0, #-1073]!	; 0x431
     2e0:	7730322d 	ldrvc	r3, [r0, -sp, lsr #4]!
     2e4:	6c2f6e69 	stcvs	14, cr6, [pc], #-420	; 148 <_start-0x7eb8>
     2e8:	69706269 	ldmdbvs	r0!, {r0, r3, r5, r6, r9, sp, lr}^
     2ec:	72700000 	rsbsvc	r0, r0, #0
     2f0:	6b746e69 	blvs	1d1bc9c <__bss_end__+0x1d1196c>
     2f4:	0100632e 	tsteq	r0, lr, lsr #6
     2f8:	74730000 	ldrbtvc	r0, [r3], #-0
     2fc:	67726164 	ldrbvs	r6, [r2, -r4, ror #2]!
     300:	0200682e 	andeq	r6, r0, #3014656	; 0x2e0000
     304:	623c0000 	eorsvs	r0, ip, #0
     308:	746c6975 	strbtvc	r6, [ip], #-2421	; 0x975
     30c:	3e6e692d 	cdpcc	9, 6, cr6, cr14, cr13, {1}
     310:	00000000 	andeq	r0, r0, r0
     314:	2e697072 	mcrcs	0, 3, r7, cr9, cr2, {3}
     318:	00030068 	andeq	r0, r3, r8, rrx
     31c:	2d617600 	stclcs	6, cr7, [r1, #-0]
     320:	6e697270 	mcrvs	2, 3, r7, cr9, cr0, {3}
     324:	682e6b74 	stmdavs	lr!, {r2, r4, r5, r6, r8, r9, fp, sp, lr}
     328:	00000100 	andeq	r0, r0, r0, lsl #2
     32c:	02050000 	andeq	r0, r5, #0
     330:	000081b8 			; <UNDEFINED> instruction: 0x000081b8
     334:	bf4b6b17 	svclt	0x004b6b17
     338:	000e0289 	andeq	r0, lr, r9, lsl #5
     33c:	008a0101 	addeq	r0, sl, r1, lsl #2
     340:	00020000 	andeq	r0, r2, r0
     344:	00000072 	andeq	r0, r0, r2, ror r0
     348:	0efb0102 	cdpeq	1, 15, cr0, cr11, cr2, {0}
     34c:	0101000d 	tsteq	r1, sp
     350:	00000101 	andeq	r0, r0, r1, lsl #2
     354:	00000100 	andeq	r0, r0, r0, lsl #2
     358:	62696c01 	rsbvs	r6, r9, #256	; 0x100
     35c:	552f0063 	strpl	r0, [pc, #-99]!	; 301 <_start-0x7cff>
     360:	73726573 	cmnvc	r2, #482344960	; 0x1cc00000
     364:	6972622f 	ldmdbvs	r2!, {r0, r1, r2, r3, r5, r9, sp, lr}^
     368:	756a6e61 	strbvc	r6, [sl, #-3681]!	; 0xe61
     36c:	65442f6e 	strbvs	r2, [r4, #-3950]	; 0xf6e
     370:	6f746b73 	svcvs	0x00746b73
     374:	63732f70 	cmnvs	r3, #112, 30	; 0x1c0
     378:	6c6f6f68 	stclvs	15, cr6, [pc], #-416	; 1e0 <_start-0x7e20>
     37c:	6e69572f 	cdpvs	7, 6, cr5, cr9, cr15, {1}
     380:	31726574 	cmncc	r2, r4, ror r5
     384:	2f303239 	svccs	0x00303239
     388:	34315343 	ldrtcc	r5, [r1], #-835	; 0x343
     38c:	632f4530 	teqvs	pc, #48, 10	; 0xc000000
     390:	30343173 	eorscc	r3, r4, r3, ror r1
     394:	30322d65 	eorscc	r2, r2, r5, ror #26
     398:	2f6e6977 	svccs	0x006e6977
     39c:	7062696c 	rsbvc	r6, r2, ip, ror #18
     3a0:	70000069 	andvc	r0, r0, r9, rrx
     3a4:	68637475 	stmdavs	r3!, {r0, r2, r4, r5, r6, sl, ip, sp, lr}^
     3a8:	632e7261 	teqvs	lr, #268435462	; 0x10000006
     3ac:	00000100 	andeq	r0, r0, r0, lsl #2
     3b0:	2e697072 	mcrcs	0, 3, r7, cr9, cr2, {3}
     3b4:	00020068 	andeq	r0, r2, r8, rrx
     3b8:	05000000 	streq	r0, [r0, #-0]
     3bc:	00821002 	addeq	r1, r2, r2
     3c0:	6b4a1400 	blvs	12853c8 <__bss_end__+0x127b098>
     3c4:	0213bc13 	andseq	fp, r3, #4864	; 0x1300
     3c8:	01010008 	tsteq	r1, r8
     3cc:	00000096 	muleq	r0, r6, r0
     3d0:	006f0002 	rsbeq	r0, pc, r2
     3d4:	01020000 	mrseq	r0, (UNDEF: 2)
     3d8:	000d0efb 	strdeq	r0, [sp], -fp
     3dc:	01010101 	tsteq	r1, r1, lsl #2
     3e0:	01000000 	mrseq	r0, (UNDEF: 0)
     3e4:	6c010000 	stcvs	0, cr0, [r1], {-0}
     3e8:	00636269 	rsbeq	r6, r3, r9, ror #4
     3ec:	6573552f 	ldrbvs	r5, [r3, #-1327]!	; 0x52f
     3f0:	622f7372 	eorvs	r7, pc, #-939524095	; 0xc8000001
     3f4:	6e616972 	mcrvs	9, 3, r6, cr1, cr2, {3}
     3f8:	2f6e756a 	svccs	0x006e756a
     3fc:	6b736544 	blvs	1cd9914 <__bss_end__+0x1ccf5e4>
     400:	2f706f74 	svccs	0x00706f74
     404:	6f686373 	svcvs	0x00686373
     408:	572f6c6f 	strpl	r6, [pc, -pc, ror #24]!
     40c:	65746e69 	ldrbvs	r6, [r4, #-3689]!	; 0xe69
     410:	32393172 	eorscc	r3, r9, #-2147483620	; 0x8000001c
     414:	53432f30 	movtpl	r2, #16176	; 0x3f30
     418:	45303431 	ldrmi	r3, [r0, #-1073]!	; 0x431
     41c:	3173632f 	cmncc	r3, pc, lsr #6
     420:	2d653034 	stclcs	0, cr3, [r5, #-208]!	; 0xffffff30
     424:	69773032 	ldmdbvs	r7!, {r1, r4, r5, ip, sp}^
     428:	696c2f6e 	stmdbvs	ip!, {r1, r2, r3, r5, r6, r8, r9, sl, fp, sp}^
     42c:	00697062 	rsbeq	r7, r9, r2, rrx
     430:	74757000 	ldrbtvc	r7, [r5], #-0
     434:	00632e6b 	rsbeq	r2, r3, fp, ror #28
     438:	72000001 	andvc	r0, r0, #1
     43c:	682e6970 	stmdavs	lr!, {r4, r5, r6, r8, fp, sp, lr}
     440:	00000200 	andeq	r0, r0, r0, lsl #4
     444:	02050000 	andeq	r0, r5, #0
     448:	0000824c 	andeq	r8, r0, ip, asr #4
     44c:	002d4c15 	eoreq	r4, sp, r5, lsl ip
     450:	2f020402 	svccs	0x00020402
     454:	02040200 	andeq	r0, r4, #0, 4
     458:	04020049 	streq	r0, [r2], #-73	; 0x49
     45c:	062e0601 	strteq	r0, [lr], -r1, lsl #12
     460:	0006026b 	andeq	r0, r6, fp, ror #4
     464:	01de0101 	bicseq	r0, lr, r1, lsl #2
     468:	00020000 	andeq	r0, r2, r0
     46c:	000000df 	ldrdeq	r0, [r0], -pc	; <UNPREDICTABLE>
     470:	0efb0102 	cdpeq	1, 15, cr0, cr11, cr2, {0}
     474:	0101000d 	tsteq	r1, sp
     478:	00000101 	andeq	r0, r0, r1, lsl #2
     47c:	00000100 	andeq	r0, r0, r0, lsl #2
     480:	62696c01 	rsbvs	r6, r9, #256	; 0x100
     484:	752f0063 	strvc	r0, [pc, #-99]!	; 429 <_start-0x7bd7>
     488:	6c2f7273 	sfmvs	f7, 4, [pc], #-460	; 2c4 <_start-0x7d3c>
     48c:	6c61636f 	stclvs	3, cr6, [r1], #-444	; 0xfffffe44
     490:	6c65432f 	stclvs	3, cr4, [r5], #-188	; 0xffffff44
     494:	2f72616c 	svccs	0x0072616c
     498:	2d6d7261 	sfmcs	f7, 2, [sp, #-388]!	; 0xfffffe7c
     49c:	656e6f6e 	strbvs	r6, [lr, #-3950]!	; 0xf6e
     4a0:	6261652d 	rsbvs	r6, r1, #188743680	; 0xb400000
     4a4:	2e342f69 	cdpcs	15, 3, cr2, cr4, cr9, {3}
     4a8:	2d332e38 	ldccs	14, cr2, [r3, #-224]!	; 0xffffff20
     4ac:	37317363 	ldrcc	r7, [r1, -r3, ror #6]!
     4b0:	6c2f6530 	cfstr32vs	mvfx6, [pc], #-192	; 3f8 <_start-0x7c08>
     4b4:	672f6269 	strvs	r6, [pc, -r9, ror #4]!
     4b8:	612f6363 	teqvs	pc, r3, ror #6
     4bc:	6e2d6d72 	mcrvs	13, 1, r6, cr13, cr2, {3}
     4c0:	2d656e6f 	stclcs	14, cr6, [r5, #-444]!	; 0xfffffe44
     4c4:	69626165 	stmdbvs	r2!, {r0, r2, r5, r6, r8, sp, lr}^
     4c8:	382e342f 	stmdacc	lr!, {r0, r1, r2, r3, r5, sl, ip, sp}
     4cc:	692f332e 	stmdbvs	pc!, {r1, r2, r3, r5, r8, r9, ip, sp}	; <UNPREDICTABLE>
     4d0:	756c636e 	strbvc	r6, [ip, #-878]!	; 0x36e
     4d4:	2f006564 	svccs	0x00006564
     4d8:	72657355 	rsbvc	r7, r5, #1409286145	; 0x54000001
     4dc:	72622f73 	rsbvc	r2, r2, #460	; 0x1cc
     4e0:	6a6e6169 	bvs	1b98a8c <__bss_end__+0x1b8e75c>
     4e4:	442f6e75 	strtmi	r6, [pc], #-3701	; 4ec <_start-0x7b14>
     4e8:	746b7365 	strbtvc	r7, [fp], #-869	; 0x365
     4ec:	732f706f 	teqvc	pc, #111	; 0x6f
     4f0:	6f6f6863 	svcvs	0x006f6863
     4f4:	69572f6c 	ldmdbvs	r7, {r2, r3, r5, r6, r8, r9, sl, fp, sp}^
     4f8:	7265746e 	rsbvc	r7, r5, #1845493760	; 0x6e000000
     4fc:	30323931 	eorscc	r3, r2, r1, lsr r9
     500:	3153432f 	cmpcc	r3, pc, lsr #6
     504:	2f453034 	svccs	0x00453034
     508:	34317363 	ldrtcc	r7, [r1], #-867	; 0x363
     50c:	322d6530 	eorcc	r6, sp, #48, 10	; 0xc000000
     510:	6e697730 	mcrvs	7, 3, r7, cr9, cr0, {1}
     514:	62696c2f 	rsbvs	r6, r9, #12032	; 0x2f00
     518:	00006970 	andeq	r6, r0, r0, ror r9
     51c:	702d6176 	eorvc	r6, sp, r6, ror r1
     520:	746e6972 	strbtvc	r6, [lr], #-2418	; 0x972
     524:	00632e6b 	rsbeq	r2, r3, fp, ror #28
     528:	73000001 	movwvc	r0, #1
     52c:	72616474 	rsbvc	r6, r1, #116, 8	; 0x74000000
     530:	00682e67 	rsbeq	r2, r8, r7, ror #28
     534:	72000002 	andvc	r0, r0, #2
     538:	682e6970 	stmdavs	lr!, {r4, r5, r6, r8, fp, sp, lr}
     53c:	00000300 	andeq	r0, r0, r0, lsl #6
     540:	6975623c 	ldmdbvs	r5!, {r2, r3, r4, r5, r9, sp, lr}^
     544:	692d746c 	pushvs	{r2, r3, r5, r6, sl, ip, sp, lr}
     548:	00003e6e 	andeq	r3, r0, lr, ror #28
     54c:	00000000 	andeq	r0, r0, r0
     550:	82800205 	addhi	r0, r0, #1342177280	; 0x50000000
     554:	26030000 	strcs	r0, [r3], -r0
     558:	13a50101 			; <UNDEFINED> instruction: 0x13a50101
     55c:	02002d31 	andeq	r2, r0, #3136	; 0xc40
     560:	002f0204 	eoreq	r0, pc, r4, lsl #4
     564:	2d020402 	cfstrscs	mvf0, [r2, #-8]
     568:	02040200 	andeq	r0, r4, #0, 4
     56c:	0402002f 	streq	r0, [r2], #-47	; 0x2f
     570:	4c4c2d01 	mcrrmi	13, 0, r2, ip, cr1
     574:	2f4b1430 	svccs	0x004b1430
     578:	0402004f 	streq	r0, [r2], #-79	; 0x4f
     57c:	02006702 	andeq	r6, r0, #524288	; 0x80000
     580:	4c650104 	stfmie	f0, [r5], #-16
     584:	2fa0304d 	svccs	0x00a0304d
     588:	26023031 			; <UNDEFINED> instruction: 0x26023031
     58c:	2c2d8416 	cfstrscs	mvf8, [sp], #-88	; 0xffffffa8
     590:	01040200 	mrseq	r0, R12_usr
     594:	04020030 	streq	r0, [r2], #-48	; 0x30
     598:	66063301 	strvs	r3, [r6], -r1, lsl #6
     59c:	01040200 	mrseq	r0, R12_usr
     5a0:	0402002e 	streq	r0, [r2], #-46	; 0x2e
     5a4:	21080601 	tstcs	r8, r1, lsl #12
     5a8:	73032f67 	movwvc	r2, #16231	; 0x3f67
     5ac:	2e130382 	cdpcs	3, 1, cr0, cr3, cr2, {4}
     5b0:	01040200 	mrseq	r0, R12_usr
     5b4:	02002e06 	andeq	r2, r0, #6, 28	; 0x60
     5b8:	9f060104 	svcls	0x00060104
     5bc:	67034b6a 	strvs	r4, [r3, -sl, ror #22]
     5c0:	2e21032e 	cdpcs	3, 2, cr0, cr1, cr14, {1}
     5c4:	01040200 	mrseq	r0, R12_usr
     5c8:	02002e06 	andeq	r2, r0, #6, 28	; 0x60
     5cc:	9f060104 	svcls	0x00060104
     5d0:	01040200 	mrseq	r0, R12_usr
     5d4:	03f3d96a 	mvnseq	sp, #1736704	; 0x1a8000
     5d8:	20087fa6 	andcs	r7, r8, r6, lsr #31
     5dc:	0402002f 	streq	r0, [r2], #-47	; 0x2f
     5e0:	064a0601 	strbeq	r0, [sl], -r1, lsl #12
     5e4:	032f4bd7 	teqeq	pc, #220160	; 0x35c00
     5e8:	83f200da 	mvnshi	r0, #218	; 0xda
     5ec:	0e03484c 	cdpeq	8, 0, cr4, cr3, cr12, {2}
     5f0:	2e75032e 	cdpcs	3, 7, cr0, cr5, cr14, {1}
     5f4:	4b842f2f 	blmi	fe10c2b8 <__bss_end__+0xfe101f88>
     5f8:	314d2d2f 	cmpcc	sp, pc, lsr #26
     5fc:	00832f30 	addeq	r2, r3, r0, lsr pc
     600:	2c010402 	cfstrscs	mvf0, [r1], {2}
     604:	040200a2 	streq	r0, [r2], #-162	; 0xa2
     608:	064a0601 	strbeq	r0, [sl], -r1, lsl #12
     60c:	163602d8 			; <UNDEFINED> instruction: 0x163602d8
     610:	08d60e03 	ldmeq	r6, {r0, r1, r9, sl, fp}^
     614:	31f33021 	mvnscc	r3, r1, lsr #32
     618:	30f330f3 	ldrshtcc	r3, [r3], #3
     61c:	30f3304b 	rscscc	r3, r3, fp, asr #32
     620:	2f312308 	svccs	0x00312308
     624:	01040200 	mrseq	r0, R12_usr
     628:	04020065 	streq	r0, [r2], #-101	; 0x65
     62c:	004a0602 	subeq	r0, sl, r2, lsl #12
     630:	06010402 	streq	r0, [r1], -r2, lsl #8
     634:	00664203 	rsbeq	r4, r6, r3, lsl #4
     638:	06020402 	streq	r0, [r2], -r2, lsl #8
     63c:	c2030666 	andgt	r0, r3, #106954752	; 0x6600000
     640:	02684a00 	rsbeq	r4, r8, #0, 20
     644:	01010010 	tsteq	r1, r0, lsl r0
     648:	00000093 	muleq	r0, r3, r0
     64c:	007d0002 	rsbseq	r0, sp, r2
     650:	01020000 	mrseq	r0, (UNDEF: 2)
     654:	000d0efb 	strdeq	r0, [sp], -fp
     658:	01010101 	tsteq	r1, r1, lsl #2
     65c:	01000000 	mrseq	r0, (UNDEF: 0)
     660:	63010000 	movwvs	r0, #4096	; 0x1000
     664:	30343173 	eorscc	r3, r4, r3, ror r1
     668:	72732d65 	rsbsvc	r2, r3, #6464	; 0x1940
     66c:	552f0063 	strpl	r0, [pc, #-99]!	; 611 <_start-0x79ef>
     670:	73726573 	cmnvc	r2, #482344960	; 0x1cc00000
     674:	6972622f 	ldmdbvs	r2!, {r0, r1, r2, r3, r5, r9, sp, lr}^
     678:	756a6e61 	strbvc	r6, [sl, #-3681]!	; 0xe61
     67c:	65442f6e 	strbvs	r2, [r4, #-3950]	; 0xf6e
     680:	6f746b73 	svcvs	0x00746b73
     684:	63732f70 	cmnvs	r3, #112, 30	; 0x1c0
     688:	6c6f6f68 	stclvs	15, cr6, [pc], #-416	; 4f0 <_start-0x7b10>
     68c:	6e69572f 	cdpvs	7, 6, cr5, cr9, cr15, {1}
     690:	31726574 	cmncc	r2, r4, ror r5
     694:	2f303239 	svccs	0x00303239
     698:	34315343 	ldrtcc	r5, [r1], #-835	; 0x343
     69c:	632f4530 	teqvs	pc, #48, 10	; 0xc000000
     6a0:	30343173 	eorscc	r3, r4, r3, ror r1
     6a4:	30322d65 	eorscc	r2, r2, r5, ror #26
     6a8:	2f6e6977 	svccs	0x006e6977
     6ac:	7062696c 	rsbvc	r6, r2, ip, ror #18
     6b0:	63000069 	movwvs	r0, #105	; 0x69
     6b4:	6e61656c 	cdpvs	5, 6, cr6, cr1, cr12, {3}
     6b8:	6265722d 	rsbvs	r7, r5, #-805306366	; 0xd0000002
     6bc:	2e746f6f 	cdpcs	15, 7, cr6, cr4, cr15, {3}
     6c0:	00010063 	andeq	r0, r1, r3, rrx
     6c4:	69707200 	ldmdbvs	r0!, {r9, ip, sp, lr}^
     6c8:	0200682e 	andeq	r6, r0, #3014656	; 0x2e0000
     6cc:	00000000 	andeq	r0, r0, r0
     6d0:	87780205 	ldrbhi	r0, [r8, -r5, lsl #4]!
     6d4:	2f150000 	svccs	0x00150000
     6d8:	06024b83 	streq	r4, [r2], -r3, lsl #23
     6dc:	21010100 	mrscs	r0, (UNDEF: 17)
     6e0:	02000001 	andeq	r0, r0, #1
     6e4:	0000f800 	andeq	pc, r0, r0, lsl #16
     6e8:	fb010200 	blx	40ef2 <__bss_end__+0x36bc2>
     6ec:	01000d0e 	tsteq	r0, lr, lsl #26
     6f0:	00010101 	andeq	r0, r1, r1, lsl #2
     6f4:	00010000 	andeq	r0, r1, r0
     6f8:	73630100 	cmnvc	r3, #0, 2
     6fc:	65303431 	ldrvs	r3, [r0, #-1073]!	; 0x431
     700:	6372732d 	cmnvs	r2, #-1275068416	; 0xb4000000
     704:	73752f00 	cmnvc	r5, #0, 30
     708:	6f6c2f72 	svcvs	0x006c2f72
     70c:	2f6c6163 	svccs	0x006c6163
     710:	6c6c6543 	cfstr64vs	mvdx6, [ip], #-268	; 0xfffffef4
     714:	612f7261 	teqvs	pc, r1, ror #4
     718:	6e2d6d72 	mcrvs	13, 1, r6, cr13, cr2, {3}
     71c:	2d656e6f 	stclcs	14, cr6, [r5, #-444]!	; 0xfffffe44
     720:	69626165 	stmdbvs	r2!, {r0, r2, r5, r6, r8, sp, lr}^
     724:	382e342f 	stmdacc	lr!, {r0, r1, r2, r3, r5, sl, ip, sp}
     728:	632d332e 	teqvs	sp, #-1207959552	; 0xb8000000
     72c:	30373173 	eorscc	r3, r7, r3, ror r1
     730:	696c2f65 	stmdbvs	ip!, {r0, r2, r5, r6, r8, r9, sl, fp, sp}^
     734:	63672f62 	cmnvs	r7, #392	; 0x188
     738:	72612f63 	rsbvc	r2, r1, #396	; 0x18c
     73c:	6f6e2d6d 	svcvs	0x006e2d6d
     740:	652d656e 	strvs	r6, [sp, #-1390]!	; 0x56e
     744:	2f696261 	svccs	0x00696261
     748:	2e382e34 	mrccs	14, 1, r2, cr8, cr4, {1}
     74c:	6e692f33 	mcrvs	15, 3, r2, cr9, cr3, {1}
     750:	64756c63 	ldrbtvs	r6, [r5], #-3171	; 0xc63
     754:	552f0065 	strpl	r0, [pc, #-101]!	; 6f7 <_start-0x7909>
     758:	73726573 	cmnvc	r2, #482344960	; 0x1cc00000
     75c:	6972622f 	ldmdbvs	r2!, {r0, r1, r2, r3, r5, r9, sp, lr}^
     760:	756a6e61 	strbvc	r6, [sl, #-3681]!	; 0xe61
     764:	65442f6e 	strbvs	r2, [r4, #-3950]	; 0xf6e
     768:	6f746b73 	svcvs	0x00746b73
     76c:	63732f70 	cmnvs	r3, #112, 30	; 0x1c0
     770:	6c6f6f68 	stclvs	15, cr6, [pc], #-416	; 5d8 <_start-0x7a28>
     774:	6e69572f 	cdpvs	7, 6, cr5, cr9, cr15, {1}
     778:	31726574 	cmncc	r2, r4, ror r5
     77c:	2f303239 	svccs	0x00303239
     780:	34315343 	ldrtcc	r5, [r1], #-835	; 0x343
     784:	632f4530 	teqvs	pc, #48, 10	; 0xc000000
     788:	30343173 	eorscc	r3, r4, r3, ror r1
     78c:	30322d65 	eorscc	r2, r2, r5, ror #26
     790:	2f6e6977 	svccs	0x006e6977
     794:	7062696c 	rsbvc	r6, r2, ip, ror #18
     798:	63000069 	movwvs	r0, #105	; 0x69
     79c:	72617473 	rsbvc	r7, r1, #1929379840	; 0x73000000
     7a0:	00632e74 	rsbeq	r2, r3, r4, ror lr
     7a4:	73000001 	movwvc	r0, #1
     7a8:	6e696474 	mcrvs	4, 3, r6, cr9, cr4, {3}
     7ac:	63672d74 	cmnvs	r7, #116, 26	; 0x1d00
     7b0:	00682e63 	rsbeq	r2, r8, r3, ror #28
     7b4:	73000002 	movwvc	r0, #2
     7b8:	61752d77 	cmnvs	r5, r7, ror sp
     7bc:	682e7472 	stmdavs	lr!, {r1, r4, r5, r6, sl, ip, sp, lr}
     7c0:	00000100 	andeq	r0, r0, r0, lsl #2
     7c4:	746e6f63 	strbtvc	r6, [lr], #-3939	; 0xf63
     7c8:	2d6c6f72 	stclcs	15, cr6, [ip, #-456]!	; 0xfffffe38
     7cc:	636f6c62 	cmnvs	pc, #25088	; 0x6200
     7d0:	00682e6b 	rsbeq	r2, r8, fp, ror #28
     7d4:	72000001 	andvc	r0, r0, #1
     7d8:	682e6970 	stmdavs	lr!, {r4, r5, r6, r8, fp, sp, lr}
     7dc:	00000300 	andeq	r0, r0, r0, lsl #6
     7e0:	02050000 	andeq	r0, r5, #0
     7e4:	000087a0 	andeq	r8, r0, r0, lsr #15
     7e8:	68684b17 	stmdavs	r8!, {r0, r1, r2, r4, r8, r9, fp, lr}^
     7ec:	2d2f3132 	stfcss	f3, [pc, #-200]!	; 72c <_start-0x78d4>
     7f0:	0402002f 	streq	r0, [r2], #-47	; 0x2f
     7f4:	2f4f4901 	svccs	0x004f4901
     7f8:	8367674b 	cmnhi	r7, #19660800	; 0x12c0000
     7fc:	022f4e67 	eoreq	r4, pc, #1648	; 0x670
     800:	01010010 	tsteq	r1, r0, lsl r0
     804:	00000099 	muleq	r0, r9, r0
     808:	00770002 	rsbseq	r0, r7, r2
     80c:	01020000 	mrseq	r0, (UNDEF: 2)
     810:	000d0efb 	strdeq	r0, [sp], -fp
     814:	01010101 	tsteq	r1, r1, lsl #2
     818:	01000000 	mrseq	r0, (UNDEF: 0)
     81c:	63010000 	movwvs	r0, #4096	; 0x1000
     820:	30343173 	eorscc	r3, r4, r3, ror r1
     824:	72732d65 	rsbsvc	r2, r3, #6464	; 0x1940
     828:	552f0063 	strpl	r0, [pc, #-99]!	; 7cd <_start-0x7833>
     82c:	73726573 	cmnvc	r2, #482344960	; 0x1cc00000
     830:	6972622f 	ldmdbvs	r2!, {r0, r1, r2, r3, r5, r9, sp, lr}^
     834:	756a6e61 	strbvc	r6, [sl, #-3681]!	; 0xe61
     838:	65442f6e 	strbvs	r2, [r4, #-3950]	; 0xf6e
     83c:	6f746b73 	svcvs	0x00746b73
     840:	63732f70 	cmnvs	r3, #112, 30	; 0x1c0
     844:	6c6f6f68 	stclvs	15, cr6, [pc], #-416	; 6ac <_start-0x7954>
     848:	6e69572f 	cdpvs	7, 6, cr5, cr9, cr15, {1}
     84c:	31726574 	cmncc	r2, r4, ror r5
     850:	2f303239 	svccs	0x00303239
     854:	34315343 	ldrtcc	r5, [r1], #-835	; 0x343
     858:	632f4530 	teqvs	pc, #48, 10	; 0xc000000
     85c:	30343173 	eorscc	r3, r4, r3, ror r1
     860:	30322d65 	eorscc	r2, r2, r5, ror #26
     864:	2f6e6977 	svccs	0x006e6977
     868:	7062696c 	rsbvc	r6, r2, ip, ror #18
     86c:	72000069 	andvc	r0, r0, #105	; 0x69
     870:	6f6f6265 	svcvs	0x006f6265
     874:	00632e74 	rsbeq	r2, r3, r4, ror lr
     878:	72000001 	andvc	r0, r0, #1
     87c:	682e6970 	stmdavs	lr!, {r4, r5, r6, r8, fp, sp, lr}
     880:	00000200 	andeq	r0, r0, r0, lsl #4
     884:	02050000 	andeq	r0, r5, #0
     888:	00008850 	andeq	r8, r0, r0, asr r8
     88c:	14010d03 	strne	r0, [r1], #-3331	; 0xd03
     890:	15852f31 	strne	r2, [r5, #3889]	; 0xf31
     894:	2f4d4b2f 	svccs	0x004d4b2f
     898:	67523567 	ldrbvs	r3, [r2, -r7, ror #10]
     89c:	01001002 	tsteq	r0, r2
     8a0:	0000a301 	andeq	sl, r0, r1, lsl #6
     8a4:	76000200 	strvc	r0, [r0], -r0, lsl #4
     8a8:	02000000 	andeq	r0, r0, #0
     8ac:	0d0efb01 	vstreq	d15, [lr, #-4]
     8b0:	01010100 	mrseq	r0, (UNDEF: 17)
     8b4:	00000001 	andeq	r0, r0, r1
     8b8:	01000001 	tsteq	r0, r1
     8bc:	34317363 	ldrtcc	r7, [r1], #-867	; 0x363
     8c0:	732d6530 	teqvc	sp, #48, 10	; 0xc000000
     8c4:	2f006372 	svccs	0x00006372
     8c8:	72657355 	rsbvc	r7, r5, #1409286145	; 0x54000001
     8cc:	72622f73 	rsbvc	r2, r2, #460	; 0x1cc
     8d0:	6a6e6169 	bvs	1b98e7c <__bss_end__+0x1b8eb4c>
     8d4:	442f6e75 	strtmi	r6, [pc], #-3701	; 8dc <_start-0x7724>
     8d8:	746b7365 	strbtvc	r7, [fp], #-869	; 0x365
     8dc:	732f706f 	teqvc	pc, #111	; 0x6f
     8e0:	6f6f6863 	svcvs	0x006f6863
     8e4:	69572f6c 	ldmdbvs	r7, {r2, r3, r5, r6, r8, r9, sl, fp, sp}^
     8e8:	7265746e 	rsbvc	r7, r5, #1845493760	; 0x6e000000
     8ec:	30323931 	eorscc	r3, r2, r1, lsr r9
     8f0:	3153432f 	cmpcc	r3, pc, lsr #6
     8f4:	2f453034 	svccs	0x00453034
     8f8:	34317363 	ldrtcc	r7, [r1], #-867	; 0x363
     8fc:	322d6530 	eorcc	r6, sp, #48, 10	; 0xc000000
     900:	6e697730 	mcrvs	7, 3, r7, cr9, cr0, {1}
     904:	62696c2f 	rsbvs	r6, r9, #12032	; 0x2f00
     908:	00006970 	andeq	r6, r0, r0, ror r9
     90c:	656d6974 	strbvs	r6, [sp, #-2420]!	; 0x974
     910:	00632e72 	rsbeq	r2, r3, r2, ror lr
     914:	72000001 	andvc	r0, r0, #1
     918:	682e6970 	stmdavs	lr!, {r4, r5, r6, r8, fp, sp, lr}
     91c:	00000200 	andeq	r0, r0, r0, lsl #4
     920:	02050000 	andeq	r0, r5, #0
     924:	000088c4 	andeq	r8, r0, r4, asr #17
     928:	2d2f1316 	stccs	3, cr1, [pc, #-88]!	; 8d8 <_start-0x7728>
     92c:	01040200 	mrseq	r0, R12_usr
     930:	68062e06 	stmdavs	r6, {r1, r2, r9, sl, fp, sp}
     934:	4d4b2f31 	stclmi	15, cr2, [fp, #-196]	; 0xffffff3c
     938:	4b303132 	blmi	c0ce08 <__bss_end__+0xc02ad8>
     93c:	2f6a2f4c 	svccs	0x006a2f4c
     940:	022f842f 	eoreq	r8, pc, #788529152	; 0x2f000000
     944:	01010008 	tsteq	r1, r8
     948:	00000345 	andeq	r0, r0, r5, asr #6
     94c:	01bd0002 			; <UNDEFINED> instruction: 0x01bd0002
     950:	01020000 	mrseq	r0, (UNDEF: 2)
     954:	000d0efb 	strdeq	r0, [sp], -fp
     958:	01010101 	tsteq	r1, r1, lsl #2
     95c:	01000000 	mrseq	r0, (UNDEF: 0)
     960:	6d010000 	stcvs	0, cr0, [r1, #-0]
     964:	72732d79 	rsbsvc	r2, r3, #7744	; 0x1e40
     968:	552f0063 	strpl	r0, [pc, #-99]!	; 90d <_start-0x76f3>
     96c:	73726573 	cmnvc	r2, #482344960	; 0x1cc00000
     970:	6972622f 	ldmdbvs	r2!, {r0, r1, r2, r3, r5, r9, sp, lr}^
     974:	756a6e61 	strbvc	r6, [sl, #-3681]!	; 0xe61
     978:	65442f6e 	strbvs	r2, [r4, #-3950]	; 0xf6e
     97c:	6f746b73 	svcvs	0x00746b73
     980:	63732f70 	cmnvs	r3, #112, 30	; 0x1c0
     984:	6c6f6f68 	stclvs	15, cr6, [pc], #-416	; 7ec <_start-0x7814>
     988:	6e69572f 	cdpvs	7, 6, cr5, cr9, cr15, {1}
     98c:	31726574 	cmncc	r2, r4, ror r5
     990:	2f303239 	svccs	0x00303239
     994:	34315343 	ldrtcc	r5, [r1], #-835	; 0x343
     998:	632f4530 	teqvs	pc, #48, 10	; 0xc000000
     99c:	30343173 	eorscc	r3, r4, r3, ror r1
     9a0:	30322d65 	eorscc	r2, r2, r5, ror #26
     9a4:	2f6e6977 	svccs	0x006e6977
     9a8:	7062696c 	rsbvc	r6, r2, ip, ror #18
     9ac:	73632f69 	cmnvc	r3, #420	; 0x1a4
     9b0:	65303431 	ldrvs	r3, [r0, #-1073]!	; 0x431
     9b4:	6372732d 	cmnvs	r2, #-1275068416	; 0xb4000000
     9b8:	73752f00 	cmnvc	r5, #0, 30
     9bc:	6f6c2f72 	svcvs	0x006c2f72
     9c0:	2f6c6163 	svccs	0x006c6163
     9c4:	6c6c6543 	cfstr64vs	mvdx6, [ip], #-268	; 0xfffffef4
     9c8:	612f7261 	teqvs	pc, r1, ror #4
     9cc:	6e2d6d72 	mcrvs	13, 1, r6, cr13, cr2, {3}
     9d0:	2d656e6f 	stclcs	14, cr6, [r5, #-444]!	; 0xfffffe44
     9d4:	69626165 	stmdbvs	r2!, {r0, r2, r5, r6, r8, sp, lr}^
     9d8:	382e342f 	stmdacc	lr!, {r0, r1, r2, r3, r5, sl, ip, sp}
     9dc:	632d332e 	teqvs	sp, #-1207959552	; 0xb8000000
     9e0:	30373173 	eorscc	r3, r7, r3, ror r1
     9e4:	696c2f65 	stmdbvs	ip!, {r0, r2, r5, r6, r8, r9, sl, fp, sp}^
     9e8:	63672f62 	cmnvs	r7, #392	; 0x188
     9ec:	72612f63 	rsbvc	r2, r1, #396	; 0x18c
     9f0:	6f6e2d6d 	svcvs	0x006e2d6d
     9f4:	652d656e 	strvs	r6, [sp, #-1390]!	; 0x56e
     9f8:	2f696261 	svccs	0x00696261
     9fc:	2e382e34 	mrccs	14, 1, r2, cr8, cr4, {1}
     a00:	6e692f33 	mcrvs	15, 3, r2, cr9, cr3, {1}
     a04:	64756c63 	ldrbtvs	r6, [r5], #-3171	; 0xc63
     a08:	552f0065 	strpl	r0, [pc, #-101]!	; 9ab <_start-0x7655>
     a0c:	73726573 	cmnvc	r2, #482344960	; 0x1cc00000
     a10:	6972622f 	ldmdbvs	r2!, {r0, r1, r2, r3, r5, r9, sp, lr}^
     a14:	756a6e61 	strbvc	r6, [sl, #-3681]!	; 0xe61
     a18:	65442f6e 	strbvs	r2, [r4, #-3950]	; 0xf6e
     a1c:	6f746b73 	svcvs	0x00746b73
     a20:	63732f70 	cmnvs	r3, #112, 30	; 0x1c0
     a24:	6c6f6f68 	stclvs	15, cr6, [pc], #-416	; 88c <_start-0x7774>
     a28:	6e69572f 	cdpvs	7, 6, cr5, cr9, cr15, {1}
     a2c:	31726574 	cmncc	r2, r4, ror r5
     a30:	2f303239 	svccs	0x00303239
     a34:	34315343 	ldrtcc	r5, [r1], #-835	; 0x343
     a38:	632f4530 	teqvs	pc, #48, 10	; 0xc000000
     a3c:	30343173 	eorscc	r3, r4, r3, ror r1
     a40:	30322d65 	eorscc	r2, r2, r5, ror #26
     a44:	2f6e6977 	svccs	0x006e6977
     a48:	7062696c 	rsbvc	r6, r2, ip, ror #18
     a4c:	552f0069 	strpl	r0, [pc, #-105]!	; 9eb <_start-0x7615>
     a50:	73726573 	cmnvc	r2, #482344960	; 0x1cc00000
     a54:	6972622f 	ldmdbvs	r2!, {r0, r1, r2, r3, r5, r9, sp, lr}^
     a58:	756a6e61 	strbvc	r6, [sl, #-3681]!	; 0xe61
     a5c:	65442f6e 	strbvs	r2, [r4, #-3950]	; 0xf6e
     a60:	6f746b73 	svcvs	0x00746b73
     a64:	63732f70 	cmnvs	r3, #112, 30	; 0x1c0
     a68:	6c6f6f68 	stclvs	15, cr6, [pc], #-416	; 8d0 <_start-0x7730>
     a6c:	6e69572f 	cdpvs	7, 6, cr5, cr9, cr15, {1}
     a70:	31726574 	cmncc	r2, r4, ror r5
     a74:	2f303239 	svccs	0x00303239
     a78:	34315343 	ldrtcc	r5, [r1], #-835	; 0x343
     a7c:	632f4530 	teqvs	pc, #48, 10	; 0xc000000
     a80:	30343173 	eorscc	r3, r4, r3, ror r1
     a84:	30322d65 	eorscc	r2, r2, r5, ror #26
     a88:	2f6e6977 	svccs	0x006e6977
     a8c:	7062696c 	rsbvc	r6, r2, ip, ror #18
     a90:	696c2f69 	stmdbvs	ip!, {r0, r3, r5, r6, r8, r9, sl, fp, sp}^
     a94:	00006362 	andeq	r6, r0, r2, ror #6
     a98:	752d7773 	strvc	r7, [sp, #-1907]!	; 0x773
     a9c:	2e747261 	cdpcs	2, 7, cr7, cr4, cr1, {3}
     aa0:	00010063 	andeq	r0, r1, r3, rrx
     aa4:	63796300 	cmnvs	r9, #0, 6
     aa8:	752d656c 	strvc	r6, [sp, #-1388]!	; 0x56c
     aac:	2e6c6974 	mcrcs	9, 3, r6, cr12, cr4, {3}
     ab0:	00020068 	andeq	r0, r2, r8, rrx
     ab4:	64747300 	ldrbtvs	r7, [r4], #-768	; 0x300
     ab8:	2d746e69 	ldclcs	14, cr6, [r4, #-420]!	; 0xfffffe5c
     abc:	2e636367 	cdpcs	3, 6, cr6, cr3, cr7, {3}
     ac0:	00030068 	andeq	r0, r3, r8, rrx
     ac4:	2d777300 	ldclcs	3, cr7, [r7, #-0]
     ac8:	74726175 	ldrbtvc	r6, [r2], #-373	; 0x175
     acc:	0200682e 	andeq	r6, r0, #3014656	; 0x2e0000
     ad0:	74730000 	ldrbtvc	r0, [r3], #-0
     ad4:	67726164 	ldrbvs	r6, [r2, -r4, ror #2]!
     ad8:	0300682e 	movweq	r6, #2094	; 0x82e
     adc:	70670000 	rsbvc	r0, r7, r0
     ae0:	682e6f69 	stmdavs	lr!, {r0, r3, r5, r6, r8, r9, sl, fp, sp, lr}
     ae4:	00000200 	andeq	r0, r0, r0, lsl #4
     ae8:	2e697072 	mcrcs	0, 3, r7, cr9, cr2, {3}
     aec:	00040068 	andeq	r0, r4, r8, rrx
     af0:	2d617600 	stclcs	6, cr7, [r1, #-0]
     af4:	6e697270 	mcrvs	2, 3, r7, cr9, cr0, {3}
     af8:	682e6b74 	stmdavs	lr!, {r2, r4, r5, r6, r8, r9, fp, sp, lr}
     afc:	00000500 	andeq	r0, r0, r0, lsl #10
     b00:	6975623c 	ldmdbvs	r5!, {r2, r3, r4, r5, r9, sp, lr}^
     b04:	692d746c 	pushvs	{r2, r3, r5, r6, sl, ip, sp, lr}
     b08:	00003e6e 	andeq	r3, r0, lr, ror #28
     b0c:	00000000 	andeq	r0, r0, r0
     b10:	894c0205 	stmdbhi	ip, {r0, r2, r9}^
     b14:	4c1a0000 	ldcmi	0, cr0, [sl], {-0}
     b18:	0204302f 	andeq	r3, r4, #47	; 0x2f
     b1c:	032e0b03 	teqeq	lr, #3072	; 0xc00
     b20:	01046673 	tsteq	r4, r3, ror r6
     b24:	35020488 	strcc	r0, [r2, #-1160]	; 0x488
     b28:	04667303 	strbteq	r7, [r6], #-771	; 0x303
     b2c:	02048a01 	andeq	r8, r4, #4096	; 0x1000
     b30:	66730333 			; <UNDEFINED> instruction: 0x66730333
     b34:	0a030104 	beq	c0f4c <__bss_end__+0xb6c1c>
     b38:	31020482 	smlabbcc	r2, r2, r4, r0
     b3c:	04667303 	strbteq	r7, [r6], #-771	; 0x303
     b40:	820c0301 	andhi	r0, ip, #67108864	; 0x4000000
     b44:	032f0204 	teqeq	pc, #4, 4	; 0x40000000
     b48:	01046673 	tsteq	r4, r3, ror r6
     b4c:	04820e03 	streq	r0, [r2], #3587	; 0xe03
     b50:	73032d02 	movwvc	r2, #15618	; 0x3d02
     b54:	03010466 	movweq	r0, #5222	; 0x1466
     b58:	02048210 	andeq	r8, r4, #16, 4
     b5c:	6673032b 	ldrbtvs	r0, [r3], -fp, lsr #6
     b60:	12030104 	andne	r0, r3, #4, 2
     b64:	29020482 	stmdbcs	r2, {r1, r7, sl}
     b68:	04667303 	strbteq	r7, [r6], #-771	; 0x303
     b6c:	82140301 	andshi	r0, r4, #67108864	; 0x4000000
     b70:	79030204 	stmdbvc	r3, {r2, r9}
     b74:	6673032e 	ldrbtvs	r0, [r3], -lr, lsr #6
     b78:	16030104 	strne	r0, [r3], -r4, lsl #2
     b7c:	03020482 	movweq	r0, #9346	; 0x2482
     b80:	73032e77 	movwvc	r2, #15991	; 0x3e77
     b84:	03010466 	movweq	r0, #5222	; 0x1466
     b88:	10038218 	andne	r8, r3, r8, lsl r2
     b8c:	034d4b2e 	movteq	r4, #56110	; 0xdb2e
     b90:	844c2e70 	strbhi	r2, [ip], #-3696	; 0xe70
     b94:	0d034883 	stceq	8, cr4, [r3, #-524]	; 0xfffffdf4
     b98:	33314e2e 	teqcc	r1, #736	; 0x2e0
     b9c:	48030204 	stmdami	r3, {r2, r9}
     ba0:	0301042e 	movweq	r0, #5166	; 0x142e
     ba4:	042f823a 	strteq	r8, [pc], #-570	; bac <_start-0x7454>
     ba8:	66450302 	strbvs	r0, [r5], -r2, lsl #6
     bac:	3d030104 	stfccs	f0, [r3, #-16]
     bb0:	02042f82 	andeq	r2, r4, #520	; 0x208
     bb4:	04824203 	streq	r4, [r2], #515	; 0x203
     bb8:	00c00301 	sbceq	r0, r0, r1, lsl #6
     bbc:	02042f82 	andeq	r2, r4, #520	; 0x208
     bc0:	827fbf03 	rsbshi	fp, pc, #3, 30
     bc4:	c3030104 	movwgt	r0, #12548	; 0x3104
     bc8:	042f8200 	strteq	r8, [pc], #-512	; bd0 <_start-0x7430>
     bcc:	7fbc0302 	svcvc	0x00bc0302
     bd0:	03010482 	movweq	r0, #5250	; 0x1482
     bd4:	2f8200c6 	svccs	0x008200c6
     bd8:	b9030204 	stmdblt	r3, {r2, r9}
     bdc:	0104827f 	tsteq	r4, pc, ror r2
     be0:	8200c903 	andhi	ip, r0, #49152	; 0xc000
     be4:	0302042f 	movweq	r0, #9263	; 0x242f
     be8:	04827fb6 	streq	r7, [r2], #4022	; 0xfb6
     bec:	00cc0301 	sbceq	r0, ip, r1, lsl #6
     bf0:	02042f82 	andeq	r2, r4, #520	; 0x208
     bf4:	827fb303 	rsbshi	fp, pc, #201326592	; 0xc000000
     bf8:	d0030104 	andle	r0, r3, r4, lsl #2
     bfc:	4c038200 	sfmmi	f0, 1, [r3], {-0}
     c00:	83844c82 	orrhi	r4, r4, #33280	; 0x8200
     c04:	2e360348 	cdpcs	3, 3, cr0, cr6, cr8, {2}
     c08:	4a54034e 	bmi	1501948 <__bss_end__+0x14f7618>
     c0c:	324a2903 	subcc	r2, sl, #49152	; 0xc000
     c10:	02009f34 	andeq	r9, r0, #52, 30	; 0xd0
     c14:	4a060104 	bmi	18102c <__bss_end__+0x176cfc>
     c18:	4b4ed706 	blmi	13b6838 <__bss_end__+0x13ac508>
     c1c:	02002cbb 	andeq	r2, r0, #47872	; 0xbb00
     c20:	2e060104 	adfcss	f0, f6, f4
     c24:	a44c6d06 	strbge	r6, [ip], #-3334	; 0xd06
     c28:	04020084 	streq	r0, [r2], #-132	; 0x84
     c2c:	064a0601 	strbeq	r0, [sl], -r1, lsl #12
     c30:	02004dd7 	andeq	r4, r0, #13760	; 0x35c0
     c34:	004b0204 	subeq	r0, fp, r4, lsl #4
     c38:	81020402 	tsthi	r2, r2, lsl #8
     c3c:	01040200 	mrseq	r0, R12_usr
     c40:	4d062e06 	stcmi	14, cr2, [r6, #-24]	; 0xffffffe8
     c44:	4bbca54c 	blmi	fef2a17c <__bss_end__+0xfef1fe4c>
     c48:	2f6a4b4b 	svccs	0x006a4b4b
     c4c:	01040200 	mrseq	r0, R12_usr
     c50:	00828206 	addeq	r8, r2, r6, lsl #4
     c54:	9e040402 	cdpls	4, 0, cr0, cr4, cr2, {0}
     c58:	01040200 	mrseq	r0, R12_usr
     c5c:	88d9064a 	ldmhi	r9, {r1, r3, r6, r9, sl}^
     c60:	4b4b2fbd 	blmi	12ccb5c <__bss_end__+0x12c282c>
     c64:	00674008 	rsbeq	r4, r7, r8
     c68:	2f020402 	svccs	0x00020402
     c6c:	02040200 	andeq	r0, r4, #0, 4
     c70:	04020049 	streq	r0, [r2], #-73	; 0x49
     c74:	062e0601 	strteq	r0, [lr], -r1, lsl #12
     c78:	4b863468 	blmi	fe18de20 <__bss_end__+0xfe183af0>
     c7c:	040200a0 	streq	r0, [r2], #-160	; 0xa0
     c80:	06660601 	strbteq	r0, [r6], -r1, lsl #12
     c84:	220868d7 	andcs	r6, r8, #14090240	; 0xd70000
     c88:	d84b674b 	stmdale	fp, {r0, r1, r3, r6, r8, r9, sl, sp, lr}^
     c8c:	01000a02 	tsteq	r0, r2, lsl #20
     c90:	00010101 	andeq	r0, r1, r1, lsl #2
     c94:	ca000200 	bgt	149c <_start-0x6b64>
     c98:	02000000 	andeq	r0, r0, #0
     c9c:	0d0efb01 	vstreq	d15, [lr, #-4]
     ca0:	01010100 	mrseq	r0, (UNDEF: 17)
     ca4:	00000001 	andeq	r0, r0, r1
     ca8:	01000001 	tsteq	r0, r1
     cac:	732d796d 	teqvc	sp, #1785856	; 0x1b4000
     cb0:	2f006372 	svccs	0x00006372
     cb4:	72657355 	rsbvc	r7, r5, #1409286145	; 0x54000001
     cb8:	72622f73 	rsbvc	r2, r2, #460	; 0x1cc
     cbc:	6a6e6169 	bvs	1b99268 <__bss_end__+0x1b8ef38>
     cc0:	442f6e75 	strtmi	r6, [pc], #-3701	; cc8 <_start-0x7338>
     cc4:	746b7365 	strbtvc	r7, [fp], #-869	; 0x365
     cc8:	732f706f 	teqvc	pc, #111	; 0x6f
     ccc:	6f6f6863 	svcvs	0x006f6863
     cd0:	69572f6c 	ldmdbvs	r7, {r2, r3, r5, r6, r8, r9, sl, fp, sp}^
     cd4:	7265746e 	rsbvc	r7, r5, #1845493760	; 0x6e000000
     cd8:	30323931 	eorscc	r3, r2, r1, lsr r9
     cdc:	3153432f 	cmpcc	r3, pc, lsr #6
     ce0:	2f453034 	svccs	0x00453034
     ce4:	34317363 	ldrtcc	r7, [r1], #-867	; 0x363
     ce8:	322d6530 	eorcc	r6, sp, #48, 10	; 0xc000000
     cec:	6e697730 	mcrvs	7, 3, r7, cr9, cr0, {1}
     cf0:	62696c2f 	rsbvs	r6, r9, #12032	; 0x2f00
     cf4:	632f6970 	teqvs	pc, #112, 18	; 0x1c0000
     cf8:	30343173 	eorscc	r3, r4, r3, ror r1
     cfc:	72732d65 	rsbsvc	r2, r3, #6464	; 0x1940
     d00:	552f0063 	strpl	r0, [pc, #-99]!	; ca5 <_start-0x735b>
     d04:	73726573 	cmnvc	r2, #482344960	; 0x1cc00000
     d08:	6972622f 	ldmdbvs	r2!, {r0, r1, r2, r3, r5, r9, sp, lr}^
     d0c:	756a6e61 	strbvc	r6, [sl, #-3681]!	; 0xe61
     d10:	65442f6e 	strbvs	r2, [r4, #-3950]	; 0xf6e
     d14:	6f746b73 	svcvs	0x00746b73
     d18:	63732f70 	cmnvs	r3, #112, 30	; 0x1c0
     d1c:	6c6f6f68 	stclvs	15, cr6, [pc], #-416	; b84 <_start-0x747c>
     d20:	6e69572f 	cdpvs	7, 6, cr5, cr9, cr15, {1}
     d24:	31726574 	cmncc	r2, r4, ror r5
     d28:	2f303239 	svccs	0x00303239
     d2c:	34315343 	ldrtcc	r5, [r1], #-835	; 0x343
     d30:	632f4530 	teqvs	pc, #48, 10	; 0xc000000
     d34:	30343173 	eorscc	r3, r4, r3, ror r1
     d38:	30322d65 	eorscc	r2, r2, r5, ror #26
     d3c:	2f6e6977 	svccs	0x006e6977
     d40:	7062696c 	rsbvc	r6, r2, ip, ror #18
     d44:	75000069 	strvc	r0, [r0, #-105]	; 0x69
     d48:	2e747261 	cdpcs	2, 7, cr7, cr4, cr1, {3}
     d4c:	00010063 	andeq	r0, r1, r3, rrx
     d50:	69706700 	ldmdbvs	r0!, {r8, r9, sl, sp, lr}^
     d54:	00682e6f 	rsbeq	r2, r8, pc, ror #28
     d58:	72000002 	andvc	r0, r0, #2
     d5c:	682e6970 	stmdavs	lr!, {r4, r5, r6, r8, fp, sp, lr}
     d60:	00000300 	andeq	r0, r0, r0, lsl #6
     d64:	02050000 	andeq	r0, r5, #0
     d68:	00008f6c 	andeq	r8, r0, ip, ror #30
     d6c:	30013603 	andcc	r3, r1, r3, lsl #12
     d70:	306d6733 	rsbcc	r6, sp, r3, lsr r7
     d74:	676730d8 			; <UNDEFINED> instruction: 0x676730d8
     d78:	68676767 	stmdavs	r7!, {r0, r1, r2, r5, r6, r8, r9, sl, sp, lr}^
     d7c:	6a672f86 	bvs	19ccb9c <__bss_end__+0x19c286c>
     d80:	69676730 	stmdbvs	r7!, {r4, r5, r8, r9, sl, sp, lr}^
     d84:	4c6a672f 	stclmi	7, cr6, [sl], #-188	; 0xffffff44
     d88:	2f2fc167 	svccs	0x002fc167
     d8c:	49682f30 	stmdbmi	r8!, {r4, r5, r8, r9, sl, fp, sp}^
     d90:	00020230 	andeq	r0, r2, r0, lsr r2
     d94:	01880101 	orreq	r0, r8, r1, lsl #2
     d98:	00020000 	andeq	r0, r2, r0
     d9c:	000000ca 	andeq	r0, r0, sl, asr #1
     da0:	0efb0102 	cdpeq	1, 15, cr0, cr11, cr2, {0}
     da4:	0101000d 	tsteq	r1, sp
     da8:	00000101 	andeq	r0, r0, r1, lsl #2
     dac:	00000100 	andeq	r0, r0, r0, lsl #2
     db0:	2d796d01 	ldclcs	13, cr6, [r9, #-4]!
     db4:	00637273 	rsbeq	r7, r3, r3, ror r2
     db8:	6573552f 	ldrbvs	r5, [r3, #-1327]!	; 0x52f
     dbc:	622f7372 	eorvs	r7, pc, #-939524095	; 0xc8000001
     dc0:	6e616972 	mcrvs	9, 3, r6, cr1, cr2, {3}
     dc4:	2f6e756a 	svccs	0x006e756a
     dc8:	6b736544 	blvs	1cda2e0 <__bss_end__+0x1ccffb0>
     dcc:	2f706f74 	svccs	0x00706f74
     dd0:	6f686373 	svcvs	0x00686373
     dd4:	572f6c6f 	strpl	r6, [pc, -pc, ror #24]!
     dd8:	65746e69 	ldrbvs	r6, [r4, #-3689]!	; 0xe69
     ddc:	32393172 	eorscc	r3, r9, #-2147483620	; 0x8000001c
     de0:	53432f30 	movtpl	r2, #16176	; 0x3f30
     de4:	45303431 	ldrmi	r3, [r0, #-1073]!	; 0x431
     de8:	3173632f 	cmncc	r3, pc, lsr #6
     dec:	2d653034 	stclcs	0, cr3, [r5, #-208]!	; 0xffffff30
     df0:	69773032 	ldmdbvs	r7!, {r1, r4, r5, ip, sp}^
     df4:	696c2f6e 	stmdbvs	ip!, {r1, r2, r3, r5, r6, r8, r9, sl, fp, sp}^
     df8:	2f697062 	svccs	0x00697062
     dfc:	34317363 	ldrtcc	r7, [r1], #-867	; 0x363
     e00:	732d6530 	teqvc	sp, #48, 10	; 0xc000000
     e04:	2f006372 	svccs	0x00006372
     e08:	72657355 	rsbvc	r7, r5, #1409286145	; 0x54000001
     e0c:	72622f73 	rsbvc	r2, r2, #460	; 0x1cc
     e10:	6a6e6169 	bvs	1b993bc <__bss_end__+0x1b8f08c>
     e14:	442f6e75 	strtmi	r6, [pc], #-3701	; e1c <_start-0x71e4>
     e18:	746b7365 	strbtvc	r7, [fp], #-869	; 0x365
     e1c:	732f706f 	teqvc	pc, #111	; 0x6f
     e20:	6f6f6863 	svcvs	0x006f6863
     e24:	69572f6c 	ldmdbvs	r7, {r2, r3, r5, r6, r8, r9, sl, fp, sp}^
     e28:	7265746e 	rsbvc	r7, r5, #1845493760	; 0x6e000000
     e2c:	30323931 	eorscc	r3, r2, r1, lsr r9
     e30:	3153432f 	cmpcc	r3, pc, lsr #6
     e34:	2f453034 	svccs	0x00453034
     e38:	34317363 	ldrtcc	r7, [r1], #-867	; 0x363
     e3c:	322d6530 	eorcc	r6, sp, #48, 10	; 0xc000000
     e40:	6e697730 	mcrvs	7, 3, r7, cr9, cr0, {1}
     e44:	62696c2f 	rsbvs	r6, r9, #12032	; 0x2f00
     e48:	00006970 	andeq	r6, r0, r0, ror r9
     e4c:	6f697067 	svcvs	0x00697067
     e50:	0100632e 	tsteq	r0, lr, lsr #6
     e54:	70670000 	rsbvc	r0, r7, r0
     e58:	682e6f69 	stmdavs	lr!, {r0, r3, r5, r6, r8, r9, sl, fp, sp, lr}
     e5c:	00000200 	andeq	r0, r0, r0, lsl #4
     e60:	2e697072 	mcrcs	0, 3, r7, cr9, cr2, {3}
     e64:	00030068 	andeq	r0, r3, r8, rrx
     e68:	05000000 	streq	r0, [r0, #-0]
     e6c:	00912802 	addseq	r2, r1, r2, lsl #16
     e70:	013e0300 	teqeq	lr, r0, lsl #6
     e74:	0869504e 	stmdaeq	r9!, {r1, r2, r3, r6, ip, lr}^
     e78:	67676721 	strbvs	r6, [r7, -r1, lsr #14]!
     e7c:	32676767 	rsbcc	r6, r7, #27000832	; 0x19c0000
     e80:	dc22084b 	stcle	8, cr0, [r2], #-300	; 0xfffffed4
     e84:	4e135131 	mrcmi	1, 0, r5, cr3, cr1, {1}
     e88:	31be3050 			; <UNDEFINED> instruction: 0x31be3050
     e8c:	4f4d1350 	svcmi	0x004d1350
     e90:	504cc030 	subpl	ip, ip, r0, lsr r0
     e94:	67210869 	strvs	r0, [r1, -r9, ror #16]!
     e98:	67676767 	strbvs	r6, [r7, -r7, ror #14]!
     e9c:	084b3267 	stmdaeq	fp, {r0, r1, r2, r5, r6, r9, ip, sp}^
     ea0:	504ca421 	subpl	sl, ip, r1, lsr #8
     ea4:	0369842f 	cmneq	r9, #788529152	; 0x2f000000
     ea8:	0c038275 	sfmeq	f0, 1, [r3], {117}	; 0x75
     eac:	4e304d2e 	cdpmi	13, 3, cr4, cr0, cr14, {1}
     eb0:	4a7f9803 	bmi	1fe6ec4 <__bss_end__+0x1fdcb94>
     eb4:	504e1351 	subpl	r1, lr, r1, asr r3
     eb8:	1350a530 	cmpne	r0, #48, 10	; 0xc000000
     ebc:	03304f4d 	teqeq	r0, #308	; 0x134
     ec0:	6aba00c2 	bvs	fee811d0 <__bss_end__+0xfee76ea0>
     ec4:	2108696b 	tstcs	r8, fp, ror #18
     ec8:	67676767 	strbvs	r6, [r7, -r7, ror #14]!
     ecc:	4b326767 	blmi	c9ac70 <__bss_end__+0xc90940>
     ed0:	1a032208 	bne	c96f8 <__bss_end__+0xbf3c8>
     ed4:	4c9f31ba 	ldfmis	f3, [pc], {186}	; 0xba
     ed8:	4e4d522f 	cdpmi	2, 4, cr5, cr13, cr15, {1}
     edc:	4b674b2f 	blmi	19d3ba0 <__bss_end__+0x19c9870>
     ee0:	4c676768 	stclmi	7, cr6, [r7], #-416	; 0xfffffe60
     ee4:	4b2f672f 	blmi	bdaba8 <__bss_end__+0xbd0878>
     ee8:	2f4e4c6e 	svccs	0x004e4c6e
     eec:	684b674b 	stmdavs	fp, {r0, r1, r3, r6, r8, r9, sl, sp, lr}^
     ef0:	2f4c6767 	svccs	0x004c6767
     ef4:	6d4b2f67 	stclvs	15, cr2, [fp, #-412]	; 0xfffffe64
     ef8:	4b2f4e4b 	blmi	bd482c <__bss_end__+0xbca4fc>
     efc:	04020067 	streq	r0, [r2], #-103	; 0x67
     f00:	06660601 	strbteq	r0, [r6], -r1, lsl #12
     f04:	002f9f68 	eoreq	r9, pc, r8, ror #30
     f08:	06010402 	streq	r0, [r1], -r2, lsl #8
     f0c:	2f68064a 	svccs	0x0068064a
     f10:	034a7303 	movteq	r7, #41731	; 0xa303
     f14:	4c4d2e0e 	mcrrmi	14, 0, r2, sp, cr14
     f18:	bc4b2f4e 	mcrrlt	15, 4, r2, fp, cr14
     f1c:	000602bc 			; <UNDEFINED> instruction: 0x000602bc
     f20:	01280101 	teqeq	r8, r1, lsl #2
     f24:	00020000 	andeq	r0, r2, r0
     f28:	0000010d 	andeq	r0, r0, sp, lsl #2
     f2c:	0efb0102 	cdpeq	1, 15, cr0, cr11, cr2, {0}
     f30:	0101000d 	tsteq	r1, sp
     f34:	00000101 	andeq	r0, r0, r1, lsl #2
     f38:	00000100 	andeq	r0, r0, r0, lsl #2
     f3c:	31736301 	cmncc	r3, r1, lsl #6
     f40:	2d653034 	stclcs	0, cr3, [r5, #-208]!	; 0xffffff30
     f44:	00637273 	rsbeq	r7, r3, r3, ror r2
     f48:	7273752f 	rsbsvc	r7, r3, #197132288	; 0xbc00000
     f4c:	636f6c2f 	cmnvs	pc, #12032	; 0x2f00
     f50:	432f6c61 	teqmi	pc, #24832	; 0x6100
     f54:	616c6c65 	cmnvs	ip, r5, ror #24
     f58:	72612f72 	rsbvc	r2, r1, #456	; 0x1c8
     f5c:	6f6e2d6d 	svcvs	0x006e2d6d
     f60:	652d656e 	strvs	r6, [sp, #-1390]!	; 0x56e
     f64:	2f696261 	svccs	0x00696261
     f68:	2e382e34 	mrccs	14, 1, r2, cr8, cr4, {1}
     f6c:	73632d33 	cmnvc	r3, #3264	; 0xcc0
     f70:	65303731 	ldrvs	r3, [r0, #-1841]!	; 0x731
     f74:	62696c2f 	rsbvs	r6, r9, #12032	; 0x2f00
     f78:	6363672f 	cmnvs	r3, #12320768	; 0xbc0000
     f7c:	6d72612f 	ldfvse	f6, [r2, #-188]!	; 0xffffff44
     f80:	6e6f6e2d 	cdpvs	14, 6, cr6, cr15, cr13, {1}
     f84:	61652d65 	cmnvs	r5, r5, ror #26
     f88:	342f6962 	strtcc	r6, [pc], #-2402	; f90 <_start-0x7070>
     f8c:	332e382e 	teqcc	lr, #3014656	; 0x2e0000
     f90:	636e692f 	cmnvs	lr, #770048	; 0xbc000
     f94:	6564756c 	strbvs	r7, [r4, #-1388]!	; 0x56c
     f98:	73752f00 	cmnvc	r5, #0, 30
     f9c:	6f6c2f72 	svcvs	0x006c2f72
     fa0:	2f6c6163 	svccs	0x006c6163
     fa4:	6c6c6543 	cfstr64vs	mvdx6, [ip], #-268	; 0xfffffef4
     fa8:	612f7261 	teqvs	pc, r1, ror #4
     fac:	6e2d6d72 	mcrvs	13, 1, r6, cr13, cr2, {3}
     fb0:	2d656e6f 	stclcs	14, cr6, [r5, #-444]!	; 0xfffffe44
     fb4:	69626165 	stmdbvs	r2!, {r0, r2, r5, r6, r8, sp, lr}^
     fb8:	382e342f 	stmdacc	lr!, {r0, r1, r2, r3, r5, sl, ip, sp}
     fbc:	632d332e 	teqvs	sp, #-1207959552	; 0xb8000000
     fc0:	30373173 	eorscc	r3, r7, r3, ror r1
     fc4:	72612f65 	rsbvc	r2, r1, #404	; 0x194
     fc8:	6f6e2d6d 	svcvs	0x006e2d6d
     fcc:	652d656e 	strvs	r6, [sp, #-1390]!	; 0x56e
     fd0:	2f696261 	svccs	0x00696261
     fd4:	6c636e69 	stclvs	14, cr6, [r3], #-420	; 0xfffffe5c
     fd8:	00656475 	rsbeq	r6, r5, r5, ror r4
     fdc:	6e6f6300 	cdpvs	3, 6, cr6, cr15, cr0, {0}
     fe0:	6c6f7274 	sfmvs	f7, 2, [pc], #-464	; e18 <_start-0x71e8>
     fe4:	6f6c622d 	svcvs	0x006c622d
     fe8:	632e6b63 	teqvs	lr, #101376	; 0x18c00
     fec:	00000100 	andeq	r0, r0, r0, lsl #2
     ff0:	64647473 	strbtvs	r7, [r4], #-1139	; 0x473
     ff4:	682e6665 	stmdavs	lr!, {r0, r2, r5, r6, r9, sl, sp, lr}
     ff8:	00000200 	andeq	r0, r0, r0, lsl #4
     ffc:	69647473 	stmdbvs	r4!, {r0, r1, r4, r5, r6, sl, ip, sp, lr}^
    1000:	672d746e 	strvs	r7, [sp, -lr, ror #8]!
    1004:	682e6363 	stmdavs	lr!, {r0, r1, r5, r6, r8, r9, sp, lr}
    1008:	00000200 	andeq	r0, r0, r0, lsl #4
    100c:	752d7773 	strvc	r7, [sp, #-1907]!	; 0x773
    1010:	2e747261 	cdpcs	2, 7, cr7, cr4, cr1, {3}
    1014:	00010068 	andeq	r0, r1, r8, rrx
    1018:	6e6f6300 	cdpvs	3, 6, cr6, cr15, cr0, {0}
    101c:	6c6f7274 	sfmvs	f7, 2, [pc], #-464	; e54 <_start-0x71ac>
    1020:	6f6c622d 	svcvs	0x006c622d
    1024:	682e6b63 	stmdavs	lr!, {r0, r1, r5, r6, r8, r9, fp, sp, lr}
    1028:	00000100 	andeq	r0, r0, r0, lsl #2
    102c:	69727473 	ldmdbvs	r2!, {r0, r1, r4, r5, r6, sl, ip, sp, lr}^
    1030:	682e676e 	stmdavs	lr!, {r1, r2, r3, r5, r6, r8, r9, sl, sp, lr}
    1034:	00000300 	andeq	r0, r0, r0, lsl #6
    1038:	02050000 	andeq	r0, r5, #0
    103c:	000096e4 	andeq	r9, r0, r4, ror #13
    1040:	68833016 	stmvs	r3, {r1, r2, r4, ip, sp}
    1044:	4b9f144c 	blmi	fe7c617c <__bss_end__+0xfe7bbe4c>
    1048:	0004022f 	andeq	r0, r4, pc, lsr #4
    104c:	00ec0101 	rsceq	r0, ip, r1, lsl #2
    1050:	00020000 	andeq	r0, r2, r0
    1054:	000000d0 	ldrdeq	r0, [r0], -r0	; <UNPREDICTABLE>
    1058:	0efb0102 	cdpeq	1, 15, cr0, cr11, cr2, {0}
    105c:	0101000d 	tsteq	r1, sp
    1060:	00000101 	andeq	r0, r0, r1, lsl #2
    1064:	00000100 	andeq	r0, r0, r0, lsl #2
    1068:	62696c01 	rsbvs	r6, r9, #256	; 0x100
    106c:	752f0063 	strvc	r0, [pc, #-99]!	; 1011 <_start-0x6fef>
    1070:	6c2f7273 	sfmvs	f7, 4, [pc], #-460	; eac <_start-0x7154>
    1074:	6c61636f 	stclvs	3, cr6, [r1], #-444	; 0xfffffe44
    1078:	6c65432f 	stclvs	3, cr4, [r5], #-188	; 0xffffff44
    107c:	2f72616c 	svccs	0x0072616c
    1080:	2d6d7261 	sfmcs	f7, 2, [sp, #-388]!	; 0xfffffe7c
    1084:	656e6f6e 	strbvs	r6, [lr, #-3950]!	; 0xf6e
    1088:	6261652d 	rsbvs	r6, r1, #188743680	; 0xb400000
    108c:	2e342f69 	cdpcs	15, 3, cr2, cr4, cr9, {3}
    1090:	2d332e38 	ldccs	14, cr2, [r3, #-224]!	; 0xffffff20
    1094:	37317363 	ldrcc	r7, [r1, -r3, ror #6]!
    1098:	6c2f6530 	cfstr32vs	mvfx6, [pc], #-192	; fe0 <_start-0x7020>
    109c:	672f6269 	strvs	r6, [pc, -r9, ror #4]!
    10a0:	612f6363 	teqvs	pc, r3, ror #6
    10a4:	6e2d6d72 	mcrvs	13, 1, r6, cr13, cr2, {3}
    10a8:	2d656e6f 	stclcs	14, cr6, [r5, #-444]!	; 0xfffffe44
    10ac:	69626165 	stmdbvs	r2!, {r0, r2, r5, r6, r8, sp, lr}^
    10b0:	382e342f 	stmdacc	lr!, {r0, r1, r2, r3, r5, sl, ip, sp}
    10b4:	692f332e 	stmdbvs	pc!, {r1, r2, r3, r5, r8, r9, ip, sp}	; <UNPREDICTABLE>
    10b8:	756c636e 	strbvc	r6, [ip, #-878]!	; 0x36e
    10bc:	2f006564 	svccs	0x00006564
    10c0:	2f727375 	svccs	0x00727375
    10c4:	61636f6c 	cmnvs	r3, ip, ror #30
    10c8:	65432f6c 	strbvs	r2, [r3, #-3948]	; 0xf6c
    10cc:	72616c6c 	rsbvc	r6, r1, #108, 24	; 0x6c00
    10d0:	6d72612f 	ldfvse	f6, [r2, #-188]!	; 0xffffff44
    10d4:	6e6f6e2d 	cdpvs	14, 6, cr6, cr15, cr13, {1}
    10d8:	61652d65 	cmnvs	r5, r5, ror #26
    10dc:	342f6962 	strtcc	r6, [pc], #-2402	; 10e4 <_start-0x6f1c>
    10e0:	332e382e 	teqcc	lr, #3014656	; 0x2e0000
    10e4:	3173632d 	cmncc	r3, sp, lsr #6
    10e8:	2f653037 	svccs	0x00653037
    10ec:	2d6d7261 	sfmcs	f7, 2, [sp, #-388]!	; 0xfffffe7c
    10f0:	656e6f6e 	strbvs	r6, [lr, #-3950]!	; 0xf6e
    10f4:	6261652d 	rsbvs	r6, r1, #188743680	; 0xb400000
    10f8:	6e692f69 	cdpvs	15, 6, cr2, cr9, cr9, {3}
    10fc:	64756c63 	ldrbtvs	r6, [r5], #-3171	; 0xc63
    1100:	6d000065 	stcvs	0, cr0, [r0, #-404]	; 0xfffffe6c
    1104:	65736d65 	ldrbvs	r6, [r3, #-3429]!	; 0xd65
    1108:	00632e74 	rsbeq	r2, r3, r4, ror lr
    110c:	73000001 	movwvc	r0, #1
    1110:	65646474 	strbvs	r6, [r4, #-1140]!	; 0x474
    1114:	00682e66 	rsbeq	r2, r8, r6, ror #28
    1118:	73000002 	movwvc	r0, #2
    111c:	6e697274 	mcrvs	2, 3, r7, cr9, cr4, {3}
    1120:	00682e67 	rsbeq	r2, r8, r7, ror #28
    1124:	00000003 	andeq	r0, r0, r3
    1128:	34020500 	strcc	r0, [r2], #-1280	; 0x500
    112c:	14000097 	strne	r0, [r0], #-151	; 0x97
    1130:	002f4c13 	eoreq	r4, pc, r3, lsl ip	; <UNPREDICTABLE>
    1134:	49010402 	stmdbmi	r1, {r1, sl}
    1138:	0002024d 	andeq	r0, r2, sp, asr #4
    113c:	Address 0x000000000000113c is out of bounds.


Disassembly of section .debug_str:

00000000 <.debug_str>:
   0:	4e415242 	cdpmi	2, 4, cr5, cr1, cr2, {2}
   4:	4f544843 	svcmi	0x00544843
   8:	5f495000 	svcpl	0x00495000
   c:	44414552 	strbmi	r4, [r1], #-1362	; 0x552
  10:	49500059 	ldmdbmi	r0, {r0, r3, r4, r6}^
  14:	444e455f 	strbmi	r4, [lr], #-1375	; 0x55f
  18:	5f495000 	svcpl	0x00495000
  1c:	4f495047 	svcmi	0x00495047
  20:	4952575f 	ldmdbmi	r2, {r0, r1, r2, r3, r4, r6, r8, r9, sl, ip, lr}^
  24:	50004554 	andpl	r4, r0, r4, asr r5
  28:	55505f49 	ldrbpl	r5, [r0, #-3913]	; 0xf49
  2c:	4f435f54 	svcmi	0x00435f54
  30:	495f4544 	ldmdbmi	pc, {r2, r6, r8, sl, lr}^	; <UNPREDICTABLE>
  34:	004f464e 	subeq	r4, pc, lr, asr #12
  38:	2d746567 	cfldr64cs	mvdx6, [r4, #-412]!	; 0xfffffe64
  3c:	65646f63 	strbvs	r6, [r4, #-3939]!	; 0xf63
  40:	7300632e 	movwvc	r6, #814	; 0x32e
  44:	74726f68 	ldrbtvc	r6, [r2], #-3944	; 0xf68
  48:	736e7520 	cmnvc	lr, #32, 10	; 0x8000000
  4c:	656e6769 	strbvs	r6, [lr, #-1897]!	; 0x769
  50:	6e692064 	cdpvs	0, 6, cr2, cr9, cr4, {3}
  54:	65720074 	ldrbvs	r0, [r2, #-116]!	; 0x74
  58:	655f6461 	ldrbvs	r6, [pc, #-1121]	; fffffbff <__bss_end__+0xffff58cf>
  5c:	74636178 	strbtvc	r6, [r3], #-376	; 0x178
  60:	5f495000 	svcpl	0x00495000
  64:	4f495047 	svcmi	0x00495047
  68:	4145525f 	cmpmi	r5, pc, asr r2
  6c:	4e470044 	cdpmi	0, 4, cr0, cr7, cr4, {2}
  70:	20432055 	subcs	r2, r3, r5, asr r0
  74:	2e382e34 	mrccs	14, 1, r2, cr8, cr4, {1}
  78:	6d2d2033 	stcvs	0, cr2, [sp, #-204]!	; 0xffffff34
  7c:	3d757063 	ldclcc	0, cr7, [r5, #-396]!	; 0xfffffe74
  80:	316d7261 	cmncc	sp, r1, ror #4
  84:	6a363731 	bvs	d8dd50 <__bss_end__+0xd83a20>
  88:	732d667a 	teqvc	sp, #127926272	; 0x7a00000
  8c:	746d2d20 	strbtvc	r2, [sp], #-3360	; 0xd20
  90:	3d656e75 	stclcc	14, cr6, [r5, #-468]!	; 0xfffffe2c
  94:	316d7261 	cmncc	sp, r1, ror #4
  98:	6a363731 	bvs	d8dd64 <__bss_end__+0xd83a34>
  9c:	732d667a 	teqvc	sp, #127926272	; 0x7a00000
  a0:	67672d20 	strbvs	r2, [r7, -r0, lsr #26]!
  a4:	2d206264 	sfmcs	f6, 4, [r0, #-400]!	; 0xfffffe70
  a8:	2d20674f 	stccs	7, cr6, [r0, #-316]!	; 0xfffffec4
  ac:	3d647473 	cfstrdcc	mvd7, [r4, #-460]!	; 0xfffffe34
  b0:	39756e67 	ldmdbcc	r5!, {r0, r1, r2, r5, r6, r9, sl, fp, sp, lr}^
  b4:	662d2039 			; <UNDEFINED> instruction: 0x662d2039
  b8:	65657266 	strbvs	r7, [r5, #-614]!	; 0x266
  bc:	6e617473 	mcrvs	4, 3, r7, cr1, cr3, {3}
  c0:	676e6964 	strbvs	r6, [lr, -r4, ror #18]!
  c4:	746f6e00 	strbtvc	r6, [pc], #-3584	; cc <_start-0x7f34>
  c8:	6e69616d 	powvsez	f6, f1, #5.0
  cc:	5f495000 	svcpl	0x00495000
  d0:	4c4c554e 	cfstr64mi	mvdx5, [ip], {78}	; 0x4e
  d4:	72617500 	rsbvc	r7, r1, #0, 10
  d8:	6e695f74 	mcrvs	15, 3, r5, cr9, cr4, {3}
  dc:	75007469 	strvc	r7, [r0, #-1129]	; 0x469
  e0:	6769736e 	strbvs	r7, [r9, -lr, ror #6]!
  e4:	2064656e 	rsbcs	r6, r4, lr, ror #10
  e8:	72616863 	rsbvc	r6, r1, #6488064	; 0x630000
  ec:	656c6300 	strbvs	r6, [ip, #-768]!	; 0x300
  f0:	725f6e61 	subsvc	r6, pc, #1552	; 0x610
  f4:	6f6f6265 	svcvs	0x006f6265
  f8:	49500074 	ldmdbmi	r0, {r2, r4, r5, r6}^
  fc:	5445475f 	strbpl	r4, [r5], #-1887	; 0x75f
 100:	61003233 	tstvs	r0, r3, lsr r2
 104:	00726464 	rsbseq	r6, r2, r4, ror #8
 108:	475f4950 			; <UNDEFINED> instruction: 0x475f4950
 10c:	32335445 	eorscc	r5, r3, #1157627904	; 0x45000000
 110:	5045525f 	subpl	r5, r5, pc, asr r2
 114:	6300594c 	movwvs	r5, #2380	; 0x94c
 118:	5f727275 	svcpl	0x00727275
 11c:	00637263 	rsbeq	r7, r3, r3, ror #4
 120:	505f4950 	subspl	r4, pc, r0, asr r9	; <UNPREDICTABLE>
 124:	435f5455 	cmpmi	pc, #1426063360	; 0x55000000
 128:	0045444f 	subeq	r4, r5, pc, asr #8
 12c:	505f4950 	subspl	r4, pc, r0, asr r9	; <UNPREDICTABLE>
 130:	544e4952 	strbpl	r4, [lr], #-2386	; 0x952
 134:	5254535f 	subspl	r5, r4, #2080374785	; 0x7c000001
 138:	00474e49 	subeq	r4, r7, r9, asr #28
 13c:	505f4950 	subspl	r4, pc, r0, asr r9	; <UNPREDICTABLE>
 140:	544e4952 	strbpl	r4, [lr], #-2386	; 0x952
 144:	4148435f 	cmpmi	r8, pc, asr r3
 148:	5f5f0052 	svcpl	0x005f0052
 14c:	434e5546 	movtmi	r5, #58694	; 0xe546
 150:	4e4f4954 	mcrmi	9, 2, r4, cr15, cr4, {2}
 154:	50005f5f 	andpl	r5, r0, pc, asr pc
 158:	55505f49 	ldrbpl	r5, [r0, #-3913]	; 0xf49
 15c:	00323354 	eorseq	r3, r2, r4, asr r3
 160:	676e6f6c 	strbvs	r6, [lr, -ip, ror #30]!
 164:	6e6f6c20 	cdpvs	12, 6, cr6, cr15, cr0, {1}
 168:	6e752067 	cdpvs	0, 7, cr2, cr5, cr7, {3}
 16c:	6e676973 	mcrvs	9, 3, r6, cr7, cr3, {3}
 170:	69206465 	stmdbvs	r0!, {r0, r2, r5, r6, sl, sp, lr}
 174:	7500746e 	strvc	r7, [r0, #-1134]	; 0x46e
 178:	38746e69 	ldmdacc	r4!, {r0, r3, r5, r6, r9, sl, fp, sp, lr}^
 17c:	5000745f 	andpl	r7, r0, pc, asr r4
 180:	50475f49 	subpl	r5, r7, r9, asr #30
 184:	525f4f49 	subspl	r4, pc, #292	; 0x124
 188:	5f444145 	svcpl	0x00444145
 18c:	4c504552 	cfldr64mi	mvdx4, [r0], {82}	; 0x52
 190:	49500059 	ldmdbmi	r0, {r0, r3, r4, r6}^
 194:	5445475f 	strbpl	r4, [r5], #-1887	; 0x75f
 198:	444f435f 	strbmi	r4, [pc], #-863	; 1a0 <_start-0x7e60>
 19c:	69730045 	ldmdbvs	r3!, {r0, r2, r6}^
 1a0:	7974657a 	ldmdbvc	r4!, {r1, r3, r4, r5, r6, r8, sl, sp, lr}^
 1a4:	6c006570 	cfstr32vs	mvfx6, [r0], {112}	; 0x70
 1a8:	20676e6f 	rsbcs	r6, r7, pc, ror #28
 1ac:	676e6f6c 	strbvs	r6, [lr, -ip, ror #30]!
 1b0:	746e6920 	strbtvc	r6, [lr], #-2336	; 0x920
 1b4:	72756f00 	rsbsvc	r6, r5, #0, 30
 1b8:	6372635f 	cmnvs	r2, #2080374785	; 0x7c000001
 1bc:	50003233 	andpl	r3, r0, r3, lsr r2
 1c0:	45475f49 	strbmi	r5, [r7, #-3913]	; 0xf49
 1c4:	4f435f54 	svcmi	0x00435f54
 1c8:	495f4544 	ldmdbmi	pc, {r2, r6, r8, sl, lr}^	; <UNPREDICTABLE>
 1cc:	004f464e 	subeq	r4, pc, lr, asr #12
 1d0:	726f6873 	rsbvc	r6, pc, #7536640	; 0x730000
 1d4:	6e692074 	mcrvs	0, 3, r2, cr9, cr4, {3}
 1d8:	49500074 	ldmdbmi	r0, {r2, r4, r5, r6}^
 1dc:	45454e5f 	strbmi	r4, [r5, #-3679]	; 0xe5f
 1e0:	43415f44 	movtmi	r5, #8004	; 0x1f44
 1e4:	4950004b 	ldmdbmi	r0, {r0, r1, r3, r6}^
 1e8:	4245525f 	submi	r5, r5, #-268435451	; 0xf0000005
 1ec:	00544f4f 	subseq	r4, r4, pc, asr #30
 1f0:	6573552f 	ldrbvs	r5, [r3, #-1327]!	; 0x52f
 1f4:	622f7372 	eorvs	r7, pc, #-939524095	; 0xc8000001
 1f8:	6e616972 	mcrvs	9, 3, r6, cr1, cr2, {3}
 1fc:	2f6e756a 	svccs	0x006e756a
 200:	6b736544 	blvs	1cd9718 <__bss_end__+0x1ccf3e8>
 204:	2f706f74 	svccs	0x00706f74
 208:	6f686373 	svcvs	0x00686373
 20c:	572f6c6f 	strpl	r6, [pc, -pc, ror #24]!
 210:	65746e69 	ldrbvs	r6, [r4, #-3689]!	; 0xe69
 214:	32393172 	eorscc	r3, r9, #-2147483620	; 0x8000001c
 218:	53432f30 	movtpl	r2, #16176	; 0x3f30
 21c:	45303431 	ldrmi	r3, [r0, #-1073]!	; 0x431
 220:	3173632f 	cmncc	r3, pc, lsr #6
 224:	2d653034 	stclcs	0, cr3, [r5, #-208]!	; 0xffffff30
 228:	69773032 	ldmdbvs	r7!, {r1, r4, r5, ip, sp}^
 22c:	616c2f6e 	cmnvs	ip, lr, ror #30
 230:	312f7362 	teqcc	pc, r2, ror #6
 234:	75662d31 	strbvc	r2, [r6, #-3377]!	; 0xd31
 238:	312f6573 	teqcc	pc, r3, ror r5	; <UNPREDICTABLE>
 23c:	6e65732d 	cdpvs	3, 6, cr7, cr5, cr13, {1}
 240:	6f632d64 	svcvs	0x00632d64
 244:	702f6564 	eorvc	r6, pc, r4, ror #10
 248:	69732d69 	ldmdbvs	r3!, {r0, r3, r5, r6, r8, sl, fp, sp}^
 24c:	50006564 	andpl	r6, r0, r4, ror #10
 250:	50475f49 	subpl	r5, r7, r9, asr #30
 254:	535f4f49 	cmppl	pc, #292	; 0x124
 258:	4f5f5445 	svcmi	0x005f5445
 25c:	55505455 	ldrbpl	r5, [r0, #-1109]	; 0x455
 260:	69750054 	ldmdbvs	r5!, {r2, r4, r6}^
 264:	3233746e 	eorscc	r7, r3, #1845493760	; 0x6e000000
 268:	7200745f 	andvc	r7, r0, #1593835520	; 0x5f000000
 26c:	725f6970 	subsvc	r6, pc, #112, 18	; 0x1c0000
 270:	74657365 	strbtvc	r7, [r5], #-869	; 0x365
 274:	7475705f 	ldrbtvc	r7, [r5], #-95	; 0x5f
 278:	49500063 	ldmdbmi	r0, {r0, r1, r5, r6}^
 27c:	4950475f 	ldmdbmi	r0, {r0, r1, r2, r3, r4, r6, r8, r9, sl, lr}^
 280:	45535f4f 	ldrbmi	r5, [r3, #-3919]	; 0xf4f
 284:	4e495f54 	mcrmi	15, 2, r5, cr9, cr4, {2}
 288:	00545550 	subseq	r5, r4, r0, asr r5
 28c:	33637263 	cmncc	r3, #805306374	; 0x30000006
 290:	61745f32 	cmnvs	r4, r2, lsr pc
 294:	696c0062 	stmdbvs	ip!, {r1, r5, r6}^
 298:	632f6362 	teqvs	pc, #-2013265919	; 0x88000001
 29c:	632e6372 	teqvs	lr, #-939524095	; 0xc8000001
 2a0:	63726300 	cmnvs	r2, #0, 6
 2a4:	695f3233 	ldmdbvs	pc, {r0, r1, r4, r5, r9, ip, sp}^	; <UNPREDICTABLE>
 2a8:	2f00636e 	svccs	0x0000636e
 2ac:	72657355 	rsbvc	r7, r5, #1409286145	; 0x54000001
 2b0:	72622f73 	rsbvc	r2, r2, #460	; 0x1cc
 2b4:	6a6e6169 	bvs	1b98860 <__bss_end__+0x1b8e530>
 2b8:	442f6e75 	strtmi	r6, [pc], #-3701	; 2c0 <_start-0x7d40>
 2bc:	746b7365 	strbtvc	r7, [fp], #-869	; 0x365
 2c0:	732f706f 	teqvc	pc, #111	; 0x6f
 2c4:	6f6f6863 	svcvs	0x006f6863
 2c8:	69572f6c 	ldmdbvs	r7, {r2, r3, r5, r6, r8, r9, sl, fp, sp}^
 2cc:	7265746e 	rsbvc	r7, r5, #1845493760	; 0x6e000000
 2d0:	30323931 	eorscc	r3, r2, r1, lsr r9
 2d4:	3153432f 	cmpcc	r3, pc, lsr #6
 2d8:	2f453034 	svccs	0x00453034
 2dc:	34317363 	ldrtcc	r7, [r1], #-867	; 0x363
 2e0:	322d6530 	eorcc	r6, sp, #48, 10	; 0xc000000
 2e4:	6e697730 	mcrvs	7, 3, r7, cr9, cr0, {1}
 2e8:	62696c2f 	rsbvs	r6, r9, #12032	; 0x2f00
 2ec:	73006970 	movwvc	r6, #2416	; 0x970
 2f0:	00657a69 	rsbeq	r7, r5, r9, ror #20
 2f4:	6e675f5f 	mcrvs	15, 3, r5, cr7, cr15, {2}
 2f8:	765f6375 			; <UNDEFINED> instruction: 0x765f6375
 2fc:	696c5f61 	stmdbvs	ip!, {r0, r5, r6, r8, r9, sl, fp, ip, lr}^
 300:	6c007473 	cfstrsvs	mvf7, [r0], {115}	; 0x73
 304:	2f636269 	svccs	0x00636269
 308:	6e697270 	mcrvs	2, 3, r7, cr9, cr0, {3}
 30c:	632e6b74 	teqvs	lr, #116, 22	; 0x1d000
 310:	5f617600 	svcpl	0x00617600
 314:	6e697270 	mcrvs	2, 3, r7, cr9, cr0, {3}
 318:	5f006b74 	svcpl	0x00006b74
 31c:	5f61765f 	svcpl	0x0061765f
 320:	7473696c 	ldrbtvc	r6, [r3], #-2412	; 0x96c
 324:	67726100 	ldrbvs	r6, [r2, -r0, lsl #2]!
 328:	5f5f0073 	svcpl	0x005f0073
 32c:	69007061 	stmdbvs	r0, {r0, r5, r6, ip, sp, lr}
 330:	7265746e 	rsbvc	r7, r5, #1845493760	; 0x6e000000
 334:	5f6c616e 	svcpl	0x006c616e
 338:	63747570 	cmnvs	r4, #112, 10	; 0x1c000000
 33c:	00726168 	rsbseq	r6, r2, r8, ror #2
 340:	5f697072 	svcpl	0x00697072
 344:	63747570 	cmnvs	r4, #112, 10	; 0x1c000000
 348:	00726168 	rsbseq	r6, r2, r8, ror #2
 34c:	6362696c 	cmnvs	r2, #108, 18	; 0x1b0000
 350:	7475702f 	ldrbtvc	r7, [r5], #-47	; 0x2f
 354:	72616863 	rsbvc	r6, r1, #6488064	; 0x630000
 358:	7200632e 	andvc	r6, r0, #-1207959552	; 0xb8000000
 35c:	735f6970 	cmpvc	pc, #112, 18	; 0x1c0000
 360:	705f7465 	subsvc	r7, pc, r5, ror #8
 364:	00637475 	rsbeq	r7, r3, r5, ror r4
 368:	6362696c 	cmnvs	r2, #108, 18	; 0x1b0000
 36c:	7475702f 	ldrbtvc	r7, [r5], #-47	; 0x2f
 370:	00632e6b 	rsbeq	r2, r3, fp, ror #28
 374:	65746e69 	ldrbvs	r6, [r4, #-3689]!	; 0xe69
 378:	6c616e72 	stclvs	14, cr6, [r1], #-456	; 0xfffffe38
 37c:	7475705f 	ldrbtvc	r7, [r5], #-95	; 0x5f
 380:	656e006b 	strbvs	r0, [lr, #-107]!	; 0x6b
 384:	00705f67 	rsbseq	r5, r0, r7, ror #30
 388:	65766572 	ldrbvs	r6, [r6, #-1394]!	; 0x572
 38c:	00657372 	rsbeq	r7, r5, r2, ror r3
 390:	69647369 	stmdbvs	r4!, {r0, r3, r5, r6, r8, r9, ip, sp, lr}^
 394:	00746967 	rsbseq	r6, r4, r7, ror #18
 398:	73747570 	cmnvc	r4, #112, 10	; 0x1c000000
 39c:	0070665f 	rsbseq	r6, r0, pc, asr r6
 3a0:	65736162 	ldrbvs	r6, [r3, #-354]!	; 0x162
 3a4:	67697300 	strbvs	r7, [r9, -r0, lsl #6]!
 3a8:	5f64656e 	svcpl	0x0064656e
 3ac:	696c0070 	stmdbvs	ip!, {r4, r5, r6}^
 3b0:	762f6362 	strtvc	r6, [pc], -r2, ror #6
 3b4:	72702d61 	rsbsvc	r2, r0, #6208	; 0x1840
 3b8:	6b746e69 	blvs	1d1bd64 <__bss_end__+0x1d11a34>
 3bc:	7200632e 	andvc	r6, r0, #-1207959552	; 0xb8000000
 3c0:	735f6970 	cmpvc	pc, #112, 18	; 0x1c0000
 3c4:	6f5f7465 	svcvs	0x005f7465
 3c8:	75707475 	ldrbvc	r7, [r0, #-1141]!	; 0x475
 3cc:	69770074 	ldmdbvs	r7!, {r2, r4, r5, r6}^
 3d0:	00687464 	rsbeq	r7, r8, r4, ror #8
 3d4:	63747570 	cmnvs	r4, #112, 10	; 0x1c000000
 3d8:	0070665f 	rsbseq	r6, r0, pc, asr r6
 3dc:	74696d65 	strbtvc	r6, [r9], #-3429	; 0xd65
 3e0:	69707200 	ldmdbvs	r0!, {r9, ip, sp, lr}^
 3e4:	6265725f 	rsbvs	r7, r5, #-268435451	; 0xf0000005
 3e8:	00746f6f 	rsbseq	r6, r4, pc, ror #30
 3ec:	34317363 	ldrtcc	r7, [r1], #-867	; 0x363
 3f0:	732d6530 	teqvc	sp, #48, 10	; 0xc000000
 3f4:	632f6372 	teqvs	pc, #-939524095	; 0xc8000001
 3f8:	6e61656c 	cdpvs	5, 6, cr6, cr1, cr12, {3}
 3fc:	6265722d 	rsbvs	r7, r5, #-805306366	; 0xd0000002
 400:	2e746f6f 	cdpcs	15, 7, cr6, cr4, cr15, {3}
 404:	65640063 	strbvs	r0, [r4, #-99]!	; 0x63
 408:	5f79616c 	svcpl	0x0079616c
 40c:	6900736d 	stmdbvs	r0, {r0, r2, r3, r5, r6, r8, r9, ip, sp, lr}
 410:	7265746e 	rsbvc	r7, r5, #1845493760	; 0x6e000000
 414:	5f6c616e 	svcpl	0x006c616e
 418:	705f7773 	subsvc	r7, pc, r3, ror r7	; <UNPREDICTABLE>
 41c:	68637475 	stmdavs	r3!, {r0, r2, r4, r5, r6, sl, ip, sp, lr}^
 420:	5f007261 	svcpl	0x00007261
 424:	7373625f 	cmnvc	r3, #-268435451	; 0xf0000005
 428:	6174735f 	cmnvs	r4, pc, asr r3
 42c:	5f5f7472 	svcpl	0x005f7472
 430:	73736200 	cmnvc	r3, #0, 4
 434:	646e655f 	strbtvs	r6, [lr], #-1375	; 0x55f
 438:	63796300 	cmnvs	r9, #0, 6
 43c:	705f656c 	subsvc	r6, pc, ip, ror #10
 440:	625f7265 	subsvs	r7, pc, #1342177286	; 0x50000006
 444:	63007469 	movwvs	r7, #1129	; 0x469
 448:	6f736e6f 	svcvs	0x00736e6f
 44c:	755f656c 	ldrbvc	r6, [pc, #-1388]	; fffffee8 <__bss_end__+0xffff5bb8>
 450:	00747261 	rsbseq	r7, r4, r1, ror #4
 454:	755f7773 	ldrbvc	r7, [pc, #-1907]	; fffffce9 <__bss_end__+0xffff59b9>
 458:	5f747261 	svcpl	0x00747261
 45c:	6e697270 	mcrvs	2, 3, r7, cr9, cr0, {3}
 460:	50006b74 	andpl	r6, r0, r4, ror fp
 464:	5f435455 	svcpl	0x00435455
 468:	5f505345 	svcpl	0x00505345
 46c:	54524155 	ldrbpl	r4, [r2], #-341	; 0x155
 470:	5f777300 	svcpl	0x00777300
 474:	74726175 	ldrbtvc	r6, [r2], #-373	; 0x175
 478:	5000745f 	andpl	r7, r0, pc, asr r4
 47c:	5f435455 	svcpl	0x00435455
 480:	555f5753 	ldrbpl	r5, [pc, #-1875]	; fffffd35 <__bss_end__+0xffff5a05>
 484:	00545241 	subseq	r5, r4, r1, asr #4
 488:	64756162 	ldrbtvs	r6, [r5], #-354	; 0x162
 48c:	54555000 	ldrbpl	r5, [r5], #-0
 490:	57485f43 	strbpl	r5, [r8, -r3, asr #30]
 494:	5241555f 	subpl	r5, r1, #398458880	; 0x17c00000
 498:	635f0054 	cmpvs	pc, #84	; 0x54
 49c:	72617473 	rsbvc	r7, r1, #1929379840	; 0x73000000
 4a0:	61750074 	cmnvs	r5, r4, ror r0
 4a4:	645f7472 	ldrbvs	r7, [pc], #-1138	; 4ac <_start-0x7b54>
 4a8:	745f7665 	ldrbvc	r7, [pc], #-1637	; 4b0 <_start-0x7b50>
 4ac:	5f777300 	svcpl	0x00777300
 4b0:	74726175 	ldrbtvc	r6, [r2], #-373	; 0x175
 4b4:	7475705f 	ldrbtvc	r7, [r5], #-95	; 0x5f
 4b8:	6f630063 	svcvs	0x00630063
 4bc:	6f72746e 	svcvs	0x0072746e
 4c0:	6c625f6c 	stclvs	15, cr5, [r2], #-432	; 0xfffffe50
 4c4:	00745f6b 	rsbseq	r5, r4, fp, ror #30
 4c8:	755f7773 	ldrbvc	r7, [pc, #-1907]	; fffffd5d <__bss_end__+0xffff5a2d>
 4cc:	00747261 	rsbseq	r7, r4, r1, ror #4
 4d0:	675f6263 	ldrbvs	r6, [pc, -r3, ror #4]
 4d4:	625f7465 	subsvs	r7, pc, #1694498816	; 0x65000000
 4d8:	6b636f6c 	blvs	18dc290 <__bss_end__+0x18d1f60>
 4dc:	625f5f00 	subsvs	r5, pc, #0, 30
 4e0:	655f7373 	ldrbvs	r7, [pc, #-883]	; 175 <_start-0x7e8b>
 4e4:	5f5f646e 	svcpl	0x005f646e
 4e8:	31736300 	cmncc	r3, r0, lsl #6
 4ec:	2d653034 	stclcs	0, cr3, [r5, #-208]!	; 0xffffff30
 4f0:	2f637273 	svccs	0x00637273
 4f4:	61747363 	cmnvs	r4, r3, ror #6
 4f8:	632e7472 	teqvs	lr, #1912602624	; 0x72000000
 4fc:	6e6f6300 	cdpvs	3, 6, cr6, cr15, cr0, {0}
 500:	656c6f73 	strbvs	r6, [ip, #-3955]!	; 0xf73
 504:	7665645f 			; <UNDEFINED> instruction: 0x7665645f
 508:	67616d00 	strbvs	r6, [r1, -r0, lsl #26]!
 50c:	61006369 	tstvs	r0, r9, ror #6
 510:	73755f74 	cmnvc	r5, #116, 30	; 0x1d0
 514:	6c5f7265 	lfmvs	f7, 2, [pc], {101}	; 0x65
 518:	6c657665 	stclvs	6, cr7, [r5], #-404	; 0xfffffe6c
 51c:	5f4d5000 	svcpl	0x004d5000
 520:	53534150 	cmppl	r3, #80, 2
 524:	44524f57 	ldrbmi	r4, [r2], #-3927	; 0xf57
 528:	31736300 	cmncc	r3, r0, lsl #6
 52c:	2d653034 	stclcs	0, cr3, [r5, #-208]!	; 0xffffff30
 530:	2f637273 	svccs	0x00637273
 534:	6f626572 	svcvs	0x00626572
 538:	632e746f 	teqvs	lr, #1862270976	; 0x6f000000
 53c:	5f4d5000 	svcpl	0x004d5000
 540:	43545352 	cmpmi	r4, #1207959553	; 0x48000001
 544:	4352575f 	cmpmi	r2, #24903680	; 0x17c0000
 548:	465f4746 	ldrbmi	r4, [pc], -r6, asr #14
 54c:	5f4c4c55 	svcpl	0x004c4c55
 550:	45534552 	ldrbmi	r4, [r3, #-1362]	; 0x552
 554:	4d500054 	ldclmi	0, cr0, [r0, #-336]	; 0xfffffeb0
 558:	4f44575f 	svcmi	0x0044575f
 55c:	65730047 	ldrbvs	r0, [r3, #-71]!	; 0x47
 560:	73755f74 	cmnvc	r5, #116, 30	; 0x1d0
 564:	6c5f7265 	lfmvs	f7, 2, [pc], {101}	; 0x65
 568:	6c657665 	stclvs	6, cr7, [r5], #-404	; 0xfffffe6c
 56c:	5f4d5000 	svcpl	0x004d5000
 570:	43545352 	cmpmi	r4, #1207959553	; 0x48000001
 574:	73706300 	cmnvc	r0, #0, 6
 578:	69740072 	ldmdbvs	r4!, {r1, r4, r5, r6}^
 57c:	5f72656d 	svcpl	0x0072656d
 580:	5f746567 	svcpl	0x00746567
 584:	63657375 	cmnvs	r5, #-738197503	; 0xd4000001
 588:	7761725f 			; <UNDEFINED> instruction: 0x7761725f
 58c:	6c656400 	cfstrdvs	mvd6, [r5], #-0
 590:	735f7961 	cmpvc	pc, #1589248	; 0x184000
 594:	63006365 	movwvs	r6, #869	; 0x365
 598:	30343173 	eorscc	r3, r4, r3, ror r1
 59c:	72732d65 	rsbsvc	r2, r3, #6464	; 0x1940
 5a0:	69742f63 	ldmdbvs	r4!, {r0, r1, r5, r6, r8, r9, sl, fp, sp}^
 5a4:	2e72656d 	cdpcs	5, 7, cr6, cr2, cr13, {3}
 5a8:	69740063 	ldmdbvs	r4!, {r0, r1, r5, r6}^
 5ac:	00736b63 	rsbseq	r6, r3, r3, ror #22
 5b0:	616c6564 	cmnvs	ip, r4, ror #10
 5b4:	79635f79 	stmdbvc	r3!, {r0, r3, r4, r5, r6, r8, r9, sl, fp, ip, lr}^
 5b8:	73656c63 	cmnvc	r5, #25344	; 0x6300
 5bc:	6c656400 	cfstrdvs	mvd6, [r5], #-0
 5c0:	755f7961 	ldrbvc	r7, [pc, #-2401]	; fffffc67 <__bss_end__+0xffff5937>
 5c4:	69740073 	ldmdbvs	r4!, {r0, r1, r4, r5, r6}^
 5c8:	5f72656d 	svcpl	0x0072656d
 5cc:	5f746567 	svcpl	0x00746567
 5d0:	63657375 	cmnvs	r5, #-738197503	; 0xd4000001
 5d4:	63796300 	cmnvs	r9, #0, 6
 5d8:	7265705f 	rsbvc	r7, r5, #95	; 0x5f
 5dc:	7469625f 	strbtvc	r6, [r9], #-607	; 0x25f
 5e0:	69727700 	ldmdbvs	r2!, {r8, r9, sl, ip, sp, lr}^
 5e4:	635f6574 	cmpvs	pc, #116, 10	; 0x1d000000
 5e8:	755f6379 	ldrbvc	r6, [pc, #-889]	; 277 <_start-0x7d89>
 5ec:	6c69746e 	cfstrdvs	mvd7, [r9], #-440	; 0xfffffe48
 5f0:	5f777300 	svcpl	0x00777300
 5f4:	74726175 	ldrbtvc	r6, [r2], #-373	; 0x175
 5f8:	7465675f 	strbtvc	r6, [r5], #-1887	; 0x75f
 5fc:	69745f63 	ldmdbvs	r4!, {r0, r1, r5, r6, r8, r9, sl, fp, ip, lr}^
 600:	756f656d 	strbvc	r6, [pc, #-1389]!	; 9b <_start-0x7f65>
 604:	77730074 			; <UNDEFINED> instruction: 0x77730074
 608:	7261755f 	rsbvc	r7, r1, #398458880	; 0x17c00000
 60c:	65675f74 	strbvs	r5, [r7, #-3956]!	; 0xf74
 610:	755f7374 	ldrbvc	r7, [pc, #-884]	; 2a4 <_start-0x7d5c>
 614:	6c69746e 	cfstrdvs	mvd7, [r9], #-440	; 0xfffffe48
 618:	5f777300 	svcpl	0x00777300
 61c:	74726175 	ldrbtvc	r6, [r2], #-373	; 0x175
 620:	7465675f 	strbtvc	r6, [r5], #-1887	; 0x75f
 624:	65640063 	strbvs	r0, [r4, #-99]!	; 0x63
 628:	65766972 	ldrbvs	r6, [r6, #-2418]!	; 0x972
 62c:	65640064 	strbvs	r0, [r4, #-100]!	; 0x64
 630:	5f79616c 	svcpl	0x0079616c
 634:	6379636e 	cmnvs	r9, #-1207959551	; 0xb8000001
 638:	0073656c 	rsbseq	r6, r3, ip, ror #10
 63c:	755f7773 	ldrbvc	r7, [pc, #-1907]	; fffffed1 <__bss_end__+0xffff5ba1>
 640:	5f747261 	svcpl	0x00747261
 644:	74696e69 	strbtvc	r6, [r9], #-3689	; 0xe69
 648:	6c65685f 	stclvs	8, cr6, [r5], #-380	; 0xfffffe84
 64c:	00726570 	rsbseq	r6, r2, r0, ror r5
 650:	656d6974 	strbvs	r6, [sp, #-2420]!	; 0x974
 654:	5f74756f 	svcpl	0x0074756f
 658:	63657375 	cmnvs	r5, #-738197503	; 0xd4000001
 65c:	5f777300 	svcpl	0x00777300
 660:	74726175 	ldrbtvc	r6, [r2], #-373	; 0x175
 664:	7475705f 	ldrbtvc	r7, [r5], #-95	; 0x5f
 668:	7067006b 	rsbvc	r0, r7, fp, rrx
 66c:	725f6f69 	subsvc	r6, pc, #420	; 0x1a4
 670:	00646165 	rsbeq	r6, r4, r5, ror #2
 674:	732d796d 	teqvc	sp, #1785856	; 0x1b4000
 678:	732f6372 	teqvc	pc, #-939524095	; 0xc8000001
 67c:	61752d77 	cmnvs	r5, r7, ror sp
 680:	632e7472 	teqvs	lr, #1912602624	; 0x72000000
 684:	61686300 	cmnvs	r8, r0, lsl #6
 688:	6e695f72 	mcrvs	15, 3, r5, cr9, cr2, {3}
 68c:	5f777300 	svcpl	0x00777300
 690:	74726175 	ldrbtvc	r6, [r2], #-373	; 0x175
 694:	7465675f 	strbtvc	r6, [r5], #-1887	; 0x75f
 698:	69745f73 	ldmdbvs	r4!, {r0, r1, r4, r5, r6, r8, r9, sl, fp, ip, lr}^
 69c:	756f656d 	strbvc	r6, [pc, #-1389]!	; 137 <_start-0x7ec9>
 6a0:	6f5f0074 	svcvs	0x005f0074
 6a4:	6e007475 	mcrvs	4, 0, r7, cr0, cr5, {3}
 6a8:	65747962 	ldrbvs	r7, [r4, #-2402]!	; 0x962
 6ac:	70670073 	rsbvc	r0, r7, r3, ror r0
 6b0:	775f6f69 	ldrbvc	r6, [pc, -r9, ror #30]
 6b4:	65746972 	ldrbvs	r6, [r4, #-2418]!	; 0x972
 6b8:	65737500 	ldrbvs	r7, [r3, #-1280]!	; 0x500
 6bc:	69745f63 	ldmdbvs	r4!, {r0, r1, r5, r6, r8, r9, sl, fp, ip, lr}^
 6c0:	756f656d 	strbvc	r6, [pc, #-1389]!	; 15b <_start-0x7ea5>
 6c4:	70670074 	rsbvc	r0, r7, r4, ror r0
 6c8:	735f6f69 	cmpvc	pc, #420	; 0x1a4
 6cc:	695f7465 	ldmdbvs	pc, {r0, r2, r5, r6, sl, ip, sp, lr}^	; <UNPREDICTABLE>
 6d0:	7475706e 	ldrbtvc	r7, [r5], #-110	; 0x6e
 6d4:	5f777300 	svcpl	0x00777300
 6d8:	74726175 	ldrbtvc	r6, [r2], #-373	; 0x175
 6dc:	7465675f 	strbtvc	r6, [r5], #-1887	; 0x75f
 6e0:	6e755f73 	mrcvs	15, 3, r5, cr5, cr3, {3}
 6e4:	5f6c6974 	svcpl	0x006c6974
 6e8:	006b6c62 	rsbeq	r6, fp, r2, ror #24
 6ec:	6f697067 	svcvs	0x00697067
 6f0:	7465735f 	strbtvc	r7, [r5], #-863	; 0x35f
 6f4:	74756f5f 	ldrbtvc	r6, [r5], #-3935	; 0xf5f
 6f8:	00747570 	rsbseq	r7, r4, r0, ror r5
 6fc:	74696177 	strbtvc	r6, [r9], #-375	; 0x177
 700:	746e755f 	strbtvc	r7, [lr], #-1375	; 0x55f
 704:	755f6c69 	ldrbvc	r6, [pc, #-3177]	; fffffaa3 <__bss_end__+0xffff5773>
 708:	00636573 	rsbeq	r6, r3, r3, ror r5
 70c:	5f585541 	svcpl	0x00585541
 710:	4d5f554d 	cfldr64mi	mvdx5, [pc, #-308]	; 5e4 <_start-0x7a1c>
 714:	525f5243 	subspl	r5, pc, #805306372	; 0x30000004
 718:	41004745 	tstmi	r0, r5, asr #14
 71c:	4d5f5855 	ldclmi	8, cr5, [pc, #-340]	; 5d0 <_start-0x7a30>
 720:	4f495f55 	svcmi	0x00495f55
 724:	4745525f 	smlsldmi	r5, r5, pc, r2	; <UNPREDICTABLE>
 728:	58554100 	ldmdapl	r5, {r8, lr}^
 72c:	5f554d5f 	svcpl	0x00554d5f
 730:	5f52534d 	svcpl	0x0052534d
 734:	00474552 	subeq	r4, r7, r2, asr r5
 738:	4f495047 	svcmi	0x00495047
 73c:	4e55465f 	mrcmi	6, 2, r4, cr5, cr15, {2}
 740:	4c415f43 	mcrrmi	15, 4, r5, r1, cr3
 744:	75003054 	strvc	r3, [r0, #-84]	; 0x54
 748:	5f747261 	svcpl	0x00747261
 74c:	5f6e6163 	svcpl	0x006e6163
 750:	63746567 	cmnvs	r4, #432013312	; 0x19c00000
 754:	58554100 	ldmdapl	r5, {r8, lr}^
 758:	5f554d5f 	svcpl	0x00554d5f
 75c:	4c544e43 	mrrcmi	14, 4, r4, r4, cr3	; <UNPREDICTABLE>
 760:	4745525f 	smlsldmi	r5, r5, pc, r2	; <UNPREDICTABLE>
 764:	72617500 	rsbvc	r7, r1, #0, 10
 768:	61685f74 	smcvs	34292	; 0x85f4
 76c:	61645f73 	smcvs	17907	; 0x45f3
 770:	64006174 	strvs	r6, [r0], #-372	; 0x174
 774:	625f7665 	subsvs	r7, pc, #105906176	; 0x6500000
 778:	69727261 	ldmdbvs	r2!, {r0, r5, r6, r9, ip, sp, lr}^
 77c:	47007265 	strmi	r7, [r0, -r5, ror #4]
 780:	5f4f4950 	svcpl	0x004f4950
 784:	434e5546 	movtmi	r5, #58694	; 0xe546
 788:	54554f5f 	ldrbpl	r4, [r5], #-3935	; 0xf5f
 78c:	00545550 	subseq	r5, r4, r0, asr r5
 790:	4f495047 	svcmi	0x00495047
 794:	4e55465f 	mrcmi	6, 2, r4, cr5, cr15, {2}
 798:	4c415f43 	mcrrmi	15, 4, r5, r1, cr3
 79c:	47003154 	smlsdmi	r0, r4, r1, r3
 7a0:	5f4f4950 	svcpl	0x004f4950
 7a4:	434e5546 	movtmi	r5, #58694	; 0xe546
 7a8:	544c415f 	strbpl	r4, [ip], #-351	; 0x15f
 7ac:	50470032 	subpl	r0, r7, r2, lsr r0
 7b0:	465f4f49 	ldrbmi	r4, [pc], -r9, asr #30
 7b4:	5f434e55 	svcpl	0x00434e55
 7b8:	33544c41 	cmpcc	r4, #16640	; 0x4100
 7bc:	49504700 	ldmdbmi	r0, {r8, r9, sl, lr}^
 7c0:	55465f4f 	strbpl	r5, [r6, #-3919]	; 0xf4f
 7c4:	415f434e 	cmpmi	pc, lr, asr #6
 7c8:	0035544c 	eorseq	r5, r5, ip, asr #8
 7cc:	5f585541 	svcpl	0x00585541
 7d0:	495f554d 	ldmdbmi	pc, {r0, r2, r3, r6, r8, sl, ip, lr}^	; <UNPREDICTABLE>
 7d4:	525f5245 	subspl	r5, pc, #1342177284	; 0x50000004
 7d8:	70004745 	andvc	r4, r0, r5, asr #14
 7dc:	32337475 	eorscc	r7, r3, #1962934272	; 0x75000000
 7e0:	58554100 	ldmdapl	r5, {r8, lr}^
 7e4:	5f554d5f 	svcpl	0x00554d5f
 7e8:	5f524949 	svcpl	0x00524949
 7ec:	00474552 	subeq	r4, r7, r2, asr r5
 7f0:	6f697067 	svcvs	0x00697067
 7f4:	6e75665f 	mrcvs	6, 3, r6, cr5, cr15, {2}
 7f8:	00745f63 	rsbseq	r5, r4, r3, ror #30
 7fc:	74726175 	ldrbtvc	r6, [r2], #-373	; 0x175
 800:	6e61635f 	mcrvs	3, 3, r6, cr1, cr15, {2}
 804:	7475705f 	ldrbtvc	r7, [r5], #-95	; 0x5f
 808:	55410063 	strbpl	r0, [r1, #-99]	; 0x63
 80c:	4e455f58 	mcrmi	15, 2, r5, cr5, cr8, {2}
 810:	454c4241 	strbmi	r4, [ip, #-577]	; 0x241
 814:	55410053 	strbpl	r0, [r1, #-83]	; 0x53
 818:	52495f58 	subpl	r5, r9, #88, 30	; 0x160
 81c:	55410051 	strbpl	r0, [r1, #-81]	; 0x51
 820:	554d5f58 	strbpl	r5, [sp, #-3928]	; 0xf58
 824:	5541425f 	strbpl	r4, [r1, #-607]	; 0x25f
 828:	45525f44 	ldrbmi	r5, [r2, #-3908]	; 0xf44
 82c:	55410047 	strbpl	r0, [r1, #-71]	; 0x47
 830:	554d5f58 	strbpl	r5, [sp, #-3928]	; 0xf58
 834:	4154535f 	cmpmi	r4, pc, asr r3
 838:	45525f54 	ldrbmi	r5, [r2, #-3924]	; 0xf54
 83c:	50470047 	subpl	r0, r7, r7, asr #32
 840:	465f4f49 	ldrbmi	r4, [pc], -r9, asr #30
 844:	5f434e55 	svcpl	0x00434e55
 848:	34544c41 	ldrbcc	r4, [r4], #-3137	; 0xc41
 84c:	69706700 	ldmdbvs	r0!, {r8, r9, sl, sp, lr}^
 850:	65735f6f 	ldrbvs	r5, [r3, #-3951]!	; 0xf6f
 854:	75665f74 	strbvc	r5, [r6, #-3956]!	; 0xf74
 858:	6974636e 	ldmdbvs	r4!, {r1, r2, r3, r5, r6, r8, r9, sp, lr}^
 85c:	41006e6f 	tstmi	r0, pc, ror #28
 860:	4d5f5855 	ldclmi	8, cr5, [pc, #-340]	; 714 <_start-0x78ec>
 864:	43535f55 	cmpmi	r3, #340	; 0x154
 868:	43544152 	cmpmi	r4, #-2147483628	; 0x80000014
 86c:	796d0048 	stmdbvc	sp!, {r3, r6}^
 870:	6372732d 	cmnvs	r2, #-1275068416	; 0xb4000000
 874:	7261752f 	rsbvc	r7, r1, #197132288	; 0xbc00000
 878:	00632e74 	rsbeq	r2, r3, r4, ror lr
 87c:	5f585541 	svcpl	0x00585541
 880:	4c5f554d 	cfldr64mi	mvdx5, [pc], {77}	; 0x4d
 884:	525f5243 	subspl	r5, pc, #805306372	; 0x30000004
 888:	47004745 	strmi	r4, [r0, -r5, asr #14]
 88c:	5f4f4950 	svcpl	0x004f4950
 890:	434e5546 	movtmi	r5, #58694	; 0xe546
 894:	504e495f 	subpl	r4, lr, pc, asr r9
 898:	41005455 	tstmi	r0, r5, asr r4
 89c:	4d5f5855 	ldclmi	8, cr5, [pc, #-340]	; 750 <_start-0x78b0>
 8a0:	534c5f55 	movtpl	r5, #53077	; 0xcf55
 8a4:	45525f52 	ldrbmi	r5, [r2, #-3922]	; 0xf52
 8a8:	61750047 	cmnvs	r5, r7, asr #32
 8ac:	675f7472 			; <UNDEFINED> instruction: 0x675f7472
 8b0:	5f637465 	svcpl	0x00637465
 8b4:	6e797361 	cdpvs	3, 7, cr7, cr9, cr1, {3}
 8b8:	65670063 	strbvs	r0, [r7, #-99]!	; 0x63
 8bc:	00323374 	eorseq	r3, r2, r4, ror r3
 8c0:	6f697067 	svcvs	0x00697067
 8c4:	6576655f 	ldrbvs	r6, [r6, #-1375]!	; 0x55f
 8c8:	645f746e 	ldrbvs	r7, [pc], #-1134	; 8d0 <_start-0x7730>
 8cc:	63657465 	cmnvs	r5, #1694498816	; 0x65000000
 8d0:	00646574 	rsbeq	r6, r4, r4, ror r5
 8d4:	53465047 	movtpl	r5, #24647	; 0x6047
 8d8:	00324c45 	eorseq	r4, r2, r5, asr #24
 8dc:	4c435047 	mcrrmi	0, 4, r5, r3, cr7
 8e0:	45003052 	strmi	r3, [r0, #-82]	; 0x52
 8e4:	4c42414e 	stfmie	f4, [r2], {78}	; 0x4e
 8e8:	52495f45 	subpl	r5, r9, #276	; 0x114
 8ec:	325f5351 	subscc	r5, pc, #1140850689	; 0x44000001
 8f0:	5f736900 	svcpl	0x00736900
 8f4:	6f697067 	svcvs	0x00697067
 8f8:	746e695f 	strbtvc	r6, [lr], #-2399	; 0x95f
 8fc:	69706700 	ldmdbvs	r0!, {r8, r9, sl, sp, lr}^
 900:	65735f6f 	ldrbvs	r5, [r3, #-3951]!	; 0xf6f
 904:	666f5f74 	uqsub16vs	r5, pc, r4	; <UNPREDICTABLE>
 908:	796d0066 	stmdbvc	sp!, {r1, r2, r5, r6}^
 90c:	6372732d 	cmnvs	r2, #-1275068416	; 0xb4000000
 910:	6970672f 	ldmdbvs	r0!, {r0, r1, r2, r3, r5, r8, r9, sl, sp, lr}^
 914:	00632e6f 	rsbeq	r2, r3, pc, ror #28
 918:	5f746e69 	svcpl	0x00746e69
 91c:	6b73616d 	blvs	1cd8ed8 <__bss_end__+0x1cceba8>
 920:	53504700 	cmppl	r0, #0, 14
 924:	00305445 	eorseq	r5, r0, r5, asr #8
 928:	45535047 	ldrbmi	r5, [r3, #-71]	; 0x47
 92c:	72003154 	andvc	r3, r0, #84, 2
 930:	735f6765 	cmpvc	pc, #26476544	; 0x1940000
 934:	00746174 	rsbseq	r6, r4, r4, ror r1
 938:	454c5047 	strbmi	r5, [ip, #-71]	; 0x47
 93c:	47003056 	smlsdmi	r0, r6, r0, r3
 940:	56454c50 			; <UNDEFINED> instruction: 0x56454c50
 944:	70670031 	rsbvc	r0, r7, r1, lsr r0
 948:	725f6f69 	subsvc	r6, pc, #420	; 0x1a4
 94c:	47006765 	strmi	r6, [r0, -r5, ror #14]
 950:	45534650 	ldrbmi	r4, [r3, #-1616]	; 0x650
 954:	4700304c 	strmi	r3, [r0, -ip, asr #32]
 958:	45534650 	ldrbmi	r4, [r3, #-1616]	; 0x650
 95c:	4700314c 	strmi	r3, [r0, -ip, asr #2]
 960:	45534650 	ldrbmi	r4, [r3, #-1616]	; 0x650
 964:	4700334c 	strmi	r3, [r0, -ip, asr #6]
 968:	45534650 	ldrbmi	r4, [r3, #-1616]	; 0x650
 96c:	4700344c 	strmi	r3, [r0, -ip, asr #8]
 970:	45534650 	ldrbmi	r4, [r3, #-1616]	; 0x650
 974:	6700354c 	strvs	r3, [r0, -ip, asr #10]
 978:	5f6f6970 	svcpl	0x006f6970
 97c:	6c657366 	stclvs	3, cr7, [r5], #-408	; 0xfffffe68
 980:	50470030 	subpl	r0, r7, r0, lsr r0
 984:	31524c43 	cmpcc	r2, r3, asr #24
 988:	69706700 	ldmdbvs	r0!, {r8, r9, sl, sp, lr}^
 98c:	6e695f6f 	cdpvs	15, 6, cr5, cr9, cr15, {3}
 990:	69725f74 	ldmdbvs	r2!, {r2, r4, r5, r6, r8, r9, sl, fp, ip, lr}^
 994:	676e6973 			; <UNDEFINED> instruction: 0x676e6973
 998:	6764655f 			; <UNDEFINED> instruction: 0x6764655f
 99c:	50470065 	subpl	r0, r7, r5, rrx
 9a0:	304e4552 	subcc	r4, lr, r2, asr r5
 9a4:	52504700 	subspl	r4, r0, #0, 14
 9a8:	00314e45 	eorseq	r4, r1, r5, asr #28
 9ac:	6f697067 	svcvs	0x00697067
 9b0:	6576655f 	ldrbvs	r6, [r6, #-1375]!	; 0x55f
 9b4:	635f746e 	cmpvs	pc, #1845493760	; 0x6e000000
 9b8:	7261656c 	rsbvc	r6, r1, #108, 10	; 0x1b000000
 9bc:	51524900 	cmppl	r2, r0, lsl #18
 9c0:	4e45505f 	mcrmi	0, 2, r5, cr5, cr15, {2}
 9c4:	474e4944 	strbmi	r4, [lr, -r4, asr #18]
 9c8:	4900315f 	stmdbmi	r0, {r0, r1, r2, r3, r4, r6, r8, ip, sp}
 9cc:	505f5152 	subspl	r5, pc, r2, asr r1	; <UNPREDICTABLE>
 9d0:	49444e45 	stmdbmi	r4, {r0, r2, r6, r9, sl, fp, lr}^
 9d4:	325f474e 	subscc	r4, pc, #20447232	; 0x1380000
 9d8:	74696200 	strbtvc	r6, [r9], #-512	; 0x200
 9dc:	6b73616d 	blvs	1cd8f98 <__bss_end__+0x1ccec68>
 9e0:	69706700 	ldmdbvs	r0!, {r8, r9, sl, sp, lr}^
 9e4:	65735f6f 	ldrbvs	r5, [r3, #-3951]!	; 0xf6f
 9e8:	66003074 			; <UNDEFINED> instruction: 0x66003074
 9ec:	00636e75 	rsbeq	r6, r3, r5, ror lr
 9f0:	44455047 	strbmi	r5, [r5], #-71	; 0x47
 9f4:	47003053 	smlsdmi	r0, r3, r0, r3
 9f8:	53444550 	movtpl	r4, #17744	; 0x4550
 9fc:	70670031 	rsbvc	r0, r7, r1, lsr r0
 a00:	735f6f69 	cmpvc	pc, #420	; 0x1a4
 a04:	6f5f7465 	svcvs	0x005f7465
 a08:	5047006e 	subpl	r0, r7, lr, rrx
 a0c:	304e4546 	subcc	r4, lr, r6, asr #10
 a10:	46504700 	ldrbmi	r4, [r0], -r0, lsl #14
 a14:	00314e45 	eorseq	r4, r1, r5, asr #28
 a18:	6f697067 	svcvs	0x00697067
 a1c:	746e695f 	strbtvc	r6, [lr], #-2399	; 0x95f
 a20:	6c61665f 	stclvs	6, cr6, [r1], #-380	; 0xfffffe84
 a24:	676e696c 	strbvs	r6, [lr, -ip, ror #18]!
 a28:	6764655f 			; <UNDEFINED> instruction: 0x6764655f
 a2c:	65720065 	ldrbvs	r0, [r2, #-101]!	; 0x65
 a30:	65735f67 	ldrbvs	r5, [r3, #-3943]!	; 0xf67
 a34:	7463656c 	strbtvc	r6, [r3], #-1388	; 0x56c
 a38:	69706700 	ldmdbvs	r0!, {r8, r9, sl, sp, lr}^
 a3c:	6c635f6f 	stclvs	15, cr5, [r3], #-444	; 0xfffffe44
 a40:	73003072 	movwvc	r3, #114	; 0x72
 a44:	5f657a69 	svcpl	0x00657a69
 a48:	656d0074 	strbvs	r0, [sp, #-116]!	; 0x74
 a4c:	7465736d 	strbtvc	r7, [r5], #-877	; 0x36d
 a50:	5f626300 	svcpl	0x00626300
 a54:	0077656e 	rsbseq	r6, r7, lr, ror #10
 a58:	34317363 	ldrtcc	r7, [r1], #-867	; 0x363
 a5c:	732d6530 	teqvc	sp, #48, 10	; 0xc000000
 a60:	632f6372 	teqvs	pc, #-939524095	; 0xc8000001
 a64:	72746e6f 	rsbsvc	r6, r4, #1776	; 0x6f0
 a68:	622d6c6f 	eorvs	r6, sp, #28416	; 0x6f00
 a6c:	6b636f6c 	blvs	18dc824 <__bss_end__+0x18d24f4>
 a70:	6c00632e 	stcvs	3, cr6, [r0], {46}	; 0x2e
 a74:	2f636269 	svccs	0x00636269
 a78:	736d656d 	cmnvc	sp, #457179136	; 0x1b400000
 a7c:	632e7465 	teqvs	lr, #1694498816	; 0x65000000
	...

Disassembly of section .debug_frame:

00000000 <.debug_frame>:
   0:	0000000c 	andeq	r0, r0, ip
   4:	ffffffff 			; <UNDEFINED> instruction: 0xffffffff
   8:	7c020001 	stcvc	0, cr0, [r2], {1}
   c:	000d0c0e 	andeq	r0, sp, lr, lsl #24
  10:	00000018 	andeq	r0, r0, r8, lsl r0
  14:	00000000 	andeq	r0, r0, r0
  18:	00008010 	andeq	r8, r0, r0, lsl r0
  1c:	0000002c 	andeq	r0, r0, ip, lsr #32
  20:	84100e42 	ldrhi	r0, [r0], #-3650	; 0xe42
  24:	86038504 	strhi	r8, [r3], -r4, lsl #10
  28:	00018e02 	andeq	r8, r1, r2, lsl #28
  2c:	0000001c 	andeq	r0, r0, ip, lsl r0
  30:	00000000 	andeq	r0, r0, r0
  34:	0000803c 	andeq	r8, r0, ip, lsr r0
  38:	0000012c 	andeq	r0, r0, ip, lsr #2
  3c:	84100e42 	ldrhi	r0, [r0], #-3650	; 0xe42
  40:	86038504 	strhi	r8, [r3], -r4, lsl #10
  44:	42018e02 	andmi	r8, r1, #2, 28
  48:	0000280e 	andeq	r2, r0, lr, lsl #16
  4c:	0000000c 	andeq	r0, r0, ip
  50:	ffffffff 			; <UNDEFINED> instruction: 0xffffffff
  54:	7c020001 	stcvc	0, cr0, [r2], {1}
  58:	000d0c0e 	andeq	r0, sp, lr, lsl #24
  5c:	0000000c 	andeq	r0, r0, ip
  60:	0000004c 	andeq	r0, r0, ip, asr #32
  64:	00008168 	andeq	r8, r0, r8, ror #2
  68:	00000040 	andeq	r0, r0, r0, asr #32
  6c:	00000014 	andeq	r0, r0, r4, lsl r0
  70:	0000004c 	andeq	r0, r0, ip, asr #32
  74:	000081a8 	andeq	r8, r0, r8, lsr #3
  78:	00000010 	andeq	r0, r0, r0, lsl r0
  7c:	83080e42 	movwhi	r0, #36418	; 0x8e42
  80:	00018e02 	andeq	r8, r1, r2, lsl #28
  84:	0000000c 	andeq	r0, r0, ip
  88:	ffffffff 			; <UNDEFINED> instruction: 0xffffffff
  8c:	7c020001 	stcvc	0, cr0, [r2], {1}
  90:	000d0c0e 	andeq	r0, sp, lr, lsl #24
  94:	00000024 	andeq	r0, r0, r4, lsr #32
  98:	00000084 	andeq	r0, r0, r4, lsl #1
  9c:	000081b8 			; <UNDEFINED> instruction: 0x000081b8
  a0:	00000058 	andeq	r0, r0, r8, asr r0
  a4:	80100e42 	andshi	r0, r0, r2, asr #28
  a8:	82038104 	andhi	r8, r3, #4, 2
  ac:	42018302 	andmi	r8, r1, #134217728	; 0x8000000
  b0:	07841c0e 	streq	r1, [r4, lr, lsl #24]
  b4:	058e0685 	streq	r0, [lr, #1669]	; 0x685
  b8:	00280e42 	eoreq	r0, r8, r2, asr #28
  bc:	0000000c 	andeq	r0, r0, ip
  c0:	ffffffff 			; <UNDEFINED> instruction: 0xffffffff
  c4:	7c020001 	stcvc	0, cr0, [r2], {1}
  c8:	000d0c0e 	andeq	r0, sp, lr, lsl #24
  cc:	00000014 	andeq	r0, r0, r4, lsl r0
  d0:	000000bc 	strheq	r0, [r0], -ip
  d4:	00008210 	andeq	r8, r0, r0, lsl r2
  d8:	00000014 	andeq	r0, r0, r4, lsl r0
  dc:	84080e42 	strhi	r0, [r8], #-3650	; 0xe42
  e0:	00018e02 	andeq	r8, r1, r2, lsl #28
  e4:	0000000c 	andeq	r0, r0, ip
  e8:	000000bc 	strheq	r0, [r0], -ip
  ec:	00008224 	andeq	r8, r0, r4, lsr #4
  f0:	00000018 	andeq	r0, r0, r8, lsl r0
  f4:	0000000c 	andeq	r0, r0, ip
  f8:	000000bc 	strheq	r0, [r0], -ip
  fc:	0000823c 	andeq	r8, r0, ip, lsr r2
 100:	00000010 	andeq	r0, r0, r0, lsl r0
 104:	0000000c 	andeq	r0, r0, ip
 108:	ffffffff 			; <UNDEFINED> instruction: 0xffffffff
 10c:	7c020001 	stcvc	0, cr0, [r2], {1}
 110:	000d0c0e 	andeq	r0, sp, lr, lsl #24
 114:	00000018 	andeq	r0, r0, r8, lsl r0
 118:	00000104 	andeq	r0, r0, r4, lsl #2
 11c:	0000824c 	andeq	r8, r0, ip, asr #4
 120:	00000034 	andeq	r0, r0, r4, lsr r0
 124:	83100e42 	tsthi	r0, #1056	; 0x420
 128:	85038404 	strhi	r8, [r3, #-1028]	; 0x404
 12c:	00018e02 	andeq	r8, r1, r2, lsl #28
 130:	0000000c 	andeq	r0, r0, ip
 134:	ffffffff 			; <UNDEFINED> instruction: 0xffffffff
 138:	7c020001 	stcvc	0, cr0, [r2], {1}
 13c:	000d0c0e 	andeq	r0, sp, lr, lsl #24
 140:	0000000c 	andeq	r0, r0, ip
 144:	00000130 	andeq	r0, r0, r0, lsr r1
 148:	00008280 	andeq	r8, r0, r0, lsl #5
 14c:	00000014 	andeq	r0, r0, r4, lsl r0
 150:	0000000c 	andeq	r0, r0, ip
 154:	00000130 	andeq	r0, r0, r0, lsr r1
 158:	00008294 	muleq	r0, r4, r2
 15c:	0000002c 	andeq	r0, r0, ip, lsr #32
 160:	0000000c 	andeq	r0, r0, ip
 164:	00000130 	andeq	r0, r0, r0, lsr r1
 168:	000082c0 	andeq	r8, r0, r0, asr #5
 16c:	00000040 	andeq	r0, r0, r0, asr #32
 170:	00000020 	andeq	r0, r0, r0, lsr #32
 174:	00000130 	andeq	r0, r0, r0, lsr r1
 178:	00008300 	andeq	r8, r0, r0, lsl #6
 17c:	0000019c 	muleq	r0, ip, r1
 180:	84180e42 	ldrhi	r0, [r8], #-3650	; 0xe42
 184:	86058506 	strhi	r8, [r5], -r6, lsl #10
 188:	88038704 	stmdahi	r3, {r2, r8, r9, sl, pc}
 18c:	42018e02 	andmi	r8, r1, #2, 28
 190:	0000580e 	andeq	r5, r0, lr, lsl #16
 194:	00000014 	andeq	r0, r0, r4, lsl r0
 198:	00000130 	andeq	r0, r0, r0, lsr r1
 19c:	0000849c 	muleq	r0, ip, r4
 1a0:	00000054 	andeq	r0, r0, r4, asr r0
 1a4:	83080e42 	movwhi	r0, #36418	; 0x8e42
 1a8:	00018e02 	andeq	r8, r1, r2, lsl #28
 1ac:	00000028 	andeq	r0, r0, r8, lsr #32
 1b0:	00000130 	andeq	r0, r0, r0, lsr r1
 1b4:	000084f0 	strdeq	r8, [r0], -r0
 1b8:	00000288 	andeq	r0, r0, r8, lsl #5
 1bc:	84240e42 	strthi	r0, [r4], #-3650	; 0xe42
 1c0:	86088509 	strhi	r8, [r8], -r9, lsl #10
 1c4:	88068707 	stmdahi	r6, {r0, r1, r2, r8, r9, sl, pc}
 1c8:	8a048905 	bhi	1225e4 <__bss_end__+0x1182b4>
 1cc:	8e028b03 	vmlahi.f64	d8, d2, d3
 1d0:	b00e4201 	andlt	r4, lr, r1, lsl #4
 1d4:	00000001 	andeq	r0, r0, r1
 1d8:	0000000c 	andeq	r0, r0, ip
 1dc:	ffffffff 			; <UNDEFINED> instruction: 0xffffffff
 1e0:	7c020001 	stcvc	0, cr0, [r2], {1}
 1e4:	000d0c0e 	andeq	r0, sp, lr, lsl #24
 1e8:	00000014 	andeq	r0, r0, r4, lsl r0
 1ec:	000001d8 	ldrdeq	r0, [r0], -r8
 1f0:	00008778 	andeq	r8, r0, r8, ror r7
 1f4:	00000028 	andeq	r0, r0, r8, lsr #32
 1f8:	83080e42 	movwhi	r0, #36418	; 0x8e42
 1fc:	00018e02 	andeq	r8, r1, r2, lsl #28
 200:	0000000c 	andeq	r0, r0, ip
 204:	ffffffff 			; <UNDEFINED> instruction: 0xffffffff
 208:	7c020001 	stcvc	0, cr0, [r2], {1}
 20c:	000d0c0e 	andeq	r0, sp, lr, lsl #24
 210:	00000014 	andeq	r0, r0, r4, lsl r0
 214:	00000200 	andeq	r0, r0, r0, lsl #4
 218:	000087a0 	andeq	r8, r0, r0, lsr #15
 21c:	00000020 	andeq	r0, r0, r0, lsr #32
 220:	84080e42 	strhi	r0, [r8], #-3650	; 0xe42
 224:	00018e02 	andeq	r8, r1, r2, lsl #28
 228:	00000014 	andeq	r0, r0, r4, lsl r0
 22c:	00000200 	andeq	r0, r0, r0, lsl #4
 230:	000087c0 	andeq	r8, r0, r0, asr #15
 234:	00000090 	muleq	r0, r0, r0
 238:	83080e42 	movwhi	r0, #36418	; 0x8e42
 23c:	00018e02 	andeq	r8, r1, r2, lsl #28
 240:	0000000c 	andeq	r0, r0, ip
 244:	ffffffff 			; <UNDEFINED> instruction: 0xffffffff
 248:	7c020001 	stcvc	0, cr0, [r2], {1}
 24c:	000d0c0e 	andeq	r0, sp, lr, lsl #24
 250:	0000000c 	andeq	r0, r0, ip
 254:	00000240 	andeq	r0, r0, r0, asr #4
 258:	00008850 	andeq	r8, r0, r0, asr r8
 25c:	00000018 	andeq	r0, r0, r8, lsl r0
 260:	0000000c 	andeq	r0, r0, ip
 264:	00000240 	andeq	r0, r0, r0, asr #4
 268:	00008868 	andeq	r8, r0, r8, ror #16
 26c:	00000014 	andeq	r0, r0, r4, lsl r0
 270:	00000014 	andeq	r0, r0, r4, lsl r0
 274:	00000240 	andeq	r0, r0, r0, asr #4
 278:	0000887c 	andeq	r8, r0, ip, ror r8
 27c:	00000048 	andeq	r0, r0, r8, asr #32
 280:	83080e42 	movwhi	r0, #36418	; 0x8e42
 284:	00018e02 	andeq	r8, r1, r2, lsl #28
 288:	0000000c 	andeq	r0, r0, ip
 28c:	ffffffff 			; <UNDEFINED> instruction: 0xffffffff
 290:	7c020001 	stcvc	0, cr0, [r2], {1}
 294:	000d0c0e 	andeq	r0, sp, lr, lsl #24
 298:	0000000c 	andeq	r0, r0, ip
 29c:	00000288 	andeq	r0, r0, r8, lsl #5
 2a0:	000088c4 	andeq	r8, r0, r4, asr #17
 2a4:	0000001c 	andeq	r0, r0, ip, lsl r0
 2a8:	00000014 	andeq	r0, r0, r4, lsl r0
 2ac:	00000288 	andeq	r0, r0, r8, lsl #5
 2b0:	000088e0 	andeq	r8, r0, r0, ror #17
 2b4:	00000014 	andeq	r0, r0, r4, lsl r0
 2b8:	83080e42 	movwhi	r0, #36418	; 0x8e42
 2bc:	00018e02 	andeq	r8, r1, r2, lsl #28
 2c0:	00000014 	andeq	r0, r0, r4, lsl r0
 2c4:	00000288 	andeq	r0, r0, r8, lsl #5
 2c8:	000088f4 	strdeq	r8, [r0], -r4
 2cc:	0000000c 	andeq	r0, r0, ip
 2d0:	83080e42 	movwhi	r0, #36418	; 0x8e42
 2d4:	00018e02 	andeq	r8, r1, r2, lsl #28
 2d8:	00000018 	andeq	r0, r0, r8, lsl r0
 2dc:	00000288 	andeq	r0, r0, r8, lsl #5
 2e0:	00008900 	andeq	r8, r0, r0, lsl #18
 2e4:	00000024 	andeq	r0, r0, r4, lsr #32
 2e8:	83100e42 	tsthi	r0, #1056	; 0x420
 2ec:	85038404 	strhi	r8, [r3, #-1028]	; 0x404
 2f0:	00018e02 	andeq	r8, r1, r2, lsl #28
 2f4:	00000014 	andeq	r0, r0, r4, lsl r0
 2f8:	00000288 	andeq	r0, r0, r8, lsl #5
 2fc:	00008924 	andeq	r8, r0, r4, lsr #18
 300:	00000014 	andeq	r0, r0, r4, lsl r0
 304:	83080e42 	movwhi	r0, #36418	; 0x8e42
 308:	00018e02 	andeq	r8, r1, r2, lsl #28
 30c:	00000014 	andeq	r0, r0, r4, lsl r0
 310:	00000288 	andeq	r0, r0, r8, lsl #5
 314:	00008938 	andeq	r8, r0, r8, lsr r9
 318:	00000014 	andeq	r0, r0, r4, lsl r0
 31c:	83080e42 	movwhi	r0, #36418	; 0x8e42
 320:	00018e02 	andeq	r8, r1, r2, lsl #28
 324:	0000000c 	andeq	r0, r0, ip
 328:	ffffffff 			; <UNDEFINED> instruction: 0xffffffff
 32c:	7c020001 	stcvc	0, cr0, [r2], {1}
 330:	000d0c0e 	andeq	r0, sp, lr, lsl #24
 334:	0000001c 	andeq	r0, r0, ip, lsl r0
 338:	00000324 	andeq	r0, r0, r4, lsr #6
 33c:	0000894c 	andeq	r8, r0, ip, asr #18
 340:	00000154 	andeq	r0, r0, r4, asr r1
 344:	84180e42 	ldrhi	r0, [r8], #-3650	; 0xe42
 348:	86058506 	strhi	r8, [r5], -r6, lsl #10
 34c:	88038704 	stmdahi	r3, {r2, r8, r9, sl, pc}
 350:	00018e02 	andeq	r8, r1, r2, lsl #28
 354:	00000020 	andeq	r0, r0, r0, lsr #32
 358:	00000324 	andeq	r0, r0, r4, lsr #6
 35c:	00008aa0 	andeq	r8, r0, r0, lsr #21
 360:	000001c8 	andeq	r0, r0, r8, asr #3
 364:	83200e42 	teqhi	r0, #1056	; 0x420
 368:	85078408 	strhi	r8, [r7, #-1032]	; 0x408
 36c:	87058606 	strhi	r8, [r5, -r6, lsl #12]
 370:	89038804 	stmdbhi	r3, {r2, fp, pc}
 374:	00018e02 	andeq	r8, r1, r2, lsl #28
 378:	00000020 	andeq	r0, r0, r0, lsr #32
 37c:	00000324 	andeq	r0, r0, r4, lsr #6
 380:	00008c68 	andeq	r8, r0, r8, ror #24
 384:	00000090 	muleq	r0, r0, r0
 388:	84200e42 	strthi	r0, [r0], #-3650	; 0xe42
 38c:	86078508 	strhi	r8, [r7], -r8, lsl #10
 390:	88058706 	stmdahi	r5, {r1, r2, r8, r9, sl, pc}
 394:	8a038904 	bhi	e27ac <__bss_end__+0xd847c>
 398:	00018e02 	andeq	r8, r1, r2, lsl #28
 39c:	0000001c 	andeq	r0, r0, ip, lsl r0
 3a0:	00000324 	andeq	r0, r0, r4, lsr #6
 3a4:	00008cf8 	strdeq	r8, [r0], -r8	; <UNPREDICTABLE>
 3a8:	0000007c 	andeq	r0, r0, ip, ror r0
 3ac:	84180e42 	ldrhi	r0, [r8], #-3650	; 0xe42
 3b0:	86058506 	strhi	r8, [r5], -r6, lsl #10
 3b4:	88038704 	stmdahi	r3, {r2, r8, r9, sl, pc}
 3b8:	00018e02 	andeq	r8, r1, r2, lsl #28
 3bc:	0000001c 	andeq	r0, r0, ip, lsl r0
 3c0:	00000324 	andeq	r0, r0, r4, lsr #6
 3c4:	00008d74 	andeq	r8, r0, r4, ror sp
 3c8:	000000c0 	andeq	r0, r0, r0, asr #1
 3cc:	84180e42 	ldrhi	r0, [r8], #-3650	; 0xe42
 3d0:	86058506 	strhi	r8, [r5], -r6, lsl #10
 3d4:	88038704 	stmdahi	r3, {r2, r8, r9, sl, pc}
 3d8:	00018e02 	andeq	r8, r1, r2, lsl #28
 3dc:	00000014 	andeq	r0, r0, r4, lsl r0
 3e0:	00000324 	andeq	r0, r0, r4, lsr #6
 3e4:	00008e34 	andeq	r8, r0, r4, lsr lr
 3e8:	0000003c 	andeq	r0, r0, ip, lsr r0
 3ec:	83080e42 	movwhi	r0, #36418	; 0x8e42
 3f0:	00018e02 	andeq	r8, r1, r2, lsl #28
 3f4:	00000018 	andeq	r0, r0, r8, lsl r0
 3f8:	00000324 	andeq	r0, r0, r4, lsr #6
 3fc:	00008e70 	andeq	r8, r0, r0, ror lr
 400:	0000002c 	andeq	r0, r0, ip, lsr #32
 404:	83100e42 	tsthi	r0, #1056	; 0x420
 408:	85038404 	strhi	r8, [r3, #-1028]	; 0x404
 40c:	00018e02 	andeq	r8, r1, r2, lsl #28
 410:	00000024 	andeq	r0, r0, r4, lsr #32
 414:	00000324 	andeq	r0, r0, r4, lsr #6
 418:	00008e9c 	muleq	r0, ip, lr
 41c:	00000084 	andeq	r0, r0, r4, lsl #1
 420:	810c0e42 	tsthi	ip, r2, asr #28
 424:	83028203 	movwhi	r8, #8707	; 0x2203
 428:	180e4201 	stmdane	lr, {r0, r9, lr}
 42c:	05850684 	streq	r0, [r5, #1668]	; 0x684
 430:	0e42048e 	cdpeq	4, 4, cr0, cr2, cr14, {4}
 434:	000003e8 	andeq	r0, r0, r8, ror #7
 438:	00000014 	andeq	r0, r0, r4, lsl r0
 43c:	00000324 	andeq	r0, r0, r4, lsr #6
 440:	00008f20 	andeq	r8, r0, r0, lsr #30
 444:	0000004c 	andeq	r0, r0, ip, asr #32
 448:	8e040e42 	cdphi	14, 0, cr0, cr4, cr2, {2}
 44c:	100e4201 	andne	r4, lr, r1, lsl #4
 450:	0000000c 	andeq	r0, r0, ip
 454:	ffffffff 			; <UNDEFINED> instruction: 0xffffffff
 458:	7c020001 	stcvc	0, cr0, [r2], {1}
 45c:	000d0c0e 	andeq	r0, sp, lr, lsl #24
 460:	00000018 	andeq	r0, r0, r8, lsl r0
 464:	00000450 	andeq	r0, r0, r0, asr r4
 468:	00008f6c 	andeq	r8, r0, ip, ror #30
 46c:	0000009c 	muleq	r0, ip, r0
 470:	83100e42 	tsthi	r0, #1056	; 0x420
 474:	85038404 	strhi	r8, [r3, #-1028]	; 0x404
 478:	00018e02 	andeq	r8, r1, r2, lsl #28
 47c:	00000014 	andeq	r0, r0, r4, lsl r0
 480:	00000450 	andeq	r0, r0, r0, asr r4
 484:	00009008 	andeq	r9, r0, r8
 488:	0000001c 	andeq	r0, r0, ip, lsl r0
 48c:	83080e42 	movwhi	r0, #36418	; 0x8e42
 490:	00018e02 	andeq	r8, r1, r2, lsl #28
 494:	00000014 	andeq	r0, r0, r4, lsl r0
 498:	00000450 	andeq	r0, r0, r0, asr r4
 49c:	00009024 	andeq	r9, r0, r4, lsr #32
 4a0:	00000028 	andeq	r0, r0, r8, lsr #32
 4a4:	83080e42 	movwhi	r0, #36418	; 0x8e42
 4a8:	00018e02 	andeq	r8, r1, r2, lsl #28
 4ac:	00000014 	andeq	r0, r0, r4, lsl r0
 4b0:	00000450 	andeq	r0, r0, r0, asr r4
 4b4:	0000904c 	andeq	r9, r0, ip, asr #32
 4b8:	0000001c 	andeq	r0, r0, ip, lsl r0
 4bc:	83080e42 	movwhi	r0, #36418	; 0x8e42
 4c0:	00018e02 	andeq	r8, r1, r2, lsl #28
 4c4:	00000014 	andeq	r0, r0, r4, lsl r0
 4c8:	00000450 	andeq	r0, r0, r0, asr r4
 4cc:	00009068 	andeq	r9, r0, r8, rrx
 4d0:	0000002c 	andeq	r0, r0, ip, lsr #32
 4d4:	84080e42 	strhi	r0, [r8], #-3650	; 0xe42
 4d8:	00018e02 	andeq	r8, r1, r2, lsl #28
 4dc:	00000014 	andeq	r0, r0, r4, lsl r0
 4e0:	00000450 	andeq	r0, r0, r0, asr r4
 4e4:	00009094 	muleq	r0, r4, r0
 4e8:	0000000c 	andeq	r0, r0, ip
 4ec:	83080e42 	movwhi	r0, #36418	; 0x8e42
 4f0:	00018e02 	andeq	r8, r1, r2, lsl #28
 4f4:	00000014 	andeq	r0, r0, r4, lsl r0
 4f8:	00000450 	andeq	r0, r0, r0, asr r4
 4fc:	000090a0 	andeq	r9, r0, r0, lsr #1
 500:	00000020 	andeq	r0, r0, r0, lsr #32
 504:	83080e42 	movwhi	r0, #36418	; 0x8e42
 508:	00018e02 	andeq	r8, r1, r2, lsl #28
 50c:	0000000c 	andeq	r0, r0, ip
 510:	ffffffff 			; <UNDEFINED> instruction: 0xffffffff
 514:	7c020001 	stcvc	0, cr0, [r2], {1}
 518:	000d0c0e 	andeq	r0, sp, lr, lsl #24
 51c:	00000018 	andeq	r0, r0, r8, lsl r0
 520:	0000050c 	andeq	r0, r0, ip, lsl #10
 524:	00009128 	andeq	r9, r0, r8, lsr #2
 528:	000000d4 	ldrdeq	r0, [r0], -r4
 52c:	83100e42 	tsthi	r0, #1056	; 0x420
 530:	85038404 	strhi	r8, [r3, #-1028]	; 0x404
 534:	00018e02 	andeq	r8, r1, r2, lsl #28
 538:	00000014 	andeq	r0, r0, r4, lsl r0
 53c:	0000050c 	andeq	r0, r0, ip, lsl #10
 540:	000091fc 	strdeq	r9, [r0], -ip
 544:	00000038 	andeq	r0, r0, r8, lsr r0
 548:	83080e42 	movwhi	r0, #36418	; 0x8e42
 54c:	00018e02 	andeq	r8, r1, r2, lsl #28
 550:	00000014 	andeq	r0, r0, r4, lsl r0
 554:	0000050c 	andeq	r0, r0, ip, lsl #10
 558:	00009234 	andeq	r9, r0, r4, lsr r2
 55c:	00000038 	andeq	r0, r0, r8, lsr r0
 560:	83080e42 	movwhi	r0, #36418	; 0x8e42
 564:	00018e02 	andeq	r8, r1, r2, lsl #28
 568:	00000018 	andeq	r0, r0, r8, lsl r0
 56c:	0000050c 	andeq	r0, r0, ip, lsl #10
 570:	0000926c 	andeq	r9, r0, ip, ror #4
 574:	000000cc 	andeq	r0, r0, ip, asr #1
 578:	83100e42 	tsthi	r0, #1056	; 0x420
 57c:	85038404 	strhi	r8, [r3, #-1028]	; 0x404
 580:	00018e02 	andeq	r8, r1, r2, lsl #28
 584:	00000014 	andeq	r0, r0, r4, lsl r0
 588:	0000050c 	andeq	r0, r0, ip, lsl #10
 58c:	00009338 	andeq	r9, r0, r8, lsr r3
 590:	0000004c 	andeq	r0, r0, ip, asr #32
 594:	84080e42 	strhi	r0, [r8], #-3650	; 0xe42
 598:	00018e02 	andeq	r8, r1, r2, lsl #28
 59c:	00000014 	andeq	r0, r0, r4, lsl r0
 5a0:	0000050c 	andeq	r0, r0, ip, lsl #10
 5a4:	00009384 	andeq	r9, r0, r4, lsl #7
 5a8:	00000078 	andeq	r0, r0, r8, ror r0
 5ac:	83080e42 	movwhi	r0, #36418	; 0x8e42
 5b0:	00018e02 	andeq	r8, r1, r2, lsl #28
 5b4:	00000018 	andeq	r0, r0, r8, lsl r0
 5b8:	0000050c 	andeq	r0, r0, ip, lsl #10
 5bc:	000093fc 	strdeq	r9, [r0], -ip
 5c0:	000000d8 	ldrdeq	r0, [r0], -r8
 5c4:	84100e42 	ldrhi	r0, [r0], #-3650	; 0xe42
 5c8:	86038504 	strhi	r8, [r3], -r4, lsl #10
 5cc:	00018e02 	andeq	r8, r1, r2, lsl #28
 5d0:	00000014 	andeq	r0, r0, r4, lsl r0
 5d4:	0000050c 	andeq	r0, r0, ip, lsl #10
 5d8:	000094d4 	ldrdeq	r9, [r0], -r4
 5dc:	0000002c 	andeq	r0, r0, ip, lsr #32
 5e0:	83080e42 	movwhi	r0, #36418	; 0x8e42
 5e4:	00018e02 	andeq	r8, r1, r2, lsl #28
 5e8:	00000018 	andeq	r0, r0, r8, lsl r0
 5ec:	0000050c 	andeq	r0, r0, ip, lsl #10
 5f0:	00009500 	andeq	r9, r0, r0, lsl #10
 5f4:	00000084 	andeq	r0, r0, r4, lsl #1
 5f8:	83100e42 	tsthi	r0, #1056	; 0x420
 5fc:	85038404 	strhi	r8, [r3, #-1028]	; 0x404
 600:	00018e02 	andeq	r8, r1, r2, lsl #28
 604:	00000018 	andeq	r0, r0, r8, lsl r0
 608:	0000050c 	andeq	r0, r0, ip, lsl #10
 60c:	00009584 	andeq	r9, r0, r4, lsl #11
 610:	00000084 	andeq	r0, r0, r4, lsl #1
 614:	83100e42 	tsthi	r0, #1056	; 0x420
 618:	85038404 	strhi	r8, [r3, #-1028]	; 0x404
 61c:	00018e02 	andeq	r8, r1, r2, lsl #28
 620:	00000014 	andeq	r0, r0, r4, lsl r0
 624:	0000050c 	andeq	r0, r0, ip, lsl #10
 628:	00009608 	andeq	r9, r0, r8, lsl #12
 62c:	00000084 	andeq	r0, r0, r4, lsl #1
 630:	84080e42 	strhi	r0, [r8], #-3650	; 0xe42
 634:	00018e02 	andeq	r8, r1, r2, lsl #28
 638:	00000014 	andeq	r0, r0, r4, lsl r0
 63c:	0000050c 	andeq	r0, r0, ip, lsl #10
 640:	0000968c 	andeq	r9, r0, ip, lsl #13
 644:	00000058 	andeq	r0, r0, r8, asr r0
 648:	84080e42 	strhi	r0, [r8], #-3650	; 0xe42
 64c:	00018e02 	andeq	r8, r1, r2, lsl #28
 650:	0000000c 	andeq	r0, r0, ip
 654:	ffffffff 			; <UNDEFINED> instruction: 0xffffffff
 658:	7c020001 	stcvc	0, cr0, [r2], {1}
 65c:	000d0c0e 	andeq	r0, sp, lr, lsl #24
 660:	00000014 	andeq	r0, r0, r4, lsl r0
 664:	00000650 	andeq	r0, r0, r0, asr r6
 668:	000096e4 	andeq	r9, r0, r4, ror #13
 66c:	00000028 	andeq	r0, r0, r8, lsr #32
 670:	83080e42 	movwhi	r0, #36418	; 0x8e42
 674:	00018e02 	andeq	r8, r1, r2, lsl #28
 678:	0000000c 	andeq	r0, r0, ip
 67c:	00000650 	andeq	r0, r0, r0, asr r6
 680:	0000970c 	andeq	r9, r0, ip, lsl #14
 684:	00000028 	andeq	r0, r0, r8, lsr #32
 688:	0000000c 	andeq	r0, r0, ip
 68c:	ffffffff 			; <UNDEFINED> instruction: 0xffffffff
 690:	7c020001 	stcvc	0, cr0, [r2], {1}
 694:	000d0c0e 	andeq	r0, sp, lr, lsl #24
 698:	0000000c 	andeq	r0, r0, ip
 69c:	00000688 	andeq	r0, r0, r8, lsl #13
 6a0:	00009734 	andeq	r9, r0, r4, lsr r7
 6a4:	00000020 	andeq	r0, r0, r0, lsr #32

Disassembly of section .debug_ranges:

00000000 <.debug_ranges>:
   0:	00000294 	muleq	r0, r4, r2
   4:	00000298 	muleq	r0, r8, r2
   8:	000002c8 	andeq	r0, r0, r8, asr #5
   c:	000004b8 			; <UNDEFINED> instruction: 0x000004b8
	...
  18:	00008850 	andeq	r8, r0, r0, asr r8
  1c:	000088c4 	andeq	r8, r0, r4, asr #17
	...
