
get-code.elf:     file format elf32-littlearm


Disassembly of section .text:

00008000 <_start>:
    8000:	e3a0d302 	mov	sp, #134217728	; 0x8000000
    8004:	e3a0b000 	mov	fp, #0
    8008:	eb0001fa 	bl	87f8 <_cstart>
    800c:	eb000228 	bl	88b4 <rpi_reboot>

00008010 <read_exact>:
    8010:	e92d4070 	push	{r4, r5, r6, lr}
    8014:	e1a06000 	mov	r6, r0
    8018:	e1a05001 	mov	r5, r1
    801c:	e3a04000 	mov	r4, #0
    8020:	ea000002 	b	8030 <read_exact+0x20>
    8024:	eb00040c 	bl	905c <uart_getc>
    8028:	e7c60004 	strb	r0, [r6, r4]
    802c:	e2844001 	add	r4, r4, #1
    8030:	e1540005 	cmp	r4, r5
    8034:	3afffffa 	bcc	8024 <read_exact+0x14>
    8038:	e8bd8070 	pop	{r4, r5, r6, pc}

0000803c <notmain>:
    803c:	e92d41f0 	push	{r4, r5, r6, r7, r8, lr}
    8040:	e24dd020 	sub	sp, sp, #32
    8044:	eb0003d6 	bl	8fa4 <uart_init>
    8048:	e3a00008 	mov	r0, #8
    804c:	eb000413 	bl	90a0 <uart_putc>
    8050:	e28d001f 	add	r0, sp, #31
    8054:	e3a01001 	mov	r1, #1
    8058:	ebffffec 	bl	8010 <read_exact>
    805c:	e28d0008 	add	r0, sp, #8
    8060:	e3a01010 	mov	r1, #16
    8064:	ebffffe9 	bl	8010 <read_exact>
    8068:	e28d0018 	add	r0, sp, #24
    806c:	e3a01004 	mov	r1, #4
    8070:	ebffffe6 	bl	8010 <read_exact>
    8074:	e59d5010 	ldr	r5, [sp, #16]
    8078:	e5dd301f 	ldrb	r3, [sp, #31]
    807c:	e3530007 	cmp	r3, #7
    8080:	0a000006 	beq	80a0 <notmain+0x64>
    8084:	eb000074 	bl	825c <rpi_reset_putc>
    8088:	e59f00f4 	ldr	r0, [pc, #244]	; 8184 <notmain+0x148>
    808c:	e59f10f4 	ldr	r1, [pc, #244]	; 8188 <notmain+0x14c>
    8090:	e59f20f4 	ldr	r2, [pc, #244]	; 818c <notmain+0x150>
    8094:	e3a03045 	mov	r3, #69	; 0x45
    8098:	eb000054 	bl	81f0 <printk>
    809c:	eb0001c3 	bl	87b0 <clean_reboot>
    80a0:	e3550409 	cmp	r5, #150994944	; 0x9000000
    80a4:	2a000009 	bcs	80d0 <notmain+0x94>
    80a8:	eb00006b 	bl	825c <rpi_reset_putc>
    80ac:	e58d5000 	str	r5, [sp]
    80b0:	e3a03409 	mov	r3, #150994944	; 0x9000000
    80b4:	e58d3004 	str	r3, [sp, #4]
    80b8:	e59f00d0 	ldr	r0, [pc, #208]	; 8190 <notmain+0x154>
    80bc:	e59f10c4 	ldr	r1, [pc, #196]	; 8188 <notmain+0x14c>
    80c0:	e59f20c4 	ldr	r2, [pc, #196]	; 818c <notmain+0x150>
    80c4:	e3a03049 	mov	r3, #73	; 0x49
    80c8:	eb000048 	bl	81f0 <printk>
    80cc:	eb0001b7 	bl	87b0 <clean_reboot>
    80d0:	e59d6014 	ldr	r6, [sp, #20]
    80d4:	e2855010 	add	r5, r5, #16
    80d8:	e1a00005 	mov	r0, r5
    80dc:	e1a01006 	mov	r1, r6
    80e0:	ebffffca 	bl	8010 <read_exact>
    80e4:	e28d0008 	add	r0, sp, #8
    80e8:	e3a01010 	mov	r1, #16
    80ec:	eb00003b 	bl	81e0 <our_crc32>
    80f0:	e1a02000 	mov	r2, r0
    80f4:	e1a00005 	mov	r0, r5
    80f8:	e1a01006 	mov	r1, r6
    80fc:	eb000027 	bl	81a0 <our_crc32_inc>
    8100:	e59d3018 	ldr	r3, [sp, #24]
    8104:	e1500003 	cmp	r0, r3
    8108:	0a000017 	beq	816c <notmain+0x130>
    810c:	eb000052 	bl	825c <rpi_reset_putc>
    8110:	e1a00005 	mov	r0, r5
    8114:	e1a01006 	mov	r1, r6
    8118:	eb000030 	bl	81e0 <our_crc32>
    811c:	e58d0000 	str	r0, [sp]
    8120:	e59d3018 	ldr	r3, [sp, #24]
    8124:	e58d3004 	str	r3, [sp, #4]
    8128:	e59f0064 	ldr	r0, [pc, #100]	; 8194 <notmain+0x158>
    812c:	e59f1054 	ldr	r1, [pc, #84]	; 8188 <notmain+0x14c>
    8130:	e59f2054 	ldr	r2, [pc, #84]	; 818c <notmain+0x150>
    8134:	e3a03051 	mov	r3, #81	; 0x51
    8138:	eb00002c 	bl	81f0 <printk>
    813c:	eb00019b 	bl	87b0 <clean_reboot>
    8140:	e1a00008 	mov	r0, r8
    8144:	e1a01004 	mov	r1, r4
    8148:	e1a02005 	mov	r2, r5
    814c:	e1a03006 	mov	r3, r6
    8150:	eb000026 	bl	81f0 <printk>
    8154:	e1a00005 	mov	r0, r5
    8158:	eb0003e6 	bl	90f8 <BRANCHTO>
    815c:	e1a00007 	mov	r0, r7
    8160:	eb000022 	bl	81f0 <printk>
    8164:	e2844001 	add	r4, r4, #1
    8168:	ea000002 	b	8178 <notmain+0x13c>
    816c:	e3a04000 	mov	r4, #0
    8170:	e59f8020 	ldr	r8, [pc, #32]	; 8198 <notmain+0x15c>
    8174:	e59f7020 	ldr	r7, [pc, #32]	; 819c <notmain+0x160>
    8178:	e3540009 	cmp	r4, #9
    817c:	daffffef 	ble	8140 <notmain+0x104>
    8180:	eb00018a 	bl	87b0 <clean_reboot>
    8184:	000097dc 	ldrdeq	r9, [r0], -ip
    8188:	000097f8 	strdeq	r9, [r0], -r8
    818c:	000097d4 	ldrdeq	r9, [r0], -r4
    8190:	00009804 	andeq	r9, r0, r4, lsl #16
    8194:	00009834 	andeq	r9, r0, r4, lsr r8
    8198:	00009864 	andeq	r9, r0, r4, ror #16
    819c:	0000989c 	muleq	r0, ip, r8

000081a0 <our_crc32_inc>:
    81a0:	e1e02002 	mvn	r2, r2
    81a4:	e59fc030 	ldr	ip, [pc, #48]	; 81dc <our_crc32_inc+0x3c>
    81a8:	ea000006 	b	81c8 <our_crc32_inc+0x28>
    81ac:	e5d01000 	ldrb	r1, [r0]
    81b0:	e0211002 	eor	r1, r1, r2
    81b4:	e6ef1071 	uxtb	r1, r1
    81b8:	e79c1101 	ldr	r1, [ip, r1, lsl #2]
    81bc:	e0212422 	eor	r2, r1, r2, lsr #8
    81c0:	e1a01003 	mov	r1, r3
    81c4:	e2800001 	add	r0, r0, #1
    81c8:	e2413001 	sub	r3, r1, #1
    81cc:	e3510000 	cmp	r1, #0
    81d0:	1afffff5 	bne	81ac <our_crc32_inc+0xc>
    81d4:	e1e00002 	mvn	r0, r2
    81d8:	e12fff1e 	bx	lr
    81dc:	000098ac 	andeq	r9, r0, ip, lsr #17

000081e0 <our_crc32>:
    81e0:	e92d4008 	push	{r3, lr}
    81e4:	e3a02000 	mov	r2, #0
    81e8:	ebffffec 	bl	81a0 <our_crc32_inc>
    81ec:	e8bd8008 	pop	{r3, pc}

000081f0 <printk>:
    81f0:	e92d000f 	push	{r0, r1, r2, r3}
    81f4:	e92d4030 	push	{r4, r5, lr}
    81f8:	e24dd00c 	sub	sp, sp, #12
    81fc:	e28d301c 	add	r3, sp, #28
    8200:	e58d3004 	str	r3, [sp, #4]
    8204:	e59f4034 	ldr	r4, [pc, #52]	; 8240 <printk+0x50>
    8208:	e1a00004 	mov	r0, r4
    820c:	e3a01b01 	mov	r1, #1024	; 0x400
    8210:	e59d2018 	ldr	r2, [sp, #24]
    8214:	eb0000c3 	bl	8528 <va_printk>
    8218:	e1a05000 	mov	r5, r0
    821c:	e59f3020 	ldr	r3, [pc, #32]	; 8244 <printk+0x54>
    8220:	e5933000 	ldr	r3, [r3]
    8224:	e1a00004 	mov	r0, r4
    8228:	e12fff33 	blx	r3
    822c:	e1a00005 	mov	r0, r5
    8230:	e28dd00c 	add	sp, sp, #12
    8234:	e8bd4030 	pop	{r4, r5, lr}
    8238:	e28dd010 	add	sp, sp, #16
    823c:	e12fff1e 	bx	lr
    8240:	00009f34 	andeq	r9, r0, r4, lsr pc
    8244:	0000973c 	andeq	r9, r0, ip, lsr r7

00008248 <internal_putchar>:
    8248:	e92d4010 	push	{r4, lr}
    824c:	e1a04000 	mov	r4, r0
    8250:	eb000392 	bl	90a0 <uart_putc>
    8254:	e1a00004 	mov	r0, r4
    8258:	e8bd8010 	pop	{r4, pc}

0000825c <rpi_reset_putc>:
    825c:	e59f2008 	ldr	r2, [pc, #8]	; 826c <rpi_reset_putc+0x10>
    8260:	e59f3008 	ldr	r3, [pc, #8]	; 8270 <rpi_reset_putc+0x14>
    8264:	e5832000 	str	r2, [r3]
    8268:	e12fff1e 	bx	lr
    826c:	00008248 	andeq	r8, r0, r8, asr #4
    8270:	00009738 	andeq	r9, r0, r8, lsr r7

00008274 <rpi_set_putc>:
    8274:	e59f3004 	ldr	r3, [pc, #4]	; 8280 <rpi_set_putc+0xc>
    8278:	e5830000 	str	r0, [r3]
    827c:	e12fff1e 	bx	lr
    8280:	00009738 	andeq	r9, r0, r8, lsr r7

00008284 <internal_putk>:
    8284:	e92d4038 	push	{r3, r4, r5, lr}
    8288:	e1a04000 	mov	r4, r0
    828c:	e59f5020 	ldr	r5, [pc, #32]	; 82b4 <internal_putk+0x30>
    8290:	ea000002 	b	82a0 <internal_putk+0x1c>
    8294:	e5953000 	ldr	r3, [r5]
    8298:	e12fff33 	blx	r3
    829c:	e2844001 	add	r4, r4, #1
    82a0:	e5d40000 	ldrb	r0, [r4]
    82a4:	e3500000 	cmp	r0, #0
    82a8:	1afffff9 	bne	8294 <internal_putk+0x10>
    82ac:	e3a00001 	mov	r0, #1
    82b0:	e8bd8038 	pop	{r3, r4, r5, pc}
    82b4:	00009738 	andeq	r9, r0, r8, lsr r7

000082b8 <isdigit>:
    82b8:	e2400030 	sub	r0, r0, #48	; 0x30
    82bc:	e3500009 	cmp	r0, #9
    82c0:	83a00000 	movhi	r0, #0
    82c4:	93a00001 	movls	r0, #1
    82c8:	e12fff1e 	bx	lr

000082cc <pad>:
    82cc:	e0611000 	rsb	r1, r1, r0
    82d0:	e3a03020 	mov	r3, #32
    82d4:	ea000002 	b	82e4 <pad+0x18>
    82d8:	e5c03000 	strb	r3, [r0]
    82dc:	e2811001 	add	r1, r1, #1
    82e0:	e2800001 	add	r0, r0, #1
    82e4:	e1510002 	cmp	r1, r2
    82e8:	bafffffa 	blt	82d8 <pad+0xc>
    82ec:	e3a03000 	mov	r3, #0
    82f0:	e5c03000 	strb	r3, [r0]
    82f4:	e12fff1e 	bx	lr

000082f8 <reverse>:
    82f8:	e063c002 	rsb	ip, r3, r2
    82fc:	e28cc001 	add	ip, ip, #1
    8300:	e15c0001 	cmp	ip, r1
    8304:	c061100c 	rsbgt	r1, r1, ip
    8308:	c0833001 	addgt	r3, r3, r1
    830c:	e2422001 	sub	r2, r2, #1
    8310:	e1a01000 	mov	r1, r0
    8314:	ea000002 	b	8324 <reverse+0x2c>
    8318:	e452c001 	ldrb	ip, [r2], #-1
    831c:	e5c1c000 	strb	ip, [r1]
    8320:	e2811001 	add	r1, r1, #1
    8324:	e1520003 	cmp	r2, r3
    8328:	2afffffa 	bcs	8318 <reverse+0x20>
    832c:	e3a03000 	mov	r3, #0
    8330:	e5c13000 	strb	r3, [r1]
    8334:	e12fff1e 	bx	lr

00008338 <emit>:
    8338:	e92d41f0 	push	{r4, r5, r6, r7, r8, lr}
    833c:	e24dd040 	sub	sp, sp, #64	; 0x40
    8340:	e1a05001 	mov	r5, r1
    8344:	e1a04002 	mov	r4, r2
    8348:	e59d2058 	ldr	r2, [sp, #88]	; 0x58
    834c:	e1520004 	cmp	r2, r4
    8350:	c2442001 	subgt	r2, r4, #1
    8354:	e1a0c003 	mov	ip, r3
    8358:	e2400002 	sub	r0, r0, #2
    835c:	e350000e 	cmp	r0, #14
    8360:	979ff100 	ldrls	pc, [pc, r0, lsl #2]
    8364:	ea000042 	b	8474 <emit+0x13c>
    8368:	0000844c 	andeq	r8, r0, ip, asr #8
    836c:	00008474 	andeq	r8, r0, r4, ror r4
    8370:	00008474 	andeq	r8, r0, r4, ror r4
    8374:	00008474 	andeq	r8, r0, r4, ror r4
    8378:	00008474 	andeq	r8, r0, r4, ror r4
    837c:	00008474 	andeq	r8, r0, r4, ror r4
    8380:	00008440 	andeq	r8, r0, r0, asr #8
    8384:	00008474 	andeq	r8, r0, r4, ror r4
    8388:	000083a4 	andeq	r8, r0, r4, lsr #7
    838c:	00008474 	andeq	r8, r0, r4, ror r4
    8390:	00008474 	andeq	r8, r0, r4, ror r4
    8394:	00008474 	andeq	r8, r0, r4, ror r4
    8398:	00008474 	andeq	r8, r0, r4, ror r4
    839c:	00008474 	andeq	r8, r0, r4, ror r4
    83a0:	00008418 	andeq	r8, r0, r8, lsl r4
    83a4:	e59d105c 	ldr	r1, [sp, #92]	; 0x5c
    83a8:	e2911000 	adds	r1, r1, #0
    83ac:	13a01001 	movne	r1, #1
    83b0:	e0111fa3 	ands	r1, r1, r3, lsr #31
    83b4:	1263c000 	rsbne	ip, r3, #0
    83b8:	13a08001 	movne	r8, #1
    83bc:	03a08000 	moveq	r8, #0
    83c0:	e1a0100d 	mov	r1, sp
    83c4:	e59f70ec 	ldr	r7, [pc, #236]	; 84b8 <emit+0x180>
    83c8:	e59f60ec 	ldr	r6, [pc, #236]	; 84bc <emit+0x184>
    83cc:	ea000000 	b	83d4 <emit+0x9c>
    83d0:	e1a01003 	mov	r1, r3
    83d4:	e2813001 	add	r3, r1, #1
    83d8:	e08e0c97 	umull	r0, lr, r7, ip
    83dc:	e1a0e1ae 	lsr	lr, lr, #3
    83e0:	e1a0000e 	mov	r0, lr
    83e4:	e08ee10e 	add	lr, lr, lr, lsl #2
    83e8:	e1a0e08e 	lsl	lr, lr, #1
    83ec:	e06ee00c 	rsb	lr, lr, ip
    83f0:	e7d6c00e 	ldrb	ip, [r6, lr]
    83f4:	e5c1c000 	strb	ip, [r1]
    83f8:	e1a0c000 	mov	ip, r0
    83fc:	e3500000 	cmp	r0, #0
    8400:	1afffff2 	bne	83d0 <emit+0x98>
    8404:	e3580000 	cmp	r8, #0
    8408:	12813002 	addne	r3, r1, #2
    840c:	13a0002d 	movne	r0, #45	; 0x2d
    8410:	15c10001 	strbne	r0, [r1, #1]
    8414:	ea00001d 	b	8490 <emit+0x158>
    8418:	e1a0e00d 	mov	lr, sp
    841c:	e59f009c 	ldr	r0, [pc, #156]	; 84c0 <emit+0x188>
    8420:	e28e3001 	add	r3, lr, #1
    8424:	e20c100f 	and	r1, ip, #15
    8428:	e7d01001 	ldrb	r1, [r0, r1]
    842c:	e5ce1000 	strb	r1, [lr]
    8430:	e1a0e003 	mov	lr, r3
    8434:	e1b0c22c 	lsrs	ip, ip, #4
    8438:	1afffff8 	bne	8420 <emit+0xe8>
    843c:	ea000013 	b	8490 <emit+0x158>
    8440:	e5cd3000 	strb	r3, [sp]
    8444:	e28d3001 	add	r3, sp, #1
    8448:	ea000010 	b	8490 <emit+0x158>
    844c:	e1a0e00d 	mov	lr, sp
    8450:	e59f006c 	ldr	r0, [pc, #108]	; 84c4 <emit+0x18c>
    8454:	e28e3001 	add	r3, lr, #1
    8458:	e20c1001 	and	r1, ip, #1
    845c:	e7d01001 	ldrb	r1, [r0, r1]
    8460:	e5ce1000 	strb	r1, [lr]
    8464:	e1a0e003 	mov	lr, r3
    8468:	e1b0c0ac 	lsrs	ip, ip, #1
    846c:	1afffff8 	bne	8454 <emit+0x11c>
    8470:	ea000006 	b	8490 <emit+0x158>
    8474:	ebffff78 	bl	825c <rpi_reset_putc>
    8478:	e59f0048 	ldr	r0, [pc, #72]	; 84c8 <emit+0x190>
    847c:	e59f1048 	ldr	r1, [pc, #72]	; 84cc <emit+0x194>
    8480:	e59f2048 	ldr	r2, [pc, #72]	; 84d0 <emit+0x198>
    8484:	e3a03075 	mov	r3, #117	; 0x75
    8488:	ebffff58 	bl	81f0 <printk>
    848c:	eb0000c7 	bl	87b0 <clean_reboot>
    8490:	e1a00003 	mov	r0, r3
    8494:	e1a0100d 	mov	r1, sp
    8498:	ebffff8b 	bl	82cc <pad>
    849c:	e1a02000 	mov	r2, r0
    84a0:	e1a00005 	mov	r0, r5
    84a4:	e1a01004 	mov	r1, r4
    84a8:	e1a0300d 	mov	r3, sp
    84ac:	ebffff91 	bl	82f8 <reverse>
    84b0:	e28dd040 	add	sp, sp, #64	; 0x40
    84b4:	e8bd81f0 	pop	{r4, r5, r6, r7, r8, pc}
    84b8:	cccccccd 	stclgt	12, cr12, [ip], {205}	; 0xcd
    84bc:	00009cf8 	strdeq	r9, [r0], -r8
    84c0:	00009d04 	andeq	r9, r0, r4, lsl #26
    84c4:	00009d18 	andeq	r9, r0, r8, lsl sp
    84c8:	00009cd0 	ldrdeq	r9, [r0], -r0
    84cc:	00009ce4 	andeq	r9, r0, r4, ror #25
    84d0:	00009cac 	andeq	r9, r0, ip, lsr #25

000084d4 <rpi_set_output>:
    84d4:	e92d4008 	push	{r3, lr}
    84d8:	e3500000 	cmp	r0, #0
    84dc:	1a000006 	bne	84fc <rpi_set_output+0x28>
    84e0:	ebffff5d 	bl	825c <rpi_reset_putc>
    84e4:	e59f0028 	ldr	r0, [pc, #40]	; 8514 <rpi_set_output+0x40>
    84e8:	e59f1028 	ldr	r1, [pc, #40]	; 8518 <rpi_set_output+0x44>
    84ec:	e59f2028 	ldr	r2, [pc, #40]	; 851c <rpi_set_output+0x48>
    84f0:	e3a03020 	mov	r3, #32
    84f4:	ebffff3d 	bl	81f0 <printk>
    84f8:	eb0000ac 	bl	87b0 <clean_reboot>
    84fc:	e59f301c 	ldr	r3, [pc, #28]	; 8520 <rpi_set_output+0x4c>
    8500:	e5830000 	str	r0, [r3]
    8504:	e3510000 	cmp	r1, #0
    8508:	159f3014 	ldrne	r3, [pc, #20]	; 8524 <rpi_set_output+0x50>
    850c:	15831000 	strne	r1, [r3]
    8510:	e8bd8008 	pop	{r3, pc}
    8514:	00009d1c 	andeq	r9, r0, ip, lsl sp
    8518:	00009ce4 	andeq	r9, r0, r4, ror #25
    851c:	00009cb4 			; <UNDEFINED> instruction: 0x00009cb4
    8520:	00009738 	andeq	r9, r0, r8, lsr r7
    8524:	0000973c 	andeq	r9, r0, ip, lsr r7

00008528 <va_printk>:
    8528:	e92d4ff0 	push	{r4, r5, r6, r7, r8, r9, sl, fp, lr}
    852c:	e24dd08c 	sub	sp, sp, #140	; 0x8c
    8530:	e1a0a000 	mov	sl, r0
    8534:	e1a09003 	mov	r9, r3
    8538:	e2411001 	sub	r1, r1, #1
    853c:	e0808001 	add	r8, r0, r1
    8540:	e3a03000 	mov	r3, #0
    8544:	e5c03000 	strb	r3, [r0]
    8548:	e1a04000 	mov	r4, r0
    854c:	e1a0b003 	mov	fp, r3
    8550:	ea000086 	b	8770 <va_printk+0x248>
    8554:	e3530025 	cmp	r3, #37	; 0x25
    8558:	12822001 	addne	r2, r2, #1
    855c:	15c43000 	strbne	r3, [r4]
    8560:	12844001 	addne	r4, r4, #1
    8564:	1a000081 	bne	8770 <va_printk+0x248>
    8568:	e5d21001 	ldrb	r1, [r2, #1]
    856c:	e3510025 	cmp	r1, #37	; 0x25
    8570:	05c43000 	strbeq	r3, [r4]
    8574:	02822002 	addeq	r2, r2, #2
    8578:	02844001 	addeq	r4, r4, #1
    857c:	0a00007b 	beq	8770 <va_printk+0x248>
    8580:	e2826001 	add	r6, r2, #1
    8584:	e1a0700b 	mov	r7, fp
    8588:	ea000004 	b	85a0 <va_printk+0x78>
    858c:	e0877107 	add	r7, r7, r7, lsl #2
    8590:	e1a07087 	lsl	r7, r7, #1
    8594:	e0877005 	add	r7, r7, r5
    8598:	e2477030 	sub	r7, r7, #48	; 0x30
    859c:	e2866001 	add	r6, r6, #1
    85a0:	e5d65000 	ldrb	r5, [r6]
    85a4:	e1a00005 	mov	r0, r5
    85a8:	ebffff42 	bl	82b8 <isdigit>
    85ac:	e3500000 	cmp	r0, #0
    85b0:	1afffff5 	bne	858c <va_printk+0x64>
    85b4:	e357001f 	cmp	r7, #31
    85b8:	9a000006 	bls	85d8 <va_printk+0xb0>
    85bc:	ebffff26 	bl	825c <rpi_reset_putc>
    85c0:	e59f01d4 	ldr	r0, [pc, #468]	; 879c <va_printk+0x274>
    85c4:	e59f11d4 	ldr	r1, [pc, #468]	; 87a0 <va_printk+0x278>
    85c8:	e59f21d4 	ldr	r2, [pc, #468]	; 87a4 <va_printk+0x27c>
    85cc:	e3a03092 	mov	r3, #146	; 0x92
    85d0:	ebffff06 	bl	81f0 <printk>
    85d4:	eb000075 	bl	87b0 <clean_reboot>
    85d8:	e2455062 	sub	r5, r5, #98	; 0x62
    85dc:	e3550016 	cmp	r5, #22
    85e0:	979ff105 	ldrls	pc, [pc, r5, lsl #2]
    85e4:	ea00004e 	b	8724 <va_printk+0x1fc>
    85e8:	000086d0 	ldrdeq	r8, [r0], -r0
    85ec:	00008700 	andeq	r8, r0, r0, lsl #14
    85f0:	00008660 	andeq	r8, r0, r0, ror #12
    85f4:	00008724 	andeq	r8, r0, r4, lsr #14
    85f8:	00008644 	andeq	r8, r0, r4, asr #12
    85fc:	00008724 	andeq	r8, r0, r4, lsr #14
    8600:	00008724 	andeq	r8, r0, r4, lsr #14
    8604:	00008724 	andeq	r8, r0, r4, lsr #14
    8608:	00008724 	andeq	r8, r0, r4, lsr #14
    860c:	00008724 	andeq	r8, r0, r4, lsr #14
    8610:	00008724 	andeq	r8, r0, r4, lsr #14
    8614:	00008724 	andeq	r8, r0, r4, lsr #14
    8618:	00008724 	andeq	r8, r0, r4, lsr #14
    861c:	00008724 	andeq	r8, r0, r4, lsr #14
    8620:	000086ac 	andeq	r8, r0, ip, lsr #13
    8624:	00008724 	andeq	r8, r0, r4, lsr #14
    8628:	00008724 	andeq	r8, r0, r4, lsr #14
    862c:	000086f4 	strdeq	r8, [r0], -r4
    8630:	00008724 	andeq	r8, r0, r4, lsr #14
    8634:	00008688 	andeq	r8, r0, r8, lsl #13
    8638:	00008724 	andeq	r8, r0, r4, lsr #14
    863c:	00008724 	andeq	r8, r0, r4, lsr #14
    8640:	000086ac 	andeq	r8, r0, ip, lsr #13
    8644:	ebffff04 	bl	825c <rpi_reset_putc>
    8648:	e59f0158 	ldr	r0, [pc, #344]	; 87a8 <va_printk+0x280>
    864c:	e59f114c 	ldr	r1, [pc, #332]	; 87a0 <va_printk+0x278>
    8650:	e59f214c 	ldr	r2, [pc, #332]	; 87a4 <va_printk+0x27c>
    8654:	e3a03098 	mov	r3, #152	; 0x98
    8658:	ebfffee4 	bl	81f0 <printk>
    865c:	eb000053 	bl	87b0 <clean_reboot>
    8660:	e5993000 	ldr	r3, [r9]
    8664:	e2899004 	add	r9, r9, #4
    8668:	e58d7000 	str	r7, [sp]
    866c:	e3a02001 	mov	r2, #1
    8670:	e58d2004 	str	r2, [sp, #4]
    8674:	e3a0000a 	mov	r0, #10
    8678:	e28d1008 	add	r1, sp, #8
    867c:	e3a02080 	mov	r2, #128	; 0x80
    8680:	ebffff2c 	bl	8338 <emit>
    8684:	ea00002f 	b	8748 <va_printk+0x220>
    8688:	e5993000 	ldr	r3, [r9]
    868c:	e2899004 	add	r9, r9, #4
    8690:	e58d7000 	str	r7, [sp]
    8694:	e58db004 	str	fp, [sp, #4]
    8698:	e3a0000a 	mov	r0, #10
    869c:	e28d1008 	add	r1, sp, #8
    86a0:	e3a02080 	mov	r2, #128	; 0x80
    86a4:	ebffff23 	bl	8338 <emit>
    86a8:	ea000026 	b	8748 <va_printk+0x220>
    86ac:	e5993000 	ldr	r3, [r9]
    86b0:	e2899004 	add	r9, r9, #4
    86b4:	e58d7000 	str	r7, [sp]
    86b8:	e58db004 	str	fp, [sp, #4]
    86bc:	e3a00010 	mov	r0, #16
    86c0:	e28d1008 	add	r1, sp, #8
    86c4:	e3a02080 	mov	r2, #128	; 0x80
    86c8:	ebffff1a 	bl	8338 <emit>
    86cc:	ea00001d 	b	8748 <va_printk+0x220>
    86d0:	e5993000 	ldr	r3, [r9]
    86d4:	e2899004 	add	r9, r9, #4
    86d8:	e58d7000 	str	r7, [sp]
    86dc:	e58db004 	str	fp, [sp, #4]
    86e0:	e3a00002 	mov	r0, #2
    86e4:	e28d1008 	add	r1, sp, #8
    86e8:	e3a02080 	mov	r2, #128	; 0x80
    86ec:	ebffff11 	bl	8338 <emit>
    86f0:	ea000014 	b	8748 <va_printk+0x220>
    86f4:	e5990000 	ldr	r0, [r9]
    86f8:	e2899004 	add	r9, r9, #4
    86fc:	ea000011 	b	8748 <va_printk+0x220>
    8700:	e5993000 	ldr	r3, [r9]
    8704:	e2899004 	add	r9, r9, #4
    8708:	e58d7000 	str	r7, [sp]
    870c:	e58db004 	str	fp, [sp, #4]
    8710:	e3a00008 	mov	r0, #8
    8714:	e08d1000 	add	r1, sp, r0
    8718:	e3a02080 	mov	r2, #128	; 0x80
    871c:	ebffff05 	bl	8338 <emit>
    8720:	ea000008 	b	8748 <va_printk+0x220>
    8724:	ebfffecc 	bl	825c <rpi_reset_putc>
    8728:	e5d63000 	ldrb	r3, [r6]
    872c:	e58d3000 	str	r3, [sp]
    8730:	e59f0074 	ldr	r0, [pc, #116]	; 87ac <va_printk+0x284>
    8734:	e59f1064 	ldr	r1, [pc, #100]	; 87a0 <va_printk+0x278>
    8738:	e59f2064 	ldr	r2, [pc, #100]	; 87a4 <va_printk+0x27c>
    873c:	e3a030b9 	mov	r3, #185	; 0xb9
    8740:	ebfffeaa 	bl	81f0 <printk>
    8744:	eb000019 	bl	87b0 <clean_reboot>
    8748:	e2862001 	add	r2, r6, #1
    874c:	ea000002 	b	875c <va_printk+0x234>
    8750:	e2800001 	add	r0, r0, #1
    8754:	e5c43000 	strb	r3, [r4]
    8758:	e2844001 	add	r4, r4, #1
    875c:	e1540008 	cmp	r4, r8
    8760:	2a000002 	bcs	8770 <va_printk+0x248>
    8764:	e5d03000 	ldrb	r3, [r0]
    8768:	e3530000 	cmp	r3, #0
    876c:	1afffff7 	bne	8750 <va_printk+0x228>
    8770:	e5d23000 	ldrb	r3, [r2]
    8774:	e3530000 	cmp	r3, #0
    8778:	0a000001 	beq	8784 <va_printk+0x25c>
    877c:	e1540008 	cmp	r4, r8
    8780:	3affff73 	bcc	8554 <va_printk+0x2c>
    8784:	e2840001 	add	r0, r4, #1
    8788:	e3a03000 	mov	r3, #0
    878c:	e5c43000 	strb	r3, [r4]
    8790:	e06a0000 	rsb	r0, sl, r0
    8794:	e28dd08c 	add	sp, sp, #140	; 0x8c
    8798:	e8bd8ff0 	pop	{r4, r5, r6, r7, r8, r9, sl, fp, pc}
    879c:	00009d34 	andeq	r9, r0, r4, lsr sp
    87a0:	00009ce4 	andeq	r9, r0, r4, ror #25
    87a4:	00009cc4 	andeq	r9, r0, r4, asr #25
    87a8:	00009d50 	andeq	r9, r0, r0, asr sp
    87ac:	00009d78 	andeq	r9, r0, r8, ror sp

000087b0 <clean_reboot>:
    87b0:	e92d4008 	push	{r3, lr}
    87b4:	e59f3014 	ldr	r3, [pc, #20]	; 87d0 <clean_reboot+0x20>
    87b8:	e5933000 	ldr	r3, [r3]
    87bc:	e59f0010 	ldr	r0, [pc, #16]	; 87d4 <clean_reboot+0x24>
    87c0:	e12fff33 	blx	r3
    87c4:	e3a00064 	mov	r0, #100	; 0x64
    87c8:	eb000063 	bl	895c <delay_ms>
    87cc:	eb000038 	bl	88b4 <rpi_reboot>
    87d0:	0000973c 	andeq	r9, r0, ip, lsr r7
    87d4:	00009db0 			; <UNDEFINED> instruction: 0x00009db0

000087d8 <internal_sw_putchar>:
    87d8:	e92d4010 	push	{r4, lr}
    87dc:	e1a04000 	mov	r4, r0
    87e0:	e59f000c 	ldr	r0, [pc, #12]	; 87f4 <internal_sw_putchar+0x1c>
    87e4:	e6ef1074 	uxtb	r1, r4
    87e8:	eb000065 	bl	8984 <sw_uart_putc>
    87ec:	e1a00004 	mov	r0, r4
    87f0:	e8bd8010 	pop	{r4, pc}
    87f4:	0000a334 	andeq	sl, r0, r4, lsr r3

000087f8 <_cstart>:
    87f8:	e92d4008 	push	{r3, lr}
    87fc:	e59f3068 	ldr	r3, [pc, #104]	; 886c <_cstart+0x74>
    8800:	e59f2068 	ldr	r2, [pc, #104]	; 8870 <_cstart+0x78>
    8804:	e3a01000 	mov	r1, #0
    8808:	ea000001 	b	8814 <_cstart+0x1c>
    880c:	e5831000 	str	r1, [r3]
    8810:	e2833004 	add	r3, r3, #4
    8814:	e1530002 	cmp	r3, r2
    8818:	3afffffb 	bcc	880c <_cstart+0x14>
    881c:	eb0003b3 	bl	96f0 <cb_get_block>
    8820:	e3500000 	cmp	r0, #0
    8824:	0a00000e 	beq	8864 <_cstart+0x6c>
    8828:	e5d02004 	ldrb	r2, [r0, #4]
    882c:	e3520002 	cmp	r2, #2
    8830:	1a00000b 	bne	8864 <_cstart+0x6c>
    8834:	e59f1038 	ldr	r1, [pc, #56]	; 8874 <_cstart+0x7c>
    8838:	e59f2038 	ldr	r2, [pc, #56]	; 8878 <_cstart+0x80>
    883c:	e5821000 	str	r1, [r2]
    8840:	e59fc034 	ldr	ip, [pc, #52]	; 887c <_cstart+0x84>
    8844:	e2803008 	add	r3, r0, #8
    8848:	e8930007 	ldm	r3, {r0, r1, r2}
    884c:	e88c0007 	stm	ip, {r0, r1, r2}
    8850:	e1a0000c 	mov	r0, ip
    8854:	e59f1024 	ldr	r1, [pc, #36]	; 8880 <_cstart+0x88>
    8858:	eb00019d 	bl	8ed4 <sw_uart_printk>
    885c:	e59f0020 	ldr	r0, [pc, #32]	; 8884 <_cstart+0x8c>
    8860:	ebfffe62 	bl	81f0 <printk>
    8864:	ebfffdf4 	bl	803c <notmain>
    8868:	eb000011 	bl	88b4 <rpi_reboot>
    886c:	00009f34 	andeq	r9, r0, r4, lsr pc
    8870:	0000a340 	andeq	sl, r0, r0, asr #6
    8874:	000087d8 	ldrdeq	r8, [r0], -r8	; <UNPREDICTABLE>
    8878:	00009738 	andeq	r9, r0, r8, lsr r7
    887c:	0000a334 	andeq	sl, r0, r4, lsr r3
    8880:	00009dbc 			; <UNDEFINED> instruction: 0x00009dbc
    8884:	00009de0 	andeq	r9, r0, r0, ror #27

00008888 <at_user_level>:
    8888:	e10f0000 	mrs	r0, CPSR
    888c:	e200001f 	and	r0, r0, #31
    8890:	e3500010 	cmp	r0, #16
    8894:	13a00000 	movne	r0, #0
    8898:	03a00001 	moveq	r0, #1
    889c:	e12fff1e 	bx	lr

000088a0 <set_user_level>:
    88a0:	e10f3000 	mrs	r3, CPSR
    88a4:	e3c3301f 	bic	r3, r3, #31
    88a8:	e3833010 	orr	r3, r3, #16
    88ac:	e129f003 	msr	CPSR_fc, r3
    88b0:	e12fff1e 	bx	lr

000088b4 <rpi_reboot>:
    88b4:	e92d4008 	push	{r3, lr}
    88b8:	ebfffff2 	bl	8888 <at_user_level>
    88bc:	e3500000 	cmp	r0, #0
    88c0:	0a000000 	beq	88c8 <rpi_reboot+0x14>
    88c4:	ebfffff5 	bl	88a0 <set_user_level>
    88c8:	e3a0001e 	mov	r0, #30
    88cc:	eb000022 	bl	895c <delay_ms>
    88d0:	e59f0014 	ldr	r0, [pc, #20]	; 88ec <rpi_reboot+0x38>
    88d4:	e59f1014 	ldr	r1, [pc, #20]	; 88f0 <rpi_reboot+0x3c>
    88d8:	eb00020f 	bl	911c <PUT32>
    88dc:	e59f0010 	ldr	r0, [pc, #16]	; 88f4 <rpi_reboot+0x40>
    88e0:	e59f1010 	ldr	r1, [pc, #16]	; 88f8 <rpi_reboot+0x44>
    88e4:	eb00020c 	bl	911c <PUT32>
    88e8:	eafffffe 	b	88e8 <rpi_reboot+0x34>
    88ec:	20100024 	andscs	r0, r0, r4, lsr #32
    88f0:	5a000001 	bpl	88fc <delay_cycles>
    88f4:	2010001c 	andscs	r0, r0, ip, lsl r0
    88f8:	5a000020 	bpl	8980 <delay_sec+0x10>

000088fc <delay_cycles>:
    88fc:	ea000001 	b	8908 <delay_cycles+0xc>
    8900:	e2811000 	add	r1, r1, #0
    8904:	e1a00003 	mov	r0, r3
    8908:	e2403001 	sub	r3, r0, #1
    890c:	e3500000 	cmp	r0, #0
    8910:	1afffffa 	bne	8900 <delay_cycles+0x4>
    8914:	e12fff1e 	bx	lr

00008918 <timer_get_usec_raw>:
    8918:	e92d4008 	push	{r3, lr}
    891c:	e59f0004 	ldr	r0, [pc, #4]	; 8928 <timer_get_usec_raw+0x10>
    8920:	eb000209 	bl	914c <GET32>
    8924:	e8bd8008 	pop	{r3, pc}
    8928:	20003004 	andcs	r3, r0, r4

0000892c <timer_get_usec>:
    892c:	e92d4008 	push	{r3, lr}
    8930:	ebfffff8 	bl	8918 <timer_get_usec_raw>
    8934:	e8bd8008 	pop	{r3, pc}

00008938 <delay_us>:
    8938:	e92d4038 	push	{r3, r4, r5, lr}
    893c:	e1a05000 	mov	r5, r0
    8940:	ebfffff9 	bl	892c <timer_get_usec>
    8944:	e1a04000 	mov	r4, r0
    8948:	ebfffff7 	bl	892c <timer_get_usec>
    894c:	e0640000 	rsb	r0, r4, r0
    8950:	e1500005 	cmp	r0, r5
    8954:	3afffffb 	bcc	8948 <delay_us+0x10>
    8958:	e8bd8038 	pop	{r3, r4, r5, pc}

0000895c <delay_ms>:
    895c:	e92d4008 	push	{r3, lr}
    8960:	e3a03ffa 	mov	r3, #1000	; 0x3e8
    8964:	e0000093 	mul	r0, r3, r0
    8968:	ebfffff2 	bl	8938 <delay_us>
    896c:	e8bd8008 	pop	{r3, pc}

00008970 <delay_sec>:
    8970:	e92d4008 	push	{r3, lr}
    8974:	e3a03ffa 	mov	r3, #1000	; 0x3e8
    8978:	e0000093 	mul	r0, r3, r0
    897c:	ebfffff6 	bl	895c <delay_ms>
    8980:	e8bd8008 	pop	{r3, pc}

00008984 <sw_uart_putc>:
    8984:	e92d41f0 	push	{r4, r5, r6, r7, r8, lr}
    8988:	e1a07001 	mov	r7, r1
    898c:	e5d06000 	ldrb	r6, [r0]
    8990:	e5905008 	ldr	r5, [r0, #8]
    8994:	ee1f4f3c 	mrc	15, 0, r4, cr15, cr12, {1}
    8998:	e1a00006 	mov	r0, r6
    899c:	e3a01000 	mov	r1, #0
    89a0:	eb000285 	bl	93bc <gpio_write>
    89a4:	ee1f3f3c 	mrc	15, 0, r3, cr15, cr12, {1}
    89a8:	e0643003 	rsb	r3, r4, r3
    89ac:	e1550003 	cmp	r5, r3
    89b0:	8afffffb 	bhi	89a4 <sw_uart_putc+0x20>
    89b4:	e1a08085 	lsl	r8, r5, #1
    89b8:	e1a00006 	mov	r0, r6
    89bc:	e2071001 	and	r1, r7, #1
    89c0:	eb00027d 	bl	93bc <gpio_write>
    89c4:	ee1f3f3c 	mrc	15, 0, r3, cr15, cr12, {1}
    89c8:	e0643003 	rsb	r3, r4, r3
    89cc:	e1580003 	cmp	r8, r3
    89d0:	8afffffb 	bhi	89c4 <sw_uart_putc+0x40>
    89d4:	e0888005 	add	r8, r8, r5
    89d8:	e1a00006 	mov	r0, r6
    89dc:	e2071002 	and	r1, r7, #2
    89e0:	eb000275 	bl	93bc <gpio_write>
    89e4:	ee1f3f3c 	mrc	15, 0, r3, cr15, cr12, {1}
    89e8:	e0643003 	rsb	r3, r4, r3
    89ec:	e1580003 	cmp	r8, r3
    89f0:	8afffffb 	bhi	89e4 <sw_uart_putc+0x60>
    89f4:	e0888005 	add	r8, r8, r5
    89f8:	e1a00006 	mov	r0, r6
    89fc:	e2071004 	and	r1, r7, #4
    8a00:	eb00026d 	bl	93bc <gpio_write>
    8a04:	ee1f3f3c 	mrc	15, 0, r3, cr15, cr12, {1}
    8a08:	e0643003 	rsb	r3, r4, r3
    8a0c:	e1580003 	cmp	r8, r3
    8a10:	8afffffb 	bhi	8a04 <sw_uart_putc+0x80>
    8a14:	e0888005 	add	r8, r8, r5
    8a18:	e1a00006 	mov	r0, r6
    8a1c:	e2071008 	and	r1, r7, #8
    8a20:	eb000265 	bl	93bc <gpio_write>
    8a24:	ee1f3f3c 	mrc	15, 0, r3, cr15, cr12, {1}
    8a28:	e0643003 	rsb	r3, r4, r3
    8a2c:	e1580003 	cmp	r8, r3
    8a30:	8afffffb 	bhi	8a24 <sw_uart_putc+0xa0>
    8a34:	e0888005 	add	r8, r8, r5
    8a38:	e1a00006 	mov	r0, r6
    8a3c:	e2071010 	and	r1, r7, #16
    8a40:	eb00025d 	bl	93bc <gpio_write>
    8a44:	ee1f3f3c 	mrc	15, 0, r3, cr15, cr12, {1}
    8a48:	e0643003 	rsb	r3, r4, r3
    8a4c:	e1580003 	cmp	r8, r3
    8a50:	8afffffb 	bhi	8a44 <sw_uart_putc+0xc0>
    8a54:	e0888005 	add	r8, r8, r5
    8a58:	e1a00006 	mov	r0, r6
    8a5c:	e2071020 	and	r1, r7, #32
    8a60:	eb000255 	bl	93bc <gpio_write>
    8a64:	ee1f3f3c 	mrc	15, 0, r3, cr15, cr12, {1}
    8a68:	e0643003 	rsb	r3, r4, r3
    8a6c:	e1580003 	cmp	r8, r3
    8a70:	8afffffb 	bhi	8a64 <sw_uart_putc+0xe0>
    8a74:	e0888005 	add	r8, r8, r5
    8a78:	e1a00006 	mov	r0, r6
    8a7c:	e2071040 	and	r1, r7, #64	; 0x40
    8a80:	eb00024d 	bl	93bc <gpio_write>
    8a84:	ee1f3f3c 	mrc	15, 0, r3, cr15, cr12, {1}
    8a88:	e0643003 	rsb	r3, r4, r3
    8a8c:	e1580003 	cmp	r8, r3
    8a90:	8afffffb 	bhi	8a84 <sw_uart_putc+0x100>
    8a94:	e0888005 	add	r8, r8, r5
    8a98:	e1a00006 	mov	r0, r6
    8a9c:	e2071080 	and	r1, r7, #128	; 0x80
    8aa0:	eb000245 	bl	93bc <gpio_write>
    8aa4:	ee1f3f3c 	mrc	15, 0, r3, cr15, cr12, {1}
    8aa8:	e0643003 	rsb	r3, r4, r3
    8aac:	e1580003 	cmp	r8, r3
    8ab0:	8afffffb 	bhi	8aa4 <sw_uart_putc+0x120>
    8ab4:	e0885005 	add	r5, r8, r5
    8ab8:	e1a00006 	mov	r0, r6
    8abc:	e3a01001 	mov	r1, #1
    8ac0:	eb00023d 	bl	93bc <gpio_write>
    8ac4:	ee1f3f3c 	mrc	15, 0, r3, cr15, cr12, {1}
    8ac8:	e0643003 	rsb	r3, r4, r3
    8acc:	e1550003 	cmp	r5, r3
    8ad0:	8afffffb 	bhi	8ac4 <sw_uart_putc+0x140>
    8ad4:	e8bd81f0 	pop	{r4, r5, r6, r7, r8, pc}

00008ad8 <sw_uart_getc_timeout>:
    8ad8:	e92d43f8 	push	{r3, r4, r5, r6, r7, r8, r9, lr}
    8adc:	e1a09000 	mov	r9, r0
    8ae0:	e5d07001 	ldrb	r7, [r0, #1]
    8ae4:	e1a05007 	mov	r5, r7
    8ae8:	e1a06001 	mov	r6, r1
    8aec:	ebffff89 	bl	8918 <timer_get_usec_raw>
    8af0:	e1a04000 	mov	r4, r0
    8af4:	e1a00005 	mov	r0, r5
    8af8:	eb00021c 	bl	9370 <gpio_read>
    8afc:	e3500000 	cmp	r0, #0
    8b00:	0a000005 	beq	8b1c <sw_uart_getc_timeout+0x44>
    8b04:	ebffff83 	bl	8918 <timer_get_usec_raw>
    8b08:	e0640000 	rsb	r0, r4, r0
    8b0c:	e1560000 	cmp	r6, r0
    8b10:	2afffff7 	bcs	8af4 <sw_uart_getc_timeout+0x1c>
    8b14:	e3a03000 	mov	r3, #0
    8b18:	ea000000 	b	8b20 <sw_uart_getc_timeout+0x48>
    8b1c:	e3a03001 	mov	r3, #1
    8b20:	e3530000 	cmp	r3, #0
    8b24:	0a000059 	beq	8c90 <sw_uart_getc_timeout+0x1b8>
    8b28:	ee1f8f3c 	mrc	15, 0, r8, cr15, cr12, {1}
    8b2c:	e5994008 	ldr	r4, [r9, #8]
    8b30:	e08420a4 	add	r2, r4, r4, lsr #1
    8b34:	ee1f3f3c 	mrc	15, 0, r3, cr15, cr12, {1}
    8b38:	e0683003 	rsb	r3, r8, r3
    8b3c:	e1520003 	cmp	r2, r3
    8b40:	8afffffb 	bhi	8b34 <sw_uart_getc_timeout+0x5c>
    8b44:	e0888004 	add	r8, r8, r4
    8b48:	e1a00007 	mov	r0, r7
    8b4c:	eb000207 	bl	9370 <gpio_read>
    8b50:	e1a09750 	asr	r9, r0, r7
    8b54:	ee1f3f3c 	mrc	15, 0, r3, cr15, cr12, {1}
    8b58:	e0683003 	rsb	r3, r8, r3
    8b5c:	e1540003 	cmp	r4, r3
    8b60:	8afffffb 	bhi	8b54 <sw_uart_getc_timeout+0x7c>
    8b64:	e0888004 	add	r8, r8, r4
    8b68:	e1a00007 	mov	r0, r7
    8b6c:	eb0001ff 	bl	9370 <gpio_read>
    8b70:	e1a00750 	asr	r0, r0, r7
    8b74:	e1899080 	orr	r9, r9, r0, lsl #1
    8b78:	ee1f3f3c 	mrc	15, 0, r3, cr15, cr12, {1}
    8b7c:	e0683003 	rsb	r3, r8, r3
    8b80:	e1540003 	cmp	r4, r3
    8b84:	8afffffb 	bhi	8b78 <sw_uart_getc_timeout+0xa0>
    8b88:	e0888004 	add	r8, r8, r4
    8b8c:	e1a00007 	mov	r0, r7
    8b90:	eb0001f6 	bl	9370 <gpio_read>
    8b94:	e1a00750 	asr	r0, r0, r7
    8b98:	e1899100 	orr	r9, r9, r0, lsl #2
    8b9c:	ee1f3f3c 	mrc	15, 0, r3, cr15, cr12, {1}
    8ba0:	e0683003 	rsb	r3, r8, r3
    8ba4:	e1540003 	cmp	r4, r3
    8ba8:	8afffffb 	bhi	8b9c <sw_uart_getc_timeout+0xc4>
    8bac:	e0888004 	add	r8, r8, r4
    8bb0:	e1a00007 	mov	r0, r7
    8bb4:	eb0001ed 	bl	9370 <gpio_read>
    8bb8:	e1a00750 	asr	r0, r0, r7
    8bbc:	e1899180 	orr	r9, r9, r0, lsl #3
    8bc0:	ee1f3f3c 	mrc	15, 0, r3, cr15, cr12, {1}
    8bc4:	e0683003 	rsb	r3, r8, r3
    8bc8:	e1540003 	cmp	r4, r3
    8bcc:	8afffffb 	bhi	8bc0 <sw_uart_getc_timeout+0xe8>
    8bd0:	e0888004 	add	r8, r8, r4
    8bd4:	e1a00007 	mov	r0, r7
    8bd8:	eb0001e4 	bl	9370 <gpio_read>
    8bdc:	e1a00750 	asr	r0, r0, r7
    8be0:	e1899200 	orr	r9, r9, r0, lsl #4
    8be4:	ee1f3f3c 	mrc	15, 0, r3, cr15, cr12, {1}
    8be8:	e0683003 	rsb	r3, r8, r3
    8bec:	e1540003 	cmp	r4, r3
    8bf0:	8afffffb 	bhi	8be4 <sw_uart_getc_timeout+0x10c>
    8bf4:	e0888004 	add	r8, r8, r4
    8bf8:	e1a00007 	mov	r0, r7
    8bfc:	eb0001db 	bl	9370 <gpio_read>
    8c00:	e1a00750 	asr	r0, r0, r7
    8c04:	e1899280 	orr	r9, r9, r0, lsl #5
    8c08:	ee1f3f3c 	mrc	15, 0, r3, cr15, cr12, {1}
    8c0c:	e0683003 	rsb	r3, r8, r3
    8c10:	e1540003 	cmp	r4, r3
    8c14:	8afffffb 	bhi	8c08 <sw_uart_getc_timeout+0x130>
    8c18:	e0888004 	add	r8, r8, r4
    8c1c:	e1a00007 	mov	r0, r7
    8c20:	eb0001d2 	bl	9370 <gpio_read>
    8c24:	e1a00750 	asr	r0, r0, r7
    8c28:	e1899300 	orr	r9, r9, r0, lsl #6
    8c2c:	ee1f3f3c 	mrc	15, 0, r3, cr15, cr12, {1}
    8c30:	e0683003 	rsb	r3, r8, r3
    8c34:	e1540003 	cmp	r4, r3
    8c38:	8afffffb 	bhi	8c2c <sw_uart_getc_timeout+0x154>
    8c3c:	e1a00007 	mov	r0, r7
    8c40:	eb0001ca 	bl	9370 <gpio_read>
    8c44:	e1a00750 	asr	r0, r0, r7
    8c48:	e1899380 	orr	r9, r9, r0, lsl #7
    8c4c:	ebffff31 	bl	8918 <timer_get_usec_raw>
    8c50:	e1a04000 	mov	r4, r0
    8c54:	e1a00005 	mov	r0, r5
    8c58:	eb0001c4 	bl	9370 <gpio_read>
    8c5c:	e3500000 	cmp	r0, #0
    8c60:	0a000005 	beq	8c7c <sw_uart_getc_timeout+0x1a4>
    8c64:	ebffff2b 	bl	8918 <timer_get_usec_raw>
    8c68:	e0640000 	rsb	r0, r4, r0
    8c6c:	e1560000 	cmp	r6, r0
    8c70:	2afffff7 	bcs	8c54 <sw_uart_getc_timeout+0x17c>
    8c74:	e3a03000 	mov	r3, #0
    8c78:	ea000000 	b	8c80 <sw_uart_getc_timeout+0x1a8>
    8c7c:	e3a03001 	mov	r3, #1
    8c80:	e3530000 	cmp	r3, #0
    8c84:	0a000003 	beq	8c98 <sw_uart_getc_timeout+0x1c0>
    8c88:	e1a00009 	mov	r0, r9
    8c8c:	e8bd83f8 	pop	{r3, r4, r5, r6, r7, r8, r9, pc}
    8c90:	e3e00000 	mvn	r0, #0
    8c94:	e8bd83f8 	pop	{r3, r4, r5, r6, r7, r8, r9, pc}
    8c98:	e3e00000 	mvn	r0, #0
    8c9c:	e8bd83f8 	pop	{r3, r4, r5, r6, r7, r8, r9, pc}

00008ca0 <sw_uart_gets_until>:
    8ca0:	e92d47f0 	push	{r4, r5, r6, r7, r8, r9, sl, lr}
    8ca4:	e1a08000 	mov	r8, r0
    8ca8:	e1a06001 	mov	r6, r1
    8cac:	e1a09003 	mov	r9, r3
    8cb0:	e59da020 	ldr	sl, [sp, #32]
    8cb4:	e3520000 	cmp	r2, #0
    8cb8:	1a000006 	bne	8cd8 <sw_uart_gets_until+0x38>
    8cbc:	ebfffd66 	bl	825c <rpi_reset_putc>
    8cc0:	e59f005c 	ldr	r0, [pc, #92]	; 8d24 <sw_uart_gets_until+0x84>
    8cc4:	e59f105c 	ldr	r1, [pc, #92]	; 8d28 <sw_uart_gets_until+0x88>
    8cc8:	e59f205c 	ldr	r2, [pc, #92]	; 8d2c <sw_uart_gets_until+0x8c>
    8ccc:	e3a0306d 	mov	r3, #109	; 0x6d
    8cd0:	ebfffd46 	bl	81f0 <printk>
    8cd4:	ebfffeb5 	bl	87b0 <clean_reboot>
    8cd8:	e3a04000 	mov	r4, #0
    8cdc:	e5c14000 	strb	r4, [r1]
    8ce0:	e2427001 	sub	r7, r2, #1
    8ce4:	ea000007 	b	8d08 <sw_uart_gets_until+0x68>
    8ce8:	e1a00008 	mov	r0, r8
    8cec:	e1a0100a 	mov	r1, sl
    8cf0:	ebffff78 	bl	8ad8 <sw_uart_getc_timeout>
    8cf4:	e6ef0070 	uxtb	r0, r0
    8cf8:	e1500009 	cmp	r0, r9
    8cfc:	0a000004 	beq	8d14 <sw_uart_gets_until+0x74>
    8d00:	e7c60005 	strb	r0, [r6, r5]
    8d04:	e2844001 	add	r4, r4, #1
    8d08:	e1a05004 	mov	r5, r4
    8d0c:	e1540007 	cmp	r4, r7
    8d10:	3afffff4 	bcc	8ce8 <sw_uart_gets_until+0x48>
    8d14:	e3a03000 	mov	r3, #0
    8d18:	e7c63005 	strb	r3, [r6, r5]
    8d1c:	e1a00004 	mov	r0, r4
    8d20:	e8bd87f0 	pop	{r4, r5, r6, r7, r8, r9, sl, pc}
    8d24:	00009e64 	andeq	r9, r0, r4, ror #28
    8d28:	00009e80 	andeq	r9, r0, r0, lsl #29
    8d2c:	00009dec 	andeq	r9, r0, ip, ror #27

00008d30 <sw_uart_gets_timeout>:
    8d30:	e92d41f0 	push	{r4, r5, r6, r7, r8, lr}
    8d34:	e1a07000 	mov	r7, r0
    8d38:	e1a05001 	mov	r5, r1
    8d3c:	e1a08003 	mov	r8, r3
    8d40:	e3520000 	cmp	r2, #0
    8d44:	1a000006 	bne	8d64 <sw_uart_gets_timeout+0x34>
    8d48:	ebfffd43 	bl	825c <rpi_reset_putc>
    8d4c:	e59f004c 	ldr	r0, [pc, #76]	; 8da0 <sw_uart_gets_timeout+0x70>
    8d50:	e59f104c 	ldr	r1, [pc, #76]	; 8da4 <sw_uart_gets_timeout+0x74>
    8d54:	e59f204c 	ldr	r2, [pc, #76]	; 8da8 <sw_uart_gets_timeout+0x78>
    8d58:	e3a03083 	mov	r3, #131	; 0x83
    8d5c:	ebfffd23 	bl	81f0 <printk>
    8d60:	ebfffe92 	bl	87b0 <clean_reboot>
    8d64:	e3a04000 	mov	r4, #0
    8d68:	e5c14000 	strb	r4, [r1]
    8d6c:	e2426001 	sub	r6, r2, #1
    8d70:	ea000004 	b	8d88 <sw_uart_gets_timeout+0x58>
    8d74:	e1a00007 	mov	r0, r7
    8d78:	e1a01008 	mov	r1, r8
    8d7c:	ebffff55 	bl	8ad8 <sw_uart_getc_timeout>
    8d80:	e7c50004 	strb	r0, [r5, r4]
    8d84:	e2844001 	add	r4, r4, #1
    8d88:	e1540006 	cmp	r4, r6
    8d8c:	3afffff8 	bcc	8d74 <sw_uart_gets_timeout+0x44>
    8d90:	e3a03000 	mov	r3, #0
    8d94:	e7c53004 	strb	r3, [r5, r4]
    8d98:	e1a00004 	mov	r0, r4
    8d9c:	e8bd81f0 	pop	{r4, r5, r6, r7, r8, pc}
    8da0:	00009e64 	andeq	r9, r0, r4, ror #28
    8da4:	00009e80 	andeq	r9, r0, r0, lsl #29
    8da8:	00009e00 	andeq	r9, r0, r0, lsl #28

00008dac <sw_uart_init_helper>:
    8dac:	e92d41f0 	push	{r4, r5, r6, r7, r8, lr}
    8db0:	e1a04000 	mov	r4, r0
    8db4:	e1a06001 	mov	r6, r1
    8db8:	e1a08002 	mov	r8, r2
    8dbc:	e1a05003 	mov	r5, r3
    8dc0:	e59d7018 	ldr	r7, [sp, #24]
    8dc4:	e1a00001 	mov	r0, r1
    8dc8:	eb0000e4 	bl	9160 <gpio_set_output>
    8dcc:	e1a00008 	mov	r0, r8
    8dd0:	eb000133 	bl	92a4 <gpio_set_input>
    8dd4:	e3a03001 	mov	r3, #1
    8dd8:	ee0f3f1c 	mcr	15, 0, r3, cr15, cr12, {0}
    8ddc:	e1a00006 	mov	r0, r6
    8de0:	e3a01001 	mov	r1, #1
    8de4:	eb000174 	bl	93bc <gpio_write>
    8de8:	e0020795 	mul	r2, r5, r7
    8dec:	e59f3068 	ldr	r3, [pc, #104]	; 8e5c <sw_uart_init_helper+0xb0>
    8df0:	e0653003 	rsb	r3, r5, r3
    8df4:	e1530002 	cmp	r3, r2
    8df8:	8a000005 	bhi	8e14 <sw_uart_init_helper+0x68>
    8dfc:	e59f3058 	ldr	r3, [pc, #88]	; 8e5c <sw_uart_init_helper+0xb0>
    8e00:	e0853003 	add	r3, r5, r3
    8e04:	e1530002 	cmp	r3, r2
    8e08:	2a000003 	bcs	8e1c <sw_uart_init_helper+0x70>
    8e0c:	e3a03000 	mov	r3, #0
    8e10:	ea000002 	b	8e20 <sw_uart_init_helper+0x74>
    8e14:	e3a03000 	mov	r3, #0
    8e18:	ea000000 	b	8e20 <sw_uart_init_helper+0x74>
    8e1c:	e3a03001 	mov	r3, #1
    8e20:	e3530000 	cmp	r3, #0
    8e24:	1a000006 	bne	8e44 <sw_uart_init_helper+0x98>
    8e28:	ebfffd0b 	bl	825c <rpi_reset_putc>
    8e2c:	e59f002c 	ldr	r0, [pc, #44]	; 8e60 <sw_uart_init_helper+0xb4>
    8e30:	e59f102c 	ldr	r1, [pc, #44]	; 8e64 <sw_uart_init_helper+0xb8>
    8e34:	e59f202c 	ldr	r2, [pc, #44]	; 8e68 <sw_uart_init_helper+0xbc>
    8e38:	e3a0309d 	mov	r3, #157	; 0x9d
    8e3c:	ebfffceb 	bl	81f0 <printk>
    8e40:	ebfffe5a 	bl	87b0 <clean_reboot>
    8e44:	e5c46000 	strb	r6, [r4]
    8e48:	e5c48001 	strb	r8, [r4, #1]
    8e4c:	e5845004 	str	r5, [r4, #4]
    8e50:	e5847008 	str	r7, [r4, #8]
    8e54:	e1a00004 	mov	r0, r4
    8e58:	e8bd81f0 	pop	{r4, r5, r6, r7, r8, pc}
    8e5c:	29b92700 	ldmibcs	r9!, {r8, r9, sl, sp}
    8e60:	00009e94 	muleq	r0, r4, lr
    8e64:	00009e80 	andeq	r9, r0, r0, lsl #29
    8e68:	00009e18 	andeq	r9, r0, r8, lsl lr

00008e6c <sw_uart_getc>:
    8e6c:	e92d4008 	push	{r3, lr}
    8e70:	e3e01000 	mvn	r1, #0
    8e74:	ebffff17 	bl	8ad8 <sw_uart_getc_timeout>
    8e78:	e3500000 	cmp	r0, #0
    8e7c:	a8bd8008 	popge	{r3, pc}
    8e80:	ebfffcf5 	bl	825c <rpi_reset_putc>
    8e84:	e59f0010 	ldr	r0, [pc, #16]	; 8e9c <sw_uart_getc+0x30>
    8e88:	e59f1010 	ldr	r1, [pc, #16]	; 8ea0 <sw_uart_getc+0x34>
    8e8c:	e59f2010 	ldr	r2, [pc, #16]	; 8ea4 <sw_uart_getc+0x38>
    8e90:	e3a030ac 	mov	r3, #172	; 0xac
    8e94:	ebfffcd5 	bl	81f0 <printk>
    8e98:	ebfffe44 	bl	87b0 <clean_reboot>
    8e9c:	00009ed8 	ldrdeq	r9, [r0], -r8
    8ea0:	00009e80 	andeq	r9, r0, r0, lsl #29
    8ea4:	00009e2c 	andeq	r9, r0, ip, lsr #28

00008ea8 <sw_uart_putk>:
    8ea8:	e92d4038 	push	{r3, r4, r5, lr}
    8eac:	e1a05000 	mov	r5, r0
    8eb0:	e1a04001 	mov	r4, r1
    8eb4:	ea000002 	b	8ec4 <sw_uart_putk+0x1c>
    8eb8:	e1a00005 	mov	r0, r5
    8ebc:	ebfffeb0 	bl	8984 <sw_uart_putc>
    8ec0:	e2844001 	add	r4, r4, #1
    8ec4:	e5d41000 	ldrb	r1, [r4]
    8ec8:	e3510000 	cmp	r1, #0
    8ecc:	1afffff9 	bne	8eb8 <sw_uart_putk+0x10>
    8ed0:	e8bd8038 	pop	{r3, r4, r5, pc}

00008ed4 <sw_uart_printk>:
    8ed4:	e92d000e 	push	{r1, r2, r3}
    8ed8:	e92d4030 	push	{r4, r5, lr}
    8edc:	e24dde1d 	sub	sp, sp, #464	; 0x1d0
    8ee0:	e1a05000 	mov	r5, r0
    8ee4:	e28d3e1e 	add	r3, sp, #480	; 0x1e0
    8ee8:	e58d3000 	str	r3, [sp]
    8eec:	e28d0004 	add	r0, sp, #4
    8ef0:	e3a01f73 	mov	r1, #460	; 0x1cc
    8ef4:	e59d21dc 	ldr	r2, [sp, #476]	; 0x1dc
    8ef8:	ebfffd8a 	bl	8528 <va_printk>
    8efc:	e1a04000 	mov	r4, r0
    8f00:	e59f3040 	ldr	r3, [pc, #64]	; 8f48 <sw_uart_printk+0x74>
    8f04:	e1500003 	cmp	r0, r3
    8f08:	9a000006 	bls	8f28 <sw_uart_printk+0x54>
    8f0c:	ebfffcd2 	bl	825c <rpi_reset_putc>
    8f10:	e59f0034 	ldr	r0, [pc, #52]	; 8f4c <sw_uart_printk+0x78>
    8f14:	e59f1034 	ldr	r1, [pc, #52]	; 8f50 <sw_uart_printk+0x7c>
    8f18:	e59f2034 	ldr	r2, [pc, #52]	; 8f54 <sw_uart_printk+0x80>
    8f1c:	e3a030c0 	mov	r3, #192	; 0xc0
    8f20:	ebfffcb2 	bl	81f0 <printk>
    8f24:	ebfffe21 	bl	87b0 <clean_reboot>
    8f28:	e1a00005 	mov	r0, r5
    8f2c:	e28d1004 	add	r1, sp, #4
    8f30:	ebffffdc 	bl	8ea8 <sw_uart_putk>
    8f34:	e1a00004 	mov	r0, r4
    8f38:	e28dde1d 	add	sp, sp, #464	; 0x1d0
    8f3c:	e8bd4030 	pop	{r4, r5, lr}
    8f40:	e28dd00c 	add	sp, sp, #12
    8f44:	e12fff1e 	bx	lr
    8f48:	000001ca 	andeq	r0, r0, sl, asr #3
    8f4c:	00009f10 	andeq	r9, r0, r0, lsl pc
    8f50:	00009e80 	andeq	r9, r0, r0, lsl #29
    8f54:	00009e3c 	andeq	r9, r0, ip, lsr lr

00008f58 <sw_uart_gets_until_blk>:
    8f58:	e52de004 	push	{lr}		; (str lr, [sp, #-4]!)
    8f5c:	e24dd00c 	sub	sp, sp, #12
    8f60:	e3e0c000 	mvn	ip, #0
    8f64:	e58dc000 	str	ip, [sp]
    8f68:	ebffff4c 	bl	8ca0 <sw_uart_gets_until>
    8f6c:	e3500000 	cmp	r0, #0
    8f70:	aa000006 	bge	8f90 <sw_uart_gets_until_blk+0x38>
    8f74:	ebfffcb8 	bl	825c <rpi_reset_putc>
    8f78:	e59f0018 	ldr	r0, [pc, #24]	; 8f98 <sw_uart_gets_until_blk+0x40>
    8f7c:	e59f1018 	ldr	r1, [pc, #24]	; 8f9c <sw_uart_gets_until_blk+0x44>
    8f80:	e59f2018 	ldr	r2, [pc, #24]	; 8fa0 <sw_uart_gets_until_blk+0x48>
    8f84:	e3a030c8 	mov	r3, #200	; 0xc8
    8f88:	ebfffc98 	bl	81f0 <printk>
    8f8c:	ebfffe07 	bl	87b0 <clean_reboot>
    8f90:	e28dd00c 	add	sp, sp, #12
    8f94:	e49df004 	pop	{pc}		; (ldr pc, [sp], #4)
    8f98:	00009ed8 	ldrdeq	r9, [r0], -r8
    8f9c:	00009e80 	andeq	r9, r0, r0, lsl #29
    8fa0:	00009e4c 	andeq	r9, r0, ip, asr #28

00008fa4 <uart_init>:
    8fa4:	e92d4038 	push	{r3, r4, r5, lr}
    8fa8:	eb000053 	bl	90fc <dev_barrier>
    8fac:	e3a0000e 	mov	r0, #14
    8fb0:	e3a01002 	mov	r1, #2
    8fb4:	eb000109 	bl	93e0 <gpio_set_function>
    8fb8:	e3a0000f 	mov	r0, #15
    8fbc:	e3a01002 	mov	r1, #2
    8fc0:	eb000106 	bl	93e0 <gpio_set_function>
    8fc4:	eb00004c 	bl	90fc <dev_barrier>
    8fc8:	e59f4068 	ldr	r4, [pc, #104]	; 9038 <uart_init+0x94>
    8fcc:	e5945000 	ldr	r5, [r4]
    8fd0:	e1a00005 	mov	r0, r5
    8fd4:	eb00005a 	bl	9144 <get32>
    8fd8:	e3801001 	orr	r1, r0, #1
    8fdc:	e1a00005 	mov	r0, r5
    8fe0:	eb00004b 	bl	9114 <put32>
    8fe4:	eb000044 	bl	90fc <dev_barrier>
    8fe8:	e5940004 	ldr	r0, [r4, #4]
    8fec:	e3a01000 	mov	r1, #0
    8ff0:	eb000047 	bl	9114 <put32>
    8ff4:	e5940008 	ldr	r0, [r4, #8]
    8ff8:	e3a01000 	mov	r1, #0
    8ffc:	eb000044 	bl	9114 <put32>
    9000:	e594000c 	ldr	r0, [r4, #12]
    9004:	e3a01006 	mov	r1, #6
    9008:	eb000041 	bl	9114 <put32>
    900c:	e5940010 	ldr	r0, [r4, #16]
    9010:	e3a01003 	mov	r1, #3
    9014:	eb00003e 	bl	9114 <put32>
    9018:	e5940014 	ldr	r0, [r4, #20]
    901c:	e59f1018 	ldr	r1, [pc, #24]	; 903c <uart_init+0x98>
    9020:	eb00003b 	bl	9114 <put32>
    9024:	e5940004 	ldr	r0, [r4, #4]
    9028:	e3a01003 	mov	r1, #3
    902c:	eb000038 	bl	9114 <put32>
    9030:	eb000031 	bl	90fc <dev_barrier>
    9034:	e8bd8038 	pop	{r3, r4, r5, pc}
    9038:	00009740 	andeq	r9, r0, r0, asr #14
    903c:	0000010e 	andeq	r0, r0, lr, lsl #2

00009040 <uart_can_getc>:
    9040:	e92d4008 	push	{r3, lr}
    9044:	e59f300c 	ldr	r3, [pc, #12]	; 9058 <uart_can_getc+0x18>
    9048:	e5930018 	ldr	r0, [r3, #24]
    904c:	eb00003c 	bl	9144 <get32>
    9050:	e2000001 	and	r0, r0, #1
    9054:	e8bd8008 	pop	{r3, pc}
    9058:	00009740 	andeq	r9, r0, r0, asr #14

0000905c <uart_getc>:
    905c:	e92d4008 	push	{r3, lr}
    9060:	ebfffff6 	bl	9040 <uart_can_getc>
    9064:	e3500000 	cmp	r0, #0
    9068:	0afffffc 	beq	9060 <uart_getc+0x4>
    906c:	e59f300c 	ldr	r3, [pc, #12]	; 9080 <uart_getc+0x24>
    9070:	e593001c 	ldr	r0, [r3, #28]
    9074:	eb000032 	bl	9144 <get32>
    9078:	e6ef0070 	uxtb	r0, r0
    907c:	e8bd8008 	pop	{r3, pc}
    9080:	00009740 	andeq	r9, r0, r0, asr #14

00009084 <uart_can_putc>:
    9084:	e92d4008 	push	{r3, lr}
    9088:	e59f300c 	ldr	r3, [pc, #12]	; 909c <uart_can_putc+0x18>
    908c:	e5930018 	ldr	r0, [r3, #24]
    9090:	eb00002b 	bl	9144 <get32>
    9094:	e2000020 	and	r0, r0, #32
    9098:	e8bd8008 	pop	{r3, pc}
    909c:	00009740 	andeq	r9, r0, r0, asr #14

000090a0 <uart_putc>:
    90a0:	e92d4010 	push	{r4, lr}
    90a4:	e1a04000 	mov	r4, r0
    90a8:	ebfffff5 	bl	9084 <uart_can_putc>
    90ac:	e3500000 	cmp	r0, #0
    90b0:	0afffffc 	beq	90a8 <uart_putc+0x8>
    90b4:	e59f300c 	ldr	r3, [pc, #12]	; 90c8 <uart_putc+0x28>
    90b8:	e593001c 	ldr	r0, [r3, #28]
    90bc:	e1a01004 	mov	r1, r4
    90c0:	eb000013 	bl	9114 <put32>
    90c4:	e8bd8010 	pop	{r4, pc}
    90c8:	00009740 	andeq	r9, r0, r0, asr #14

000090cc <uart_has_data>:
    90cc:	e92d4008 	push	{r3, lr}
    90d0:	ebffffda 	bl	9040 <uart_can_getc>
    90d4:	e8bd8008 	pop	{r3, pc}

000090d8 <uart_getc_async>:
    90d8:	e92d4008 	push	{r3, lr}
    90dc:	ebfffffa 	bl	90cc <uart_has_data>
    90e0:	e3500000 	cmp	r0, #0
    90e4:	0a000001 	beq	90f0 <uart_getc_async+0x18>
    90e8:	ebffffdb 	bl	905c <uart_getc>
    90ec:	e8bd8008 	pop	{r3, pc}
    90f0:	e3e00000 	mvn	r0, #0
    90f4:	e8bd8008 	pop	{r3, pc}

000090f8 <BRANCHTO>:
    90f8:	e12fff10 	bx	r0

000090fc <dev_barrier>:
    90fc:	ea000002 	b	910c <dsb>

00009100 <dmb>:
    9100:	e3a00000 	mov	r0, #0
    9104:	ee070fba 	mcr	15, 0, r0, cr7, cr10, {5}
    9108:	e12fff1e 	bx	lr

0000910c <dsb>:
    910c:	ee070f9a 	mcr	15, 0, r0, cr7, cr10, {4}
    9110:	e12fff1e 	bx	lr

00009114 <put32>:
    9114:	e5801000 	str	r1, [r0]
    9118:	e12fff1e 	bx	lr

0000911c <PUT32>:
    911c:	e5801000 	str	r1, [r0]
    9120:	e12fff1e 	bx	lr

00009124 <put16>:
    9124:	e1c010b0 	strh	r1, [r0]
    9128:	e12fff1e 	bx	lr

0000912c <PUT16>:
    912c:	e1c010b0 	strh	r1, [r0]
    9130:	e12fff1e 	bx	lr

00009134 <put8>:
    9134:	e5c01000 	strb	r1, [r0]
    9138:	e12fff1e 	bx	lr

0000913c <PUT8>:
    913c:	e5c01000 	strb	r1, [r0]
    9140:	e12fff1e 	bx	lr

00009144 <get32>:
    9144:	e5900000 	ldr	r0, [r0]
    9148:	e12fff1e 	bx	lr

0000914c <GET32>:
    914c:	e5900000 	ldr	r0, [r0]
    9150:	e12fff1e 	bx	lr

00009154 <GETPC>:
    9154:	e1a0000e 	mov	r0, lr
    9158:	e12fff1e 	bx	lr

0000915c <dummy>:
    915c:	e12fff1e 	bx	lr

00009160 <gpio_set_output>:
    9160:	e92d4038 	push	{r3, r4, r5, lr}
    9164:	e1a04000 	mov	r4, r0
    9168:	e350001f 	cmp	r0, #31
    916c:	88bd8038 	pophi	{r3, r4, r5, pc}
    9170:	e59f30b4 	ldr	r3, [pc, #180]	; 922c <gpio_set_output+0xcc>
    9174:	e0832093 	umull	r2, r3, r3, r0
    9178:	e1a031a3 	lsr	r3, r3, #3
    917c:	e3530005 	cmp	r3, #5
    9180:	979ff103 	ldrls	pc, [pc, r3, lsl #2]
    9184:	ea000017 	b	91e8 <gpio_set_output+0x88>
    9188:	000091a0 	andeq	r9, r0, r0, lsr #3
    918c:	000091ac 	andeq	r9, r0, ip, lsr #3
    9190:	000091b8 			; <UNDEFINED> instruction: 0x000091b8
    9194:	000091c4 	andeq	r9, r0, r4, asr #3
    9198:	000091d0 	ldrdeq	r9, [r0], -r0
    919c:	000091dc 	ldrdeq	r9, [r0], -ip
    91a0:	e59f3088 	ldr	r3, [pc, #136]	; 9230 <gpio_set_output+0xd0>
    91a4:	e5935000 	ldr	r5, [r3]
    91a8:	ea00000f 	b	91ec <gpio_set_output+0x8c>
    91ac:	e59f307c 	ldr	r3, [pc, #124]	; 9230 <gpio_set_output+0xd0>
    91b0:	e5935004 	ldr	r5, [r3, #4]
    91b4:	ea00000c 	b	91ec <gpio_set_output+0x8c>
    91b8:	e59f3070 	ldr	r3, [pc, #112]	; 9230 <gpio_set_output+0xd0>
    91bc:	e5935008 	ldr	r5, [r3, #8]
    91c0:	ea000009 	b	91ec <gpio_set_output+0x8c>
    91c4:	e59f3064 	ldr	r3, [pc, #100]	; 9230 <gpio_set_output+0xd0>
    91c8:	e593500c 	ldr	r5, [r3, #12]
    91cc:	ea000006 	b	91ec <gpio_set_output+0x8c>
    91d0:	e59f3058 	ldr	r3, [pc, #88]	; 9230 <gpio_set_output+0xd0>
    91d4:	e5935010 	ldr	r5, [r3, #16]
    91d8:	ea000003 	b	91ec <gpio_set_output+0x8c>
    91dc:	e59f304c 	ldr	r3, [pc, #76]	; 9230 <gpio_set_output+0xd0>
    91e0:	e5935014 	ldr	r5, [r3, #20]
    91e4:	ea000000 	b	91ec <gpio_set_output+0x8c>
    91e8:	e3a05000 	mov	r5, #0
    91ec:	e1a00005 	mov	r0, r5
    91f0:	ebffffd3 	bl	9144 <get32>
    91f4:	e59f1030 	ldr	r1, [pc, #48]	; 922c <gpio_set_output+0xcc>
    91f8:	e0813491 	umull	r3, r1, r1, r4
    91fc:	e1a011a1 	lsr	r1, r1, #3
    9200:	e0811101 	add	r1, r1, r1, lsl #2
    9204:	e1a01081 	lsl	r1, r1, #1
    9208:	e0611004 	rsb	r1, r1, r4
    920c:	e0811081 	add	r1, r1, r1, lsl #1
    9210:	e3a03007 	mov	r3, #7
    9214:	e1c03113 	bic	r3, r0, r3, lsl r1
    9218:	e1a00005 	mov	r0, r5
    921c:	e3a02001 	mov	r2, #1
    9220:	e1831112 	orr	r1, r3, r2, lsl r1
    9224:	ebffffba 	bl	9114 <put32>
    9228:	e8bd8038 	pop	{r3, r4, r5, pc}
    922c:	cccccccd 	stclgt	12, cr12, [ip], {205}	; 0xcd
    9230:	00009774 	andeq	r9, r0, r4, ror r7

00009234 <gpio_set_on>:
    9234:	e92d4008 	push	{r3, lr}
    9238:	e350001f 	cmp	r0, #31
    923c:	88bd8008 	pophi	{r3, pc}
    9240:	959f3020 	ldrls	r3, [pc, #32]	; 9268 <gpio_set_on+0x34>
    9244:	95932018 	ldrls	r2, [r3, #24]
    9248:	859f3018 	ldrhi	r3, [pc, #24]	; 9268 <gpio_set_on+0x34>
    924c:	8593201c 	ldrhi	r2, [r3, #28]
    9250:	e200301f 	and	r3, r0, #31
    9254:	e1a00002 	mov	r0, r2
    9258:	e3a01001 	mov	r1, #1
    925c:	e1a01311 	lsl	r1, r1, r3
    9260:	ebffffab 	bl	9114 <put32>
    9264:	e8bd8008 	pop	{r3, pc}
    9268:	00009774 	andeq	r9, r0, r4, ror r7

0000926c <gpio_set_off>:
    926c:	e92d4008 	push	{r3, lr}
    9270:	e350001f 	cmp	r0, #31
    9274:	88bd8008 	pophi	{r3, pc}
    9278:	959f3020 	ldrls	r3, [pc, #32]	; 92a0 <gpio_set_off+0x34>
    927c:	95932020 	ldrls	r2, [r3, #32]
    9280:	859f3018 	ldrhi	r3, [pc, #24]	; 92a0 <gpio_set_off+0x34>
    9284:	85932024 	ldrhi	r2, [r3, #36]	; 0x24
    9288:	e200301f 	and	r3, r0, #31
    928c:	e1a00002 	mov	r0, r2
    9290:	e3a01001 	mov	r1, #1
    9294:	e1a01311 	lsl	r1, r1, r3
    9298:	ebffff9d 	bl	9114 <put32>
    929c:	e8bd8008 	pop	{r3, pc}
    92a0:	00009774 	andeq	r9, r0, r4, ror r7

000092a4 <gpio_set_input>:
    92a4:	e92d4038 	push	{r3, r4, r5, lr}
    92a8:	e1a04000 	mov	r4, r0
    92ac:	e350001f 	cmp	r0, #31
    92b0:	88bd8038 	pophi	{r3, r4, r5, pc}
    92b4:	e59f30ac 	ldr	r3, [pc, #172]	; 9368 <gpio_set_input+0xc4>
    92b8:	e0832093 	umull	r2, r3, r3, r0
    92bc:	e1a031a3 	lsr	r3, r3, #3
    92c0:	e3530005 	cmp	r3, #5
    92c4:	979ff103 	ldrls	pc, [pc, r3, lsl #2]
    92c8:	ea000017 	b	932c <gpio_set_input+0x88>
    92cc:	000092e4 	andeq	r9, r0, r4, ror #5
    92d0:	000092f0 	strdeq	r9, [r0], -r0
    92d4:	000092fc 	strdeq	r9, [r0], -ip
    92d8:	00009308 	andeq	r9, r0, r8, lsl #6
    92dc:	00009314 	andeq	r9, r0, r4, lsl r3
    92e0:	00009320 	andeq	r9, r0, r0, lsr #6
    92e4:	e59f3080 	ldr	r3, [pc, #128]	; 936c <gpio_set_input+0xc8>
    92e8:	e5935000 	ldr	r5, [r3]
    92ec:	ea00000f 	b	9330 <gpio_set_input+0x8c>
    92f0:	e59f3074 	ldr	r3, [pc, #116]	; 936c <gpio_set_input+0xc8>
    92f4:	e5935004 	ldr	r5, [r3, #4]
    92f8:	ea00000c 	b	9330 <gpio_set_input+0x8c>
    92fc:	e59f3068 	ldr	r3, [pc, #104]	; 936c <gpio_set_input+0xc8>
    9300:	e5935008 	ldr	r5, [r3, #8]
    9304:	ea000009 	b	9330 <gpio_set_input+0x8c>
    9308:	e59f305c 	ldr	r3, [pc, #92]	; 936c <gpio_set_input+0xc8>
    930c:	e593500c 	ldr	r5, [r3, #12]
    9310:	ea000006 	b	9330 <gpio_set_input+0x8c>
    9314:	e59f3050 	ldr	r3, [pc, #80]	; 936c <gpio_set_input+0xc8>
    9318:	e5935010 	ldr	r5, [r3, #16]
    931c:	ea000003 	b	9330 <gpio_set_input+0x8c>
    9320:	e59f3044 	ldr	r3, [pc, #68]	; 936c <gpio_set_input+0xc8>
    9324:	e5935014 	ldr	r5, [r3, #20]
    9328:	ea000000 	b	9330 <gpio_set_input+0x8c>
    932c:	e3a05000 	mov	r5, #0
    9330:	e1a00005 	mov	r0, r5
    9334:	ebffff82 	bl	9144 <get32>
    9338:	e59f1028 	ldr	r1, [pc, #40]	; 9368 <gpio_set_input+0xc4>
    933c:	e0813491 	umull	r3, r1, r1, r4
    9340:	e1a011a1 	lsr	r1, r1, #3
    9344:	e0811101 	add	r1, r1, r1, lsl #2
    9348:	e1a01081 	lsl	r1, r1, #1
    934c:	e0611004 	rsb	r1, r1, r4
    9350:	e0811081 	add	r1, r1, r1, lsl #1
    9354:	e3a03007 	mov	r3, #7
    9358:	e1c01113 	bic	r1, r0, r3, lsl r1
    935c:	e1a00005 	mov	r0, r5
    9360:	ebffff6b 	bl	9114 <put32>
    9364:	e8bd8038 	pop	{r3, r4, r5, pc}
    9368:	cccccccd 	stclgt	12, cr12, [ip], {205}	; 0xcd
    936c:	00009774 	andeq	r9, r0, r4, ror r7

00009370 <gpio_read>:
    9370:	e92d4010 	push	{r4, lr}
    9374:	e1a04000 	mov	r4, r0
    9378:	e350001f 	cmp	r0, #31
    937c:	8a00000b 	bhi	93b0 <gpio_read+0x40>
    9380:	8a000003 	bhi	9394 <gpio_read+0x24>
    9384:	e59f302c 	ldr	r3, [pc, #44]	; 93b8 <gpio_read+0x48>
    9388:	e5930028 	ldr	r0, [r3, #40]	; 0x28
    938c:	ebffff6c 	bl	9144 <get32>
    9390:	ea000002 	b	93a0 <gpio_read+0x30>
    9394:	e59f301c 	ldr	r3, [pc, #28]	; 93b8 <gpio_read+0x48>
    9398:	e593002c 	ldr	r0, [r3, #44]	; 0x2c
    939c:	ebffff68 	bl	9144 <get32>
    93a0:	e204401f 	and	r4, r4, #31
    93a4:	e3a03001 	mov	r3, #1
    93a8:	e0000413 	and	r0, r0, r3, lsl r4
    93ac:	e8bd8010 	pop	{r4, pc}
    93b0:	e3e00000 	mvn	r0, #0
    93b4:	e8bd8010 	pop	{r4, pc}
    93b8:	00009774 	andeq	r9, r0, r4, ror r7

000093bc <gpio_write>:
    93bc:	e92d4008 	push	{r3, lr}
    93c0:	e350001f 	cmp	r0, #31
    93c4:	88bd8008 	pophi	{r3, pc}
    93c8:	e3510000 	cmp	r1, #0
    93cc:	0a000001 	beq	93d8 <gpio_write+0x1c>
    93d0:	ebffff97 	bl	9234 <gpio_set_on>
    93d4:	e8bd8008 	pop	{r3, pc}
    93d8:	ebffffa3 	bl	926c <gpio_set_off>
    93dc:	e8bd8008 	pop	{r3, pc}

000093e0 <gpio_set_function>:
    93e0:	e92d4070 	push	{r4, r5, r6, lr}
    93e4:	e1a04000 	mov	r4, r0
    93e8:	e1a05001 	mov	r5, r1
    93ec:	e3510007 	cmp	r1, #7
    93f0:	9350001f 	cmpls	r0, #31
    93f4:	88bd8070 	pophi	{r4, r5, r6, pc}
    93f8:	e59f30b0 	ldr	r3, [pc, #176]	; 94b0 <gpio_set_function+0xd0>
    93fc:	e0832093 	umull	r2, r3, r3, r0
    9400:	e1a031a3 	lsr	r3, r3, #3
    9404:	e3530005 	cmp	r3, #5
    9408:	979ff103 	ldrls	pc, [pc, r3, lsl #2]
    940c:	ea000017 	b	9470 <gpio_set_function+0x90>
    9410:	00009428 	andeq	r9, r0, r8, lsr #8
    9414:	00009434 	andeq	r9, r0, r4, lsr r4
    9418:	00009440 	andeq	r9, r0, r0, asr #8
    941c:	0000944c 	andeq	r9, r0, ip, asr #8
    9420:	00009458 	andeq	r9, r0, r8, asr r4
    9424:	00009464 	andeq	r9, r0, r4, ror #8
    9428:	e59f3084 	ldr	r3, [pc, #132]	; 94b4 <gpio_set_function+0xd4>
    942c:	e5936000 	ldr	r6, [r3]
    9430:	ea00000f 	b	9474 <gpio_set_function+0x94>
    9434:	e59f3078 	ldr	r3, [pc, #120]	; 94b4 <gpio_set_function+0xd4>
    9438:	e5936004 	ldr	r6, [r3, #4]
    943c:	ea00000c 	b	9474 <gpio_set_function+0x94>
    9440:	e59f306c 	ldr	r3, [pc, #108]	; 94b4 <gpio_set_function+0xd4>
    9444:	e5936008 	ldr	r6, [r3, #8]
    9448:	ea000009 	b	9474 <gpio_set_function+0x94>
    944c:	e59f3060 	ldr	r3, [pc, #96]	; 94b4 <gpio_set_function+0xd4>
    9450:	e593600c 	ldr	r6, [r3, #12]
    9454:	ea000006 	b	9474 <gpio_set_function+0x94>
    9458:	e59f3054 	ldr	r3, [pc, #84]	; 94b4 <gpio_set_function+0xd4>
    945c:	e5936010 	ldr	r6, [r3, #16]
    9460:	ea000003 	b	9474 <gpio_set_function+0x94>
    9464:	e59f3048 	ldr	r3, [pc, #72]	; 94b4 <gpio_set_function+0xd4>
    9468:	e5936014 	ldr	r6, [r3, #20]
    946c:	ea000000 	b	9474 <gpio_set_function+0x94>
    9470:	e3a06000 	mov	r6, #0
    9474:	e1a00006 	mov	r0, r6
    9478:	ebffff31 	bl	9144 <get32>
    947c:	e59f302c 	ldr	r3, [pc, #44]	; 94b0 <gpio_set_function+0xd0>
    9480:	e0832493 	umull	r2, r3, r3, r4
    9484:	e1a031a3 	lsr	r3, r3, #3
    9488:	e0833103 	add	r3, r3, r3, lsl #2
    948c:	e1a03083 	lsl	r3, r3, #1
    9490:	e0633004 	rsb	r3, r3, r4
    9494:	e0833083 	add	r3, r3, r3, lsl #1
    9498:	e3a01007 	mov	r1, #7
    949c:	e1c01311 	bic	r1, r0, r1, lsl r3
    94a0:	e1a00006 	mov	r0, r6
    94a4:	e1811315 	orr	r1, r1, r5, lsl r3
    94a8:	ebffff19 	bl	9114 <put32>
    94ac:	e8bd8070 	pop	{r4, r5, r6, pc}
    94b0:	cccccccd 	stclgt	12, cr12, [ip], {205}	; 0xcd
    94b4:	00009774 	andeq	r9, r0, r4, ror r7

000094b8 <is_gpio_int>:
    94b8:	e92d4008 	push	{r3, lr}
    94bc:	e59f301c 	ldr	r3, [pc, #28]	; 94e0 <is_gpio_int+0x28>
    94c0:	e5930030 	ldr	r0, [r3, #48]	; 0x30
    94c4:	ebffff1e 	bl	9144 <get32>
    94c8:	e3500000 	cmp	r0, #0
    94cc:	0a000001 	beq	94d8 <is_gpio_int+0x20>
    94d0:	e3a00001 	mov	r0, #1
    94d4:	e8bd8008 	pop	{r3, pc}
    94d8:	e3a00000 	mov	r0, #0
    94dc:	e8bd8008 	pop	{r3, pc}
    94e0:	00009774 	andeq	r9, r0, r4, ror r7

000094e4 <gpio_int_rising_edge>:
    94e4:	e92d4038 	push	{r3, r4, r5, lr}
    94e8:	e1a04000 	mov	r4, r0
    94ec:	e350001f 	cmp	r0, #31
    94f0:	88bd8038 	pophi	{r3, r4, r5, pc}
    94f4:	ebffff00 	bl	90fc <dev_barrier>
    94f8:	e354001f 	cmp	r4, #31
    94fc:	8a000007 	bhi	9520 <gpio_int_rising_edge+0x3c>
    9500:	e59f505c 	ldr	r5, [pc, #92]	; 9564 <gpio_int_rising_edge+0x80>
    9504:	e5950034 	ldr	r0, [r5, #52]	; 0x34
    9508:	ebffff0d 	bl	9144 <get32>
    950c:	e3a01001 	mov	r1, #1
    9510:	e1801411 	orr	r1, r0, r1, lsl r4
    9514:	e5950034 	ldr	r0, [r5, #52]	; 0x34
    9518:	ebfffefd 	bl	9114 <put32>
    951c:	ea000007 	b	9540 <gpio_int_rising_edge+0x5c>
    9520:	e59f503c 	ldr	r5, [pc, #60]	; 9564 <gpio_int_rising_edge+0x80>
    9524:	e5950038 	ldr	r0, [r5, #56]	; 0x38
    9528:	ebffff05 	bl	9144 <get32>
    952c:	e204401f 	and	r4, r4, #31
    9530:	e3a01001 	mov	r1, #1
    9534:	e1801411 	orr	r1, r0, r1, lsl r4
    9538:	e5950038 	ldr	r0, [r5, #56]	; 0x38
    953c:	ebfffef4 	bl	9114 <put32>
    9540:	ebfffeed 	bl	90fc <dev_barrier>
    9544:	e59f4018 	ldr	r4, [pc, #24]	; 9564 <gpio_int_rising_edge+0x80>
    9548:	e594003c 	ldr	r0, [r4, #60]	; 0x3c
    954c:	ebfffefc 	bl	9144 <get32>
    9550:	e3801802 	orr	r1, r0, #131072	; 0x20000
    9554:	e594003c 	ldr	r0, [r4, #60]	; 0x3c
    9558:	ebfffeed 	bl	9114 <put32>
    955c:	ebfffee6 	bl	90fc <dev_barrier>
    9560:	e8bd8038 	pop	{r3, r4, r5, pc}
    9564:	00009774 	andeq	r9, r0, r4, ror r7

00009568 <gpio_int_falling_edge>:
    9568:	e92d4038 	push	{r3, r4, r5, lr}
    956c:	e1a04000 	mov	r4, r0
    9570:	e350001f 	cmp	r0, #31
    9574:	88bd8038 	pophi	{r3, r4, r5, pc}
    9578:	ebfffedf 	bl	90fc <dev_barrier>
    957c:	e354001f 	cmp	r4, #31
    9580:	8a000007 	bhi	95a4 <gpio_int_falling_edge+0x3c>
    9584:	e59f505c 	ldr	r5, [pc, #92]	; 95e8 <gpio_int_falling_edge+0x80>
    9588:	e5950040 	ldr	r0, [r5, #64]	; 0x40
    958c:	ebfffeec 	bl	9144 <get32>
    9590:	e3a01001 	mov	r1, #1
    9594:	e1801411 	orr	r1, r0, r1, lsl r4
    9598:	e5950040 	ldr	r0, [r5, #64]	; 0x40
    959c:	ebfffedc 	bl	9114 <put32>
    95a0:	ea000007 	b	95c4 <gpio_int_falling_edge+0x5c>
    95a4:	e59f503c 	ldr	r5, [pc, #60]	; 95e8 <gpio_int_falling_edge+0x80>
    95a8:	e5950044 	ldr	r0, [r5, #68]	; 0x44
    95ac:	ebfffee4 	bl	9144 <get32>
    95b0:	e204401f 	and	r4, r4, #31
    95b4:	e3a01001 	mov	r1, #1
    95b8:	e1801411 	orr	r1, r0, r1, lsl r4
    95bc:	e5950044 	ldr	r0, [r5, #68]	; 0x44
    95c0:	ebfffed3 	bl	9114 <put32>
    95c4:	ebfffecc 	bl	90fc <dev_barrier>
    95c8:	e59f4018 	ldr	r4, [pc, #24]	; 95e8 <gpio_int_falling_edge+0x80>
    95cc:	e594003c 	ldr	r0, [r4, #60]	; 0x3c
    95d0:	ebfffedb 	bl	9144 <get32>
    95d4:	e3801601 	orr	r1, r0, #1048576	; 0x100000
    95d8:	e594003c 	ldr	r0, [r4, #60]	; 0x3c
    95dc:	ebfffecc 	bl	9114 <put32>
    95e0:	ebfffec5 	bl	90fc <dev_barrier>
    95e4:	e8bd8038 	pop	{r3, r4, r5, pc}
    95e8:	00009774 	andeq	r9, r0, r4, ror r7

000095ec <gpio_event_detected>:
    95ec:	e92d4010 	push	{r4, lr}
    95f0:	e1a04000 	mov	r4, r0
    95f4:	e350001f 	cmp	r0, #31
    95f8:	8a000019 	bhi	9664 <gpio_event_detected+0x78>
    95fc:	ebfffebe 	bl	90fc <dev_barrier>
    9600:	e354001f 	cmp	r4, #31
    9604:	8a000008 	bhi	962c <gpio_event_detected+0x40>
    9608:	e59f305c 	ldr	r3, [pc, #92]	; 966c <gpio_event_detected+0x80>
    960c:	e5930048 	ldr	r0, [r3, #72]	; 0x48
    9610:	ebfffecb 	bl	9144 <get32>
    9614:	e3a03001 	mov	r3, #1
    9618:	e0103413 	ands	r3, r0, r3, lsl r4
    961c:	0a00000d 	beq	9658 <gpio_event_detected+0x6c>
    9620:	ebfffeb5 	bl	90fc <dev_barrier>
    9624:	e3a00001 	mov	r0, #1
    9628:	e8bd8010 	pop	{r4, pc}
    962c:	e59f3038 	ldr	r3, [pc, #56]	; 966c <gpio_event_detected+0x80>
    9630:	e593004c 	ldr	r0, [r3, #76]	; 0x4c
    9634:	ebfffec2 	bl	9144 <get32>
    9638:	e3a03001 	mov	r3, #1
    963c:	e0004413 	and	r4, r0, r3, lsl r4
    9640:	ebfffead 	bl	90fc <dev_barrier>
    9644:	e3540000 	cmp	r4, #0
    9648:	0a000002 	beq	9658 <gpio_event_detected+0x6c>
    964c:	ebfffeaa 	bl	90fc <dev_barrier>
    9650:	e3a00001 	mov	r0, #1
    9654:	e8bd8010 	pop	{r4, pc}
    9658:	ebfffea7 	bl	90fc <dev_barrier>
    965c:	e3a00000 	mov	r0, #0
    9660:	e8bd8010 	pop	{r4, pc}
    9664:	e3e00000 	mvn	r0, #0
    9668:	e8bd8010 	pop	{r4, pc}
    966c:	00009774 	andeq	r9, r0, r4, ror r7

00009670 <gpio_event_clear>:
    9670:	e92d4010 	push	{r4, lr}
    9674:	e1a04000 	mov	r4, r0
    9678:	e350001f 	cmp	r0, #31
    967c:	88bd8010 	pophi	{r4, pc}
    9680:	ebfffe9d 	bl	90fc <dev_barrier>
    9684:	e354001f 	cmp	r4, #31
    9688:	8a000005 	bhi	96a4 <gpio_event_clear+0x34>
    968c:	e59f3030 	ldr	r3, [pc, #48]	; 96c4 <gpio_event_clear+0x54>
    9690:	e5930048 	ldr	r0, [r3, #72]	; 0x48
    9694:	e3a01001 	mov	r1, #1
    9698:	e1a01411 	lsl	r1, r1, r4
    969c:	ebfffe9c 	bl	9114 <put32>
    96a0:	ea000005 	b	96bc <gpio_event_clear+0x4c>
    96a4:	e204401f 	and	r4, r4, #31
    96a8:	e59f3014 	ldr	r3, [pc, #20]	; 96c4 <gpio_event_clear+0x54>
    96ac:	e593004c 	ldr	r0, [r3, #76]	; 0x4c
    96b0:	e3a01001 	mov	r1, #1
    96b4:	e1a01411 	lsl	r1, r1, r4
    96b8:	ebfffe95 	bl	9114 <put32>
    96bc:	ebfffe8e 	bl	90fc <dev_barrier>
    96c0:	e8bd8010 	pop	{r4, pc}
    96c4:	00009774 	andeq	r9, r0, r4, ror r7

000096c8 <cb_new>:
    96c8:	e92d4008 	push	{r3, lr}
    96cc:	e3a00409 	mov	r0, #150994944	; 0x9000000
    96d0:	e3a01000 	mov	r1, #0
    96d4:	e3a02004 	mov	r2, #4
    96d8:	eb00000e 	bl	9718 <memset>
    96dc:	e3a00409 	mov	r0, #150994944	; 0x9000000
    96e0:	e59f3004 	ldr	r3, [pc, #4]	; 96ec <cb_new+0x24>
    96e4:	e5803000 	str	r3, [r0]
    96e8:	e8bd8008 	pop	{r3, pc}
    96ec:	12345678 	eorsne	r5, r4, #120, 12	; 0x7800000

000096f0 <cb_get_block>:
    96f0:	e3a03409 	mov	r3, #150994944	; 0x9000000
    96f4:	e5932000 	ldr	r2, [r3]
    96f8:	e59f3014 	ldr	r3, [pc, #20]	; 9714 <cb_get_block+0x24>
    96fc:	e1520003 	cmp	r2, r3
    9700:	0a000001 	beq	970c <cb_get_block+0x1c>
    9704:	e3a00000 	mov	r0, #0
    9708:	e12fff1e 	bx	lr
    970c:	e3a00409 	mov	r0, #150994944	; 0x9000000
    9710:	e12fff1e 	bx	lr
    9714:	12345678 	eorsne	r5, r4, #120, 12	; 0x7800000

00009718 <memset>:
    9718:	e0802002 	add	r2, r0, r2
    971c:	e1a03000 	mov	r3, r0
    9720:	ea000001 	b	972c <memset+0x14>
    9724:	e5c31000 	strb	r1, [r3]
    9728:	e2833001 	add	r3, r3, #1
    972c:	e1530002 	cmp	r3, r2
    9730:	3afffffb 	bcc	9724 <memset+0xc>
    9734:	e12fff1e 	bx	lr

Disassembly of section .data:

00009738 <rpi_putchar>:
    9738:	00008248 	andeq	r8, r0, r8, asr #4

0000973c <putk>:
    973c:	00008284 	andeq	r8, r0, r4, lsl #5

00009740 <AUX_ENABLES>:
    9740:	20215004 	eorcs	r5, r1, r4

00009744 <AUX_MU_CNTL_REG>:
    9744:	20215060 	eorcs	r5, r1, r0, rrx

00009748 <AUX_MU_IER_REG>:
    9748:	20215044 	eorcs	r5, r1, r4, asr #32

0000974c <AUX_MU_IIR_REG>:
    974c:	20215048 	eorcs	r5, r1, r8, asr #32

00009750 <AUX_MU_LCR_REG>:
    9750:	2021504c 	eorcs	r5, r1, ip, asr #32

00009754 <AUX_MU_BAUD_REG>:
    9754:	20215068 	eorcs	r5, r1, r8, rrx

00009758 <AUX_MU_LSR_REG>:
    9758:	20215054 	eorcs	r5, r1, r4, asr r0

0000975c <AUX_MU_IO_REG>:
    975c:	20215040 	eorcs	r5, r1, r0, asr #32

00009760 <AUX_MU_STAT_REG>:
    9760:	20215064 	eorcs	r5, r1, r4, rrx

00009764 <AUX_MU_SCRATCH>:
    9764:	2021505c 	eorcs	r5, r1, ip, asr r0

00009768 <AUX_MU_MSR_REG>:
    9768:	20215058 	eorcs	r5, r1, r8, asr r0

0000976c <AUX_MU_MCR_REG>:
    976c:	20215050 	eorcs	r5, r1, r0, asr r0

00009770 <AUX_IRQ>:
    9770:	20215000 	eorcs	r5, r1, r0

00009774 <GPFSEL0>:
    9774:	20200000 	eorcs	r0, r0, r0

00009778 <GPFSEL1>:
    9778:	20200004 	eorcs	r0, r0, r4

0000977c <GPFSEL2>:
    977c:	20200008 	eorcs	r0, r0, r8

00009780 <GPFSEL3>:
    9780:	2020000c 	eorcs	r0, r0, ip

00009784 <GPFSEL4>:
    9784:	20200010 	eorcs	r0, r0, r0, lsl r0

00009788 <GPFSEL5>:
    9788:	20200014 	eorcs	r0, r0, r4, lsl r0

0000978c <GPSET0>:
    978c:	2020001c 	eorcs	r0, r0, ip, lsl r0

00009790 <GPSET1>:
    9790:	20200020 	eorcs	r0, r0, r0, lsr #32

00009794 <GPCLR0>:
    9794:	20200028 	eorcs	r0, r0, r8, lsr #32

00009798 <GPCLR1>:
    9798:	2020002c 	eorcs	r0, r0, ip, lsr #32

0000979c <GPLEV0>:
    979c:	20200034 	eorcs	r0, r0, r4, lsr r0

000097a0 <GPLEV1>:
    97a0:	20200038 	eorcs	r0, r0, r8, lsr r0

000097a4 <IRQ_PENDING_2>:
    97a4:	2000b208 	andcs	fp, r0, r8, lsl #4

000097a8 <GPREN0>:
    97a8:	2020004c 	eorcs	r0, r0, ip, asr #32

000097ac <GPREN1>:
    97ac:	20200050 	eorcs	r0, r0, r0, asr r0

000097b0 <ENABLE_IRQS_2>:
    97b0:	2000b214 	andcs	fp, r0, r4, lsl r2

000097b4 <GPFEN0>:
    97b4:	20200058 	eorcs	r0, r0, r8, asr r0

000097b8 <GPFEN1>:
    97b8:	2020005c 	eorcs	r0, r0, ip, asr r0

000097bc <GPEDS0>:
    97bc:	20200040 	eorcs	r0, r0, r0, asr #32

000097c0 <GPEDS1>:
    97c0:	20200044 	eorcs	r0, r0, r4, asr #32

000097c4 <IRQ_PENDING_1>:
    97c4:	2000b204 	andcs	fp, r0, r4, lsl #4

000097c8 <gpio_clr0>:
    97c8:	20200028 	eorcs	r0, r0, r8, lsr #32

000097cc <gpio_set0>:
    97cc:	2020001c 	eorcs	r0, r0, ip, lsl r0

000097d0 <gpio_fsel0>:
    97d0:	20200000 	eorcs	r0, r0, r0

Disassembly of section .rodata:

000097d4 <__FUNCTION__.4219>:
    97d4:	6d746f6e 	ldclvs	15, cr6, [r4, #-440]!	; 0xfffffe48
    97d8:	006e6961 	rsbeq	r6, lr, r1, ror #18
    97dc:	494e4150 	stmdbmi	lr, {r4, r6, r8, lr}^
    97e0:	73253a43 	teqvc	r5, #274432	; 0x43000
    97e4:	3a73253a 	bcc	1cd2cd4 <__bss_end__+0x1cc8994>
    97e8:	423a6425 	eorsmi	r6, sl, #620756992	; 0x25000000
    97ec:	6f206461 	svcvs	0x00206461
    97f0:	646f6370 	strbtvs	r6, [pc], #-880	; 97f8 <__FUNCTION__.4219+0x24>
    97f4:	000a0a65 	andeq	r0, sl, r5, ror #20
    97f8:	2d746567 	cfldr64cs	mvdx6, [r4, #-412]!	; 0xfffffe64
    97fc:	65646f63 	strbvs	r6, [r4, #-3939]!	; 0xf63
    9800:	0000632e 	andeq	r6, r0, lr, lsr #6
    9804:	494e4150 	stmdbmi	lr, {r4, r6, r8, lr}^
    9808:	73253a43 	teqvc	r5, #274432	; 0x43000
    980c:	3a73253a 	bcc	1cd2cfc <__bss_end__+0x1cc89bc>
    9810:	693a6425 	ldmdbvs	sl!, {r0, r2, r5, sl, sp, lr}
    9814:	6c61766e 	stclvs	6, cr7, [r1], #-440	; 0xfffffe48
    9818:	61206469 	teqvs	r0, r9, ror #8
    981c:	20726464 	rsbscs	r6, r2, r4, ror #8
    9820:	202c7825 	eorcs	r7, ip, r5, lsr #16
    9824:	7473756d 	ldrbtvc	r7, [r3], #-1389	; 0x56d
    9828:	20656220 	rsbcs	r6, r5, r0, lsr #4
    982c:	7825203e 	stmdavc	r5!, {r1, r2, r3, r4, r5, sp}
    9830:	00000a0a 	andeq	r0, r0, sl, lsl #20
    9834:	494e4150 	stmdbmi	lr, {r4, r6, r8, lr}^
    9838:	73253a43 	teqvc	r5, #274432	; 0x43000
    983c:	3a73253a 	bcc	1cd2d2c <__bss_end__+0x1cc89ec>
    9840:	423a6425 	eorsmi	r6, sl, #620756992	; 0x25000000
    9844:	43206461 	teqmi	r0, #1627389952	; 0x61000000
    9848:	203a4352 	eorscs	r4, sl, r2, asr r3
    984c:	20746f67 	rsbscs	r6, r4, r7, ror #30
    9850:	202c7525 	eorcs	r7, ip, r5, lsr #10
    9854:	65707865 	ldrbvs	r7, [r0, #-2149]!	; 0x865
    9858:	64657463 	strbtvs	r7, [r5], #-1123	; 0x463
    985c:	0a752520 	beq	1d52ce4 <__bss_end__+0x1d489a4>
    9860:	0000000a 	andeq	r0, r0, sl
    9864:	203a6425 	eorscs	r6, sl, r5, lsr #8
    9868:	756f6261 	strbvc	r6, [pc, #-609]!	; 960f <gpio_event_detected+0x23>
    986c:	6f742074 	svcvs	0x00742074
    9870:	6c616320 	stclvs	3, cr6, [r1], #-128	; 0xffffff80
    9874:	6873206c 	ldmdavs	r3!, {r2, r3, r5, r6, sp}^
    9878:	65707069 	ldrbvs	r7, [r0, #-105]!	; 0x69
    987c:	6f632064 	svcvs	0x00632064
    9880:	202c6564 	eorcs	r6, ip, r4, ror #10
    9884:	72646461 	rsbvc	r6, r4, #1627389952	; 0x61000000
    9888:	2c78253d 	cfldr64cs	mvdx2, [r8], #-244	; 0xffffff0c
    988c:	79626e20 	stmdbvc	r2!, {r5, r9, sl, fp, sp, lr}^
    9890:	3d736574 	cfldr64cc	mvdx6, [r3, #-464]!	; 0xfffffe30
    9894:	0a216425 	beq	862930 <__bss_end__+0x8585f0>
    9898:	00000000 	andeq	r0, r0, r0
    989c:	65646f63 	strbvs	r6, [r4, #-3939]!	; 0xf63
    98a0:	74657220 	strbtvc	r7, [r5], #-544	; 0x220
    98a4:	656e7275 	strbvs	r7, [lr, #-629]!	; 0x275
    98a8:	000a2164 	andeq	r2, sl, r4, ror #2

000098ac <crc32_tab>:
    98ac:	00000000 	andeq	r0, r0, r0
    98b0:	77073096 			; <UNDEFINED> instruction: 0x77073096
    98b4:	ee0e612c 	adfep	f6, f6, #4.0
    98b8:	990951ba 	stmdbls	r9, {r1, r3, r4, r5, r7, r8, ip, lr}
    98bc:	076dc419 			; <UNDEFINED> instruction: 0x076dc419
    98c0:	706af48f 	rsbvc	pc, sl, pc, lsl #9
    98c4:	e963a535 	stmdb	r3!, {r0, r2, r4, r5, r8, sl, sp, pc}^
    98c8:	9e6495a3 	cdpls	5, 6, cr9, cr4, cr3, {5}
    98cc:	0edb8832 	mrceq	8, 6, r8, cr11, cr2, {1}
    98d0:	79dcb8a4 	ldmibvc	ip, {r2, r5, r7, fp, ip, sp, pc}^
    98d4:	e0d5e91e 	sbcs	lr, r5, lr, lsl r9
    98d8:	97d2d988 	ldrbls	sp, [r2, r8, lsl #19]
    98dc:	09b64c2b 	ldmibeq	r6!, {r0, r1, r3, r5, sl, fp, lr}
    98e0:	7eb17cbd 	mrcvc	12, 5, r7, cr1, cr13, {5}
    98e4:	e7b82d07 	ldr	r2, [r8, r7, lsl #26]!
    98e8:	90bf1d91 	umlalsls	r1, pc, r1, sp	; <UNPREDICTABLE>
    98ec:	1db71064 	ldcne	0, cr1, [r7, #400]!	; 0x190
    98f0:	6ab020f2 	bvs	fec11cc0 <__bss_end__+0xfec07980>
    98f4:	f3b97148 	vceq.i32	<illegal reg q3.5>, q4, #0
    98f8:	84be41de 	ldrthi	r4, [lr], #478	; 0x1de
    98fc:	1adad47d 	bne	ff6beaf8 <__bss_end__+0xff6b47b8>
    9900:	6ddde4eb 	cfldrdvs	mvd14, [sp, #940]	; 0x3ac
    9904:	f4d4b551 			; <UNDEFINED> instruction: 0xf4d4b551
    9908:	83d385c7 	bicshi	r8, r3, #834666496	; 0x31c00000
    990c:	136c9856 	cmnne	ip, #5636096	; 0x560000
    9910:	646ba8c0 	strbtvs	sl, [fp], #-2240	; 0x8c0
    9914:	fd62f97a 	stc2l	9, cr15, [r2, #-488]!	; 0xfffffe18
    9918:	8a65c9ec 	bhi	197c0d0 <__bss_end__+0x1971d90>
    991c:	14015c4f 	strne	r5, [r1], #-3151	; 0xc4f
    9920:	63066cd9 	movwvs	r6, #27865	; 0x6cd9
    9924:	fa0f3d63 	blx	3d8eb8 <__bss_end__+0x3ceb78>
    9928:	8d080df5 	stchi	13, cr0, [r8, #-980]	; 0xfffffc2c
    992c:	3b6e20c8 	blcc	1b91c54 <__bss_end__+0x1b87914>
    9930:	4c69105e 	stclmi	0, cr1, [r9], #-376	; 0xfffffe88
    9934:	d56041e4 	strble	r4, [r0, #-484]!	; 0x1e4
    9938:	a2677172 	rsbge	r7, r7, #-2147483620	; 0x8000001c
    993c:	3c03e4d1 	cfstrscc	mvf14, [r3], {209}	; 0xd1
    9940:	4b04d447 	blmi	13ea64 <__bss_end__+0x134724>
    9944:	d20d85fd 	andle	r8, sp, #1061158912	; 0x3f400000
    9948:	a50ab56b 	strge	fp, [sl, #-1387]	; 0x56b
    994c:	35b5a8fa 	ldrcc	sl, [r5, #2298]!	; 0x8fa
    9950:	42b2986c 	adcsmi	r9, r2, #108, 16	; 0x6c0000
    9954:	dbbbc9d6 	blle	feefc0b4 <__bss_end__+0xfeef1d74>
    9958:	acbcf940 	ldcge	9, cr15, [ip], #256	; 0x100
    995c:	32d86ce3 	sbcscc	r6, r8, #58112	; 0xe300
    9960:	45df5c75 	ldrbmi	r5, [pc, #3189]	; a5dd <__bss_end__+0x29d>
    9964:	dcd60dcf 	ldclle	13, cr0, [r6], {207}	; 0xcf
    9968:	abd13d59 	blge	ff458ed4 <__bss_end__+0xff44eb94>
    996c:	26d930ac 	ldrbcs	r3, [r9], ip, lsr #1
    9970:	51de003a 	bicspl	r0, lr, sl, lsr r0
    9974:	c8d75180 	ldmgt	r7, {r7, r8, ip, lr}^
    9978:	bfd06116 	svclt	0x00d06116
    997c:	21b4f4b5 			; <UNDEFINED> instruction: 0x21b4f4b5
    9980:	56b3c423 	ldrtpl	ip, [r3], r3, lsr #8
    9984:	cfba9599 	svcgt	0x00ba9599
    9988:	b8bda50f 	poplt	{r0, r1, r2, r3, r8, sl, sp, pc}
    998c:	2802b89e 	stmdacs	r2, {r1, r2, r3, r4, r7, fp, ip, sp, pc}
    9990:	5f058808 	svcpl	0x00058808
    9994:	c60cd9b2 			; <UNDEFINED> instruction: 0xc60cd9b2
    9998:	b10be924 	tstlt	fp, r4, lsr #18
    999c:	2f6f7c87 	svccs	0x006f7c87
    99a0:	58684c11 	stmdapl	r8!, {r0, r4, sl, fp, lr}^
    99a4:	c1611dab 	cmngt	r1, fp, lsr #27
    99a8:	b6662d3d 			; <UNDEFINED> instruction: 0xb6662d3d
    99ac:	76dc4190 			; <UNDEFINED> instruction: 0x76dc4190
    99b0:	01db7106 	bicseq	r7, fp, r6, lsl #2
    99b4:	98d220bc 	ldmls	r2, {r2, r3, r4, r5, r7, sp}^
    99b8:	efd5102a 	svc	0x00d5102a
    99bc:	71b18589 			; <UNDEFINED> instruction: 0x71b18589
    99c0:	06b6b51f 	ssateq	fp, #23, pc, lsl #10	; <UNPREDICTABLE>
    99c4:	9fbfe4a5 	svcls	0x00bfe4a5
    99c8:	e8b8d433 	ldm	r8!, {r0, r1, r4, r5, sl, ip, lr, pc}
    99cc:	7807c9a2 	stmdavc	r7, {r1, r5, r7, r8, fp, lr, pc}
    99d0:	0f00f934 	svceq	0x0000f934
    99d4:	9609a88e 	strls	sl, [r9], -lr, lsl #17
    99d8:	e10e9818 	tst	lr, r8, lsl r8
    99dc:	7f6a0dbb 	svcvc	0x006a0dbb
    99e0:	086d3d2d 	stmdaeq	sp!, {r0, r2, r3, r5, r8, sl, fp, ip, sp}^
    99e4:	91646c97 			; <UNDEFINED> instruction: 0x91646c97
    99e8:	e6635c01 	strbt	r5, [r3], -r1, lsl #24
    99ec:	6b6b51f4 	blvs	1ade1c4 <__bss_end__+0x1ad3e84>
    99f0:	1c6c6162 	stfnee	f6, [ip], #-392	; 0xfffffe78
    99f4:	856530d8 	strbhi	r3, [r5, #-216]!	; 0xd8
    99f8:	f262004e 	vhadd.s32	q8, q1, q7
    99fc:	6c0695ed 	cfstr32vs	mvfx9, [r6], {237}	; 0xed
    9a00:	1b01a57b 	blne	72ff4 <__bss_end__+0x68cb4>
    9a04:	8208f4c1 	andhi	pc, r8, #-1056964608	; 0xc1000000
    9a08:	f50fc457 			; <UNDEFINED> instruction: 0xf50fc457
    9a0c:	65b0d9c6 	ldrvs	sp, [r0, #2502]!	; 0x9c6
    9a10:	12b7e950 	adcsne	lr, r7, #80, 18	; 0x140000
    9a14:	8bbeb8ea 	blhi	fefb7dc4 <__bss_end__+0xfefada84>
    9a18:	fcb9887c 	ldc2	8, cr8, [r9], #496	; 0x1f0
    9a1c:	62dd1ddf 	sbcsvs	r1, sp, #14272	; 0x37c0
    9a20:	15da2d49 	ldrbne	r2, [sl, #3401]	; 0xd49
    9a24:	8cd37cf3 	ldclhi	12, cr7, [r3], {243}	; 0xf3
    9a28:	fbd44c65 	blx	ff51cbc6 <__bss_end__+0xff512886>
    9a2c:	4db26158 	ldfmis	f6, [r2, #352]!	; 0x160
    9a30:	3ab551ce 	bcc	fed5e170 <__bss_end__+0xfed53e30>
    9a34:	a3bc0074 			; <UNDEFINED> instruction: 0xa3bc0074
    9a38:	d4bb30e2 	ldrtle	r3, [fp], #226	; 0xe2
    9a3c:	4adfa541 	bmi	ff7f2f48 <__bss_end__+0xff7e8c08>
    9a40:	3dd895d7 	cfldr64cc	mvdx9, [r8, #860]	; 0x35c
    9a44:	a4d1c46d 	ldrbge	ip, [r1], #1133	; 0x46d
    9a48:	d3d6f4fb 	bicsle	pc, r6, #-83886080	; 0xfb000000
    9a4c:	4369e96a 	cmnmi	r9, #1736704	; 0x1a8000
    9a50:	346ed9fc 	strbtcc	sp, [lr], #-2556	; 0x9fc
    9a54:	ad678846 	stclge	8, cr8, [r7, #-280]!	; 0xfffffee8
    9a58:	da60b8d0 	ble	1837da0 <__bss_end__+0x182da60>
    9a5c:	44042d73 	strmi	r2, [r4], #-3443	; 0xd73
    9a60:	33031de5 	movwcc	r1, #15845	; 0x3de5
    9a64:	aa0a4c5f 	bge	29cbe8 <__bss_end__+0x2928a8>
    9a68:	dd0d7cc9 	stcle	12, cr7, [sp, #-804]	; 0xfffffcdc
    9a6c:	5005713c 	andpl	r7, r5, ip, lsr r1
    9a70:	270241aa 	strcs	r4, [r2, -sl, lsr #3]
    9a74:	be0b1010 	mcrlt	0, 0, r1, cr11, cr0, {0}
    9a78:	c90c2086 	stmdbgt	ip, {r1, r2, r7, sp}
    9a7c:	5768b525 	strbpl	fp, [r8, -r5, lsr #10]!
    9a80:	206f85b3 	strhtcs	r8, [pc], #-83
    9a84:	b966d409 	stmdblt	r6!, {r0, r3, sl, ip, lr, pc}^
    9a88:	ce61e49f 	mcrgt	4, 3, lr, cr1, cr15, {4}
    9a8c:	5edef90e 	cdppl	9, 13, cr15, cr14, cr14, {0}
    9a90:	29d9c998 	ldmibcs	r9, {r3, r4, r7, r8, fp, lr, pc}^
    9a94:	b0d09822 	sbcslt	r9, r0, r2, lsr #16
    9a98:	c7d7a8b4 			; <UNDEFINED> instruction: 0xc7d7a8b4
    9a9c:	59b33d17 	ldmibpl	r3!, {r0, r1, r2, r4, r8, sl, fp, ip, sp}
    9aa0:	2eb40d81 	cdpcs	13, 11, cr0, cr4, cr1, {4}
    9aa4:	b7bd5c3b 			; <UNDEFINED> instruction: 0xb7bd5c3b
    9aa8:	c0ba6cad 	adcsgt	r6, sl, sp, lsr #25
    9aac:	edb88320 	ldc	3, cr8, [r8, #128]!	; 0x80
    9ab0:	9abfb3b6 	bls	feff6990 <__bss_end__+0xfefec650>
    9ab4:	03b6e20c 			; <UNDEFINED> instruction: 0x03b6e20c
    9ab8:	74b1d29a 	ldrtvc	sp, [r1], #666	; 0x29a
    9abc:	ead54739 	b	ff55b7a8 <__bss_end__+0xff551468>
    9ac0:	9dd277af 	ldclls	7, cr7, [r2, #700]	; 0x2bc
    9ac4:	04db2615 	ldrbeq	r2, [fp], #1557	; 0x615
    9ac8:	73dc1683 	bicsvc	r1, ip, #137363456	; 0x8300000
    9acc:	e3630b12 	cmn	r3, #18432	; 0x4800
    9ad0:	94643b84 	strbtls	r3, [r4], #-2948	; 0xb84
    9ad4:	0d6d6a3e 	vpusheq	{s13-s74}
    9ad8:	7a6a5aa8 	bvc	1aa0580 <__bss_end__+0x1a96240>
    9adc:	e40ecf0b 	str	ip, [lr], #-3851	; 0xf0b
    9ae0:	9309ff9d 	movwls	pc, #40861	; 0x9f9d	; <UNPREDICTABLE>
    9ae4:	0a00ae27 	beq	35388 <__bss_end__+0x2b048>
    9ae8:	7d079eb1 	stcvc	14, cr9, [r7, #-708]	; 0xfffffd3c
    9aec:	f00f9344 			; <UNDEFINED> instruction: 0xf00f9344
    9af0:	8708a3d2 			; <UNDEFINED> instruction: 0x8708a3d2
    9af4:	1e01f268 	cdpne	2, 0, cr15, cr1, cr8, {3}
    9af8:	6906c2fe 	stmdbvs	r6, {r1, r2, r3, r4, r5, r6, r7, r9, lr, pc}
    9afc:	f762575d 			; <UNDEFINED> instruction: 0xf762575d
    9b00:	806567cb 	rsbhi	r6, r5, fp, asr #15
    9b04:	196c3671 	stmdbne	ip!, {r0, r4, r5, r6, r9, sl, ip, sp}^
    9b08:	6e6b06e7 	cdpvs	6, 6, cr0, cr11, cr7, {7}
    9b0c:	fed41b76 	mrc2	11, 6, r1, cr4, cr6, {3}
    9b10:	89d32be0 	ldmibhi	r3, {r5, r6, r7, r8, r9, fp, sp}^
    9b14:	10da7a5a 	sbcsne	r7, sl, sl, asr sl
    9b18:	67dd4acc 	ldrbvs	r4, [sp, ip, asr #21]
    9b1c:	f9b9df6f 			; <UNDEFINED> instruction: 0xf9b9df6f
    9b20:	8ebeeff9 	mrchi	15, 5, lr, cr14, cr9, {7}
    9b24:	17b7be43 	ldrne	fp, [r7, r3, asr #28]!
    9b28:	60b08ed5 	ldrsbtvs	r8, [r0], r5
    9b2c:	d6d6a3e8 	ldrble	sl, [r6], r8, ror #7
    9b30:	a1d1937e 	bicsge	r9, r1, lr, ror r3
    9b34:	38d8c2c4 	ldmcc	r8, {r2, r6, r7, r9, lr, pc}^
    9b38:	4fdff252 	svcmi	0x00dff252
    9b3c:	d1bb67f1 			; <UNDEFINED> instruction: 0xd1bb67f1
    9b40:	a6bc5767 	ldrtge	r5, [ip], r7, ror #14
    9b44:	3fb506dd 	svccc	0x00b506dd
    9b48:	48b2364b 	ldmmi	r2!, {r0, r1, r3, r6, r9, sl, ip, sp}
    9b4c:	d80d2bda 	stmdale	sp, {r1, r3, r4, r6, r7, r8, r9, fp, sp}
    9b50:	af0a1b4c 	svcge	0x000a1b4c
    9b54:	36034af6 			; <UNDEFINED> instruction: 0x36034af6
    9b58:	41047a60 	tstmi	r4, r0, ror #20
    9b5c:	df60efc3 	svcle	0x0060efc3
    9b60:	a867df55 	stmdage	r7!, {r0, r2, r4, r6, r8, r9, sl, fp, ip, lr, pc}^
    9b64:	316e8eef 	cmncc	lr, pc, ror #29
    9b68:	4669be79 			; <UNDEFINED> instruction: 0x4669be79
    9b6c:	cb61b38c 	blgt	18769a4 <__bss_end__+0x186c664>
    9b70:	bc66831a 	stcllt	3, cr8, [r6], #-104	; 0xffffff98
    9b74:	256fd2a0 	strbcs	sp, [pc, #-672]!	; 98dc <crc32_tab+0x30>
    9b78:	5268e236 	rsbpl	lr, r8, #1610612739	; 0x60000003
    9b7c:	cc0c7795 	stcgt	7, cr7, [ip], {149}	; 0x95
    9b80:	bb0b4703 	bllt	2db794 <__bss_end__+0x2d1454>
    9b84:	220216b9 	andcs	r1, r2, #193986560	; 0xb900000
    9b88:	5505262f 	strpl	r2, [r5, #-1583]	; 0x62f
    9b8c:	c5ba3bbe 	ldrgt	r3, [sl, #3006]!	; 0xbbe
    9b90:	b2bd0b28 	adcslt	r0, sp, #40, 22	; 0xa000
    9b94:	2bb45a92 	blcs	fed205e4 <__bss_end__+0xfed162a4>
    9b98:	5cb36a04 	vldmiapl	r3!, {s12-s15}
    9b9c:	c2d7ffa7 	sbcsgt	pc, r7, #668	; 0x29c
    9ba0:	b5d0cf31 	ldrblt	ip, [r0, #3889]	; 0xf31
    9ba4:	2cd99e8b 	ldclcs	14, cr9, [r9], {139}	; 0x8b
    9ba8:	5bdeae1d 	blpl	ff7b5424 <__bss_end__+0xff7ab0e4>
    9bac:	9b64c2b0 	blls	193a674 <__bss_end__+0x1930334>
    9bb0:	ec63f226 	sfm	f7, 3, [r3], #-152	; 0xffffff68
    9bb4:	756aa39c 	strbvc	sl, [sl, #-924]!	; 0x39c
    9bb8:	026d930a 	rsbeq	r9, sp, #671088640	; 0x28000000
    9bbc:	9c0906a9 	stcls	6, cr0, [r9], {169}	; 0xa9
    9bc0:	eb0e363f 	bl	3974c4 <__bss_end__+0x38d184>
    9bc4:	72076785 	andvc	r6, r7, #34865152	; 0x2140000
    9bc8:	05005713 	streq	r5, [r0, #-1811]	; 0x713
    9bcc:	95bf4a82 	ldrls	r4, [pc, #2690]!	; a656 <__bss_end__+0x316>
    9bd0:	e2b87a14 	adcs	r7, r8, #20, 20	; 0x14000
    9bd4:	7bb12bae 	blvc	fec54a94 <__bss_end__+0xfec4a754>
    9bd8:	0cb61b38 	vldmiaeq	r6!, {d1-d28}
    9bdc:	92d28e9b 	sbcsls	r8, r2, #2480	; 0x9b0
    9be0:	e5d5be0d 	ldrb	fp, [r5, #3597]	; 0xe0d
    9be4:	7cdcefb7 	ldclvc	15, cr14, [ip], {183}	; 0xb7
    9be8:	0bdbdf21 	bleq	ff701874 <__bss_end__+0xff6f7534>
    9bec:	86d3d2d4 			; <UNDEFINED> instruction: 0x86d3d2d4
    9bf0:	f1d4e242 			; <UNDEFINED> instruction: 0xf1d4e242
    9bf4:	68ddb3f8 	ldmvs	sp, {r3, r4, r5, r6, r7, r8, r9, ip, sp, pc}^
    9bf8:	1fda836e 	svcne	0x00da836e
    9bfc:	81be16cd 			; <UNDEFINED> instruction: 0x81be16cd
    9c00:	f6b9265b 			; <UNDEFINED> instruction: 0xf6b9265b
    9c04:	6fb077e1 	svcvs	0x00b077e1
    9c08:	18b74777 	ldmne	r7!, {r0, r1, r2, r4, r5, r6, r8, r9, sl, lr}
    9c0c:	88085ae6 	stmdahi	r8, {r1, r2, r5, r6, r7, r9, fp, ip, lr}
    9c10:	ff0f6a70 			; <UNDEFINED> instruction: 0xff0f6a70
    9c14:	66063bca 	strvs	r3, [r6], -sl, asr #23
    9c18:	11010b5c 	tstne	r1, ip, asr fp
    9c1c:	8f659eff 	svchi	0x00659eff
    9c20:	f862ae69 			; <UNDEFINED> instruction: 0xf862ae69
    9c24:	616bffd3 	ldrdvs	pc, [fp, #-243]!	; 0xffffff0d
    9c28:	166ccf45 	strbtne	ip, [ip], -r5, asr #30
    9c2c:	a00ae278 	andge	lr, sl, r8, ror r2
    9c30:	d70dd2ee 	strle	sp, [sp, -lr, ror #5]
    9c34:	4e048354 	mcrmi	3, 0, r8, cr4, cr4, {2}
    9c38:	3903b3c2 	stmdbcc	r3, {r1, r6, r7, r8, r9, ip, sp, pc}
    9c3c:	a7672661 	strbge	r2, [r7, -r1, ror #12]!
    9c40:	d06016f7 	strdle	r1, [r0], #-103	; 0xffffff99	; <UNPREDICTABLE>
    9c44:	4969474d 	stmdbmi	r9!, {r0, r2, r3, r6, r8, r9, sl, lr}^
    9c48:	3e6e77db 	mcrcc	7, 3, r7, cr14, cr11, {6}
    9c4c:	aed16a4a 	vfnmage.f32	s13, s2, s20
    9c50:	d9d65adc 	ldmible	r6, {r2, r3, r4, r6, r7, r9, fp, ip, lr}^
    9c54:	40df0b66 	sbcsmi	r0, pc, r6, ror #22
    9c58:	37d83bf0 			; <UNDEFINED> instruction: 0x37d83bf0
    9c5c:	a9bcae53 	ldmibge	ip!, {r0, r1, r4, r6, r9, sl, fp, sp, pc}
    9c60:	debb9ec5 	cdple	14, 11, cr9, cr11, cr5, {6}
    9c64:	47b2cf7f 			; <UNDEFINED> instruction: 0x47b2cf7f
    9c68:	30b5ffe9 	adcscc	pc, r5, r9, ror #31
    9c6c:	bdbdf21c 	lfmlt	f7, 1, [sp, #112]!	; 0x70
    9c70:	cabac28a 	bgt	feeba6a0 <__bss_end__+0xfeeb0360>
    9c74:	53b39330 			; <UNDEFINED> instruction: 0x53b39330
    9c78:	24b4a3a6 	ldrtcs	sl, [r4], #934	; 0x3a6
    9c7c:	bad03605 	blt	ff417498 <__bss_end__+0xff40d158>
    9c80:	cdd70693 	ldclgt	6, cr0, [r7, #588]	; 0x24c
    9c84:	54de5729 	ldrbpl	r5, [lr], #1833	; 0x729
    9c88:	23d967bf 	bicscs	r6, r9, #50069504	; 0x2fc0000
    9c8c:	b3667a2e 	cmnlt	r6, #188416	; 0x2e000
    9c90:	c4614ab8 	strbtgt	r4, [r1], #-2744	; 0xab8
    9c94:	5d681b02 	vstmdbpl	r8!, {d17}
    9c98:	2a6f2b94 	bcs	1bd4af0 <__bss_end__+0x1bca7b0>
    9c9c:	b40bbe37 	strlt	fp, [fp], #-3639	; 0xe37
    9ca0:	c30c8ea1 	movwgt	r8, #52897	; 0xcea1
    9ca4:	5a05df1b 	bpl	181918 <__bss_end__+0x1775d8>
    9ca8:	2d02ef8d 	stccs	15, cr14, [r2, #-564]	; 0xfffffdcc

00009cac <__FUNCTION__.4216>:
    9cac:	74696d65 	strbtvc	r6, [r9], #-3429	; 0xd65
    9cb0:	00000000 	andeq	r0, r0, r0

00009cb4 <__FUNCTION__.4164>:
    9cb4:	5f697072 	svcpl	0x00697072
    9cb8:	5f746573 	svcpl	0x00746573
    9cbc:	7074756f 	rsbsvc	r7, r4, pc, ror #10
    9cc0:	00007475 	andeq	r7, r0, r5, ror r4

00009cc4 <__FUNCTION__.4238>:
    9cc4:	705f6176 	subsvc	r6, pc, r6, ror r1	; <UNPREDICTABLE>
    9cc8:	746e6972 	strbtvc	r6, [lr], #-2418	; 0x972
    9ccc:	0000006b 	andeq	r0, r0, fp, rrx
    9cd0:	494e4150 	stmdbmi	lr, {r4, r6, r8, lr}^
    9cd4:	73253a43 	teqvc	r5, #274432	; 0x43000
    9cd8:	3a73253a 	bcc	1cd31c8 <__bss_end__+0x1cc8e88>
    9cdc:	303a6425 	eorscc	r6, sl, r5, lsr #8
    9ce0:	0000000a 	andeq	r0, r0, sl
    9ce4:	6362696c 	cmnvs	r2, #108, 18	; 0x1b0000
    9ce8:	2d61762f 	stclcs	6, cr7, [r1, #-188]!	; 0xffffff44
    9cec:	6e697270 	mcrvs	2, 3, r7, cr9, cr0, {3}
    9cf0:	632e6b74 	teqvs	lr, #116, 22	; 0x1d000
    9cf4:	00000000 	andeq	r0, r0, r0
    9cf8:	33323130 	teqcc	r2, #48, 2
    9cfc:	37363534 			; <UNDEFINED> instruction: 0x37363534
    9d00:	00003938 	andeq	r3, r0, r8, lsr r9
    9d04:	33323130 	teqcc	r2, #48, 2
    9d08:	37363534 			; <UNDEFINED> instruction: 0x37363534
    9d0c:	62613938 	rsbvs	r3, r1, #56, 18	; 0xe0000
    9d10:	66656463 	strbtvs	r6, [r5], -r3, ror #8
    9d14:	00000000 	andeq	r0, r0, r0
    9d18:	00003130 	andeq	r3, r0, r0, lsr r1
    9d1c:	494e4150 	stmdbmi	lr, {r4, r6, r8, lr}^
    9d20:	73253a43 	teqvc	r5, #274432	; 0x43000
    9d24:	3a73253a 	bcc	1cd3214 <__bss_end__+0x1cc8ed4>
    9d28:	703a6425 	eorsvc	r6, sl, r5, lsr #8
    9d2c:	5f637475 	svcpl	0x00637475
    9d30:	000a7066 	andeq	r7, sl, r6, rrx
    9d34:	494e4150 	stmdbmi	lr, {r4, r6, r8, lr}^
    9d38:	73253a43 	teqvc	r5, #274432	; 0x43000
    9d3c:	3a73253a 	bcc	1cd322c <__bss_end__+0x1cc8eec>
    9d40:	773a6425 	ldrvc	r6, [sl, -r5, lsr #8]!
    9d44:	68746469 	ldmdavs	r4!, {r0, r3, r5, r6, sl, sp, lr}^
    9d48:	33203c20 	teqcc	r0, #32, 24	; 0x2000
    9d4c:	00000a32 	andeq	r0, r0, r2, lsr sl
    9d50:	494e4150 	stmdbmi	lr, {r4, r6, r8, lr}^
    9d54:	73253a43 	teqvc	r5, #274432	; 0x43000
    9d58:	3a73253a 	bcc	1cd3248 <__bss_end__+0x1cc8f08>
    9d5c:	663a6425 	ldrtvs	r6, [sl], -r5, lsr #8
    9d60:	74616f6c 	strbtvc	r6, [r1], #-3948	; 0xf6c
    9d64:	746f6e20 	strbtvc	r6, [pc], #-3616	; 9d6c <__FUNCTION__.4238+0xa8>
    9d68:	616e6520 	cmnvs	lr, r0, lsr #10
    9d6c:	64656c62 	strbtvs	r6, [r5], #-3170	; 0xc62
    9d70:	0a212121 	beq	8521fc <__bss_end__+0x847ebc>
    9d74:	00000000 	andeq	r0, r0, r0
    9d78:	494e4150 	stmdbmi	lr, {r4, r6, r8, lr}^
    9d7c:	73253a43 	teqvc	r5, #274432	; 0x43000
    9d80:	3a73253a 	bcc	1cd3270 <__bss_end__+0x1cc8f30>
    9d84:	703a6425 	eorsvc	r6, sl, r5, lsr #8
    9d88:	746e6972 	strbtvc	r6, [lr], #-2418	; 0x972
    9d8c:	6e203a6b 	vnmulvs.f32	s6, s0, s23
    9d90:	6820746f 	stmdavs	r0!, {r0, r1, r2, r3, r5, r6, sl, ip, sp, lr}
    9d94:	6c646e61 	stclvs	14, cr6, [r4], #-388	; 0xfffffe7c
    9d98:	20676e69 	rsbcs	r6, r7, r9, ror #28
    9d9c:	63657073 	cmnvs	r5, #115	; 0x73
    9da0:	65696669 	strbvs	r6, [r9, #-1641]!	; 0x669
    9da4:	25272072 	strcs	r2, [r7, #-114]!	; 0x72
    9da8:	0a0a2763 	beq	293b3c <__bss_end__+0x2897fc>
    9dac:	00000000 	andeq	r0, r0, r0
    9db0:	454e4f44 	strbmi	r4, [lr, #-3908]	; 0xf44
    9db4:	0a212121 	beq	852240 <__bss_end__+0x847f00>
    9db8:	00000000 	andeq	r0, r0, r0
    9dbc:	756f6261 	strbvc	r6, [pc, #-609]!	; 9b63 <crc32_tab+0x2b7>
    9dc0:	6f742074 	svcvs	0x00742074
    9dc4:	69727020 	ldmdbvs	r2!, {r5, ip, sp, lr}^
    9dc8:	6f20746e 	svcvs	0x0020746e
    9dcc:	6572206e 	ldrbvs	r2, [r2, #-110]!	; 0x6e
    9dd0:	616c7567 	cmnvs	ip, r7, ror #10
    9dd4:	72702072 	rsbsvc	r2, r0, #114	; 0x72
    9dd8:	66746e69 	ldrbtvs	r6, [r4], -r9, ror #28
    9ddc:	0000000a 	andeq	r0, r0, sl
    9de0:	63637573 	cmnvs	r3, #482344960	; 0x1cc00000
    9de4:	21737365 	cmncs	r3, r5, ror #6
    9de8:	0000000a 	andeq	r0, r0, sl

00009dec <__FUNCTION__.4265>:
    9dec:	755f7773 	ldrbvc	r7, [pc, #-1907]	; 9681 <gpio_event_clear+0x11>
    9df0:	5f747261 	svcpl	0x00747261
    9df4:	73746567 	cmnvc	r4, #432013312	; 0x19c00000
    9df8:	746e755f 	strbtvc	r7, [lr], #-1375	; 0x55f
    9dfc:	00006c69 	andeq	r6, r0, r9, ror #24

00009e00 <__FUNCTION__.4277>:
    9e00:	755f7773 	ldrbvc	r7, [pc, #-1907]	; 9695 <gpio_event_clear+0x25>
    9e04:	5f747261 	svcpl	0x00747261
    9e08:	73746567 	cmnvc	r4, #432013312	; 0x19c00000
    9e0c:	6d69745f 	cfstrdvs	mvd7, [r9, #-380]!	; 0xfffffe84
    9e10:	74756f65 	ldrbtvc	r6, [r5], #-3941	; 0xf65
    9e14:	00000000 	andeq	r0, r0, r0

00009e18 <__FUNCTION__.4291>:
    9e18:	755f7773 	ldrbvc	r7, [pc, #-1907]	; 96ad <gpio_event_clear+0x3d>
    9e1c:	5f747261 	svcpl	0x00747261
    9e20:	74696e69 	strbtvc	r6, [r9], #-3689	; 0xe69
    9e24:	6c65685f 	stclvs	8, cr6, [r5], #-380	; 0xfffffe84
    9e28:	00726570 	rsbseq	r6, r2, r0, ror r5

00009e2c <__FUNCTION__.4297>:
    9e2c:	755f7773 	ldrbvc	r7, [pc, #-1907]	; 96c1 <gpio_event_clear+0x51>
    9e30:	5f747261 	svcpl	0x00747261
    9e34:	63746567 	cmnvs	r4, #432013312	; 0x19c00000
    9e38:	00000000 	andeq	r0, r0, r0

00009e3c <__FUNCTION__.4319>:
    9e3c:	755f7773 	ldrbvc	r7, [pc, #-1907]	; 96d1 <cb_new+0x9>
    9e40:	5f747261 	svcpl	0x00747261
    9e44:	6e697270 	mcrvs	2, 3, r7, cr9, cr0, {3}
    9e48:	00006b74 	andeq	r6, r0, r4, ror fp

00009e4c <__FUNCTION__.4327>:
    9e4c:	755f7773 	ldrbvc	r7, [pc, #-1907]	; 96e1 <cb_new+0x19>
    9e50:	5f747261 	svcpl	0x00747261
    9e54:	73746567 	cmnvc	r4, #432013312	; 0x19c00000
    9e58:	746e755f 	strbtvc	r7, [lr], #-1375	; 0x55f
    9e5c:	625f6c69 	subsvs	r6, pc, #26880	; 0x6900
    9e60:	00006b6c 	andeq	r6, r0, ip, ror #22
    9e64:	494e4150 	stmdbmi	lr, {r4, r6, r8, lr}^
    9e68:	73253a43 	teqvc	r5, #274432	; 0x43000
    9e6c:	3a73253a 	bcc	1cd335c <__bss_end__+0x1cc901c>
    9e70:	6e3a6425 	cdpvs	4, 3, cr6, cr10, cr5, {1}
    9e74:	65747962 	ldrbvs	r7, [r4, #-2402]!	; 0x962
    9e78:	0a303e73 	beq	c1984c <__bss_end__+0xc0f50c>
    9e7c:	00000000 	andeq	r0, r0, r0
    9e80:	732d796d 	teqvc	sp, #1785856	; 0x1b4000
    9e84:	732f6372 	teqvc	pc, #-939524095	; 0xc8000001
    9e88:	61752d77 	cmnvs	r5, r7, ror sp
    9e8c:	632e7472 	teqvs	lr, #1912602624	; 0x72000000
    9e90:	00000000 	andeq	r0, r0, r0
    9e94:	494e4150 	stmdbmi	lr, {r4, r6, r8, lr}^
    9e98:	73253a43 	teqvc	r5, #274432	; 0x43000
    9e9c:	3a73253a 	bcc	1cd338c <__bss_end__+0x1cc904c>
    9ea0:	283a6425 	ldmdacs	sl!, {r0, r2, r5, sl, sp, lr}
    9ea4:	207a686d 	rsbscs	r6, sl, sp, ror #16
    9ea8:	6162202d 	cmnvs	r2, sp, lsr #32
    9eac:	20296475 	eorcs	r6, r9, r5, ror r4
    9eb0:	64203d3c 	strtvs	r3, [r0], #-3388	; 0xd3c
    9eb4:	76697265 	strbtvc	r7, [r9], -r5, ror #4
    9eb8:	26206465 	strtcs	r6, [r0], -r5, ror #8
    9ebc:	65642026 	strbvs	r2, [r4, #-38]!	; 0x26
    9ec0:	65766972 	ldrbvs	r6, [r6, #-2418]!	; 0x972
    9ec4:	3d3c2064 	ldccc	0, cr2, [ip, #-400]!	; 0xfffffe70
    9ec8:	686d2820 	stmdavs	sp!, {r5, fp, sp}^
    9ecc:	202b207a 	eorcs	r2, fp, sl, ror r0
    9ed0:	64756162 	ldrbtvs	r6, [r5], #-354	; 0x162
    9ed4:	00000a29 	andeq	r0, r0, r9, lsr #20
    9ed8:	494e4150 	stmdbmi	lr, {r4, r6, r8, lr}^
    9edc:	73253a43 	teqvc	r5, #274432	; 0x43000
    9ee0:	3a73253a 	bcc	1cd33d0 <__bss_end__+0x1cc9090>
    9ee4:	693a6425 	ldmdbvs	sl!, {r0, r2, r5, sl, sp, lr}
    9ee8:	736f706d 	cmnvc	pc, #109	; 0x6d
    9eec:	6c626973 	stclvs	9, cr6, [r2], #-460	; 0xfffffe34
    9ef0:	68203a65 	stmdavs	r0!, {r0, r2, r5, r6, r9, fp, ip, sp}
    9ef4:	20657661 	rsbcs	r7, r5, r1, ror #12
    9ef8:	69206e61 	stmdbvs	r0!, {r0, r5, r6, r9, sl, fp, sp, lr}
    9efc:	6e69666e 	cdpvs	6, 6, cr6, cr9, cr14, {3}
    9f00:	20657469 	rsbcs	r7, r5, r9, ror #8
    9f04:	656d6974 	strbvs	r6, [sp, #-2420]!	; 0x974
    9f08:	2174756f 	cmncs	r4, pc, ror #10
    9f0c:	00000a0a 	andeq	r0, r0, sl, lsl #20
    9f10:	494e4150 	stmdbmi	lr, {r4, r6, r8, lr}^
    9f14:	73253a43 	teqvc	r5, #274432	; 0x43000
    9f18:	3a73253a 	bcc	1cd3408 <__bss_end__+0x1cc90c8>
    9f1c:	733a6425 	teqvc	sl, #620756992	; 0x25000000
    9f20:	203c207a 	eorscs	r2, ip, sl, ror r0
    9f24:	657a6973 	ldrbvs	r6, [sl, #-2419]!	; 0x973
    9f28:	6220666f 	eorvs	r6, r0, #116391936	; 0x6f00000
    9f2c:	312d6675 	teqcc	sp, r5, ror r6
    9f30:	0000000a 	andeq	r0, r0, sl

Disassembly of section .bss:

00009f34 <__bss_start__>:
	...

0000a334 <console_uart>:
	...

Disassembly of section .ARM.attributes:

00000000 <.ARM.attributes>:
   0:	00002a41 	andeq	r2, r0, r1, asr #20
   4:	61656100 	cmnvs	r5, r0, lsl #2
   8:	01006962 	tsteq	r0, r2, ror #18
   c:	00000020 	andeq	r0, r0, r0, lsr #32
  10:	4b5a3605 	blmi	168d82c <__bss_end__+0x16834ec>
  14:	08070600 	stmdaeq	r7, {r9, sl}
  18:	12010901 	andne	r0, r1, #16384	; 0x4000
  1c:	15011404 	strne	r1, [r1, #-1028]	; 0x404
  20:	18031701 	stmdane	r3, {r0, r8, r9, sl, ip}
  24:	22011a01 	andcs	r1, r1, #4096	; 0x1000
  28:	Address 0x0000000000000028 is out of bounds.


Disassembly of section .comment:

00000000 <.comment>:
   0:	3a434347 	bcc	10d0d24 <__bss_end__+0x10c69e4>
   4:	4e472820 	cdpmi	8, 4, cr2, cr7, cr0, {1}
   8:	34202955 	strtcc	r2, [r0], #-2389	; 0x955
   c:	332e382e 	teqcc	lr, #3014656	; 0x2e0000
	...

Disassembly of section .debug_info:

00000000 <.debug_info>:
       0:	000004eb 	andeq	r0, r0, fp, ror #9
       4:	00000004 	andeq	r0, r0, r4
       8:	01040000 	mrseq	r0, (UNDEF: 4)
       c:	0000007d 	andeq	r0, r0, sp, ror r0
      10:	00003801 	andeq	r3, r0, r1, lsl #16
      14:	00024900 	andeq	r4, r2, r0, lsl #18
      18:	00801000 	addeq	r1, r0, r0
      1c:	00019000 	andeq	r9, r1, r0
      20:	00000000 	andeq	r0, r0, r0
      24:	05040200 	streq	r0, [r4, #-512]	; 0x200
      28:	00746e69 	rsbseq	r6, r4, r9, ror #28
      2c:	9f070403 	svcls	0x00070403
      30:	03000001 	movweq	r0, #1
      34:	00f00601 	rscseq	r0, r0, r1, lsl #12
      38:	02030000 	andeq	r0, r3, #0
      3c:	00022905 	andeq	r2, r2, r5, lsl #18
      40:	05040300 	streq	r0, [r4, #-768]	; 0x300
      44:	000001ef 	andeq	r0, r0, pc, ror #3
      48:	ea050803 	b	14205c <__bss_end__+0x137d1c>
      4c:	04000001 	streq	r0, [r0], #-1
      50:	000001ac 	andeq	r0, r0, ip, lsr #3
      54:	005a2e02 	subseq	r2, sl, r2, lsl #28
      58:	01030000 	mrseq	r0, (UNDEF: 3)
      5c:	0000ee08 	andeq	lr, r0, r8, lsl #28
      60:	07020300 	streq	r0, [r2, -r0, lsl #6]
      64:	00000052 	andeq	r0, r0, r2, asr r0
      68:	0002bb04 	andeq	fp, r2, r4, lsl #22
      6c:	73340200 	teqvc	r4, #0, 4
      70:	03000000 	movweq	r0, #0
      74:	019a0704 	orrseq	r0, sl, r4, lsl #14
      78:	08030000 	stmdaeq	r3, {}	; <UNPREDICTABLE>
      7c:	00019507 	andeq	r9, r1, r7, lsl #10
      80:	07040300 	streq	r0, [r4, -r0, lsl #6]
      84:	000001e1 	andeq	r0, r0, r1, ror #3
      88:	01030405 	tsteq	r3, r5, lsl #8
      8c:	0000f708 	andeq	pc, r0, r8, lsl #14
      90:	97040600 	strls	r0, [r4, -r0, lsl #12]
      94:	07000000 	streq	r0, [r0, -r0]
      98:	0000008a 	andeq	r0, r0, sl, lsl #1
      9c:	00008a08 	andeq	r8, r0, r8, lsl #20
      a0:	0000ac00 	andeq	sl, r0, r0, lsl #24
      a4:	00810900 	addeq	r0, r1, r0, lsl #18
      a8:	00070000 	andeq	r0, r7, r0
      ac:	1103010a 	tstne	r3, sl, lsl #2
      b0:	00000134 	andeq	r0, r0, r4, lsr r1
      b4:	0000dc0b 	andeq	sp, r0, fp, lsl #24
      b8:	090b0000 	stmdbeq	fp, {}	; <UNPREDICTABLE>
      bc:	01000000 	mrseq	r0, (UNDEF: 0)
      c0:	00016f0b 	andeq	r6, r1, fp, lsl #30
      c4:	1e0b0200 	cdpne	2, 0, cr0, cr11, cr0, {0}
      c8:	03000001 	movweq	r0, #1
      cc:	00023f0b 	andeq	r3, r2, fp, lsl #30
      d0:	270b0400 	strcs	r0, [fp, -r0, lsl #8]
      d4:	05000000 	streq	r0, [r0, #-0]
      d8:	0002180b 	andeq	r1, r2, fp, lsl #16
      dc:	440b0600 	strmi	r0, [fp], #-1536	; 0x600
      e0:	07000001 	streq	r0, [r0, -r1]
      e4:	0001d50b 	andeq	sp, r1, fp, lsl #10
      e8:	700b0800 	andvc	r0, fp, r0, lsl #16
      ec:	09000000 	stmdbeq	r0, {}	; <UNPREDICTABLE>
      f0:	0001c20b 	andeq	ip, r1, fp, lsl #4
      f4:	190b0a00 	stmdbne	fp, {r9, fp}
      f8:	0b000000 	bleq	100 <_start-0x7f00>
      fc:	0002cb0b 	andeq	ip, r2, fp, lsl #22
     100:	a80b0c00 	stmdage	fp, {sl, fp}
     104:	0d000002 	stceq	0, cr0, [r0, #-8]
     108:	0000430b 	andeq	r4, r0, fp, lsl #6
     10c:	5f0b0e00 	svcpl	0x000b0e00
     110:	0f000001 	svceq	0x00000001
     114:	00018c0b 	andeq	r8, r1, fp, lsl #24
     118:	090b1000 	stmdbeq	fp, {ip}
     11c:	11000001 	tstne	r0, r1
     120:	00012c0b 	andeq	r2, r1, fp, lsl #24
     124:	120b1200 	andne	r1, fp, #0, 4
     128:	13000000 	movwne	r0, #0
     12c:	0002330b 	andeq	r3, r2, fp, lsl #6
     130:	00018000 	andeq	r8, r1, r0
     134:	0001b40c 	andeq	fp, r1, ip, lsl #8
     138:	4b031000 	blmi	c4140 <__bss_end__+0xb9e00>
     13c:	00000171 	andeq	r0, r0, r1, ror r1
     140:	0001120d 	andeq	r1, r1, sp, lsl #4
     144:	684c0300 	stmdavs	ip, {r8, r9}^
     148:	00000000 	andeq	r0, r0, r0
     14c:	0001f80d 	andeq	pc, r1, sp, lsl #16
     150:	684c0300 	stmdavs	ip, {r8, r9}^
     154:	04000000 	streq	r0, [r0], #-0
     158:	0001190d 	andeq	r1, r1, sp, lsl #18
     15c:	684c0300 	stmdavs	ip, {r8, r9}^
     160:	08000000 	stmdaeq	r0, {}	; <UNPREDICTABLE>
     164:	0002c40d 	andeq	ip, r2, sp, lsl #8
     168:	684c0300 	stmdavs	ip, {r8, r9}^
     16c:	0c000000 	stceq	0, cr0, [r0], {-0}
     170:	00650e00 	rsbeq	r0, r5, r0, lsl #28
     174:	1e010000 	cdpne	0, 0, cr0, cr1, cr0, {0}
     178:	00008010 	andeq	r8, r0, r0, lsl r0
     17c:	0000002c 	andeq	r0, r0, ip, lsr #32
     180:	01d09c01 	bicseq	r9, r0, r1, lsl #24
     184:	a90f0000 	stmdbge	pc, {}	; <UNPREDICTABLE>
     188:	01000007 	tsteq	r0, r7
     18c:	0000881e 	andeq	r8, r0, lr, lsl r8
     190:	00000000 	andeq	r0, r0, r0
     194:	006e1000 	rsbeq	r1, lr, r0
     198:	002c1e01 	eoreq	r1, ip, r1, lsl #28
     19c:	001e0000 	andseq	r0, lr, r0
     1a0:	70110000 	andsvc	r0, r1, r0
     1a4:	d01f0100 	andsle	r0, pc, r0, lsl #2
     1a8:	3c000001 	stccc	0, cr0, [r0], {1}
     1ac:	12000000 	andne	r0, r0, #0
     1b0:	0000801c 	andeq	r8, r0, ip, lsl r0
     1b4:	0000001c 	andeq	r0, r0, ip, lsl r0
     1b8:	01006911 	tsteq	r0, r1, lsl r9
     1bc:	00002520 	andeq	r2, r0, r0, lsr #10
     1c0:	00005a00 	andeq	r5, r0, r0, lsl #20
     1c4:	80281300 	eorhi	r1, r8, r0, lsl #6
     1c8:	045a0000 	ldrbeq	r0, [sl], #-0
     1cc:	00000000 	andeq	r0, r0, r0
     1d0:	004f0406 	subeq	r0, pc, r6, lsl #8
     1d4:	d4140000 	ldrle	r0, [r4], #-0
     1d8:	01000000 	mrseq	r0, (UNDEF: 0)
     1dc:	00803c24 	addeq	r3, r0, r4, lsr #24
     1e0:	00016400 	andeq	r6, r1, r0, lsl #8
     1e4:	559c0100 	ldrpl	r0, [ip, #256]	; 0x100
     1e8:	15000004 	strne	r0, [r0, #-4]
     1ec:	0100706f 	tsteq	r0, pc, rrx
     1f0:	00004f31 	andeq	r4, r0, r1, lsr pc
     1f4:	67910200 	ldrvs	r0, [r1, r0, lsl #4]
     1f8:	01006e15 	tsteq	r0, r5, lsl lr
     1fc:	00006832 	andeq	r6, r0, r2, lsr r8
     200:	15560100 	ldrbne	r0, [r6, #-256]	; 0x100
     204:	00637263 	rsbeq	r7, r3, r3, ror #4
     208:	00683201 	rsbeq	r3, r8, r1, lsl #4
     20c:	91020000 	mrsls	r0, (UNDEF: 2)
     210:	01191660 	tsteq	r9, r0, ror #12
     214:	33010000 	movwcc	r0, #4096	; 0x1000
     218:	00000088 	andeq	r0, r0, r8, lsl #1
     21c:	00000079 	andeq	r0, r0, r9, ror r0
     220:	01006815 	tsteq	r0, r5, lsl r8
     224:	00013434 	andeq	r3, r1, r4, lsr r4
     228:	50910200 	addspl	r0, r1, r0, lsl #4
     22c:	00017f17 	andeq	r7, r1, r7, lsl pc
     230:	00045500 	andeq	r5, r4, r0, lsl #10
     234:	d4030500 	strle	r0, [r3], #-1280	; 0x500
     238:	16000097 			; <UNDEFINED> instruction: 0x16000097
     23c:	0000013b 	andeq	r0, r0, fp, lsr r1
     240:	00684f01 	rsbeq	r4, r8, r1, lsl #30
     244:	00b10000 	adcseq	r0, r1, r0
     248:	00180000 	andseq	r0, r8, r0
     24c:	ab000000 	blge	254 <_start-0x7dac>
     250:	11000002 	tstne	r0, r2
     254:	54010069 	strpl	r0, [r1], #-105	; 0x69
     258:	00000025 	andeq	r0, r0, r5, lsr #32
     25c:	000000cf 	andeq	r0, r0, pc, asr #1
     260:	00815419 	addeq	r5, r1, r9, lsl r4
     264:	00046500 	andeq	r6, r4, r0, lsl #10
     268:	00028600 	andeq	r8, r2, r0, lsl #12
     26c:	53011a00 	movwpl	r1, #6656	; 0x1a00
     270:	1a007602 	bne	1da80 <__bss_end__+0x13740>
     274:	75025201 	strvc	r5, [r2, #-513]	; 0x201
     278:	51011a00 	tstpl	r1, r0, lsl #20
     27c:	1a007402 	bne	1d28c <__bss_end__+0x12f4c>
     280:	78025001 	stmdavc	r2, {r0, ip, lr}
     284:	5c190000 	ldcpl	0, cr0, [r9], {-0}
     288:	7b000081 	blvc	494 <_start-0x7b6c>
     28c:	9a000004 	bls	2a4 <_start-0x7d5c>
     290:	1a000002 	bne	2a0 <_start-0x7d60>
     294:	75025001 	strvc	r5, [r2, #-1]
     298:	641b0000 	ldrvs	r0, [fp], #-0
     29c:	65000081 	strvs	r0, [r0, #-129]	; 0x81
     2a0:	1a000004 	bne	2b8 <_start-0x7d48>
     2a4:	77025001 	strvc	r5, [r2, -r1]
     2a8:	13000000 	movwne	r0, #0
     2ac:	00008048 	andeq	r8, r0, r8, asr #32
     2b0:	0000048c 	andeq	r0, r0, ip, lsl #9
     2b4:	00805019 	addeq	r5, r0, r9, lsl r0
     2b8:	00049300 	andeq	r9, r4, r0, lsl #6
     2bc:	0002c700 	andeq	ip, r2, r0, lsl #14
     2c0:	50011a00 	andpl	r1, r1, r0, lsl #20
     2c4:	19003801 	stmdbne	r0, {r0, fp, ip, sp}
     2c8:	0000805c 	andeq	r8, r0, ip, asr r0
     2cc:	00000171 	andeq	r0, r0, r1, ror r1
     2d0:	000002e0 	andeq	r0, r0, r0, ror #5
     2d4:	0151011a 	cmpeq	r1, sl, lsl r1
     2d8:	50011a31 	andpl	r1, r1, r1, lsr sl
     2dc:	005f9102 	subseq	r9, pc, r2, lsl #2
     2e0:	00806819 	addeq	r6, r0, r9, lsl r8
     2e4:	00017100 	andeq	r7, r1, r0, lsl #2
     2e8:	0002f900 	andeq	pc, r2, r0, lsl #18
     2ec:	51011a00 	tstpl	r1, r0, lsl #20
     2f0:	011a4001 	tsteq	sl, r1
     2f4:	48910250 	ldmmi	r1, {r4, r6, r9}
     2f8:	80741900 	rsbshi	r1, r4, r0, lsl #18
     2fc:	01710000 	cmneq	r1, r0
     300:	03120000 	tsteq	r2, #0
     304:	011a0000 	tsteq	sl, r0
     308:	1a340151 	bne	d00854 <__bss_end__+0xcf6514>
     30c:	91025001 	tstls	r2, r1
     310:	88130058 	ldmdahi	r3, {r3, r4, r6}
     314:	a4000080 	strge	r0, [r0], #-128	; 0x80
     318:	19000004 	stmdbne	r0, {r2}
     31c:	0000809c 	muleq	r0, ip, r0
     320:	00000465 	andeq	r0, r0, r5, ror #8
     324:	0000034a 	andeq	r0, r0, sl, asr #6
     328:	0253011a 	subseq	r0, r3, #-2147483642	; 0x80000006
     32c:	011a4508 	tsteq	sl, r8, lsl #10
     330:	d4030552 	strle	r0, [r3], #-1362	; 0x552
     334:	1a000097 	bne	598 <_start-0x7a68>
     338:	03055101 	movweq	r5, #20737	; 0x5101
     33c:	000097f8 	strdeq	r9, [r0], -r8
     340:	0550011a 	ldrbeq	r0, [r0, #-282]	; 0x11a
     344:	0097dc03 	addseq	sp, r7, r3, lsl #24
     348:	a0130000 	andsge	r0, r3, r0
     34c:	ab000080 	blge	554 <_start-0x7aac>
     350:	13000004 	movwne	r0, #4
     354:	000080ac 	andeq	r8, r0, ip, lsr #1
     358:	000004a4 	andeq	r0, r0, r4, lsr #9
     35c:	0080cc19 	addeq	ip, r0, r9, lsl ip
     360:	00046500 	andeq	r6, r4, r0, lsl #10
     364:	00039a00 	andeq	r9, r3, r0, lsl #20
     368:	53011a00 	movwpl	r1, #6656	; 0x1a00
     36c:	1a490802 	bne	124237c <__bss_end__+0x123803c>
     370:	03055201 	movweq	r5, #20993	; 0x5201
     374:	000097d4 	ldrdeq	r9, [r0], -r4
     378:	0551011a 	ldrbeq	r0, [r1, #-282]	; 0x11a
     37c:	0097f803 	addseq	pc, r7, r3, lsl #16
     380:	50011a00 	andpl	r1, r1, r0, lsl #20
     384:	98040305 	stmdals	r4, {r0, r2, r8, r9}
     388:	021a0000 	andseq	r0, sl, #0
     38c:	4203047d 	andmi	r0, r3, #2097152000	; 0x7d000000
     390:	021a2447 	andseq	r2, sl, #1191182336	; 0x47000000
     394:	7502007d 	strvc	r0, [r2, #-125]	; 0x7d
     398:	d0130000 	andsle	r0, r3, r0
     39c:	ab000080 	blge	5a4 <_start-0x7a5c>
     3a0:	19000004 	stmdbne	r0, {r2}
     3a4:	000080e4 	andeq	r8, r0, r4, ror #1
     3a8:	00000171 	andeq	r0, r0, r1, ror r1
     3ac:	000003bd 			; <UNDEFINED> instruction: 0x000003bd
     3b0:	0251011a 	subseq	r0, r1, #-2147483642	; 0x80000006
     3b4:	011a0076 	tsteq	sl, r6, ror r0
     3b8:	00750250 	rsbseq	r0, r5, r0, asr r2
     3bc:	80f01900 	rscshi	r1, r0, r0, lsl #18
     3c0:	04b20000 	ldrteq	r0, [r2], #0
     3c4:	03d60000 	bicseq	r0, r6, #0
     3c8:	011a0000 	tsteq	sl, r0
     3cc:	1a400151 	bne	1000918 <__bss_end__+0xff65d8>
     3d0:	91025001 	tstls	r2, r1
     3d4:	00190048 	andseq	r0, r9, r8, asr #32
     3d8:	d3000081 	movwle	r0, #129	; 0x81
     3dc:	f0000004 			; <UNDEFINED> instruction: 0xf0000004
     3e0:	1a000003 	bne	3f4 <_start-0x7c0c>
     3e4:	76025101 	strvc	r5, [r2], -r1, lsl #2
     3e8:	50011a00 	andpl	r1, r1, r0, lsl #20
     3ec:	00007502 	andeq	r7, r0, r2, lsl #10
     3f0:	00811013 	addeq	r1, r1, r3, lsl r0
     3f4:	0004a400 	andeq	sl, r4, r0, lsl #8
     3f8:	811c1900 	tsthi	ip, r0, lsl #18
     3fc:	04b20000 	ldrteq	r0, [r2], #0
     400:	04130000 	ldreq	r0, [r3], #-0
     404:	011a0000 	tsteq	sl, r0
     408:	00760251 	rsbseq	r0, r6, r1, asr r2
     40c:	0250011a 	subseq	r0, r0, #-2147483642	; 0x80000006
     410:	19000075 	stmdbne	r0, {r0, r2, r4, r5, r6}
     414:	0000813c 	andeq	r8, r0, ip, lsr r1
     418:	00000465 	andeq	r0, r0, r5, ror #8
     41c:	00000442 	andeq	r0, r0, r2, asr #8
     420:	0253011a 	subseq	r0, r3, #-2147483642	; 0x80000006
     424:	011a5108 	tsteq	sl, r8, lsl #2
     428:	d4030552 	strle	r0, [r3], #-1362	; 0x552
     42c:	1a000097 	bne	690 <_start-0x7970>
     430:	03055101 	movweq	r5, #20737	; 0x5101
     434:	000097f8 	strdeq	r9, [r0], -r8
     438:	0550011a 	ldrbeq	r0, [r0, #-282]	; 0x11a
     43c:	00983403 	addseq	r3, r8, r3, lsl #8
     440:	40130000 	andsmi	r0, r3, r0
     444:	ab000081 	blge	650 <_start-0x79b0>
     448:	13000004 	movwne	r0, #4
     44c:	00008184 	andeq	r8, r0, r4, lsl #3
     450:	000004ab 	andeq	r0, r0, fp, lsr #9
     454:	009c0700 	addseq	r0, ip, r0, lsl #14
     458:	5e1c0000 	cdppl	0, 1, cr0, cr12, cr0, {0}
     45c:	04000006 	streq	r0, [r0], #-6
     460:	0000253b 	andeq	r2, r0, fp, lsr r5
     464:	03561d00 	cmpeq	r6, #0, 26
     468:	29040000 	stmdbcs	r4, {}	; <UNPREDICTABLE>
     46c:	00000025 	andeq	r0, r0, r5, lsr #32
     470:	0000047b 	andeq	r0, r0, fp, ror r4
     474:	0000911e 	andeq	r9, r0, lr, lsl r1
     478:	20001f00 	andcs	r1, r0, r0, lsl #30
     47c:	00000000 	andeq	r0, r0, r0
     480:	048cb104 	streq	fp, [ip], #260	; 0x104
     484:	2c1e0000 	ldccs	0, cr0, [lr], {-0}
     488:	00000000 	andeq	r0, r0, r0
     48c:	0000e421 	andeq	lr, r0, r1, lsr #8
     490:	203a0400 	eorscs	r0, sl, r0, lsl #8
     494:	000004f2 	strdeq	r0, [r0], -r2
     498:	04a43c04 	strteq	r3, [r4], #3076	; 0xc04
     49c:	2c1e0000 	ldccs	0, cr0, [lr], {-0}
     4a0:	00000000 	andeq	r0, r0, r0
     4a4:	00015021 	andeq	r5, r1, r1, lsr #32
     4a8:	211e0400 	tstcs	lr, r0, lsl #8
     4ac:	000000fc 	strdeq	r0, [r0], -ip
     4b0:	001d6604 	andseq	r6, sp, r4, lsl #12
     4b4:	05000002 	streq	r0, [r0, #-2]
     4b8:	00006801 	andeq	r6, r0, r1, lsl #16
     4bc:	0004cc00 	andeq	ip, r4, r0, lsl #24
     4c0:	04cc1e00 	strbeq	r1, [ip], #3584	; 0xe00
     4c4:	2c1e0000 	ldccs	0, cr0, [lr], {-0}
     4c8:	00000000 	andeq	r0, r0, r0
     4cc:	04d20406 	ldrbeq	r0, [r2], #1030	; 0x406
     4d0:	23220000 	teqcs	r2, #0
     4d4:	0000020a 	andeq	r0, r0, sl, lsl #4
     4d8:	00680205 	rsbeq	r0, r8, r5, lsl #4
     4dc:	cc1e0000 	ldcgt	0, cr0, [lr], {-0}
     4e0:	1e000004 	cdpne	0, 0, cr0, cr0, cr4, {0}
     4e4:	0000002c 	andeq	r0, r0, ip, lsr #32
     4e8:	0000681e 	andeq	r6, r0, lr, lsl r8
     4ec:	66000000 	strvs	r0, [r0], -r0
     4f0:	04000001 	streq	r0, [r0], #-1
     4f4:	0001cf00 	andeq	ip, r1, r0, lsl #30
     4f8:	7d010400 	cfstrsvc	mvf0, [r1, #-0]
     4fc:	01000000 	mrseq	r0, (UNDEF: 0)
     500:	000002e7 	andeq	r0, r0, r7, ror #5
     504:	000002f2 	strdeq	r0, [r0], -r2
     508:	000081a0 	andeq	r8, r0, r0, lsr #3
     50c:	00000050 	andeq	r0, r0, r0, asr r0
     510:	0000018d 	andeq	r0, r0, sp, lsl #3
     514:	f0060102 			; <UNDEFINED> instruction: 0xf0060102
     518:	02000000 	andeq	r0, r0, #0
     51c:	02290502 	eoreq	r0, r9, #8388608	; 0x800000
     520:	04020000 	streq	r0, [r2], #-0
     524:	0001ef05 	andeq	lr, r1, r5, lsl #30
     528:	05080200 	streq	r0, [r8, #-512]	; 0x200
     52c:	000001ea 	andeq	r0, r0, sl, ror #3
     530:	0001ac03 	andeq	sl, r1, r3, lsl #24
     534:	4c2e0200 	sfmmi	f0, 4, [lr], #-0
     538:	02000000 	andeq	r0, r0, #0
     53c:	00ee0801 	rsceq	r0, lr, r1, lsl #16
     540:	02020000 	andeq	r0, r2, #0
     544:	00005207 	andeq	r5, r0, r7, lsl #4
     548:	02bb0300 	adcseq	r0, fp, #0, 6
     54c:	34020000 	strcc	r0, [r2], #-0
     550:	00000065 	andeq	r0, r0, r5, rrx
     554:	9a070402 	bls	1c1564 <__bss_end__+0x1b7224>
     558:	02000001 	andeq	r0, r0, #1
     55c:	01950708 	orrseq	r0, r5, r8, lsl #14
     560:	04040000 	streq	r0, [r4], #-0
     564:	746e6905 	strbtvc	r6, [lr], #-2309	; 0x905
     568:	07040200 	streq	r0, [r4, -r0, lsl #4]
     56c:	0000019f 	muleq	r0, pc, r1	; <UNPREDICTABLE>
     570:	00020a05 	andeq	r0, r2, r5, lsl #20
     574:	5a360100 	bpl	d8097c <__bss_end__+0xd7663c>
     578:	a0000000 	andge	r0, r0, r0
     57c:	40000081 	andmi	r0, r0, r1, lsl #1
     580:	01000000 	mrseq	r0, (UNDEF: 0)
     584:	0000d59c 	muleq	r0, ip, r5
     588:	75620600 	strbvc	r0, [r2, #-1536]!	; 0x600
     58c:	36010066 	strcc	r0, [r1], -r6, rrx
     590:	000000d5 	ldrdeq	r0, [r0], -r5
     594:	000000ed 	andeq	r0, r0, sp, ror #1
     598:	0001fb07 	andeq	pc, r1, r7, lsl #22
     59c:	7a360100 	bvc	d809a4 <__bss_end__+0xd76664>
     5a0:	0e000000 	cdpeq	0, 0, cr0, cr0, cr0, {0}
     5a4:	06000001 	streq	r0, [r0], -r1
     5a8:	00637263 	rsbeq	r7, r3, r3, ror #4
     5ac:	005a3601 	subseq	r3, sl, r1, lsl #12
     5b0:	01420000 	mrseq	r0, (UNDEF: 66)
     5b4:	70080000 	andvc	r0, r8, r0
     5b8:	dc370100 	ldfles	f0, [r7], #-0
     5bc:	60000000 	andvs	r0, r0, r0
     5c0:	00000001 	andeq	r0, r0, r1
     5c4:	00db0409 	sbcseq	r0, fp, r9, lsl #8
     5c8:	090a0000 	stmdbeq	sl, {}	; <UNPREDICTABLE>
     5cc:	0000e204 	andeq	lr, r0, r4, lsl #4
     5d0:	00410b00 	subeq	r0, r1, r0, lsl #22
     5d4:	00050000 	andeq	r0, r5, r0
     5d8:	01000002 	tsteq	r0, r2
     5dc:	00005a3f 	andeq	r5, r0, pc, lsr sl
     5e0:	0081e000 	addeq	lr, r1, r0
     5e4:	00001000 	andeq	r1, r0, r0
     5e8:	3c9c0100 	ldfccs	f0, [ip], {0}
     5ec:	06000001 	streq	r0, [r0], -r1
     5f0:	00667562 	rsbeq	r7, r6, r2, ror #10
     5f4:	00d53f01 	sbcseq	r3, r5, r1, lsl #30
     5f8:	018b0000 	orreq	r0, fp, r0
     5fc:	fb070000 	blx	1c0606 <__bss_end__+0x1b62c6>
     600:	01000001 	tsteq	r0, r1
     604:	00007a3f 	andeq	r7, r0, pc, lsr sl
     608:	0001ac00 	andeq	sl, r1, r0, lsl #24
     60c:	81ec0c00 	mvnhi	r0, r0, lsl #24
     610:	00810000 	addeq	r0, r1, r0
     614:	010d0000 	mrseq	r0, (UNDEF: 13)
     618:	0d300152 	ldfeqs	f0, [r0, #-328]!	; 0xfffffeb8
     61c:	f3035101 	vrhadd.u8	d5, d3, d1
     620:	010d5101 	tsteq	sp, r1, lsl #2
     624:	01f30350 	mvnseq	r0, r0, asr r3
     628:	0e000050 	mcreq	0, 0, r0, cr0, cr0, {2}
     62c:	0000005a 	andeq	r0, r0, sl, asr r0
     630:	0000014c 	andeq	r0, r0, ip, asr #2
     634:	00014c0f 	andeq	r4, r1, pc, lsl #24
     638:	0200ff00 	andeq	pc, r0, #0, 30
     63c:	01e10704 	mvneq	r0, r4, lsl #14
     640:	dd100000 	ldcle	0, cr0, [r0, #-0]
     644:	01000002 	tsteq	r0, r2
     648:	00016408 	andeq	r6, r1, r8, lsl #8
     64c:	ac030500 	cfstr32ge	mvfx0, [r3], {-0}
     650:	0b000098 	bleq	8b8 <_start-0x7748>
     654:	0000013c 	andeq	r0, r0, ip, lsr r1
     658:	00019100 	andeq	r9, r1, r0, lsl #2
     65c:	9c000400 	cfstrsls	mvf0, [r0], {-0}
     660:	04000002 	streq	r0, [r0], #-2
     664:	00007d01 	andeq	r7, r0, r1, lsl #26
     668:	03450100 	movteq	r0, #20736	; 0x5100
     66c:	02f20000 	rscseq	r0, r2, #0
     670:	81f00000 	mvnshi	r0, r0
     674:	00580000 	subseq	r0, r8, r0
     678:	02370000 	eorseq	r0, r7, #0
     67c:	36020000 	strcc	r0, [r2], -r0
     680:	02000003 	andeq	r0, r0, #3
     684:	00003028 	andeq	r3, r0, r8, lsr #32
     688:	035d0300 	cmpeq	sp, #0, 6
     68c:	03040000 	movweq	r0, #16384	; 0x4000
     690:	00004700 	andeq	r4, r0, r0, lsl #14
     694:	036c0400 	cmneq	ip, #0, 8
     698:	00470000 	subeq	r0, r7, r0
     69c:	00000000 	andeq	r0, r0, r0
     6a0:	5f020405 	svcpl	0x00020405
     6a4:	02000003 	andeq	r0, r0, #3
     6a8:	00002562 	andeq	r2, r0, r2, ror #10
     6ac:	05040600 	streq	r0, [r4, #-1536]	; 0x600
     6b0:	00746e69 	rsbseq	r6, r4, r9, ror #28
     6b4:	9f070407 	svcls	0x00070407
     6b8:	07000001 	streq	r0, [r0, -r1]
     6bc:	00f00601 	rscseq	r0, r0, r1, lsl #12
     6c0:	02070000 	andeq	r0, r7, #0
     6c4:	00022905 	andeq	r2, r2, r5, lsl #18
     6c8:	05040700 	streq	r0, [r4, #-1792]	; 0x700
     6cc:	000001ef 	andeq	r0, r0, pc, ror #3
     6d0:	ea050807 	b	1426f4 <__bss_end__+0x1383b4>
     6d4:	07000001 	streq	r0, [r0, -r1]
     6d8:	00ee0801 	rsceq	r0, lr, r1, lsl #16
     6dc:	02070000 	andeq	r0, r7, #0
     6e0:	00005207 	andeq	r5, r0, r7, lsl #4
     6e4:	07040700 	streq	r0, [r4, -r0, lsl #14]
     6e8:	0000019a 	muleq	r0, sl, r1
     6ec:	95070807 	strls	r0, [r7, #-2055]	; 0x807
     6f0:	07000001 	streq	r0, [r0, -r1]
     6f4:	01e10704 	mvneq	r0, r4, lsl #14
     6f8:	04080000 	streq	r0, [r8], #-0
     6fc:	000000a7 	andeq	r0, r0, r7, lsr #1
     700:	f7080107 			; <UNDEFINED> instruction: 0xf7080107
     704:	08000000 	stmdaeq	r0, {}	; <UNPREDICTABLE>
     708:	0000b404 	andeq	fp, r0, r4, lsl #8
     70c:	00a70900 	adceq	r0, r7, r0, lsl #18
     710:	560a0000 	strpl	r0, [sl], -r0
     714:	01000003 	tsteq	r0, r3
     718:	00005406 	andeq	r5, r0, r6, lsl #8
     71c:	0081f000 	addeq	pc, r1, r0
     720:	00005800 	andeq	r5, r0, r0, lsl #16
     724:	439c0100 	orrsmi	r0, ip, #0, 2
     728:	0b000001 	bleq	734 <_start-0x78cc>
     72c:	00746d66 	rsbseq	r6, r4, r6, ror #26
     730:	00ae0601 	adceq	r0, lr, r1, lsl #12
     734:	91020000 	mrsls	r0, (UNDEF: 2)
     738:	620d0c70 	andvs	r0, sp, #112, 24	; 0x7000
     73c:	01006675 	tsteq	r0, r5, ror r6
     740:	00014308 	andeq	r4, r1, r8, lsl #6
     744:	34030500 	strcc	r0, [r3], #-1280	; 0x500
     748:	0e00009f 	mcreq	0, 0, r0, cr0, cr15, {4}
     74c:	00000367 	andeq	r0, r0, r7, ror #6
     750:	00490901 	subeq	r0, r9, r1, lsl #18
     754:	91020000 	mrsls	r0, (UNDEF: 2)
     758:	7a730f5c 	bvc	1cc44d0 <__bss_end__+0x1cba190>
     75c:	540c0100 	strpl	r0, [ip], #-256	; 0x100
     760:	cd000000 	stcgt	0, cr0, [r0, #-0]
     764:	10000001 	andne	r0, r0, r1
     768:	00008218 	andeq	r8, r0, r8, lsl r2
     76c:	00000174 	andeq	r0, r0, r4, ror r1
     770:	00000136 	andeq	r0, r0, r6, lsr r1
     774:	02530111 	subseq	r0, r3, #1073741828	; 0x40000004
     778:	01114c91 			; <UNDEFINED> instruction: 0x01114c91
     77c:	48910352 	ldmmi	r1, {r1, r4, r6, r8, r9}
     780:	51011106 	tstpl	r1, r6, lsl #2
     784:	04000a03 	streq	r0, [r0], #-2563	; 0xa03
     788:	02500111 	subseq	r0, r0, #1073741828	; 0x40000004
     78c:	12000074 	andne	r0, r0, #116	; 0x74
     790:	0000822c 	andeq	r8, r0, ip, lsr #4
     794:	02500111 	subseq	r0, r0, #1073741828	; 0x40000004
     798:	00000074 	andeq	r0, r0, r4, ror r0
     79c:	0000a713 	andeq	sl, r0, r3, lsl r7
     7a0:	00015400 	andeq	r5, r1, r0, lsl #8
     7a4:	009a1400 	addseq	r1, sl, r0, lsl #8
     7a8:	03ff0000 	mvnseq	r0, #0
     7ac:	00541500 	subseq	r1, r4, r0, lsl #10
     7b0:	01630000 	cmneq	r3, r0
     7b4:	ae160000 	cdpge	0, 1, cr0, cr6, cr0, {0}
     7b8:	00000000 	andeq	r0, r0, r0
     7bc:	0003bf17 	andeq	fp, r3, r7, lsl pc
     7c0:	6e220400 	cdpvs	4, 2, cr0, cr2, cr0, {0}
     7c4:	08000001 	stmdaeq	r0, {r0}
     7c8:	00015404 	andeq	r5, r1, r4, lsl #8
     7cc:	03531800 	cmpeq	r3, #0, 16
     7d0:	02050000 	andeq	r0, r5, #0
     7d4:	00000054 	andeq	r0, r0, r4, asr r0
     7d8:	0000a116 	andeq	sl, r0, r6, lsl r1
     7dc:	00541600 	subseq	r1, r4, r0, lsl #12
     7e0:	ae160000 	cdpge	0, 1, cr0, cr6, cr0, {0}
     7e4:	16000000 	strne	r0, [r0], -r0
     7e8:	00000049 	andeq	r0, r0, r9, asr #32
     7ec:	01130000 	tsteq	r3, r0
     7f0:	00040000 	andeq	r0, r4, r0
     7f4:	000003cd 	andeq	r0, r0, sp, asr #7
     7f8:	007d0104 	rsbseq	r0, sp, r4, lsl #2
     7fc:	8e010000 	cdphi	0, 0, cr0, cr1, cr0, {0}
     800:	f2000003 	vhadd.s8	d0, d0, d3
     804:	48000002 	stmdami	r0, {r1}
     808:	3c000082 	stccc	0, cr0, [r0], {130}	; 0x82
     80c:	3d000000 	stccc	0, cr0, [r0, #-0]
     810:	02000003 	andeq	r0, r0, #3
     814:	6e690504 	cdpvs	5, 6, cr0, cr9, cr4, {0}
     818:	04030074 	streq	r0, [r3], #-116	; 0x74
     81c:	00019f07 	andeq	r9, r1, r7, lsl #30
     820:	06010300 	streq	r0, [r1], -r0, lsl #6
     824:	000000f0 	strdeq	r0, [r0], -r0	; <UNPREDICTABLE>
     828:	29050203 	stmdbcs	r5, {r0, r1, r9}
     82c:	03000002 	movweq	r0, #2
     830:	01ef0504 	mvneq	r0, r4, lsl #10
     834:	08030000 	stmdaeq	r3, {}	; <UNPREDICTABLE>
     838:	0001ea05 	andeq	lr, r1, r5, lsl #20
     83c:	08010300 	stmdaeq	r1, {r8, r9}
     840:	000000ee 	andeq	r0, r0, lr, ror #1
     844:	52070203 	andpl	r0, r7, #805306368	; 0x30000000
     848:	03000000 	movweq	r0, #0
     84c:	019a0704 	orrseq	r0, sl, r4, lsl #14
     850:	08030000 	stmdaeq	r3, {}	; <UNPREDICTABLE>
     854:	00019507 	andeq	r9, r1, r7, lsl #10
     858:	07040300 	streq	r0, [r4, -r0, lsl #6]
     85c:	000001e1 	andeq	r0, r0, r1, ror #3
     860:	f7080103 			; <UNDEFINED> instruction: 0xf7080103
     864:	04000000 	streq	r0, [r0], #-0
     868:	00000371 	andeq	r0, r0, r1, ror r3
     86c:	00250301 	eoreq	r0, r5, r1, lsl #6
     870:	82480000 	subhi	r0, r8, #0
     874:	00140000 	andseq	r0, r4, r0
     878:	9c010000 	stcls	0, cr0, [r1], {-0}
     87c:	000000b0 	strheq	r0, [r0], -r0	; <UNPREDICTABLE>
     880:	01006305 	tsteq	r0, r5, lsl #6
     884:	00002503 	andeq	r2, r0, r3, lsl #10
     888:	0001f600 	andeq	pc, r1, r0, lsl #12
     88c:	82540600 	subshi	r0, r4, #0, 12
     890:	01090000 	mrseq	r0, (UNDEF: 9)
     894:	01070000 	mrseq	r0, (UNDEF: 7)
     898:	00740250 	rsbseq	r0, r4, r0, asr r2
     89c:	50080000 	andpl	r0, r8, r0
     8a0:	01000001 	tsteq	r0, r1
     8a4:	00825c08 	addeq	r5, r2, r8, lsl #24
     8a8:	00001800 	andeq	r1, r0, r0, lsl #16
     8ac:	099c0100 	ldmibeq	ip, {r8}
     8b0:	0000039d 	muleq	r0, sp, r3
     8b4:	82740b01 	rsbshi	r0, r4, #1024	; 0x400
     8b8:	00100000 	andseq	r0, r0, r0
     8bc:	9c010000 	stcls	0, cr0, [r1], {-0}
     8c0:	000000e3 	andeq	r0, r0, r3, ror #1
     8c4:	0070660a 	rsbseq	r6, r0, sl, lsl #12
     8c8:	00f20b01 	rscseq	r0, r2, r1, lsl #22
     8cc:	50010000 	andpl	r0, r1, r0
     8d0:	00250b00 	eoreq	r0, r5, r0, lsl #22
     8d4:	00f20000 	rscseq	r0, r2, r0
     8d8:	250c0000 	strcs	r0, [ip, #-0]
     8dc:	00000000 	andeq	r0, r0, r0
     8e0:	00e3040d 	rsceq	r0, r3, sp, lsl #8
     8e4:	820e0000 	andhi	r0, lr, #0
     8e8:	01000003 	tsteq	r0, r3
     8ec:	0000f206 	andeq	pc, r0, r6, lsl #4
     8f0:	38030500 	stmdacc	r3, {r8, sl}
     8f4:	0f000097 	svceq	0x00000097
     8f8:	000004f2 	strdeq	r0, [r0], -r2
     8fc:	2c0c3c02 	stccs	12, cr3, [ip], {2}
     900:	00000000 	andeq	r0, r0, r0
     904:	0000ee00 	andeq	lr, r0, r0, lsl #28
     908:	b5000400 	strlt	r0, [r0, #-1024]	; 0x400
     90c:	04000004 	streq	r0, [r0], #-4
     910:	00007d01 	andeq	r7, r0, r1, lsl #26
     914:	03aa0100 			; <UNDEFINED> instruction: 0x03aa0100
     918:	02f20000 	rscseq	r0, r2, #0
     91c:	82840000 	addhi	r0, r4, #0
     920:	00340000 	eorseq	r0, r4, r0
     924:	03cb0000 	biceq	r0, fp, #0
     928:	04020000 	streq	r0, [r2], #-0
     92c:	746e6905 	strbtvc	r6, [lr], #-2309	; 0x905
     930:	07040300 	streq	r0, [r4, -r0, lsl #6]
     934:	0000019f 	muleq	r0, pc, r1	; <UNPREDICTABLE>
     938:	f0060103 			; <UNDEFINED> instruction: 0xf0060103
     93c:	03000000 	movweq	r0, #0
     940:	02290502 	eoreq	r0, r9, #8388608	; 0x800000
     944:	04030000 	streq	r0, [r3], #-0
     948:	0001ef05 	andeq	lr, r1, r5, lsl #30
     94c:	05080300 	streq	r0, [r8, #-768]	; 0x300
     950:	000001ea 	andeq	r0, r0, sl, ror #3
     954:	ee080103 	adfe	f0, f0, f3
     958:	03000000 	movweq	r0, #0
     95c:	00520702 	subseq	r0, r2, r2, lsl #14
     960:	04030000 	streq	r0, [r3], #-0
     964:	00019a07 	andeq	r9, r1, r7, lsl #20
     968:	07080300 	streq	r0, [r8, -r0, lsl #6]
     96c:	00000195 	muleq	r0, r5, r1
     970:	e1070403 	tst	r7, r3, lsl #8
     974:	03000001 	movweq	r0, #1
     978:	00f70801 	rscseq	r0, r7, r1, lsl #16
     97c:	04040000 	streq	r0, [r4], #-0
     980:	0000007f 	andeq	r0, r0, pc, ror r0
     984:	00007205 	andeq	r7, r0, r5, lsl #4
     988:	03b60600 			; <UNDEFINED> instruction: 0x03b60600
     98c:	04010000 	streq	r0, [r1], #-0
     990:	00000025 	andeq	r0, r0, r5, lsr #32
     994:	00008284 	andeq	r8, r0, r4, lsl #5
     998:	00000034 	andeq	r0, r0, r4, lsr r0
     99c:	00ab9c01 	adceq	r9, fp, r1, lsl #24
     9a0:	70070000 	andvc	r0, r7, r0
     9a4:	79040100 	stmdbvc	r4, {r8}
     9a8:	14000000 	strne	r0, [r0], #-0
     9ac:	00000002 	andeq	r0, r0, r2
     9b0:	00002508 	andeq	r2, r0, r8, lsl #10
     9b4:	0000ba00 	andeq	fp, r0, r0, lsl #20
     9b8:	00250900 	eoreq	r0, r5, r0, lsl #18
     9bc:	0a000000 	beq	9c4 <_start-0x763c>
     9c0:	00000382 	andeq	r0, r0, r2, lsl #7
     9c4:	00c51d02 	sbceq	r1, r5, r2, lsl #26
     9c8:	04040000 	streq	r0, [r4], #-0
     9cc:	000000ab 	andeq	r0, r0, fp, lsr #1
     9d0:	00002508 	andeq	r2, r0, r8, lsl #10
     9d4:	0000da00 	andeq	sp, r0, r0, lsl #20
     9d8:	00790900 	rsbseq	r0, r9, r0, lsl #18
     9dc:	0b000000 	bleq	9e4 <_start-0x761c>
     9e0:	000003bf 			; <UNDEFINED> instruction: 0x000003bf
     9e4:	00eb0c01 	rsceq	r0, fp, r1, lsl #24
     9e8:	03050000 	movweq	r0, #20480	; 0x5000
     9ec:	0000973c 	andeq	r9, r0, ip, lsr r7
     9f0:	00cb0404 	sbceq	r0, fp, r4, lsl #8
     9f4:	81000000 	mrshi	r0, (UNDEF: 0)
     9f8:	04000006 	streq	r0, [r0], #-6
     9fc:	00054e00 	andeq	r4, r5, r0, lsl #28
     a00:	7d010400 	cfstrsvc	mvf0, [r1, #-0]
     a04:	01000000 	mrseq	r0, (UNDEF: 0)
     a08:	000003f0 	strdeq	r0, [r0], -r0	; <UNPREDICTABLE>
     a0c:	000002f2 	strdeq	r0, [r0], -r2
     a10:	000082b8 			; <UNDEFINED> instruction: 0x000082b8
     a14:	000004f8 	strdeq	r0, [r0], -r8
     a18:	00000465 	andeq	r0, r0, r5, ror #8
     a1c:	69050402 	stmdbvs	r5, {r1, sl}
     a20:	0300746e 	movweq	r7, #1134	; 0x46e
     a24:	019f0704 	orrseq	r0, pc, r4, lsl #14
     a28:	01030000 	mrseq	r0, (UNDEF: 3)
     a2c:	0000f006 	andeq	pc, r0, r6
     a30:	05020300 	streq	r0, [r2, #-768]	; 0x300
     a34:	00000229 	andeq	r0, r0, r9, lsr #4
     a38:	ef050403 	svc	0x00050403
     a3c:	03000001 	movweq	r0, #1
     a40:	01ea0508 	mvneq	r0, r8, lsl #10
     a44:	01030000 	mrseq	r0, (UNDEF: 3)
     a48:	0000ee08 	andeq	lr, r0, r8, lsl #28
     a4c:	07020300 	streq	r0, [r2, -r0, lsl #6]
     a50:	00000052 	andeq	r0, r0, r2, asr r0
     a54:	9a070403 	bls	1c1a68 <__bss_end__+0x1b7728>
     a58:	03000001 	movweq	r0, #1
     a5c:	01950708 	orrseq	r0, r5, r8, lsl #14
     a60:	04030000 	streq	r0, [r3], #-0
     a64:	0001e107 	andeq	lr, r1, r7, lsl #2
     a68:	05040400 	streq	r0, [r4, #-1024]	; 0x400
     a6c:	00007a04 	andeq	r7, r0, r4, lsl #20
     a70:	08010300 	stmdaeq	r1, {r8, r9}
     a74:	000000f7 	strdeq	r0, [r0], -r7
     a78:	00870405 	addeq	r0, r7, r5, lsl #8
     a7c:	7a060000 	bvc	180a84 <__bss_end__+0x176744>
     a80:	07000000 	streq	r0, [r0, -r0]
     a84:	00000336 	andeq	r0, r0, r6, lsr r3
     a88:	00972802 	addseq	r2, r7, r2, lsl #16
     a8c:	5d080000 	stcpl	0, cr0, [r8, #-0]
     a90:	04000003 	streq	r0, [r0], #-3
     a94:	00ae0004 	adceq	r0, lr, r4
     a98:	6c090000 	stcvs	0, cr0, [r9], {-0}
     a9c:	72000003 	andvc	r0, r0, #3
     aa0:	00000000 	andeq	r0, r0, r0
     aa4:	035f0700 	cmpeq	pc, #0, 14
     aa8:	62020000 	andvs	r0, r2, #0
     aac:	0000008c 	andeq	r0, r0, ip, lsl #1
     ab0:	0003d20a 	andeq	sp, r3, sl, lsl #4
     ab4:	25270100 	strcs	r0, [r7, #-256]!	; 0x100
     ab8:	b8000000 	stmdalt	r0, {}	; <UNPREDICTABLE>
     abc:	14000082 	strne	r0, [r0], #-130	; 0x82
     ac0:	01000000 	mrseq	r0, (UNDEF: 0)
     ac4:	0000e09c 	muleq	r0, ip, r0
     ac8:	00630b00 	rsbeq	r0, r3, r0, lsl #22
     acc:	00252701 	eoreq	r2, r5, r1, lsl #14
     ad0:	02320000 	eorseq	r0, r2, #0
     ad4:	0c000000 	stceq	0, cr0, [r0], {-0}
     ad8:	00646170 	rsbeq	r6, r4, r0, ror r1
     adc:	00742e01 	rsbseq	r2, r4, r1, lsl #28
     ae0:	82cc0000 	sbchi	r0, ip, #0
     ae4:	002c0000 	eoreq	r0, ip, r0
     ae8:	9c010000 	stcls	0, cr0, [r1], {-0}
     aec:	00000130 	andeq	r0, r0, r0, lsr r1
     af0:	0100700b 	tsteq	r0, fp
     af4:	0000742e 	andeq	r7, r0, lr, lsr #8
     af8:	00026000 	andeq	r6, r2, r0
     afc:	03e20d00 	mvneq	r0, #0, 26
     b00:	2e010000 	cdpcs	0, 0, cr0, cr1, cr0, {0}
     b04:	00000074 	andeq	r0, r0, r4, ror r0
     b08:	0000028b 	andeq	r0, r0, fp, lsl #5
     b0c:	0004100e 	andeq	r1, r4, lr
     b10:	252e0100 	strcs	r0, [lr, #-256]!	; 0x100
     b14:	01000000 	mrseq	r0, (UNDEF: 0)
     b18:	656c0f52 	strbvs	r0, [ip, #-3922]!	; 0xf52
     b1c:	2f01006e 	svccs	0x0001006e
     b20:	00000025 	andeq	r0, r0, r5, lsr #32
     b24:	0a005101 	beq	14f30 <__bss_end__+0xabf0>
     b28:	000003ca 	andeq	r0, r0, sl, asr #7
     b2c:	00743701 	rsbseq	r3, r4, r1, lsl #14
     b30:	82f80000 	rscshi	r0, r8, #0
     b34:	00400000 	subeq	r0, r0, r0
     b38:	9c010000 	stcls	0, cr0, [r1], {-0}
     b3c:	0000019c 	muleq	r0, ip, r1
     b40:	7473640b 	ldrbtvc	r6, [r3], #-1035	; 0x40b
     b44:	74370100 	ldrtvc	r0, [r7], #-256	; 0x100
     b48:	ac000000 	stcge	0, cr0, [r0], {-0}
     b4c:	0b000002 	bleq	b5c <_start-0x74a4>
     b50:	3701006e 	strcc	r0, [r1, -lr, rrx]
     b54:	00000025 	andeq	r0, r0, r5, lsr #32
     b58:	000002e4 	andeq	r0, r0, r4, ror #5
     b5c:	0100700b 	tsteq	r0, fp
     b60:	00007437 	andeq	r7, r0, r7, lsr r4
     b64:	00030500 	andeq	r0, r3, r0, lsl #10
     b68:	04de0d00 	ldrbeq	r0, [lr], #3328	; 0xd00
     b6c:	37010000 	strcc	r0, [r1, -r0]
     b70:	00000074 	andeq	r0, r0, r4, ror r0
     b74:	0000033b 	andeq	r0, r0, fp, lsr r3
     b78:	6e656c10 	mcrvs	12, 3, r6, cr5, cr0, {0}
     b7c:	25390100 	ldrcs	r0, [r9, #-256]!	; 0x100
     b80:	59000000 	stmdbpl	r0, {}	; <UNPREDICTABLE>
     b84:	0f000003 	svceq	0x00000003
     b88:	3d010073 	stccc	0, cr0, [r1, #-460]	; 0xfffffe34
     b8c:	00000074 	andeq	r0, r0, r4, ror r0
     b90:	0a005001 	beq	14b9c <__bss_end__+0xa85c>
     b94:	0000041e 	andeq	r0, r0, lr, lsl r4
     b98:	00744701 	rsbseq	r4, r4, r1, lsl #14
     b9c:	83380000 	teqhi	r8, #0
     ba0:	019c0000 	orrseq	r0, ip, r0
     ba4:	9c010000 	stcls	0, cr0, [r1], {-0}
     ba8:	000002d3 	ldrdeq	r0, [r0], -r3
     bac:	0003e20d 	andeq	lr, r3, sp, lsl #4
     bb0:	2c470100 	stfcse	f0, [r7], {-0}
     bb4:	80000000 	andhi	r0, r0, r0
     bb8:	0b000003 	bleq	bcc <_start-0x7434>
     bbc:	00747364 	rsbseq	r7, r4, r4, ror #6
     bc0:	00744701 	rsbseq	r4, r4, r1, lsl #14
     bc4:	03ae0000 			; <UNDEFINED> instruction: 0x03ae0000
     bc8:	6e0b0000 	cdpvs	0, 0, cr0, cr11, cr0, {0}
     bcc:	25470100 	strbcs	r0, [r7, #-256]	; 0x100
     bd0:	1c000000 	stcne	0, cr0, [r0], {-0}
     bd4:	0b000004 	bleq	bec <_start-0x7414>
     bd8:	006c6176 	rsbeq	r6, ip, r6, ror r1
     bdc:	00254701 	eoreq	r4, r5, r1, lsl #14
     be0:	04480000 	strbeq	r0, [r8], #-0
     be4:	100d0000 	andne	r0, sp, r0
     be8:	01000004 	tsteq	r0, r4
     bec:	00002547 	andeq	r2, r0, r7, asr #10
     bf0:	0004c700 	andeq	ip, r4, r0, lsl #14
     bf4:	03e70e00 	mvneq	r0, #0, 28
     bf8:	47010000 	strmi	r0, [r1, -r0]
     bfc:	00000025 	andeq	r0, r0, r5, lsr #32
     c00:	0f049102 	svceq	0x00049102
     c04:	00667562 	rsbeq	r7, r6, r2, ror #10
     c08:	02d34c01 	sbcseq	r4, r3, #256	; 0x100
     c0c:	91030000 	mrsls	r0, (UNDEF: 3)
     c10:	70107fa8 	andsvc	r7, r0, r8, lsr #31
     c14:	744c0100 	strbvc	r0, [ip], #-256	; 0x100
     c18:	f1000000 	cps	#0
     c1c:	10000004 	andne	r0, r0, r4
     c20:	4d010075 	stcmi	0, cr0, [r1, #-468]	; 0xfffffe2c
     c24:	0000002c 	andeq	r0, r0, ip, lsr #32
     c28:	00000596 	muleq	r0, r6, r5
     c2c:	00017f11 	andeq	r7, r1, r1, lsl pc
     c30:	0002f300 	andeq	pc, r2, r0, lsl #6
     c34:	ac030500 	cfstr32ge	mvfx0, [r3], {-0}
     c38:	1200009c 	andne	r0, r0, #156	; 0x9c
     c3c:	000083a4 	andeq	r8, r0, r4, lsr #7
     c40:	00000074 	andeq	r0, r0, r4, ror r0
     c44:	00000261 	andeq	r0, r0, r1, ror #4
     c48:	0003c413 	andeq	ip, r3, r3, lsl r4
     c4c:	2c520100 	ldfcse	f0, [r2], {-0}
     c50:	9b000000 	blls	c58 <_start-0x73a8>
     c54:	00000006 	andeq	r0, r0, r6
     c58:	00847814 	addeq	r7, r4, r4, lsl r8
     c5c:	00066000 	andeq	r6, r6, r0
     c60:	848c1500 	strhi	r1, [ip], #1280	; 0x500
     c64:	06670000 	strbteq	r0, [r7], -r0
     c68:	02990000 	addseq	r0, r9, #0
     c6c:	01160000 	tsteq	r6, r0
     c70:	75080253 	strvc	r0, [r8, #-595]	; 0x253
     c74:	05520116 	ldrbeq	r0, [r2, #-278]	; 0x116
     c78:	009cac03 	addseq	sl, ip, r3, lsl #24
     c7c:	51011600 	tstpl	r1, r0, lsl #12
     c80:	9ce40305 	stclls	3, cr0, [r4], #20
     c84:	01160000 	tsteq	r6, r0
     c88:	d0030550 	andle	r0, r3, r0, asr r5
     c8c:	0000009c 	muleq	r0, ip, r0
     c90:	00849014 	addeq	r9, r4, r4, lsl r0
     c94:	00067d00 	andeq	r7, r6, r0, lsl #26
     c98:	849c1500 	ldrhi	r1, [ip], #1280	; 0x500
     c9c:	00e00000 	rsceq	r0, r0, r0
     ca0:	02b60000 	adcseq	r0, r6, #0
     ca4:	01160000 	tsteq	r6, r0
     ca8:	007d0251 	rsbseq	r0, sp, r1, asr r2
     cac:	84b01700 	ldrthi	r1, [r0], #1792	; 0x700
     cb0:	01300000 	teqeq	r0, r0
     cb4:	01160000 	tsteq	r6, r0
     cb8:	007d0253 	rsbseq	r0, sp, r3, asr r2
     cbc:	02510116 	subseq	r0, r1, #-2147483643	; 0x80000005
     cc0:	01160074 	tsteq	r6, r4, ror r0
     cc4:	00750250 	rsbseq	r0, r5, r0, asr r2
     cc8:	7a180000 	bvc	600cd0 <__bss_end__+0x5f6990>
     ccc:	e3000000 	movw	r0, #0
     cd0:	19000002 	stmdbne	r0, {r1}
     cd4:	0000006b 	andeq	r0, r0, fp, rrx
     cd8:	7a18003f 	bvc	600ddc <__bss_end__+0x5f6a9c>
     cdc:	f3000000 	vhadd.u8	d0, d0, d0
     ce0:	19000002 	stmdbne	r0, {r1}
     ce4:	0000006b 	andeq	r0, r0, fp, rrx
     ce8:	e3060004 	movw	r0, #24580	; 0x6004
     cec:	1a000002 	bne	cfc <_start-0x7304>
     cf0:	00000401 	andeq	r0, r0, r1, lsl #8
     cf4:	84d41f01 	ldrbhi	r1, [r4], #3841	; 0xf01
     cf8:	00540000 	subseq	r0, r4, r0
     cfc:	9c010000 	stcls	0, cr0, [r1], {-0}
     d00:	0000037c 	andeq	r0, r0, ip, ror r3
     d04:	0004160d 	andeq	r1, r4, sp, lsl #12
     d08:	8b1f0100 	blhi	7c1110 <__bss_end__+0x7b6dd0>
     d0c:	c7000003 	strgt	r0, [r0, -r3]
     d10:	0d000006 	stceq	0, cr0, [r0, #-24]	; 0xffffffe8
     d14:	000003da 	ldrdeq	r0, [r0], -sl
     d18:	03a01f01 	moveq	r1, #1, 30
     d1c:	06f30000 	ldrbteq	r0, [r3], r0
     d20:	7f110000 	svcvc	0x00110000
     d24:	b6000001 	strlt	r0, [r0], -r1
     d28:	05000003 	streq	r0, [r0, #-3]
     d2c:	009cb403 	addseq	fp, ip, r3, lsl #8
     d30:	84e41400 	strbthi	r1, [r4], #1024	; 0x400
     d34:	06600000 	strbteq	r0, [r0], -r0
     d38:	f8150000 			; <UNDEFINED> instruction: 0xf8150000
     d3c:	67000084 	strvs	r0, [r0, -r4, lsl #1]
     d40:	72000006 	andvc	r0, r0, #6
     d44:	16000003 	strne	r0, [r0], -r3
     d48:	08025301 	stmdaeq	r2, {r0, r8, r9, ip, lr}
     d4c:	52011620 	andpl	r1, r1, #32, 12	; 0x2000000
     d50:	9cb40305 	ldcls	3, cr0, [r4], #20
     d54:	01160000 	tsteq	r6, r0
     d58:	e4030551 	str	r0, [r3], #-1361	; 0x551
     d5c:	1600009c 			; <UNDEFINED> instruction: 0x1600009c
     d60:	03055001 	movweq	r5, #20481	; 0x5001
     d64:	00009d1c 	andeq	r9, r0, ip, lsl sp
     d68:	84fc1400 	ldrbthi	r1, [ip], #1024	; 0x400
     d6c:	067d0000 	ldrbteq	r0, [sp], -r0
     d70:	1b000000 	blne	d78 <_start-0x7288>
     d74:	00000025 	andeq	r0, r0, r5, lsr #32
     d78:	0000038b 	andeq	r0, r0, fp, lsl #7
     d7c:	0000251c 	andeq	r2, r0, ip, lsl r5
     d80:	04050000 	streq	r0, [r5], #-0
     d84:	0000037c 	andeq	r0, r0, ip, ror r3
     d88:	0000251b 	andeq	r2, r0, fp, lsl r5
     d8c:	0003a000 	andeq	sl, r3, r0
     d90:	00811c00 	addeq	r1, r1, r0, lsl #24
     d94:	05000000 	streq	r0, [r0, #-0]
     d98:	00039104 	andeq	r9, r3, r4, lsl #2
     d9c:	007a1800 	rsbseq	r1, sl, r0, lsl #16
     da0:	03b60000 			; <UNDEFINED> instruction: 0x03b60000
     da4:	6b190000 	blvs	640dac <__bss_end__+0x636a6c>
     da8:	0e000000 	cdpeq	0, 0, cr0, cr0, cr0, {0}
     dac:	03a60600 			; <UNDEFINED> instruction: 0x03a60600
     db0:	531d0000 	tstpl	sp, #0
     db4:	01000003 	tsteq	r0, r3
     db8:	0000257d 	andeq	r2, r0, sp, ror r5
     dbc:	00852800 	addeq	r2, r5, r0, lsl #16
     dc0:	00028800 	andeq	r8, r2, r0, lsl #16
     dc4:	259c0100 	ldrcs	r0, [ip, #256]	; 0x100
     dc8:	0b000006 	bleq	de8 <_start-0x7218>
     dcc:	00667562 	rsbeq	r7, r6, r2, ror #10
     dd0:	00747d01 	rsbseq	r7, r4, r1, lsl #26
     dd4:	071f0000 	ldreq	r0, [pc, -r0]
     dd8:	6e0b0000 	cdpvs	0, 0, cr0, cr11, cr0, {0}
     ddc:	257d0100 	ldrbcs	r0, [sp, #-256]!	; 0x100
     de0:	4b000000 	blmi	de8 <_start-0x7218>
     de4:	0b000007 	bleq	e08 <_start-0x71f8>
     de8:	00746d66 	rsbseq	r6, r4, r6, ror #26
     dec:	00817d01 	addeq	r7, r1, r1, lsl #26
     df0:	07790000 	ldrbeq	r0, [r9, -r0]!
     df4:	670d0000 	strvs	r0, [sp, -r0]
     df8:	01000003 	tsteq	r0, r3
     dfc:	0000ae7d 	andeq	sl, r0, sp, ror lr
     e00:	0007ad00 	andeq	sl, r7, r0, lsl #26
     e04:	00701000 	rsbseq	r1, r0, r0
     e08:	00747e01 	rsbseq	r7, r4, r1, lsl #28
     e0c:	07c00000 	strbeq	r0, [r0, r0]
     e10:	65100000 	ldrvs	r0, [r0, #-0]
     e14:	747e0100 	ldrbtvc	r0, [lr], #-256	; 0x100
     e18:	3e000000 	cdpcc	0, 0, cr0, cr0, cr0, {0}
     e1c:	11000008 	tstne	r0, r8
     e20:	0000017f 	andeq	r0, r0, pc, ror r1
     e24:	00000635 	andeq	r0, r0, r5, lsr r6
     e28:	9cc40305 	stclls	3, cr0, [r4], {5}
     e2c:	181e0000 	ldmdane	lr, {}	; <UNPREDICTABLE>
     e30:	10000000 	andne	r0, r0, r0
     e34:	8b010073 	blhi	41008 <__bss_end__+0x36cc8>
     e38:	00000074 	andeq	r0, r0, r4, ror r0
     e3c:	00000865 	andeq	r0, r0, r5, ror #16
     e40:	6d756e0f 	ldclvs	14, cr6, [r5, #-60]!	; 0xffffffc4
     e44:	3a8b0100 	bcc	fe2c124c <__bss_end__+0xfe2b6f0c>
     e48:	03000006 	movweq	r0, #6
     e4c:	137ed891 	cmnne	lr, #9502720	; 0x910000
     e50:	00000410 	andeq	r0, r0, r0, lsl r4
     e54:	002c8c01 	eoreq	r8, ip, r1, lsl #24
     e58:	08ba0000 	ldmeq	sl!, {}	; <UNPREDICTABLE>
     e5c:	ac150000 	ldcge	0, cr0, [r5], {-0}
     e60:	b9000085 	stmdblt	r0, {r0, r2, r7}
     e64:	7b000000 	blvc	e6c <_start-0x7194>
     e68:	16000004 	strne	r0, [r0], -r4
     e6c:	75025001 	strvc	r5, [r2, #-1]
     e70:	c0140000 	andsgt	r0, r4, r0
     e74:	60000085 	andvs	r0, r0, r5, lsl #1
     e78:	15000006 	strne	r0, [r0, #-6]
     e7c:	000085d4 	ldrdeq	r8, [r0], -r4
     e80:	00000667 	andeq	r0, r0, r7, ror #12
     e84:	000004b3 			; <UNDEFINED> instruction: 0x000004b3
     e88:	02530116 	subseq	r0, r3, #-2147483643	; 0x80000005
     e8c:	01169208 	tsteq	r6, r8, lsl #4
     e90:	c4030552 	strgt	r0, [r3], #-1362	; 0x552
     e94:	1600009c 			; <UNDEFINED> instruction: 0x1600009c
     e98:	03055101 	movweq	r5, #20737	; 0x5101
     e9c:	00009ce4 	andeq	r9, r0, r4, ror #25
     ea0:	05500116 	ldrbeq	r0, [r0, #-278]	; 0x116
     ea4:	009d3403 	addseq	r3, sp, r3, lsl #8
     ea8:	d8140000 	ldmdale	r4, {}	; <UNPREDICTABLE>
     eac:	7d000085 	stcvc	0, cr0, [r0, #-532]	; 0xfffffdec
     eb0:	14000006 	strne	r0, [r0], #-6
     eb4:	00008648 	andeq	r8, r0, r8, asr #12
     eb8:	00000660 	andeq	r0, r0, r0, ror #12
     ebc:	00865c15 	addeq	r5, r6, r5, lsl ip
     ec0:	00066700 	andeq	r6, r6, r0, lsl #14
     ec4:	0004f400 	andeq	pc, r4, r0, lsl #8
     ec8:	53011600 	movwpl	r1, #5632	; 0x1600
     ecc:	16980802 	ldrne	r0, [r8], r2, lsl #16
     ed0:	03055201 	movweq	r5, #20993	; 0x5201
     ed4:	00009cc4 	andeq	r9, r0, r4, asr #25
     ed8:	05510116 	ldrbeq	r0, [r1, #-278]	; 0x116
     edc:	009ce403 	addseq	lr, ip, r3, lsl #8
     ee0:	50011600 	andpl	r1, r1, r0, lsl #12
     ee4:	9d500305 	ldclls	3, cr0, [r0, #-20]	; 0xffffffec
     ee8:	14000000 	strne	r0, [r0], #-0
     eec:	00008660 	andeq	r8, r0, r0, ror #12
     ef0:	0000067d 	andeq	r0, r0, sp, ror r6
     ef4:	00868415 	addeq	r8, r6, r5, lsl r4
     ef8:	00019c00 	andeq	r9, r1, r0, lsl #24
     efc:	00052a00 	andeq	r2, r5, r0, lsl #20
     f00:	52011600 	andpl	r1, r1, #0, 12
     f04:	16800802 	strne	r0, [r0], r2, lsl #16
     f08:	91035101 	tstls	r3, r1, lsl #2
     f0c:	01167ed0 			; <UNDEFINED> instruction: 0x01167ed0
     f10:	163a0150 			; <UNDEFINED> instruction: 0x163a0150
     f14:	01047d02 	tsteq	r4, r2, lsl #26
     f18:	7d021631 	stcvc	6, cr1, [r2, #-196]	; 0xffffff3c
     f1c:	00770200 	rsbseq	r0, r7, r0, lsl #4
     f20:	86a81500 	strthi	r1, [r8], r0, lsl #10
     f24:	019c0000 	orrseq	r0, ip, r0
     f28:	05580000 	ldrbeq	r0, [r8, #-0]
     f2c:	01160000 	tsteq	r6, r0
     f30:	80080252 	andhi	r0, r8, r2, asr r2
     f34:	03510116 	cmpeq	r1, #-2147483643	; 0x80000005
     f38:	167ed091 			; <UNDEFINED> instruction: 0x167ed091
     f3c:	3a015001 	bcc	54f48 <__bss_end__+0x4ac08>
     f40:	047d0216 	ldrbteq	r0, [sp], #-534	; 0x216
     f44:	16007b02 	strne	r7, [r0], -r2, lsl #22
     f48:	02007d02 	andeq	r7, r0, #2, 26	; 0x80
     f4c:	15000077 	strne	r0, [r0, #-119]	; 0x77
     f50:	000086cc 	andeq	r8, r0, ip, asr #13
     f54:	0000019c 	muleq	r0, ip, r1
     f58:	00000586 	andeq	r0, r0, r6, lsl #11
     f5c:	02520116 	subseq	r0, r2, #-2147483643	; 0x80000005
     f60:	01168008 	tsteq	r6, r8
     f64:	d0910351 	addsle	r0, r1, r1, asr r3
     f68:	5001167e 	andpl	r1, r1, lr, ror r6
     f6c:	02164001 	andseq	r4, r6, #1
     f70:	7b02047d 	blvc	8216c <__bss_end__+0x77e2c>
     f74:	7d021600 	stcvc	6, cr1, [r2, #-0]
     f78:	00770200 	rsbseq	r0, r7, r0, lsl #4
     f7c:	86f01500 	ldrbthi	r1, [r0], r0, lsl #10
     f80:	019c0000 	orrseq	r0, ip, r0
     f84:	05b40000 	ldreq	r0, [r4, #0]!
     f88:	01160000 	tsteq	r6, r0
     f8c:	80080252 	andhi	r0, r8, r2, asr r2
     f90:	03510116 	cmpeq	r1, #-2147483643	; 0x80000005
     f94:	167ed091 			; <UNDEFINED> instruction: 0x167ed091
     f98:	32015001 	andcc	r5, r1, #1
     f9c:	047d0216 	ldrbteq	r0, [sp], #-534	; 0x216
     fa0:	16007b02 	strne	r7, [r0], -r2, lsl #22
     fa4:	02007d02 	andeq	r7, r0, #2, 26	; 0x80
     fa8:	15000077 	strne	r0, [r0, #-119]	; 0x77
     fac:	00008720 	andeq	r8, r0, r0, lsr #14
     fb0:	0000019c 	muleq	r0, ip, r1
     fb4:	000005e2 	andeq	r0, r0, r2, ror #11
     fb8:	02520116 	subseq	r0, r2, #-2147483643	; 0x80000005
     fbc:	01168008 	tsteq	r6, r8
     fc0:	d0910351 	addsle	r0, r1, r1, asr r3
     fc4:	5001167e 	andpl	r1, r1, lr, ror r6
     fc8:	02163801 	andseq	r3, r6, #65536	; 0x10000
     fcc:	7b02047d 	blvc	821c8 <__bss_end__+0x77e88>
     fd0:	7d021600 	stcvc	6, cr1, [r2, #-0]
     fd4:	00770200 	rsbseq	r0, r7, r0, lsl #4
     fd8:	87281400 	strhi	r1, [r8, -r0, lsl #8]!
     fdc:	06600000 	strbteq	r0, [r0], -r0
     fe0:	44150000 	ldrmi	r0, [r5], #-0
     fe4:	67000087 	strvs	r0, [r0, -r7, lsl #1]
     fe8:	1a000006 	bne	1008 <_start-0x6ff8>
     fec:	16000006 	strne	r0, [r0], -r6
     ff0:	08025301 	stmdaeq	r2, {r0, r8, r9, ip, lr}
     ff4:	520116b9 	andpl	r1, r1, #193986560	; 0xb900000
     ff8:	9cc40305 	stclls	3, cr0, [r4], {5}
     ffc:	01160000 	tsteq	r6, r0
    1000:	e4030551 	str	r0, [r3], #-1361	; 0x551
    1004:	1600009c 			; <UNDEFINED> instruction: 0x1600009c
    1008:	03055001 	movweq	r5, #20481	; 0x5001
    100c:	00009d78 	andeq	r9, r0, r8, ror sp
    1010:	87481400 	strbhi	r1, [r8, -r0, lsl #8]
    1014:	067d0000 	ldrbteq	r0, [sp], -r0
    1018:	00000000 	andeq	r0, r0, r0
    101c:	00007a18 	andeq	r7, r0, r8, lsl sl
    1020:	00063500 	andeq	r3, r6, r0, lsl #10
    1024:	006b1900 	rsbeq	r1, fp, r0, lsl #18
    1028:	00090000 	andeq	r0, r9, r0
    102c:	00062506 	andeq	r2, r6, r6, lsl #10
    1030:	007a1800 	rsbseq	r1, sl, r0, lsl #16
    1034:	064a0000 	strbeq	r0, [sl], -r0
    1038:	6b190000 	blvs	641040 <__bss_end__+0x636d00>
    103c:	7f000000 	svcvc	0x00000000
    1040:	03821f00 	orreq	r1, r2, #0, 30
    1044:	1d030000 	stcne	0, cr0, [r3, #-0]
    1048:	0000038b 	andeq	r0, r0, fp, lsl #7
    104c:	0003bf1f 	andeq	fp, r3, pc, lsl pc
    1050:	a0220300 	eorge	r0, r2, r0, lsl #6
    1054:	20000003 	andcs	r0, r0, r3
    1058:	00000150 	andeq	r0, r0, r0, asr r1
    105c:	56211e03 	strtpl	r1, [r1], -r3, lsl #28
    1060:	03000003 	movweq	r0, #3
    1064:	00002529 	andeq	r2, r0, r9, lsr #10
    1068:	00067d00 	andeq	r7, r6, r0, lsl #26
    106c:	00811c00 	addeq	r1, r1, r0, lsl #24
    1070:	00220000 	eoreq	r0, r2, r0
    1074:	0000fc20 	andeq	pc, r0, r0, lsr #24
    1078:	00660300 	rsbeq	r0, r6, r0, lsl #6
    107c:	000000ff 	strdeq	r0, [r0], -pc	; <UNPREDICTABLE>
    1080:	072a0004 	streq	r0, [sl, -r4]!
    1084:	01040000 	mrseq	r0, (UNDEF: 4)
    1088:	0000007d 	andeq	r0, r0, sp, ror r0
    108c:	00042e01 	andeq	r2, r4, r1, lsl #28
    1090:	0002f200 	andeq	pc, r2, r0, lsl #4
    1094:	0087b000 	addeq	fp, r7, r0
    1098:	00002800 	andeq	r2, r0, r0, lsl #16
    109c:	00064700 	andeq	r4, r6, r0, lsl #14
    10a0:	05040200 	streq	r0, [r4, #-512]	; 0x200
    10a4:	00746e69 	rsbseq	r6, r4, r9, ror #28
    10a8:	9f070403 	svcls	0x00070403
    10ac:	03000001 	movweq	r0, #1
    10b0:	00f00601 	rscseq	r0, r0, r1, lsl #12
    10b4:	02030000 	andeq	r0, r3, #0
    10b8:	00022905 	andeq	r2, r2, r5, lsl #18
    10bc:	05040300 	streq	r0, [r4, #-768]	; 0x300
    10c0:	000001ef 	andeq	r0, r0, pc, ror #3
    10c4:	ea050803 	b	1430d8 <__bss_end__+0x138d98>
    10c8:	03000001 	movweq	r0, #1
    10cc:	00ee0801 	rsceq	r0, lr, r1, lsl #16
    10d0:	02030000 	andeq	r0, r3, #0
    10d4:	00005207 	andeq	r5, r0, r7, lsl #4
    10d8:	07040300 	streq	r0, [r4, -r0, lsl #6]
    10dc:	0000019a 	muleq	r0, sl, r1
    10e0:	95070803 	strls	r0, [r7, #-2051]	; 0x803
    10e4:	03000001 	movweq	r0, #1
    10e8:	01e10704 	mvneq	r0, r4, lsl #14
    10ec:	01030000 	mrseq	r0, (UNDEF: 3)
    10f0:	0000f708 	andeq	pc, r0, r8, lsl #14
    10f4:	7f040400 	svcvc	0x00040400
    10f8:	05000000 	streq	r0, [r0, #-0]
    10fc:	00000072 	andeq	r0, r0, r2, ror r0
    1100:	0000fc06 	andeq	pc, r0, r6, lsl #24
    1104:	b0040100 	andlt	r0, r4, r0, lsl #2
    1108:	28000087 	stmdacs	r0, {r0, r1, r2, r7}
    110c:	01000000 	mrseq	r0, (UNDEF: 0)
    1110:	0000ca9c 	muleq	r0, ip, sl
    1114:	87c40700 	strbhi	r0, [r4, r0, lsl #14]
    1118:	00ac0000 	adceq	r0, ip, r0
    111c:	01080000 	mrseq	r0, (UNDEF: 8)
    1120:	b0030550 	andlt	r0, r3, r0, asr r5
    1124:	0000009d 	muleq	r0, sp, r0
    1128:	0087cc09 	addeq	ip, r7, r9, lsl #24
    112c:	0000ea00 	andeq	lr, r0, r0, lsl #20
    1130:	0000c000 	andeq	ip, r0, r0
    1134:	50010800 	andpl	r0, r1, r0, lsl #16
    1138:	00640802 	rsbeq	r0, r4, r2, lsl #16
    113c:	0087d00a 	addeq	sp, r7, sl
    1140:	0000fb00 	andeq	pc, r0, r0, lsl #22
    1144:	250b0000 	strcs	r0, [fp, #-0]
    1148:	d9000000 	stmdble	r0, {}	; <UNPREDICTABLE>
    114c:	0c000000 	stceq	0, cr0, [r0], {-0}
    1150:	00000079 	andeq	r0, r0, r9, ror r0
    1154:	03bf0d00 			; <UNDEFINED> instruction: 0x03bf0d00
    1158:	22020000 	andcs	r0, r2, #0
    115c:	000000e4 	andeq	r0, r0, r4, ror #1
    1160:	00ca0404 	sbceq	r0, sl, r4, lsl #8
    1164:	480e0000 	stmdami	lr, {}	; <UNPREDICTABLE>
    1168:	02000004 	andeq	r0, r0, #4
    116c:	0000fb50 	andeq	pc, r0, r0, asr fp	; <UNPREDICTABLE>
    1170:	002c0c00 	eoreq	r0, ip, r0, lsl #24
    1174:	0f000000 	svceq	0x00000000
    1178:	00000423 	andeq	r0, r0, r3, lsr #8
    117c:	dd006302 	stcle	3, cr6, [r0, #-8]
    1180:	04000002 	streq	r0, [r0], #-2
    1184:	0007f400 	andeq	pc, r7, r0, lsl #8
    1188:	7d010400 	cfstrsvc	mvf0, [r1, #-0]
    118c:	01000000 	mrseq	r0, (UNDEF: 0)
    1190:	0000052b 	andeq	r0, r0, fp, lsr #10
    1194:	000002f2 	strdeq	r0, [r0], -r2
    1198:	000087d8 	ldrdeq	r8, [r0], -r8	; <UNPREDICTABLE>
    119c:	000000b0 	strheq	r0, [r0], -r0	; <UNPREDICTABLE>
    11a0:	000006de 	ldrdeq	r0, [r0], -lr
    11a4:	69050402 	stmdbvs	r5, {r1, sl}
    11a8:	0300746e 	movweq	r7, #1134	; 0x46e
    11ac:	019f0704 	orrseq	r0, pc, r4, lsl #14
    11b0:	01030000 	mrseq	r0, (UNDEF: 3)
    11b4:	0000f006 	andeq	pc, r0, r6
    11b8:	05020300 	streq	r0, [r2, #-768]	; 0x300
    11bc:	00000229 	andeq	r0, r0, r9, lsr #4
    11c0:	ef050403 	svc	0x00050403
    11c4:	03000001 	movweq	r0, #1
    11c8:	01ea0508 	mvneq	r0, r8, lsl #10
    11cc:	ac040000 	stcge	0, cr0, [r4], {-0}
    11d0:	02000001 	andeq	r0, r0, #1
    11d4:	00005a2e 	andeq	r5, r0, lr, lsr #20
    11d8:	08010300 	stmdaeq	r1, {r8, r9}
    11dc:	000000ee 	andeq	r0, r0, lr, ror #1
    11e0:	52070203 	andpl	r0, r7, #805306368	; 0x30000000
    11e4:	04000000 	streq	r0, [r0], #-0
    11e8:	000002bb 			; <UNDEFINED> instruction: 0x000002bb
    11ec:	00733402 	rsbseq	r3, r3, r2, lsl #8
    11f0:	04030000 	streq	r0, [r3], #-0
    11f4:	00019a07 	andeq	r9, r1, r7, lsl #20
    11f8:	07080300 	streq	r0, [r8, -r0, lsl #6]
    11fc:	00000195 	muleq	r0, r5, r1
    1200:	e1070403 	tst	r7, r3, lsl #8
    1204:	03000001 	movweq	r0, #1
    1208:	00f70801 	rscseq	r0, r7, r1, lsl #16
    120c:	04050000 	streq	r0, [r5], #-0
    1210:	00000095 	muleq	r0, r5, r0
    1214:	00008806 	andeq	r8, r0, r6, lsl #16
    1218:	030c0700 	movweq	r0, #50944	; 0xc700
    121c:	0000d10e 	andeq	sp, r0, lr, lsl #2
    1220:	78740800 	ldmdavc	r4!, {fp}^
    1224:	4f0f0300 	svcmi	0x000f0300
    1228:	00000000 	andeq	r0, r0, r0
    122c:	00787208 	rsbseq	r7, r8, r8, lsl #4
    1230:	004f0f03 	subeq	r0, pc, r3, lsl #30
    1234:	09010000 	stmdbeq	r1, {}	; <UNPREDICTABLE>
    1238:	000004ca 	andeq	r0, r0, sl, asr #9
    123c:	00681003 	rsbeq	r1, r8, r3
    1240:	09040000 	stmdbeq	r4, {}	; <UNPREDICTABLE>
    1244:	0000047b 	andeq	r0, r0, fp, ror r4
    1248:	00681103 	rsbeq	r1, r8, r3, lsl #2
    124c:	00080000 	andeq	r0, r8, r0
    1250:	0004b304 	andeq	fp, r4, r4, lsl #6
    1254:	9a120300 	bls	481e5c <__bss_end__+0x477b1c>
    1258:	0a000000 	beq	1260 <_start-0x6da0>
    125c:	f7100401 			; <UNDEFINED> instruction: 0xf7100401
    1260:	0b000000 	bleq	1268 <_start-0x6d98>
    1264:	000004cf 	andeq	r0, r0, pc, asr #9
    1268:	04bd0b01 	ldrteq	r0, [sp], #2817	; 0xb01
    126c:	0b020000 	bleq	81274 <__bss_end__+0x76f34>
    1270:	000004a5 	andeq	r0, r0, r5, lsr #9
    1274:	e4040003 	str	r0, [r4], #-3
    1278:	04000004 	streq	r0, [r0], #-4
    127c:	0000dc10 	andeq	sp, r0, r0, lsl ip
    1280:	04140700 	ldreq	r0, [r4], #-1792	; 0x700
    1284:	00012f14 	andeq	r2, r1, r4, lsl pc
    1288:	054b0900 	strbeq	r0, [fp, #-2304]	; 0x900
    128c:	15040000 	strne	r0, [r4, #-0]
    1290:	0000002c 	andeq	r0, r0, ip, lsr #32
    1294:	053f0900 	ldreq	r0, [pc, #-2304]!	; 99c <_start-0x7664>
    1298:	18040000 	stmdane	r4, {}	; <UNPREDICTABLE>
    129c:	000000f7 	strdeq	r0, [r0], -r7
    12a0:	050a0904 	streq	r0, [sl, #-2308]	; 0x904
    12a4:	1b040000 	blne	1012ac <__bss_end__+0xf6f6c>
    12a8:	000000d1 	ldrdeq	r0, [r0], -r1
    12ac:	fc040008 	stc2	0, cr0, [r4], {8}
    12b0:	04000004 	streq	r0, [r0], #-4
    12b4:	00010220 	andeq	r0, r1, r0, lsr #4
    12b8:	04510c00 	ldrbeq	r0, [r1], #-3072	; 0xc00
    12bc:	06010000 	streq	r0, [r1], -r0
    12c0:	00000025 	andeq	r0, r0, r5, lsr #32
    12c4:	000087d8 	ldrdeq	r8, [r0], -r8	; <UNPREDICTABLE>
    12c8:	00000020 	andeq	r0, r0, r0, lsr #32
    12cc:	017a9c01 	cmneq	sl, r1, lsl #24
    12d0:	630d0000 	movwvs	r0, #53248	; 0xd000
    12d4:	25060100 	strcs	r0, [r6, #-256]	; 0x100
    12d8:	e4000000 	str	r0, [r0], #-0
    12dc:	0e000008 	cdpeq	0, 0, cr0, cr0, cr8, {0}
    12e0:	000087ec 	andeq	r8, r0, ip, ror #15
    12e4:	0000027a 	andeq	r0, r0, sl, ror r2
    12e8:	0251010f 	subseq	r0, r1, #-1073741821	; 0xc0000003
    12ec:	010f0074 	tsteq	pc, r4, ror r0	; <UNPREDICTABLE>
    12f0:	34030550 	strcc	r0, [r3], #-1360	; 0x550
    12f4:	000000a3 	andeq	r0, r0, r3, lsr #1
    12f8:	04dc1000 	ldrbeq	r1, [ip], #0
    12fc:	0b010000 	bleq	41304 <__bss_end__+0x36fc4>
    1300:	000087f8 	strdeq	r8, [r0], -r8	; <UNPREDICTABLE>
    1304:	00000090 	muleq	r0, r0, r0
    1308:	02279c01 	eoreq	r9, r7, #256	; 0x100
    130c:	65110000 	ldrvs	r0, [r1, #-0]
    1310:	01000004 	tsteq	r0, r4
    1314:	0000250c 	andeq	r2, r0, ip, lsl #10
    1318:	051f1100 	ldreq	r1, [pc, #-256]	; 1220 <_start-0x6de0>
    131c:	0c010000 	stceq	0, cr0, [r1], {-0}
    1320:	00000025 	andeq	r0, r0, r5, lsr #32
    1324:	0000d412 	andeq	sp, r0, r2, lsl r4
    1328:	130d0100 	movwne	r0, #53504	; 0xd100
    132c:	00737362 	rsbseq	r7, r3, r2, ror #6
    1330:	02270f01 	eoreq	r0, r7, #1, 30
    1334:	09020000 	stmdbeq	r2, {}	; <UNPREDICTABLE>
    1338:	73140000 	tstvc	r4, #0
    133c:	01000004 	tsteq	r0, r4
    1340:	00022710 	andeq	r2, r2, r0, lsl r7
    1344:	62631300 	rsbvs	r1, r3, #0, 6
    1348:	2d170100 	ldfcss	f0, [r7, #-0]
    134c:	22000002 	andcs	r0, r0, #2
    1350:	15000009 	strne	r0, [r0, #-9]
    1354:	00008820 	andeq	r8, r0, r0, lsr #16
    1358:	00000296 	muleq	r0, r6, r2
    135c:	00885c16 	addeq	r5, r8, r6, lsl ip
    1360:	0002a100 	andeq	sl, r2, r0, lsl #2
    1364:	0001fd00 	andeq	pc, r1, r0, lsl #26
    1368:	51010f00 	tstpl	r1, r0, lsl #30
    136c:	9dbc0305 	ldcls	3, cr0, [ip, #20]!
    1370:	010f0000 	mrseq	r0, CPSR
    1374:	34030550 	strcc	r0, [r3], #-1360	; 0x550
    1378:	000000a3 	andeq	r0, r0, r3, lsr #1
    137c:	00886416 	addeq	r6, r8, r6, lsl r4
    1380:	0002bc00 	andeq	fp, r2, r0, lsl #24
    1384:	00021400 	andeq	r1, r2, r0, lsl #8
    1388:	50010f00 	andpl	r0, r1, r0, lsl #30
    138c:	9de00305 	stclls	3, cr0, [r0, #20]!
    1390:	15000000 	strne	r0, [r0, #-0]
    1394:	00008868 	andeq	r8, r0, r8, ror #16
    1398:	000002d2 	ldrdeq	r0, [r0], -r2
    139c:	00886c15 	addeq	r6, r8, r5, lsl ip
    13a0:	0002d900 	andeq	sp, r2, r0, lsl #18
    13a4:	04050000 	streq	r0, [r5], #-0
    13a8:	00000025 	andeq	r0, r0, r5, lsr #32
    13ac:	012f0405 	teqeq	pc, r5, lsl #8
    13b0:	89170000 	ldmdbhi	r7, {}	; <UNPREDICTABLE>
    13b4:	01000004 	tsteq	r0, r4
    13b8:	0000d105 	andeq	sp, r0, r5, lsl #2
    13bc:	34030500 	strcc	r0, [r3], #-1280	; 0x500
    13c0:	180000a3 	stmdane	r0, {r0, r1, r5, r7}
    13c4:	00000025 	andeq	r0, r0, r5, lsr #32
    13c8:	00000253 	andeq	r0, r0, r3, asr r2
    13cc:	00002519 	andeq	r2, r0, r9, lsl r5
    13d0:	82110000 	andshi	r0, r1, #0
    13d4:	05000003 	streq	r0, [r0, #-3]
    13d8:	00025e1d 	andeq	r5, r2, sp, lsl lr
    13dc:	44040500 	strmi	r0, [r4], #-1280	; 0x500
    13e0:	11000002 	tstne	r0, r2
    13e4:	00000465 	andeq	r0, r0, r5, ror #8
    13e8:	00250c01 	eoreq	r0, r5, r1, lsl #24
    13ec:	1f110000 	svcne	0x00110000
    13f0:	01000005 	tsteq	r0, r5
    13f4:	0000250c 	andeq	r2, r0, ip, lsl #10
    13f8:	04ef1a00 	strbteq	r1, [pc], #2560	; 1400 <_start-0x6c00>
    13fc:	44030000 	strmi	r0, [r3], #-0
    1400:	00000290 	muleq	r0, r0, r2
    1404:	00029019 	andeq	r9, r2, r9, lsl r0
    1408:	005a1900 	subseq	r1, sl, r0, lsl #18
    140c:	05000000 	streq	r0, [r0, #-0]
    1410:	0000d104 	andeq	sp, r0, r4, lsl #2
    1414:	05121b00 	ldreq	r1, [r2, #-2816]	; 0xb00
    1418:	2a040000 	bcs	101420 <__bss_end__+0xf70e0>
    141c:	0000022d 	andeq	r0, r0, sp, lsr #4
    1420:	0004961c 	andeq	r9, r4, ip, lsl r6
    1424:	25150300 	ldrcs	r0, [r5, #-768]	; 0x300
    1428:	bc000000 	stclt	0, cr0, [r0], {-0}
    142c:	19000002 	stmdbne	r0, {r1}
    1430:	00000290 	muleq	r0, r0, r2
    1434:	00008f19 	andeq	r8, r0, r9, lsl pc
    1438:	1c001d00 	stcne	13, cr1, [r0], {-0}
    143c:	00000356 	andeq	r0, r0, r6, asr r3
    1440:	00252905 	eoreq	r2, r5, r5, lsl #18
    1444:	02d20000 	sbcseq	r0, r2, #0
    1448:	8f190000 	svchi	0x00190000
    144c:	1d000000 	stcne	0, cr0, [r0, #-0]
    1450:	00d41200 	sbcseq	r1, r4, r0, lsl #4
    1454:	ce050000 	cdpgt	0, 0, cr0, cr5, cr0, {0}
    1458:	00042312 	andeq	r2, r4, r2, lsl r3
    145c:	00630500 	rsbeq	r0, r3, r0, lsl #10
    1460:	000001ad 	andeq	r0, r0, sp, lsr #3
    1464:	098b0004 	stmibeq	fp, {r2}
    1468:	01040000 	mrseq	r0, (UNDEF: 4)
    146c:	0000007d 	andeq	r0, r0, sp, ror r0
    1470:	00056b01 	andeq	r6, r5, r1, lsl #22
    1474:	0002f200 	andeq	pc, r2, r0, lsl #4
    1478:	00003000 	andeq	r3, r0, r0
    147c:	00000000 	andeq	r0, r0, r0
    1480:	00080300 	andeq	r0, r8, r0, lsl #6
    1484:	05040200 	streq	r0, [r4, #-512]	; 0x200
    1488:	00746e69 	rsbseq	r6, r4, r9, ror #28
    148c:	9f070403 	svcls	0x00070403
    1490:	03000001 	movweq	r0, #1
    1494:	00f00601 	rscseq	r0, r0, r1, lsl #12
    1498:	02030000 	andeq	r0, r3, #0
    149c:	00022905 	andeq	r2, r2, r5, lsl #18
    14a0:	05040300 	streq	r0, [r4, #-768]	; 0x300
    14a4:	000001ef 	andeq	r0, r0, pc, ror #3
    14a8:	ea050803 	b	1434bc <__bss_end__+0x13917c>
    14ac:	03000001 	movweq	r0, #1
    14b0:	00ee0801 	rsceq	r0, lr, r1, lsl #16
    14b4:	02030000 	andeq	r0, r3, #0
    14b8:	00005207 	andeq	r5, r0, r7, lsl #4
    14bc:	07040300 	streq	r0, [r4, -r0, lsl #6]
    14c0:	0000019a 	muleq	r0, sl, r1
    14c4:	95070803 	strls	r0, [r7, #-2051]	; 0x803
    14c8:	03000001 	movweq	r0, #1
    14cc:	01e10704 	mvneq	r0, r4, lsl #14
    14d0:	01030000 	mrseq	r0, (UNDEF: 3)
    14d4:	0000f708 	andeq	pc, r0, r8, lsl #14
    14d8:	05510400 	ldrbeq	r0, [r1, #-1024]	; 0x400
    14dc:	0e010000 	cdpeq	0, 0, cr0, cr1, cr0, {0}
    14e0:	00000025 	andeq	r0, r0, r5, lsr #32
    14e4:	00008888 	andeq	r8, r0, r8, lsl #17
    14e8:	00000018 	andeq	r0, r0, r8, lsl r0
    14ec:	00a29c01 	adceq	r9, r2, r1, lsl #24
    14f0:	b7050000 	strlt	r0, [r5, -r0]
    14f4:	01000005 	tsteq	r0, r5
    14f8:	00002c0f 	andeq	r2, r0, pc, lsl #24
    14fc:	00094200 	andeq	r4, r9, r0, lsl #4
    1500:	a0060000 	andge	r0, r6, r0
    1504:	01000005 	tsteq	r0, r5
    1508:	0088a017 	addeq	sl, r8, r7, lsl r0
    150c:	00001400 	andeq	r1, r0, r0, lsl #8
    1510:	c79c0100 	ldrgt	r0, [ip, r0, lsl #2]
    1514:	05000000 	streq	r0, [r0, #-0]
    1518:	000005b7 			; <UNDEFINED> instruction: 0x000005b7
    151c:	002c1801 	eoreq	r1, ip, r1, lsl #16
    1520:	09610000 	stmdbeq	r1!, {}^	; <UNPREDICTABLE>
    1524:	06000000 	streq	r0, [r0], -r0
    1528:	00000423 	andeq	r0, r0, r3, lsr #8
    152c:	88b41f01 	ldmhi	r4!, {r0, r8, r9, sl, fp, ip}
    1530:	00480000 	subeq	r0, r8, r0
    1534:	9c010000 	stcls	0, cr0, [r1], {-0}
    1538:	00000177 	andeq	r0, r0, r7, ror r1
    153c:	0005af07 	andeq	sl, r5, r7, lsl #30
    1540:	772a0100 	strvc	r0, [sl, -r0, lsl #2]!
    1544:	1c000001 	stcne	0, cr0, [r0], {1}
    1548:	07201000 	streq	r1, [r0, -r0]!
    154c:	00000598 	muleq	r0, r8, r5
    1550:	01772b01 	cmneq	r7, r1, lsl #22
    1554:	00240000 	eoreq	r0, r4, r0
    1558:	5f072010 	svcpl	0x00072010
    155c:	01000005 	tsteq	r0, r5
    1560:	0001772c 	andeq	r7, r1, ip, lsr #14
    1564:	00000000 	andeq	r0, r0, r0
    1568:	057f085a 	ldrbeq	r0, [pc, #-2138]!	; d16 <_start-0x72ea>
    156c:	2d010000 	stccs	0, cr0, [r1, #-0]
    1570:	00000177 	andeq	r0, r0, r7, ror r1
    1574:	88bc0920 	ldmhi	ip!, {r5, r8, fp}
    1578:	00790000 	rsbseq	r0, r9, r0
    157c:	c8090000 	stmdagt	r9, {}	; <UNPREDICTABLE>
    1580:	a2000088 	andge	r0, r0, #136	; 0x88
    1584:	0a000000 	beq	158c <_start-0x6a74>
    1588:	000088d0 	ldrdeq	r8, [r0], -r0
    158c:	0000018d 	andeq	r0, r0, sp, lsl #3
    1590:	0000013a 	andeq	r0, r0, sl, lsr r1
    1594:	0150010b 	cmpeq	r0, fp, lsl #2
    1598:	dc0a004e 	stcle	0, cr0, [sl], {78}	; 0x4e
    159c:	9e000088 	cdpls	0, 0, cr0, cr0, cr8, {4}
    15a0:	5a000001 	bpl	15ac <_start-0x6a54>
    15a4:	0b000001 	bleq	15b0 <_start-0x6a50>
    15a8:	0c055101 	stfeqs	f5, [r5], {1}
    15ac:	5a000001 	bpl	15b8 <_start-0x6a48>
    15b0:	0550010b 	ldrbeq	r0, [r0, #-267]	; 0x10b
    15b4:	1000240c 	andne	r2, r0, ip, lsl #8
    15b8:	e80c0020 	stmda	ip, {r5}
    15bc:	9e000088 	cdpls	0, 0, cr0, cr0, cr8, {4}
    15c0:	0b000001 	bleq	15cc <_start-0x6a34>
    15c4:	0c055101 	stfeqs	f5, [r5], {1}
    15c8:	5a000020 	bpl	1650 <_start-0x69b0>
    15cc:	0550010b 	ldrbeq	r0, [r0, #-267]	; 0x10b
    15d0:	10001c0c 	andne	r1, r0, ip, lsl #24
    15d4:	0d000020 	stceq	0, cr0, [r0, #-128]	; 0xffffff80
    15d8:	00000025 	andeq	r0, r0, r5, lsr #32
    15dc:	00055408 	andeq	r5, r5, r8, lsl #8
    15e0:	880d0100 	stmdahi	sp, {r8}
    15e4:	10000001 	andne	r0, r0, r1
    15e8:	00002c0d 	andeq	r2, r0, sp, lsl #24
    15ec:	04480e00 	strbeq	r0, [r8], #-3584	; 0xe00
    15f0:	50020000 	andpl	r0, r2, r0
    15f4:	0000019e 	muleq	r0, lr, r1
    15f8:	00002c0f 	andeq	r2, r0, pc, lsl #24
    15fc:	8f100000 	svchi	0x00100000
    1600:	02000001 	andeq	r0, r0, #1
    1604:	002c0f99 	mlaeq	ip, r9, pc, r0	; <UNPREDICTABLE>
    1608:	2c0f0000 	stccs	0, cr0, [pc], {-0}
    160c:	00000000 	andeq	r0, r0, r0
    1610:	0001d800 	andeq	sp, r1, r0, lsl #16
    1614:	79000400 	stmdbvc	r0, {sl}
    1618:	0400000a 	streq	r0, [r0], #-10
    161c:	00007d01 	andeq	r7, r0, r1, lsl #26
    1620:	05d90100 	ldrbeq	r0, [r9, #256]	; 0x100
    1624:	02f20000 	rscseq	r0, r2, #0
    1628:	88fc0000 	ldmhi	ip!, {}^	; <UNPREDICTABLE>
    162c:	00880000 	addeq	r0, r8, r0
    1630:	08a00000 	stmiaeq	r0!, {}	; <UNPREDICTABLE>
    1634:	04020000 	streq	r0, [r2], #-0
    1638:	746e6905 	strbtvc	r6, [lr], #-2309	; 0x905
    163c:	07040300 	streq	r0, [r4, -r0, lsl #6]
    1640:	0000019f 	muleq	r0, pc, r1	; <UNPREDICTABLE>
    1644:	f0060103 			; <UNDEFINED> instruction: 0xf0060103
    1648:	03000000 	movweq	r0, #0
    164c:	02290502 	eoreq	r0, r9, #8388608	; 0x800000
    1650:	04030000 	streq	r0, [r3], #-0
    1654:	0001ef05 	andeq	lr, r1, r5, lsl #30
    1658:	05080300 	streq	r0, [r8, #-768]	; 0x300
    165c:	000001ea 	andeq	r0, r0, sl, ror #3
    1660:	ee080103 	adfe	f0, f0, f3
    1664:	03000000 	movweq	r0, #0
    1668:	00520702 	subseq	r0, r2, r2, lsl #14
    166c:	04030000 	streq	r0, [r3], #-0
    1670:	00019a07 	andeq	r9, r1, r7, lsl #20
    1674:	07080300 	streq	r0, [r8, -r0, lsl #6]
    1678:	00000195 	muleq	r0, r5, r1
    167c:	e1070403 	tst	r7, r3, lsl #8
    1680:	03000001 	movweq	r0, #1
    1684:	00f70801 	rscseq	r0, r7, r1, lsl #16
    1688:	f2040000 	vhadd.s8	d0, d4, d0
    168c:	01000005 	tsteq	r0, r5
    1690:	0088fc05 	addeq	pc, r8, r5, lsl #24
    1694:	00001c00 	andeq	r1, r0, r0, lsl #24
    1698:	9e9c0100 	fmllse	f0, f4, f0
    169c:	05000000 	streq	r0, [r0, #-0]
    16a0:	000005ec 	andeq	r0, r0, ip, ror #11
    16a4:	002c0501 	eoreq	r0, ip, r1, lsl #10
    16a8:	098b0000 	stmibeq	fp, {}	; <UNPREDICTABLE>
    16ac:	06000000 	streq	r0, [r0], -r0
    16b0:	000005bc 			; <UNDEFINED> instruction: 0x000005bc
    16b4:	002c0b01 	eoreq	r0, ip, r1, lsl #22
    16b8:	89180000 	ldmdbhi	r8, {}	; <UNPREDICTABLE>
    16bc:	00140000 	andseq	r0, r4, r0
    16c0:	9c010000 	stcls	0, cr0, [r1], {-0}
    16c4:	000000cb 	andeq	r0, r0, fp, asr #1
    16c8:	00892407 	addeq	r2, r9, r7, lsl #8
    16cc:	0001ca00 	andeq	ip, r1, r0, lsl #20
    16d0:	50010800 	andpl	r0, r1, r0, lsl #16
    16d4:	30040c05 	andcc	r0, r4, r5, lsl #24
    16d8:	00002000 	andeq	r2, r0, r0
    16dc:	00060806 	andeq	r0, r6, r6, lsl #16
    16e0:	2c100100 	ldfcss	f0, [r0], {-0}
    16e4:	2c000000 	stccs	0, cr0, [r0], {-0}
    16e8:	0c000089 	stceq	0, cr0, [r0], {137}	; 0x89
    16ec:	01000000 	mrseq	r0, (UNDEF: 0)
    16f0:	0000f99c 	muleq	r0, ip, r9
    16f4:	00750900 	rsbseq	r0, r5, r0, lsl #18
    16f8:	002c1401 	eoreq	r1, ip, r1, lsl #8
    16fc:	50010000 	andpl	r0, r1, r0
    1700:	0089340a 	addeq	r3, r9, sl, lsl #8
    1704:	00009e00 	andeq	r9, r0, r0, lsl #28
    1708:	ff040000 			; <UNDEFINED> instruction: 0xff040000
    170c:	01000005 	tsteq	r0, r5
    1710:	00893819 	addeq	r3, r9, r9, lsl r8
    1714:	00002400 	andeq	r2, r0, r0, lsl #8
    1718:	579c0100 	ldrpl	r0, [ip, r0, lsl #2]
    171c:	0b000001 	bleq	1728 <_start-0x68d8>
    1720:	01007375 	tsteq	r0, r5, ror r3
    1724:	00002c19 	andeq	r2, r0, r9, lsl ip
    1728:	0009bf00 	andeq	fp, r9, r0, lsl #30
    172c:	62720900 	rsbsvs	r0, r2, #0, 18
    1730:	2c1a0100 	ldfcss	f0, [sl], {-0}
    1734:	01000000 	mrseq	r0, (UNDEF: 0)
    1738:	89480c54 	stmdbhi	r8, {r2, r4, r6, sl, fp}^
    173c:	00100000 	andseq	r0, r0, r0
    1740:	014d0000 	mrseq	r0, (UNDEF: 77)
    1744:	720d0000 	andvc	r0, sp, #0
    1748:	1c010061 	stcne	0, cr0, [r1], {97}	; 0x61
    174c:	0000002c 	andeq	r0, r0, ip, lsr #32
    1750:	000009dd 	ldrdeq	r0, [r0], -sp
    1754:	00894c0a 	addeq	r4, r9, sl, lsl #24
    1758:	0000cb00 	andeq	ip, r0, r0, lsl #22
    175c:	440a0000 	strmi	r0, [sl], #-0
    1760:	cb000089 	blgt	198c <_start-0x6674>
    1764:	00000000 	andeq	r0, r0, r0
    1768:	00044804 	andeq	r4, r4, r4, lsl #16
    176c:	5c220100 	stfpls	f0, [r2], #-0
    1770:	14000089 	strne	r0, [r0], #-137	; 0x89
    1774:	01000000 	mrseq	r0, (UNDEF: 0)
    1778:	0001909c 	muleq	r1, ip, r0
    177c:	736d0b00 	cmnvc	sp, #0, 22
    1780:	2c220100 	stfcss	f0, [r2], #-0
    1784:	f0000000 			; <UNDEFINED> instruction: 0xf0000000
    1788:	07000009 	streq	r0, [r0, -r9]
    178c:	0000896c 	andeq	r8, r0, ip, ror #18
    1790:	000000f9 	strdeq	r0, [r0], -r9
    1794:	07500108 	ldrbeq	r0, [r0, -r8, lsl #2]
    1798:	0a5001f3 	beq	1401f6c <__bss_end__+0x13f7c2c>
    179c:	001e03e8 	andseq	r0, lr, r8, ror #7
    17a0:	05cf0400 	strbeq	r0, [pc, #1024]	; 1ba8 <_start-0x6458>
    17a4:	25010000 	strcs	r0, [r1, #-0]
    17a8:	00008970 	andeq	r8, r0, r0, ror r9
    17ac:	00000014 	andeq	r0, r0, r4, lsl r0
    17b0:	01ca9c01 	biceq	r9, sl, r1, lsl #24
    17b4:	730b0000 	movwvc	r0, #45056	; 0xb000
    17b8:	01006365 	tsteq	r0, r5, ror #6
    17bc:	00002c25 	andeq	r2, r0, r5, lsr #24
    17c0:	000a1100 	andeq	r1, sl, r0, lsl #2
    17c4:	89800700 	stmibhi	r0, {r8, r9, sl}
    17c8:	01570000 	cmpeq	r7, r0
    17cc:	01080000 	mrseq	r0, (UNDEF: 8)
    17d0:	01f30750 	mvnseq	r0, r0, asr r7
    17d4:	03e80a50 	mvneq	r0, #80, 20	; 0x50000
    17d8:	0e00001e 	mcreq	0, 0, r0, cr0, cr14, {0}
    17dc:	0000010c 	andeq	r0, r0, ip, lsl #2
    17e0:	002ca502 	eoreq	sl, ip, r2, lsl #10
    17e4:	2c0f0000 	stccs	0, cr0, [pc], {-0}
    17e8:	00000000 	andeq	r0, r0, r0
    17ec:	0011ca00 	andseq	ip, r1, r0, lsl #20
    17f0:	5c000400 	cfstrspl	mvf0, [r0], {-0}
    17f4:	0400000b 	streq	r0, [r0], #-11
    17f8:	00007d01 	andeq	r7, r0, r1, lsl #26
    17fc:	06b60100 	ldrteq	r0, [r6], r0, lsl #2
    1800:	02f20000 	rscseq	r0, r2, #0
    1804:	89840000 	stmibhi	r4, {}	; <UNPREDICTABLE>
    1808:	06200000 	strteq	r0, [r0], -r0
    180c:	09470000 	stmdbeq	r7, {}^	; <UNPREDICTABLE>
    1810:	04020000 	streq	r0, [r2], #-0
    1814:	746e6905 	strbtvc	r6, [lr], #-2309	; 0x905
    1818:	07040300 	streq	r0, [r4, -r0, lsl #6]
    181c:	0000019f 	muleq	r0, pc, r1	; <UNPREDICTABLE>
    1820:	f0060103 			; <UNDEFINED> instruction: 0xf0060103
    1824:	03000000 	movweq	r0, #0
    1828:	02290502 	eoreq	r0, r9, #8388608	; 0x800000
    182c:	04030000 	streq	r0, [r3], #-0
    1830:	0001ef05 	andeq	lr, r1, r5, lsl #30
    1834:	05080300 	streq	r0, [r8, #-768]	; 0x300
    1838:	000001ea 	andeq	r0, r0, sl, ror #3
    183c:	0001ac04 	andeq	sl, r1, r4, lsl #24
    1840:	5a2e0300 	bpl	b82448 <__bss_end__+0xb78108>
    1844:	03000000 	movweq	r0, #0
    1848:	00ee0801 	rsceq	r0, lr, r1, lsl #16
    184c:	02030000 	andeq	r0, r3, #0
    1850:	00005207 	andeq	r5, r0, r7, lsl #4
    1854:	02bb0400 	adcseq	r0, fp, #0, 8
    1858:	34030000 	strcc	r0, [r3], #-0
    185c:	00000073 	andeq	r0, r0, r3, ror r0
    1860:	9a070403 	bls	1c2874 <__bss_end__+0x1b8534>
    1864:	03000001 	movweq	r0, #1
    1868:	01950708 	orrseq	r0, r5, r8, lsl #14
    186c:	04030000 	streq	r0, [r3], #-0
    1870:	0001e107 	andeq	lr, r1, r7, lsl #2
    1874:	06040500 	streq	r0, [r4], -r0, lsl #10
    1878:	00009004 	andeq	r9, r0, r4
    187c:	08010300 	stmdaeq	r1, {r8, r9}
    1880:	000000f7 	strdeq	r0, [r0], -r7
    1884:	009d0406 	addseq	r0, sp, r6, lsl #8
    1888:	90070000 	andls	r0, r7, r0
    188c:	08000000 	stmdaeq	r0, {}	; <UNPREDICTABLE>
    1890:	d90e040c 	stmdble	lr, {r2, r3, sl}
    1894:	09000000 	stmdbeq	r0, {}	; <UNPREDICTABLE>
    1898:	04007874 	streq	r7, [r0], #-2164	; 0x874
    189c:	00004f0f 	andeq	r4, r0, pc, lsl #30
    18a0:	72090000 	andvc	r0, r9, #0
    18a4:	0f040078 	svceq	0x00040078
    18a8:	0000004f 	andeq	r0, r0, pc, asr #32
    18ac:	04ca0a01 	strbeq	r0, [sl], #2561	; 0xa01
    18b0:	10040000 	andne	r0, r4, r0
    18b4:	00000068 	andeq	r0, r0, r8, rrx
    18b8:	047b0a04 	ldrbteq	r0, [fp], #-2564	; 0xa04
    18bc:	11040000 	mrsne	r0, (UNDEF: 4)
    18c0:	00000068 	andeq	r0, r0, r8, rrx
    18c4:	b3040008 	movwlt	r0, #16392	; 0x4008
    18c8:	04000004 	streq	r0, [r0], #-4
    18cc:	0000a212 	andeq	sl, r0, r2, lsl r2
    18d0:	03360400 	teqeq	r6, #0, 8
    18d4:	28050000 	stmdacs	r5, {}	; <UNPREDICTABLE>
    18d8:	000000ef 	andeq	r0, r0, pc, ror #1
    18dc:	00035d0b 	andeq	r5, r3, fp, lsl #26
    18e0:	00090400 	andeq	r0, r9, r0, lsl #8
    18e4:	00000106 	andeq	r0, r0, r6, lsl #2
    18e8:	00036c0c 	andeq	r6, r3, ip, lsl #24
    18ec:	00008800 	andeq	r8, r0, r0, lsl #16
    18f0:	04000000 	streq	r0, [r0], #-0
    18f4:	0000035f 	andeq	r0, r0, pc, asr r3
    18f8:	00e46205 	rsceq	r6, r4, r5, lsl #4
    18fc:	700d0000 	andvc	r0, sp, r0
    1900:	02000006 	andeq	r0, r0, #6
    1904:	013f0309 	teqeq	pc, r9, lsl #6
    1908:	de0e0000 	cdple	0, 0, cr0, cr14, cr0, {0}
    190c:	02000004 	andeq	r0, r0, #4
    1910:	00002c09 	andeq	r2, r0, r9, lsl #24
    1914:	006e0f00 	rsbeq	r0, lr, r0, lsl #30
    1918:	002c0902 	eoreq	r0, ip, r2, lsl #18
    191c:	11100000 	tstne	r0, r0
    1920:	000006e4 	andeq	r0, r0, r4, ror #13
    1924:	002c0c02 	eoreq	r0, ip, r2, lsl #24
    1928:	00000000 	andeq	r0, r0, r0
    192c:	0006230d 	andeq	r2, r6, sp, lsl #6
    1930:	03170200 	tsteq	r7, #0, 4
    1934:	00000176 	andeq	r0, r0, r6, ror r1
    1938:	6e69700f 	cdpvs	0, 6, cr7, cr9, cr15, {0}
    193c:	2c170200 	lfmcs	f0, 4, [r7], {-0}
    1940:	0f000000 	svceq	0x00000000
    1944:	17020076 	smlsdxne	r2, r6, r0, r0
    1948:	0000002c 	andeq	r0, r0, ip, lsr #32
    194c:	0004de0e 	andeq	sp, r4, lr, lsl #28
    1950:	2c170200 	lfmcs	f0, 4, [r7], {-0}
    1954:	0e000000 	cdpeq	0, 0, cr0, cr0, cr0, {0}
    1958:	00000676 	andeq	r0, r0, r6, ror r6
    195c:	002c1702 	eoreq	r1, ip, r2, lsl #14
    1960:	12000000 	andne	r0, r0, #0
    1964:	000004ef 	andeq	r0, r0, pc, ror #9
    1968:	89840901 	stmibhi	r4, {r0, r8, fp}
    196c:	01540000 	cmpeq	r4, r0
    1970:	9c010000 	stcls	0, cr0, [r1], {-0}
    1974:	00000722 	andeq	r0, r0, r2, lsr #14
    1978:	00049113 	andeq	r9, r4, r3, lsl r1
    197c:	22090100 	andcs	r0, r9, #0, 2
    1980:	32000007 	andcc	r0, r0, #7
    1984:	1400000a 	strne	r0, [r0], #-10
    1988:	09010063 	stmdbeq	r1, {r0, r1, r5, r6}
    198c:	0000005a 	andeq	r0, r0, sl, asr r0
    1990:	00000a53 	andeq	r0, r0, r3, asr sl
    1994:	00787415 	rsbseq	r7, r8, r5, lsl r4
    1998:	00250b01 	eoreq	r0, r5, r1, lsl #22
    199c:	76060000 	strvc	r0, [r6], -r0
    19a0:	1aff0800 	bne	fffc39a8 <__bss_end__+0xfffb9668>
    19a4:	006e169f 	mlseq	lr, pc, r6, r1	; <UNPREDICTABLE>
    19a8:	00680c01 	rsbeq	r0, r8, r1, lsl #24
    19ac:	0a740000 	beq	1d019b4 <__bss_end__+0x1cf7674>
    19b0:	75160000 	ldrvc	r0, [r6, #-0]
    19b4:	680d0100 	stmdavs	sp, {r8}
    19b8:	87000000 	strhi	r0, [r0, -r0]
    19bc:	1500000a 	strne	r0, [r0, #-10]
    19c0:	0e010073 	mcreq	0, 0, r0, cr1, cr3, {3}
    19c4:	00000068 	andeq	r0, r0, r8, rrx
    19c8:	94175401 	ldrls	r5, [r7], #-1025	; 0x401
    19cc:	04000089 	streq	r0, [r0], #-137	; 0x89
    19d0:	f8000000 			; <UNDEFINED> instruction: 0xf8000000
    19d4:	18000001 	stmdane	r0, {r0}
    19d8:	000006e4 	andeq	r0, r0, r4, ror #13
    19dc:	002c0e01 	eoreq	r0, ip, r1, lsl #28
    19e0:	54010000 	strpl	r0, [r1], #-0
    19e4:	013f1900 	teqeq	pc, r0, lsl #18
    19e8:	89980000 	ldmibhi	r8, {}	; <UNPREDICTABLE>
    19ec:	001c0000 	andseq	r0, ip, r0
    19f0:	11010000 	mrsne	r0, (UNDEF: 1)
    19f4:	00000275 	andeq	r0, r0, r5, ror r2
    19f8:	00016a1a 	andeq	r6, r1, sl, lsl sl
    19fc:	000ab000 	andeq	fp, sl, r0
    1a00:	015f1b00 	cmpeq	pc, r0, lsl #22
    1a04:	54010000 	strpl	r0, [r1], #-0
    1a08:	0001561c 	andeq	r5, r1, ip, lsl r6
    1a0c:	4b1b0000 	blmi	6c1a14 <__bss_end__+0x6b76d4>
    1a10:	01000001 	tsteq	r0, r1
    1a14:	01111956 	tsteq	r1, r6, asr r9
    1a18:	89a40000 	stmibhi	r4!, {}	; <UNPREDICTABLE>
    1a1c:	00100000 	andseq	r0, r0, r0
    1a20:	1a020000 	bne	81a28 <__bss_end__+0x776e8>
    1a24:	0000025f 	andeq	r0, r0, pc, asr r2
    1a28:	0001281a 	andeq	r2, r1, sl, lsl r8
    1a2c:	000ac300 	andeq	ip, sl, r0, lsl #6
    1a30:	011d1b00 	tsteq	sp, r0, lsl #22
    1a34:	54010000 	strpl	r0, [r1], #-0
    1a38:	0089a41d 	addeq	sl, r9, sp, lsl r4
    1a3c:	00000400 	andeq	r0, r0, r0, lsl #8
    1a40:	01321e00 	teqeq	r2, r0, lsl #28
    1a44:	0ad60000 	beq	ff581a4c <__bss_end__+0xff57770c>
    1a48:	00000000 	andeq	r0, r0, r0
    1a4c:	0089a41f 	addeq	sl, r9, pc, lsl r4
    1a50:	00113100 	andseq	r3, r1, r0, lsl #2
    1a54:	51012000 	mrspl	r2, (UNDEF: 1)
    1a58:	01203001 	teqeq	r0, r1
    1a5c:	00760250 	rsbseq	r0, r6, r0, asr r2
    1a60:	3f190000 	svccc	0x00190000
    1a64:	b8000001 	stmdalt	r0, {r0}
    1a68:	1c000089 	stcne	0, cr0, [r0], {137}	; 0x89
    1a6c:	01000000 	mrseq	r0, (UNDEF: 0)
    1a70:	0002f813 	andeq	pc, r2, r3, lsl r8	; <UNPREDICTABLE>
    1a74:	016a1a00 	cmneq	sl, r0, lsl #20
    1a78:	0ae90000 	beq	ffa41a80 <__bss_end__+0xffa37740>
    1a7c:	5f1b0000 	svcpl	0x001b0000
    1a80:	01000001 	tsteq	r0, r1
    1a84:	01561a54 	cmpeq	r6, r4, asr sl
    1a88:	0b0b0000 	bleq	2c1a90 <__bss_end__+0x2b7750>
    1a8c:	4b1b0000 	blmi	6c1a94 <__bss_end__+0x6b7754>
    1a90:	01000001 	tsteq	r0, r1
    1a94:	01111956 	tsteq	r1, r6, asr r9
    1a98:	89c40000 	stmibhi	r4, {}^	; <UNPREDICTABLE>
    1a9c:	00100000 	andseq	r0, r0, r0
    1aa0:	1a020000 	bne	81aa8 <__bss_end__+0x77768>
    1aa4:	000002df 	ldrdeq	r0, [r0], -pc	; <UNPREDICTABLE>
    1aa8:	0001281a 	andeq	r2, r1, sl, lsl r8
    1aac:	000b3c00 	andeq	r3, fp, r0, lsl #24
    1ab0:	011d1b00 	tsteq	sp, r0, lsl #22
    1ab4:	54010000 	strpl	r0, [r1], #-0
    1ab8:	0089c41d 	addeq	ip, r9, sp, lsl r4
    1abc:	00000400 	andeq	r0, r0, r0, lsl #8
    1ac0:	01321e00 	teqeq	r2, r0, lsl #28
    1ac4:	0b5e0000 	bleq	1781acc <__bss_end__+0x177778c>
    1ac8:	00000000 	andeq	r0, r0, r0
    1acc:	0089c41f 	addeq	ip, r9, pc, lsl r4
    1ad0:	00113100 	andseq	r3, r1, r0, lsl #2
    1ad4:	51012000 	mrspl	r2, (UNDEF: 1)
    1ad8:	31007704 	tstcc	r0, r4, lsl #14
    1adc:	5001201a 	andpl	r2, r1, sl, lsl r0
    1ae0:	00007602 	andeq	r7, r0, r2, lsl #12
    1ae4:	013f1900 	teqeq	pc, r0, lsl #18
    1ae8:	89d80000 	ldmibhi	r8, {}^	; <UNPREDICTABLE>
    1aec:	001c0000 	andseq	r0, ip, r0
    1af0:	15010000 	strne	r0, [r1, #-0]
    1af4:	00000380 	andeq	r0, r0, r0, lsl #7
    1af8:	00016a1a 	andeq	r6, r1, sl, lsl sl
    1afc:	000b7100 	andeq	r7, fp, r0, lsl #2
    1b00:	015f1b00 	cmpeq	pc, r0, lsl #22
    1b04:	54010000 	strpl	r0, [r1], #-0
    1b08:	0001561b 	andeq	r5, r1, fp, lsl r6
    1b0c:	00770800 	rsbseq	r0, r7, r0, lsl #16
    1b10:	ff081a32 			; <UNDEFINED> instruction: 0xff081a32
    1b14:	4b1b9f1a 	blmi	6e9784 <__bss_end__+0x6df444>
    1b18:	01000001 	tsteq	r0, r1
    1b1c:	01111956 	tsteq	r1, r6, asr r9
    1b20:	89e40000 	stmibhi	r4!, {}^	; <UNPREDICTABLE>
    1b24:	00100000 	andseq	r0, r0, r0
    1b28:	1a020000 	bne	81b30 <__bss_end__+0x777f0>
    1b2c:	00000367 	andeq	r0, r0, r7, ror #6
    1b30:	0001281a 	andeq	r2, r1, sl, lsl r8
    1b34:	000b9600 	andeq	r9, fp, r0, lsl #12
    1b38:	011d1b00 	tsteq	sp, r0, lsl #22
    1b3c:	54010000 	strpl	r0, [r1], #-0
    1b40:	0089e41d 	addeq	lr, r9, sp, lsl r4
    1b44:	00000400 	andeq	r0, r0, r0, lsl #8
    1b48:	01321e00 	teqeq	r2, r0, lsl #28
    1b4c:	0bbb0000 	bleq	feec1b54 <__bss_end__+0xfeeb7814>
    1b50:	00000000 	andeq	r0, r0, r0
    1b54:	0089e41f 	addeq	lr, r9, pc, lsl r4
    1b58:	00113100 	andseq	r3, r1, r0, lsl #2
    1b5c:	51012000 	mrspl	r2, (UNDEF: 1)
    1b60:	32007704 	andcc	r7, r0, #4, 14	; 0x100000
    1b64:	5001201a 	andpl	r2, r1, sl, lsl r0
    1b68:	00007602 	andeq	r7, r0, r2, lsl #12
    1b6c:	013f1900 	teqeq	pc, r0, lsl #18
    1b70:	89f80000 	ldmibhi	r8!, {}^	; <UNPREDICTABLE>
    1b74:	001c0000 	andseq	r0, ip, r0
    1b78:	17010000 	strne	r0, [r1, -r0]
    1b7c:	00000408 	andeq	r0, r0, r8, lsl #8
    1b80:	00016a1a 	andeq	r6, r1, sl, lsl sl
    1b84:	000bce00 	andeq	ip, fp, r0, lsl #28
    1b88:	015f1b00 	cmpeq	pc, r0, lsl #22
    1b8c:	54010000 	strpl	r0, [r1], #-0
    1b90:	0001561b 	andeq	r5, r1, fp, lsl r6
    1b94:	00770800 	rsbseq	r0, r7, r0, lsl #16
    1b98:	ff081a34 			; <UNDEFINED> instruction: 0xff081a34
    1b9c:	4b1b9f1a 	blmi	6e980c <__bss_end__+0x6df4cc>
    1ba0:	01000001 	tsteq	r0, r1
    1ba4:	01111956 	tsteq	r1, r6, asr r9
    1ba8:	8a040000 	bhi	101bb0 <__bss_end__+0xf7870>
    1bac:	00100000 	andseq	r0, r0, r0
    1bb0:	1a020000 	bne	81bb8 <__bss_end__+0x77878>
    1bb4:	000003ef 	andeq	r0, r0, pc, ror #7
    1bb8:	0001281a 	andeq	r2, r1, sl, lsl r8
    1bbc:	000bf000 	andeq	pc, fp, r0
    1bc0:	011d1b00 	tsteq	sp, r0, lsl #22
    1bc4:	54010000 	strpl	r0, [r1], #-0
    1bc8:	008a041d 	addeq	r0, sl, sp, lsl r4
    1bcc:	00000400 	andeq	r0, r0, r0, lsl #8
    1bd0:	01321e00 	teqeq	r2, r0, lsl #28
    1bd4:	0c120000 	ldceq	0, cr0, [r2], {-0}
    1bd8:	00000000 	andeq	r0, r0, r0
    1bdc:	008a041f 	addeq	r0, sl, pc, lsl r4
    1be0:	00113100 	andseq	r3, r1, r0, lsl #2
    1be4:	51012000 	mrspl	r2, (UNDEF: 1)
    1be8:	34007704 	strcc	r7, [r0], #-1796	; 0x704
    1bec:	5001201a 	andpl	r2, r1, sl, lsl r0
    1bf0:	00007602 	andeq	r7, r0, r2, lsl #12
    1bf4:	013f1900 	teqeq	pc, r0, lsl #18
    1bf8:	8a180000 	bhi	601c00 <__bss_end__+0x5f78c0>
    1bfc:	001c0000 	andseq	r0, ip, r0
    1c00:	19010000 	stmdbne	r1, {}	; <UNPREDICTABLE>
    1c04:	00000490 	muleq	r0, r0, r4
    1c08:	00016a1a 	andeq	r6, r1, sl, lsl sl
    1c0c:	000c2500 	andeq	r2, ip, r0, lsl #10
    1c10:	015f1b00 	cmpeq	pc, r0, lsl #22
    1c14:	54010000 	strpl	r0, [r1], #-0
    1c18:	0001561b 	andeq	r5, r1, fp, lsl r6
    1c1c:	00770800 	rsbseq	r0, r7, r0, lsl #16
    1c20:	ff081a38 			; <UNDEFINED> instruction: 0xff081a38
    1c24:	4b1b9f1a 	blmi	6e9894 <__bss_end__+0x6df554>
    1c28:	01000001 	tsteq	r0, r1
    1c2c:	01111956 	tsteq	r1, r6, asr r9
    1c30:	8a240000 	bhi	901c38 <__bss_end__+0x8f78f8>
    1c34:	00100000 	andseq	r0, r0, r0
    1c38:	1a020000 	bne	81c40 <__bss_end__+0x77900>
    1c3c:	00000477 	andeq	r0, r0, r7, ror r4
    1c40:	0001281a 	andeq	r2, r1, sl, lsl r8
    1c44:	000c4a00 	andeq	r4, ip, r0, lsl #20
    1c48:	011d1b00 	tsteq	sp, r0, lsl #22
    1c4c:	54010000 	strpl	r0, [r1], #-0
    1c50:	008a241d 	addeq	r2, sl, sp, lsl r4
    1c54:	00000400 	andeq	r0, r0, r0, lsl #8
    1c58:	01321e00 	teqeq	r2, r0, lsl #28
    1c5c:	0c6f0000 	stcleq	0, cr0, [pc], #-0	; 1c64 <_start-0x639c>
    1c60:	00000000 	andeq	r0, r0, r0
    1c64:	008a241f 	addeq	r2, sl, pc, lsl r4
    1c68:	00113100 	andseq	r3, r1, r0, lsl #2
    1c6c:	51012000 	mrspl	r2, (UNDEF: 1)
    1c70:	38007704 	stmdacc	r0, {r2, r8, r9, sl, ip, sp, lr}
    1c74:	5001201a 	andpl	r2, r1, sl, lsl r0
    1c78:	00007602 	andeq	r7, r0, r2, lsl #12
    1c7c:	013f1900 	teqeq	pc, r0, lsl #18
    1c80:	8a380000 	bhi	e01c88 <__bss_end__+0xdf7948>
    1c84:	001c0000 	andseq	r0, ip, r0
    1c88:	1b010000 	blne	41c90 <__bss_end__+0x37950>
    1c8c:	00000518 	andeq	r0, r0, r8, lsl r5
    1c90:	00016a1a 	andeq	r6, r1, sl, lsl sl
    1c94:	000c8200 	andeq	r8, ip, r0, lsl #4
    1c98:	015f1b00 	cmpeq	pc, r0, lsl #22
    1c9c:	54010000 	strpl	r0, [r1], #-0
    1ca0:	0001561b 	andeq	r5, r1, fp, lsl r6
    1ca4:	00770800 	rsbseq	r0, r7, r0, lsl #16
    1ca8:	ff081a40 			; <UNDEFINED> instruction: 0xff081a40
    1cac:	4b1b9f1a 	blmi	6e991c <__bss_end__+0x6df5dc>
    1cb0:	01000001 	tsteq	r0, r1
    1cb4:	01111956 	tsteq	r1, r6, asr r9
    1cb8:	8a440000 	bhi	1101cc0 <__bss_end__+0x10f7980>
    1cbc:	00100000 	andseq	r0, r0, r0
    1cc0:	1a020000 	bne	81cc8 <__bss_end__+0x77988>
    1cc4:	000004ff 	strdeq	r0, [r0], -pc	; <UNPREDICTABLE>
    1cc8:	0001281a 	andeq	r2, r1, sl, lsl r8
    1ccc:	000ca900 	andeq	sl, ip, r0, lsl #18
    1cd0:	011d1b00 	tsteq	sp, r0, lsl #22
    1cd4:	54010000 	strpl	r0, [r1], #-0
    1cd8:	008a441d 	addeq	r4, sl, sp, lsl r4
    1cdc:	00000400 	andeq	r0, r0, r0, lsl #8
    1ce0:	01321e00 	teqeq	r2, r0, lsl #28
    1ce4:	0cd00000 	ldcleq	0, cr0, [r0], {0}
    1ce8:	00000000 	andeq	r0, r0, r0
    1cec:	008a441f 	addeq	r4, sl, pc, lsl r4
    1cf0:	00113100 	andseq	r3, r1, r0, lsl #2
    1cf4:	51012000 	mrspl	r2, (UNDEF: 1)
    1cf8:	40007704 	andmi	r7, r0, r4, lsl #14
    1cfc:	5001201a 	andpl	r2, r1, sl, lsl r0
    1d00:	00007602 	andeq	r7, r0, r2, lsl #12
    1d04:	013f1900 	teqeq	pc, r0, lsl #18
    1d08:	8a580000 	bhi	1601d10 <__bss_end__+0x15f79d0>
    1d0c:	001c0000 	andseq	r0, ip, r0
    1d10:	1d010000 	stcne	0, cr0, [r1, #-0]
    1d14:	000005a2 	andeq	r0, r0, r2, lsr #11
    1d18:	00016a1a 	andeq	r6, r1, sl, lsl sl
    1d1c:	000ce300 	andeq	lr, ip, r0, lsl #6
    1d20:	015f1b00 	cmpeq	pc, r0, lsl #22
    1d24:	54010000 	strpl	r0, [r1], #-0
    1d28:	0001561b 	andeq	r5, r1, fp, lsl r6
    1d2c:	00770900 	rsbseq	r0, r7, r0, lsl #18
    1d30:	081a2008 	ldmdaeq	sl, {r3, sp}
    1d34:	1b9f1aff 	blne	fe7c8938 <__bss_end__+0xfe7be5f8>
    1d38:	0000014b 	andeq	r0, r0, fp, asr #2
    1d3c:	11195601 	tstne	r9, r1, lsl #12
    1d40:	64000001 	strvs	r0, [r0], #-1
    1d44:	1000008a 	andne	r0, r0, sl, lsl #1
    1d48:	02000000 	andeq	r0, r0, #0
    1d4c:	0005881a 	andeq	r8, r5, sl, lsl r8
    1d50:	01281a00 	teqeq	r8, r0, lsl #20
    1d54:	0d0d0000 	stceq	0, cr0, [sp, #-0]
    1d58:	1d1b0000 	ldcne	0, cr0, [fp, #-0]
    1d5c:	01000001 	tsteq	r0, r1
    1d60:	8a641d54 	bhi	19092b8 <__bss_end__+0x18fef78>
    1d64:	00040000 	andeq	r0, r4, r0
    1d68:	321e0000 	andscc	r0, lr, #0
    1d6c:	37000001 	strcc	r0, [r0, -r1]
    1d70:	0000000d 	andeq	r0, r0, sp
    1d74:	8a641f00 	bhi	190997c <__bss_end__+0x18ff63c>
    1d78:	11310000 	teqne	r1, r0
    1d7c:	01200000 	teqeq	r0, r0
    1d80:	00770551 	rsbseq	r0, r7, r1, asr r5
    1d84:	201a2008 	andscs	r2, sl, r8
    1d88:	76025001 	strvc	r5, [r2], -r1
    1d8c:	19000000 	stmdbne	r0, {}	; <UNPREDICTABLE>
    1d90:	0000013f 	andeq	r0, r0, pc, lsr r1
    1d94:	00008a78 	andeq	r8, r0, r8, ror sl
    1d98:	0000001c 	andeq	r0, r0, ip, lsl r0
    1d9c:	062c1f01 	strteq	r1, [ip], -r1, lsl #30
    1da0:	6a1a0000 	bvs	681da8 <__bss_end__+0x677a68>
    1da4:	4a000001 	bmi	1db0 <_start-0x6250>
    1da8:	1b00000d 	blne	1de4 <_start-0x621c>
    1dac:	0000015f 	andeq	r0, r0, pc, asr r1
    1db0:	561b5401 	ldrpl	r5, [fp], -r1, lsl #8
    1db4:	09000001 	stmdbeq	r0, {r0}
    1db8:	40080077 	andmi	r0, r8, r7, ror r0
    1dbc:	1aff081a 	bne	fffc3e2c <__bss_end__+0xfffb9aec>
    1dc0:	014b1b9f 			; <UNDEFINED> instruction: 0x014b1b9f
    1dc4:	56010000 	strpl	r0, [r1], -r0
    1dc8:	00011119 	andeq	r1, r1, r9, lsl r1
    1dcc:	008a8400 	addeq	r8, sl, r0, lsl #8
    1dd0:	00001000 	andeq	r1, r0, r0
    1dd4:	121a0200 	andsne	r0, sl, #0, 4
    1dd8:	1a000006 	bne	1df8 <_start-0x6208>
    1ddc:	00000128 	andeq	r0, r0, r8, lsr #2
    1de0:	00000d6c 	andeq	r0, r0, ip, ror #26
    1de4:	00011d1b 	andeq	r1, r1, fp, lsl sp
    1de8:	1d540100 	ldfnee	f0, [r4, #-0]
    1dec:	00008a84 	andeq	r8, r0, r4, lsl #21
    1df0:	00000004 	andeq	r0, r0, r4
    1df4:	0001321e 	andeq	r3, r1, lr, lsl r2
    1df8:	000d8e00 	andeq	r8, sp, r0, lsl #28
    1dfc:	1f000000 	svcne	0x00000000
    1e00:	00008a84 	andeq	r8, r0, r4, lsl #21
    1e04:	00001131 	andeq	r1, r0, r1, lsr r1
    1e08:	05510120 	ldrbeq	r0, [r1, #-288]	; 0x120
    1e0c:	40080077 	andmi	r0, r8, r7, ror r0
    1e10:	5001201a 	andpl	r2, r1, sl, lsl r0
    1e14:	00007602 	andeq	r7, r0, r2, lsl #12
    1e18:	013f1900 	teqeq	pc, r0, lsl #18
    1e1c:	8a980000 	bhi	fe601e24 <__bss_end__+0xfe5f7ae4>
    1e20:	001c0000 	andseq	r0, ip, r0
    1e24:	21010000 	mrscs	r0, (UNDEF: 1)
    1e28:	000006ac 	andeq	r0, r0, ip, lsr #13
    1e2c:	00016a1b 	andeq	r6, r1, fp, lsl sl
    1e30:	1b580100 	blne	1602238 <__bss_end__+0x15f7ef8>
    1e34:	0000015f 	andeq	r0, r0, pc, asr r1
    1e38:	561a5401 	ldrpl	r5, [sl], -r1, lsl #8
    1e3c:	a1000001 	tstge	r0, r1
    1e40:	1b00000d 	blne	1e7c <_start-0x6184>
    1e44:	0000014b 	andeq	r0, r0, fp, asr #2
    1e48:	11195601 	tstne	r9, r1, lsl #12
    1e4c:	a4000001 	strge	r0, [r0], #-1
    1e50:	1000008a 	andne	r0, r0, sl, lsl #1
    1e54:	02000000 	andeq	r0, r0, #0
    1e58:	0006921a 	andeq	r9, r6, sl, lsl r2
    1e5c:	01281b00 	teqeq	r8, r0, lsl #22
    1e60:	58010000 	stmdapl	r1, {}	; <UNPREDICTABLE>
    1e64:	00011d1b 	andeq	r1, r1, fp, lsl sp
    1e68:	1d540100 	ldfnee	f0, [r4, #-0]
    1e6c:	00008aa4 	andeq	r8, r0, r4, lsr #21
    1e70:	00000004 	andeq	r0, r0, r4
    1e74:	0001321e 	andeq	r3, r1, lr, lsl r2
    1e78:	000dd400 	andeq	sp, sp, r0, lsl #8
    1e7c:	1f000000 	svcne	0x00000000
    1e80:	00008aa4 	andeq	r8, r0, r4, lsr #21
    1e84:	00001131 	andeq	r1, r0, r1, lsr r1
    1e88:	05510120 	ldrbeq	r0, [r1, #-288]	; 0x120
    1e8c:	80080077 	andhi	r0, r8, r7, ror r0
    1e90:	5001201a 	andpl	r2, r1, sl, lsl r0
    1e94:	00007602 	andeq	r7, r0, r2, lsl #12
    1e98:	013f2100 	teqeq	pc, r0, lsl #2
    1e9c:	8ab80000 	bhi	fee01ea4 <__bss_end__+0xfedf7b64>
    1ea0:	001c0000 	andseq	r0, ip, r0
    1ea4:	23010000 	movwcs	r0, #4096	; 0x1000
    1ea8:	00016a1b 	andeq	r6, r1, fp, lsl sl
    1eac:	1b550100 	blne	15422b4 <__bss_end__+0x1537f74>
    1eb0:	0000015f 	andeq	r0, r0, pc, asr r1
    1eb4:	561c5401 	ldrpl	r5, [ip], -r1, lsl #8
    1eb8:	01000001 	tsteq	r0, r1
    1ebc:	00014b1b 	andeq	r4, r1, fp, lsl fp
    1ec0:	19560100 	ldmdbne	r6, {r8}^
    1ec4:	00000111 	andeq	r0, r0, r1, lsl r1
    1ec8:	00008ac4 	andeq	r8, r0, r4, asr #21
    1ecc:	00000010 	andeq	r0, r0, r0, lsl r0
    1ed0:	070b1a02 	streq	r1, [fp, -r2, lsl #20]
    1ed4:	281b0000 	ldmdacs	fp, {}	; <UNPREDICTABLE>
    1ed8:	01000001 	tsteq	r0, r1
    1edc:	011d1b55 	tsteq	sp, r5, asr fp
    1ee0:	54010000 	strpl	r0, [r1], #-0
    1ee4:	008ac41d 	addeq	ip, sl, sp, lsl r4
    1ee8:	00000400 	andeq	r0, r0, r0, lsl #8
    1eec:	01321e00 	teqeq	r2, r0, lsl #28
    1ef0:	0de70000 	stcleq	0, cr0, [r7]
    1ef4:	00000000 	andeq	r0, r0, r0
    1ef8:	008ac41f 	addeq	ip, sl, pc, lsl r4
    1efc:	00113100 	andseq	r3, r1, r0, lsl #2
    1f00:	51012000 	mrspl	r2, (UNDEF: 1)
    1f04:	01203101 	teqeq	r0, r1, lsl #2
    1f08:	00760250 	rsbseq	r0, r6, r0, asr r2
    1f0c:	06000000 	streq	r0, [r0], -r0
    1f10:	0000d904 	andeq	sp, r0, r4, lsl #18
    1f14:	07372200 	ldreq	r2, [r7, -r0, lsl #4]!
    1f18:	27010000 	strcs	r0, [r1, -r0]
    1f1c:	00000025 	andeq	r0, r0, r5, lsr #32
    1f20:	00076203 	andeq	r6, r7, r3, lsl #4
    1f24:	78720f00 	ldmdavc	r2!, {r8, r9, sl, fp}^
    1f28:	25270100 	strcs	r0, [r7, #-256]!	; 0x100
    1f2c:	0f000000 	svceq	0x00000000
    1f30:	27010076 	smlsdxcs	r1, r6, r0, r0
    1f34:	00000025 	andeq	r0, r0, r5, lsr #32
    1f38:	0006920e 	andeq	r9, r6, lr, lsl #4
    1f3c:	2c270100 	stfcss	f0, [r7], #-0
    1f40:	11000000 	mrsne	r0, (UNDEF: 0)
    1f44:	000004de 	ldrdeq	r0, [r0], -lr
    1f48:	002c2801 	eoreq	r2, ip, r1, lsl #16
    1f4c:	23000000 	movwcs	r0, #0
    1f50:	00000633 	andeq	r0, r0, r3, lsr r6
    1f54:	00253401 	eoreq	r3, r5, r1, lsl #8
    1f58:	8ad80000 	bhi	ff601f60 <__bss_end__+0xff5f7c20>
    1f5c:	01c80000 	biceq	r0, r8, r0
    1f60:	9c010000 	stcls	0, cr0, [r1], {-0}
    1f64:	00000b1e 	andeq	r0, r0, lr, lsl fp
    1f68:	00049113 	andeq	r9, r4, r3, lsl r1
    1f6c:	22340100 	eorscs	r0, r4, #0, 2
    1f70:	fa000007 	blx	1f94 <_start-0x606c>
    1f74:	1300000d 	movwne	r0, #13
    1f78:	00000692 	muleq	r0, r2, r6
    1f7c:	00253401 	eoreq	r3, r5, r1, lsl #8
    1f80:	0e3f0000 	cdpeq	0, 3, cr0, cr15, cr0, {0}
    1f84:	72150000 	andsvc	r0, r5, #0
    1f88:	35010078 	strcc	r0, [r1, #-120]	; 0x78
    1f8c:	00000025 	andeq	r0, r0, r5, lsr #32
    1f90:	73165501 	tstvc	r6, #4194304	; 0x400000
    1f94:	2c3c0100 	ldfcss	f0, [ip], #-0
    1f98:	5d000000 	stcpl	0, cr0, [r0, #-0]
    1f9c:	1600000e 	strne	r0, [r0], -lr
    1fa0:	3f010075 	svccc	0x00010075
    1fa4:	00000068 	andeq	r0, r0, r8, rrx
    1fa8:	00000e70 	andeq	r0, r0, r0, ror lr
    1fac:	01006e16 	tsteq	r0, r6, lsl lr
    1fb0:	00002c40 	andeq	r2, r0, r0, asr #24
    1fb4:	000e8300 	andeq	r8, lr, r0, lsl #6
    1fb8:	00631600 	rsbeq	r1, r3, r0, lsl #12
    1fbc:	002c4101 	eoreq	r4, ip, r1, lsl #2
    1fc0:	0e9a0000 	cdpeq	0, 9, cr0, cr10, cr0, {0}
    1fc4:	28190000 	ldmdacs	r9, {}	; <UNPREDICTABLE>
    1fc8:	ec000007 	stc	0, cr0, [r0], {7}
    1fcc:	3400008a 	strcc	r0, [r0], #-138	; 0x8a
    1fd0:	01000000 	mrseq	r0, (UNDEF: 0)
    1fd4:	00083c38 	andeq	r3, r8, r8, lsr ip
    1fd8:	074b1a00 	strbeq	r1, [fp, -r0, lsl #20]
    1fdc:	0ec40000 	cdpeq	0, 12, cr0, cr4, cr0, {0}
    1fe0:	421c0000 	andsmi	r0, ip, #0
    1fe4:	00000007 	andeq	r0, r0, r7
    1fe8:	0007381b 	andeq	r3, r7, fp, lsl r8
    1fec:	1d550100 	ldfnee	f0, [r5, #-0]
    1ff0:	00008aec 	andeq	r8, r0, ip, ror #21
    1ff4:	00000034 	andeq	r0, r0, r4, lsr r0
    1ff8:	0007561e 	andeq	r5, r7, lr, lsl r6
    1ffc:	000ee200 	andeq	lr, lr, r0, lsl #4
    2000:	8af02400 	bhi	ffc0b008 <__bss_end__+0xffc00cc8>
    2004:	11470000 	mrsne	r0, (UNDEF: 71)
    2008:	fc250000 	stc2	0, cr0, [r5], #-0
    200c:	5200008a 	andpl	r0, r0, #138	; 0x8a
    2010:	31000011 	tstcc	r0, r1, lsl r0
    2014:	20000008 	andcs	r0, r0, r8
    2018:	75025001 	strvc	r5, [r2, #-1]
    201c:	08240000 	stmdaeq	r4!, {}	; <UNPREDICTABLE>
    2020:	4700008b 	strmi	r0, [r0, -fp, lsl #1]
    2024:	00000011 	andeq	r0, r0, r1, lsl r0
    2028:	8b281700 	blhi	a07c30 <__bss_end__+0x9fd8f0>
    202c:	00040000 	andeq	r0, r4, r0
    2030:	08590000 	ldmdaeq	r9, {}^	; <UNPREDICTABLE>
    2034:	e4260000 	strt	r0, [r6], #-0
    2038:	01000006 	tsteq	r0, r6
    203c:	00002c3c 	andeq	r2, r0, ip, lsr ip
    2040:	000f0000 	andeq	r0, pc, r0
    2044:	11190000 	tstne	r9, r0
    2048:	34000001 	strcc	r0, [r0], #-1
    204c:	1000008b 	andne	r0, r0, fp, lsl #1
    2050:	01000000 	mrseq	r0, (UNDEF: 0)
    2054:	00089244 	andeq	r9, r8, r4, asr #4
    2058:	01281a00 	teqeq	r8, r0, lsl #20
    205c:	0f130000 	svceq	0x00130000
    2060:	1d1a0000 	ldcne	0, cr0, [sl, #-0]
    2064:	38000001 	stmdacc	r0, {r0}
    2068:	1d00000f 	stcne	0, cr0, [r0, #-60]	; 0xffffffc4
    206c:	00008b34 	andeq	r8, r0, r4, lsr fp
    2070:	00000004 	andeq	r0, r0, r4
    2074:	0001321e 	andeq	r3, r1, lr, lsl r2
    2078:	000f4b00 	andeq	r4, pc, r0, lsl #22
    207c:	19000000 	stmdbne	r0, {}	; <UNPREDICTABLE>
    2080:	00000111 	andeq	r0, r0, r1, lsl r1
    2084:	00008b54 	andeq	r8, r0, r4, asr fp
    2088:	00000010 	andeq	r0, r0, r0, lsl r0
    208c:	08cb4801 	stmiaeq	fp, {r0, fp, lr}^
    2090:	281a0000 	ldmdacs	sl, {}	; <UNPREDICTABLE>
    2094:	5e000001 	cdppl	0, 0, cr0, cr0, cr1, {0}
    2098:	1a00000f 	bne	20dc <_start-0x5f24>
    209c:	0000011d 	andeq	r0, r0, sp, lsl r1
    20a0:	00000f71 	andeq	r0, r0, r1, ror pc
    20a4:	008b541d 	addeq	r5, fp, sp, lsl r4
    20a8:	00000400 	andeq	r0, r0, r0, lsl #8
    20ac:	01321e00 	teqeq	r2, r0, lsl #28
    20b0:	0f840000 	svceq	0x00840000
    20b4:	00000000 	andeq	r0, r0, r0
    20b8:	00011119 	andeq	r1, r1, r9, lsl r1
    20bc:	008b7800 	addeq	r7, fp, r0, lsl #16
    20c0:	00001000 	andeq	r1, r0, r0
    20c4:	044b0100 	strbeq	r0, [fp], #-256	; 0x100
    20c8:	1a000009 	bne	20f4 <_start-0x5f0c>
    20cc:	00000128 	andeq	r0, r0, r8, lsr #2
    20d0:	00000f97 	muleq	r0, r7, pc	; <UNPREDICTABLE>
    20d4:	00011d1a 	andeq	r1, r1, sl, lsl sp
    20d8:	000faa00 	andeq	sl, pc, r0, lsl #20
    20dc:	8b781d00 	blhi	1e094e4 <__bss_end__+0x1dff1a4>
    20e0:	00040000 	andeq	r0, r4, r0
    20e4:	321e0000 	andscc	r0, lr, #0
    20e8:	bd000001 	stclt	0, cr0, [r0, #-4]
    20ec:	0000000f 	andeq	r0, r0, pc
    20f0:	01111900 	tsteq	r1, r0, lsl #18
    20f4:	8b9c0000 	blhi	fe7020fc <__bss_end__+0xfe6f7dbc>
    20f8:	00100000 	andseq	r0, r0, r0
    20fc:	4e010000 	cdpmi	0, 0, cr0, cr1, cr0, {0}
    2100:	0000093d 	andeq	r0, r0, sp, lsr r9
    2104:	0001281a 	andeq	r2, r1, sl, lsl r8
    2108:	000fd000 	andeq	sp, pc, r0
    210c:	011d1a00 	tsteq	sp, r0, lsl #20
    2110:	0fe30000 	svceq	0x00e30000
    2114:	9c1d0000 	ldcls	0, cr0, [sp], {-0}
    2118:	0400008b 	streq	r0, [r0], #-139	; 0x8b
    211c:	1e000000 	cdpne	0, 0, cr0, cr0, cr0, {0}
    2120:	00000132 	andeq	r0, r0, r2, lsr r1
    2124:	00000ff6 	strdeq	r0, [r0], -r6
    2128:	11190000 	tstne	r9, r0
    212c:	c0000001 	andgt	r0, r0, r1
    2130:	1000008b 	andne	r0, r0, fp, lsl #1
    2134:	01000000 	mrseq	r0, (UNDEF: 0)
    2138:	00097651 	andeq	r7, r9, r1, asr r6
    213c:	01281a00 	teqeq	r8, r0, lsl #20
    2140:	10090000 	andne	r0, r9, r0
    2144:	1d1a0000 	ldcne	0, cr0, [sl, #-0]
    2148:	1c000001 	stcne	0, cr0, [r0], {1}
    214c:	1d000010 	stcne	0, cr0, [r0, #-64]	; 0xffffffc0
    2150:	00008bc0 	andeq	r8, r0, r0, asr #23
    2154:	00000004 	andeq	r0, r0, r4
    2158:	0001321e 	andeq	r3, r1, lr, lsl r2
    215c:	00102f00 	andseq	r2, r0, r0, lsl #30
    2160:	19000000 	stmdbne	r0, {}	; <UNPREDICTABLE>
    2164:	00000111 	andeq	r0, r0, r1, lsl r1
    2168:	00008be4 	andeq	r8, r0, r4, ror #23
    216c:	00000010 	andeq	r0, r0, r0, lsl r0
    2170:	09af5401 	stmibeq	pc!, {r0, sl, ip, lr}	; <UNPREDICTABLE>
    2174:	281a0000 	ldmdacs	sl, {}	; <UNPREDICTABLE>
    2178:	42000001 	andmi	r0, r0, #1
    217c:	1a000010 	bne	21c4 <_start-0x5e3c>
    2180:	0000011d 	andeq	r0, r0, sp, lsl r1
    2184:	00001055 	andeq	r1, r0, r5, asr r0
    2188:	008be41d 	addeq	lr, fp, sp, lsl r4
    218c:	00000400 	andeq	r0, r0, r0, lsl #8
    2190:	01321e00 	teqeq	r2, r0, lsl #28
    2194:	10680000 	rsbne	r0, r8, r0
    2198:	00000000 	andeq	r0, r0, r0
    219c:	00011119 	andeq	r1, r1, r9, lsl r1
    21a0:	008c0800 	addeq	r0, ip, r0, lsl #16
    21a4:	00001000 	andeq	r1, r0, r0
    21a8:	e8570100 	ldmda	r7, {r8}^
    21ac:	1a000009 	bne	21d8 <_start-0x5e28>
    21b0:	00000128 	andeq	r0, r0, r8, lsr #2
    21b4:	0000107b 	andeq	r1, r0, fp, ror r0
    21b8:	00011d1a 	andeq	r1, r1, sl, lsl sp
    21bc:	00108e00 	andseq	r8, r0, r0, lsl #28
    21c0:	8c081d00 	stchi	13, cr1, [r8], {-0}
    21c4:	00040000 	andeq	r0, r4, r0
    21c8:	321e0000 	andscc	r0, lr, #0
    21cc:	a1000001 	tstge	r0, r1
    21d0:	00000010 	andeq	r0, r0, r0, lsl r0
    21d4:	01111900 	tsteq	r1, r0, lsl #18
    21d8:	8c2c0000 	stchi	0, cr0, [ip], #-0
    21dc:	00100000 	andseq	r0, r0, r0
    21e0:	5a010000 	bpl	421e8 <__bss_end__+0x37ea8>
    21e4:	00000a1d 	andeq	r0, r0, sp, lsl sl
    21e8:	0001281a 	andeq	r2, r1, sl, lsl r8
    21ec:	0010b400 	andseq	fp, r0, r0, lsl #8
    21f0:	011d2700 	tsteq	sp, r0, lsl #14
    21f4:	2c1d0000 	ldccs	0, cr0, [sp], {-0}
    21f8:	0400008c 	streq	r0, [r0], #-140	; 0x8c
    21fc:	1e000000 	cdpne	0, 0, cr0, cr0, cr0, {0}
    2200:	00000132 	andeq	r0, r0, r2, lsr r1
    2204:	000010c7 	andeq	r1, r0, r7, asr #1
    2208:	28190000 	ldmdacs	r9, {}	; <UNPREDICTABLE>
    220c:	4c000007 	stcmi	0, cr0, [r0], {7}
    2210:	3400008c 	strcc	r0, [r0], #-140	; 0x8c
    2214:	01000000 	mrseq	r0, (UNDEF: 0)
    2218:	000a8161 	andeq	r8, sl, r1, ror #2
    221c:	074b2700 	strbeq	r2, [fp, -r0, lsl #14]
    2220:	421a0000 	andsmi	r0, sl, #0
    2224:	da000007 	ble	2248 <_start-0x5db8>
    2228:	1a000010 	bne	2270 <_start-0x5d90>
    222c:	00000738 	andeq	r0, r0, r8, lsr r7
    2230:	000010fa 	strdeq	r1, [r0], -sl
    2234:	008c4c1d 	addeq	r4, ip, sp, lsl ip
    2238:	00003400 	andeq	r3, r0, r0, lsl #8
    223c:	07561e00 	ldrbeq	r1, [r6, -r0, lsl #28]
    2240:	11180000 	tstne	r8, r0
    2244:	50240000 	eorpl	r0, r4, r0
    2248:	4700008c 	strmi	r0, [r0, -ip, lsl #1]
    224c:	25000011 	strcs	r0, [r0, #-17]
    2250:	00008c5c 	andeq	r8, r0, ip, asr ip
    2254:	00001152 	andeq	r1, r0, r2, asr r1
    2258:	00000a76 	andeq	r0, r0, r6, ror sl
    225c:	02500120 	subseq	r0, r0, #32, 2
    2260:	24000075 	strcs	r0, [r0], #-117	; 0x75
    2264:	00008c68 	andeq	r8, r0, r8, ror #24
    2268:	00001147 	andeq	r1, r0, r7, asr #2
    226c:	50250000 	eorpl	r0, r5, r0
    2270:	5200008b 	andpl	r0, r0, #139	; 0x8b
    2274:	95000011 	strls	r0, [r0, #-17]
    2278:	2000000a 	andcs	r0, r0, sl
    227c:	75025001 	strvc	r5, [r2, #-1]
    2280:	70250000 	eorvc	r0, r5, r0
    2284:	5200008b 	andpl	r0, r0, #139	; 0x8b
    2288:	a9000011 	stmdbge	r0, {r0, r4}
    228c:	2000000a 	andcs	r0, r0, sl
    2290:	75025001 	strvc	r5, [r2, #-1]
    2294:	94250000 	strtls	r0, [r5], #-0
    2298:	5200008b 	andpl	r0, r0, #139	; 0x8b
    229c:	bd000011 	stclt	0, cr0, [r0, #-68]	; 0xffffffbc
    22a0:	2000000a 	andcs	r0, r0, sl
    22a4:	75025001 	strvc	r5, [r2, #-1]
    22a8:	b8250000 	stmdalt	r5!, {}	; <UNPREDICTABLE>
    22ac:	5200008b 	andpl	r0, r0, #139	; 0x8b
    22b0:	d1000011 	tstle	r0, r1, lsl r0
    22b4:	2000000a 	andcs	r0, r0, sl
    22b8:	75025001 	strvc	r5, [r2, #-1]
    22bc:	dc250000 	stcle	0, cr0, [r5], #-0
    22c0:	5200008b 	andpl	r0, r0, #139	; 0x8b
    22c4:	e5000011 	str	r0, [r0, #-17]
    22c8:	2000000a 	andcs	r0, r0, sl
    22cc:	75025001 	strvc	r5, [r2, #-1]
    22d0:	00250000 	eoreq	r0, r5, r0
    22d4:	5200008c 	andpl	r0, r0, #140	; 0x8c
    22d8:	f9000011 			; <UNDEFINED> instruction: 0xf9000011
    22dc:	2000000a 	andcs	r0, r0, sl
    22e0:	75025001 	strvc	r5, [r2, #-1]
    22e4:	24250000 	strtcs	r0, [r5], #-0
    22e8:	5200008c 	andpl	r0, r0, #140	; 0x8c
    22ec:	0d000011 	stceq	0, cr0, [r0, #-68]	; 0xffffffbc
    22f0:	2000000b 	andcs	r0, r0, fp
    22f4:	75025001 	strvc	r5, [r2, #-1]
    22f8:	441f0000 	ldrmi	r0, [pc], #-0	; 2300 <_start-0x5d00>
    22fc:	5200008c 	andpl	r0, r0, #140	; 0x8c
    2300:	20000011 	andcs	r0, r0, r1, lsl r0
    2304:	75025001 	strvc	r5, [r2, #-1]
    2308:	23000000 	movwcs	r0, #0
    230c:	00000648 	andeq	r0, r0, r8, asr #12
    2310:	00256c01 	eoreq	r6, r5, r1, lsl #24
    2314:	8ca00000 	stchi	0, cr0, [r0]
    2318:	00900000 	addseq	r0, r0, r0
    231c:	9c010000 	stcls	0, cr0, [r1], {-0}
    2320:	00000c02 	andeq	r0, r0, r2, lsl #24
    2324:	01007514 	tsteq	r0, r4, lsl r5
    2328:	0007226c 	andeq	r2, r7, ip, ror #4
    232c:	00113600 	andseq	r3, r1, r0, lsl #12
    2330:	75621400 	strbvc	r1, [r2, #-1024]!	; 0x400
    2334:	6c010066 	stcvs	0, cr0, [r1], {102}	; 0x66
    2338:	00000c02 	andeq	r0, r0, r2, lsl #24
    233c:	0000116a 	andeq	r1, r0, sl, ror #2
    2340:	0002c413 	andeq	ip, r2, r3, lsl r4
    2344:	686c0100 	stmdavs	ip!, {r8}^
    2348:	9e000000 	cdpls	0, 0, cr0, cr0, cr0, {0}
    234c:	14000011 	strne	r0, [r0], #-17
    2350:	00646e65 	rsbeq	r6, r4, r5, ror #28
    2354:	004f6c01 	subeq	r6, pc, r1, lsl #24
    2358:	11d70000 	bicsne	r0, r7, r0
    235c:	f4280000 	vld4.8	{d0-d3}, [r8], r0
    2360:	01000006 	tsteq	r0, r6
    2364:	0000686c 	andeq	r6, r0, ip, ror #16
    2368:	00910200 	addseq	r0, r1, r0, lsl #4
    236c:	00017f29 	andeq	r7, r1, r9, lsr #30
    2370:	000c1800 	andeq	r1, ip, r0, lsl #16
    2374:	ec030500 	cfstr32	mvfx0, [r3], {-0}
    2378:	1600009d 			; <UNDEFINED> instruction: 0x1600009d
    237c:	70010069 	andvc	r0, r1, r9, rrx
    2380:	00000025 	andeq	r0, r0, r5, lsr #32
    2384:	00001211 	andeq	r1, r0, r1, lsl r2
    2388:	0006c726 	andeq	ip, r6, r6, lsr #14
    238c:	4f710100 	svcmi	0x00710100
    2390:	30000000 	andcc	r0, r0, r0
    2394:	24000012 	strcs	r0, [r0], #-18
    2398:	00008cc0 	andeq	r8, r0, r0, asr #25
    239c:	00001167 	andeq	r1, r0, r7, ror #2
    23a0:	008cd425 	addeq	sp, ip, r5, lsr #8
    23a4:	00116e00 	andseq	r6, r1, r0, lsl #28
    23a8:	000be200 	andeq	lr, fp, r0, lsl #4
    23ac:	53012000 	movwpl	r2, #4096	; 0x1000
    23b0:	206d0802 	rsbcs	r0, sp, r2, lsl #16
    23b4:	03055201 	movweq	r5, #20993	; 0x5201
    23b8:	00009dec 	andeq	r9, r0, ip, ror #27
    23bc:	05510120 	ldrbeq	r0, [r1, #-288]	; 0x120
    23c0:	009e8003 	addseq	r8, lr, r3
    23c4:	50012000 	andpl	r2, r1, r0
    23c8:	9e640305 	cdpls	3, 6, cr0, cr4, cr5, {0}
    23cc:	24000000 	strcs	r0, [r0], #-0
    23d0:	00008cd8 	ldrdeq	r8, [r0], -r8	; <UNPREDICTABLE>
    23d4:	00001184 	andeq	r1, r0, r4, lsl #3
    23d8:	008cf41f 	addeq	pc, ip, pc, lsl r4	; <UNPREDICTABLE>
    23dc:	00076200 	andeq	r6, r7, r0, lsl #4
    23e0:	51012000 	mrspl	r2, (UNDEF: 1)
    23e4:	20007a02 	andcs	r7, r0, r2, lsl #20
    23e8:	78025001 	stmdavc	r2, {r0, ip, lr}
    23ec:	06000000 	streq	r0, [r0], -r0
    23f0:	00004f04 	andeq	r4, r0, r4, lsl #30
    23f4:	00902a00 	addseq	r2, r0, r0, lsl #20
    23f8:	0c180000 	ldceq	0, cr0, [r8], {-0}
    23fc:	812b0000 	teqhi	fp, r0
    2400:	12000000 	andne	r0, r0, #0
    2404:	0c080700 	stceq	7, cr0, [r8], {-0}
    2408:	cf230000 	svcgt	0x00230000
    240c:	01000006 	tsteq	r0, r6
    2410:	00002580 	andeq	r2, r0, r0, lsl #11
    2414:	008d3000 	addeq	r3, sp, r0
    2418:	00007c00 	andeq	r7, r0, r0, lsl #24
    241c:	e49c0100 	ldr	r0, [ip], #256	; 0x100
    2420:	1400000c 	strne	r0, [r0], #-12
    2424:	80010075 	andhi	r0, r1, r5, ror r0
    2428:	00000722 	andeq	r0, r0, r2, lsr #14
    242c:	00001243 	andeq	r1, r0, r3, asr #4
    2430:	66756214 			; <UNDEFINED> instruction: 0x66756214
    2434:	02800100 	addeq	r0, r0, #0, 2
    2438:	7700000c 	strvc	r0, [r0, -ip]
    243c:	13000012 	movwne	r0, #18
    2440:	000002c4 	andeq	r0, r0, r4, asr #5
    2444:	00688101 	rsbeq	r8, r8, r1, lsl #2
    2448:	12ab0000 	adcne	r0, fp, #0
    244c:	f4130000 			; <UNDEFINED> instruction: 0xf4130000
    2450:	01000006 	tsteq	r0, r6
    2454:	00006881 	andeq	r6, r0, r1, lsl #17
    2458:	0012e400 	andseq	lr, r2, r0, lsl #8
    245c:	017f2900 	cmneq	pc, r0, lsl #18
    2460:	0cf40000 	ldcleq	0, cr0, [r4]
    2464:	03050000 	movweq	r0, #20480	; 0x5000
    2468:	00009e00 	andeq	r9, r0, r0, lsl #28
    246c:	01006916 	tsteq	r0, r6, lsl r9
    2470:	00002586 	andeq	r2, r0, r6, lsl #11
    2474:	00131800 	andseq	r1, r3, r0, lsl #16
    2478:	8d4c2400 	cfstrdhi	mvd2, [ip, #-0]
    247c:	11670000 	cmnne	r7, r0
    2480:	60250000 	eorvs	r0, r5, r0
    2484:	6e00008d 	cdpvs	0, 0, cr0, cr0, cr13, {4}
    2488:	c4000011 	strgt	r0, [r0], #-17
    248c:	2000000c 	andcs	r0, r0, ip
    2490:	08025301 	stmdaeq	r2, {r0, r8, r9, ip, lr}
    2494:	52012083 	andpl	r2, r1, #131	; 0x83
    2498:	9e000305 	cdpls	3, 0, cr0, cr0, cr5, {0}
    249c:	01200000 	teqeq	r0, r0
    24a0:	80030551 	andhi	r0, r3, r1, asr r5
    24a4:	2000009e 	mulcs	r0, lr, r0
    24a8:	03055001 	movweq	r5, #20481	; 0x5001
    24ac:	00009e64 	andeq	r9, r0, r4, ror #28
    24b0:	8d642400 	cfstrdhi	mvd2, [r4, #-0]
    24b4:	11840000 	orrne	r0, r4, r0
    24b8:	801f0000 	andshi	r0, pc, r0
    24bc:	6200008d 	andvs	r0, r0, #141	; 0x8d
    24c0:	20000007 	andcs	r0, r0, r7
    24c4:	78025101 	stmdavc	r2, {r0, r8, ip, lr}
    24c8:	50012000 	andpl	r2, r1, r0
    24cc:	00007702 	andeq	r7, r0, r2, lsl #14
    24d0:	00902a00 	addseq	r2, r0, r0, lsl #20
    24d4:	0cf40000 	ldcleq	0, cr0, [r4]
    24d8:	812b0000 	teqhi	fp, r0
    24dc:	14000000 	strne	r0, [r0], #-0
    24e0:	0ce40700 	stcleq	7, cr0, [r4]
    24e4:	7e230000 	cdpvc	0, 2, cr0, cr3, cr0, {0}
    24e8:	01000006 	tsteq	r0, r6
    24ec:	0000d993 	muleq	r0, r3, r9
    24f0:	008dac00 	addeq	sl, sp, r0, lsl #24
    24f4:	0000c000 	andeq	ip, r0, r0
    24f8:	149c0100 	ldrne	r0, [ip], #256	; 0x100
    24fc:	1400000e 	strne	r0, [r0], #-14
    2500:	01007874 	tsteq	r0, r4, ror r8
    2504:	00004f93 	muleq	r0, r3, pc	; <UNPREDICTABLE>
    2508:	00133700 	andseq	r3, r3, r0, lsl #14
    250c:	78721400 	ldmdavc	r2!, {sl, ip}^
    2510:	4f930100 	svcmi	0x00930100
    2514:	58000000 	stmdapl	r0, {}	; <UNPREDICTABLE>
    2518:	13000013 	movwne	r0, #19
    251c:	000004ca 	andeq	r0, r0, sl, asr #9
    2520:	00689301 	rsbeq	r9, r8, r1, lsl #6
    2524:	13790000 	cmnne	r9, #0
    2528:	17280000 	strne	r0, [r8, -r0]!
    252c:	01000006 	tsteq	r0, r6
    2530:	00006893 	muleq	r0, r3, r8
    2534:	00910200 	addseq	r0, r1, r0, lsl #4
    2538:	7a686d2c 	bvc	1a1d9f0 <__bss_end__+0x1a136b0>
    253c:	2c9b0100 	ldfcss	f0, [fp], {0}
    2540:	00000000 	andeq	r0, r0, r0
    2544:	2629b927 	strtcs	fp, [r9], -r7, lsr #18
    2548:	00000668 	andeq	r0, r0, r8, ror #12
    254c:	002c9c01 	eoreq	r9, ip, r1, lsl #24
    2550:	13970000 	orrsne	r0, r7, #0
    2554:	7f290000 	svcvc	0x00290000
    2558:	24000001 	strcs	r0, [r0], #-1
    255c:	0500000e 	streq	r0, [r0, #-14]
    2560:	009e1803 	addseq	r1, lr, r3, lsl #16
    2564:	8dd41700 	ldclhi	7, cr1, [r4]
    2568:	00080000 	andeq	r0, r8, r0
    256c:	0d910000 	ldceq	0, cr0, [r1]
    2570:	692d0000 	pushvs	{}	; <UNPREDICTABLE>
    2574:	9701006e 	strls	r0, [r1, -lr, rrx]
    2578:	0000002c 	andeq	r0, r0, ip, lsr #32
    257c:	cc250001 	stcgt	0, cr0, [r5], #-4
    2580:	8b00008d 	blhi	27bc <_start-0x5844>
    2584:	a5000011 	strge	r0, [r0, #-17]
    2588:	2000000d 	andcs	r0, r0, sp
    258c:	76025001 	strvc	r5, [r2], -r1
    2590:	d4250000 	strtle	r0, [r5], #-0
    2594:	9c00008d 	stcls	0, cr0, [r0], {141}	; 0x8d
    2598:	b9000011 	stmdblt	r0, {r0, r4}
    259c:	2000000d 	andcs	r0, r0, sp
    25a0:	78025001 	stmdavc	r2, {r0, ip, lr}
    25a4:	e8250000 	stmda	r5!, {}	; <UNPREDICTABLE>
    25a8:	3100008d 	smlabbcc	r0, sp, r0, r0
    25ac:	d2000011 	andle	r0, r0, #17
    25b0:	2000000d 	andcs	r0, r0, sp
    25b4:	31015101 	tstcc	r1, r1, lsl #2
    25b8:	02500120 	subseq	r0, r0, #32, 2
    25bc:	24000076 	strcs	r0, [r0], #-118	; 0x76
    25c0:	00008e2c 	andeq	r8, r0, ip, lsr #28
    25c4:	00001167 	andeq	r1, r0, r7, ror #2
    25c8:	008e4025 	addeq	r4, lr, r5, lsr #32
    25cc:	00116e00 	andseq	r6, r1, r0, lsl #28
    25d0:	000e0a00 	andeq	r0, lr, r0, lsl #20
    25d4:	53012000 	movwpl	r2, #4096	; 0x1000
    25d8:	209d0802 	addscs	r0, sp, r2, lsl #16
    25dc:	03055201 	movweq	r5, #20993	; 0x5201
    25e0:	00009e18 	andeq	r9, r0, r8, lsl lr
    25e4:	05510120 	ldrbeq	r0, [r1, #-288]	; 0x120
    25e8:	009e8003 	addseq	r8, lr, r3
    25ec:	50012000 	andpl	r2, r1, r0
    25f0:	9e940305 	cdpls	3, 9, cr0, cr4, cr5, {0}
    25f4:	24000000 	strcs	r0, [r0], #-0
    25f8:	00008e44 	andeq	r8, r0, r4, asr #28
    25fc:	00001184 	andeq	r1, r0, r4, lsl #3
    2600:	00902a00 	addseq	r2, r0, r0, lsl #20
    2604:	0e240000 	cdpeq	0, 2, cr0, cr4, cr0, {0}
    2608:	812b0000 	teqhi	fp, r0
    260c:	13000000 	movwne	r0, #0
    2610:	0e140700 	cdpeq	7, 1, cr0, cr4, cr0, {0}
    2614:	5b230000 	blpl	8c261c <__bss_end__+0x8b82dc>
    2618:	01000006 	tsteq	r0, r6
    261c:	000025a9 	andeq	r2, r0, r9, lsr #11
    2620:	008e6c00 	addeq	r6, lr, r0, lsl #24
    2624:	00003c00 	andeq	r3, r0, r0, lsl #24
    2628:	cc9c0100 	ldfgts	f0, [ip], {0}
    262c:	1300000e 	movwne	r0, #14
    2630:	00000491 	muleq	r0, r1, r4
    2634:	0722a901 	streq	sl, [r2, -r1, lsl #18]!
    2638:	13c50000 	bicne	r0, r5, #0
    263c:	72160000 	andsvc	r0, r6, #0
    2640:	01007365 	tsteq	r0, r5, ror #6
    2644:	000025aa 	andeq	r2, r0, sl, lsr #11
    2648:	0013e600 	andseq	lr, r3, r0, lsl #12
    264c:	017f2900 	cmneq	pc, r0, lsl #18
    2650:	0edc0000 	cdpeq	0, 13, cr0, cr12, cr0, {0}
    2654:	03050000 	movweq	r0, #20480	; 0x5000
    2658:	00009e2c 	andeq	r9, r0, ip, lsr #28
    265c:	008e7825 	addeq	r7, lr, r5, lsr #16
    2660:	00076200 	andeq	r6, r7, r0, lsl #4
    2664:	000e8a00 	andeq	r8, lr, r0, lsl #20
    2668:	51012000 	mrspl	r2, (UNDEF: 1)
    266c:	20ff0902 	rscscs	r0, pc, r2, lsl #18
    2670:	f3035001 	vhadd.u8	d5, d3, d1
    2674:	24005001 	strcs	r5, [r0], #-1
    2678:	00008e84 	andeq	r8, r0, r4, lsl #29
    267c:	00001167 	andeq	r1, r0, r7, ror #2
    2680:	008e9825 	addeq	r9, lr, r5, lsr #16
    2684:	00116e00 	andseq	r6, r1, r0, lsl #28
    2688:	000ec200 	andeq	ip, lr, r0, lsl #4
    268c:	53012000 	movwpl	r2, #4096	; 0x1000
    2690:	20ac0802 	adccs	r0, ip, r2, lsl #16
    2694:	03055201 	movweq	r5, #20993	; 0x5201
    2698:	00009e2c 	andeq	r9, r0, ip, lsr #28
    269c:	05510120 	ldrbeq	r0, [r1, #-288]	; 0x120
    26a0:	009e8003 	addseq	r8, lr, r3
    26a4:	50012000 	andpl	r2, r1, r0
    26a8:	9ed80305 	cdpls	3, 13, cr0, cr8, cr5, {0}
    26ac:	24000000 	strcs	r0, [r0], #-0
    26b0:	00008e9c 	muleq	r0, ip, lr
    26b4:	00001184 	andeq	r1, r0, r4, lsl #3
    26b8:	00902a00 	addseq	r2, r0, r0, lsl #20
    26bc:	0edc0000 	cdpeq	0, 13, cr0, cr12, cr0, {0}
    26c0:	812b0000 	teqhi	fp, r0
    26c4:	0c000000 	stceq	0, cr0, [r0], {-0}
    26c8:	0ecc0700 	cdpeq	7, 12, cr0, cr12, cr0, {0}
    26cc:	9f120000 	svcls	0x00120000
    26d0:	01000006 	tsteq	r0, r6
    26d4:	008ea8b0 			; <UNDEFINED> instruction: 0x008ea8b0
    26d8:	00002c00 	andeq	r2, r0, r0, lsl #24
    26dc:	259c0100 	ldrcs	r0, [ip, #256]	; 0x100
    26e0:	1300000f 	movwne	r0, #15
    26e4:	00000491 	muleq	r0, r1, r4
    26e8:	0722b001 	streq	fp, [r2, -r1]!
    26ec:	13f90000 	mvnsne	r0, #0
    26f0:	6d140000 	ldcvs	0, cr0, [r4, #-0]
    26f4:	01006773 	tsteq	r0, r3, ror r7
    26f8:	000097b0 			; <UNDEFINED> instruction: 0x000097b0
    26fc:	00141700 	andseq	r1, r4, r0, lsl #14
    2700:	8ec01f00 	cdphi	15, 12, cr1, cr0, cr0, {0}
    2704:	01760000 	cmneq	r6, r0
    2708:	01200000 	teqeq	r0, r0
    270c:	00750250 	rsbseq	r0, r5, r0, asr r2
    2710:	96230000 	strtls	r0, [r3], -r0
    2714:	01000004 	tsteq	r0, r4
    2718:	000025b9 			; <UNDEFINED> instruction: 0x000025b9
    271c:	008ed400 	addeq	sp, lr, r0, lsl #8
    2720:	00008400 	andeq	r8, r0, r0, lsl #8
    2724:	199c0100 	ldmibne	ip, {r8}
    2728:	13000010 	movwne	r0, #16
    272c:	00000491 	muleq	r0, r1, r4
    2730:	0722b901 	streq	fp, [r2, -r1, lsl #18]!
    2734:	14350000 	ldrtne	r0, [r5], #-0
    2738:	662e0000 	strtvs	r0, [lr], -r0
    273c:	0100746d 	tsteq	r0, sp, ror #8
    2740:	000097b9 			; <UNDEFINED> instruction: 0x000097b9
    2744:	74910200 	ldrvc	r0, [r1], #512	; 0x200
    2748:	7562152f 	strbvc	r1, [r2, #-1327]!	; 0x52f
    274c:	ba010066 	blt	428ec <__bss_end__+0x385ac>
    2750:	00001019 	andeq	r1, r0, r9, lsl r0
    2754:	7c9c9103 	ldfvcd	f1, [ip], {3}
    2758:	00036718 	andeq	r6, r3, r8, lsl r7
    275c:	06bc0100 	ldrteq	r0, [ip], r0, lsl #2
    2760:	03000001 	movweq	r0, #1
    2764:	167c9891 			; <UNDEFINED> instruction: 0x167c9891
    2768:	01007a73 	tsteq	r0, r3, ror sl
    276c:	000025be 			; <UNDEFINED> instruction: 0x000025be
    2770:	00146100 	andseq	r6, r4, r0, lsl #2
    2774:	017f2900 	cmneq	pc, r0, lsl #18
    2778:	103a0000 	eorsne	r0, sl, r0
    277c:	03050000 	movweq	r0, #20480	; 0x5000
    2780:	00009e3c 	andeq	r9, r0, ip, lsr lr
    2784:	008efc25 	addeq	pc, lr, r5, lsr #24
    2788:	0011ad00 	andseq	sl, r1, r0, lsl #26
    278c:	000fc000 	andeq	ip, pc, r0
    2790:	53012000 	movwpl	r2, #4096	; 0x1000
    2794:	20589102 	subscs	r9, r8, r2, lsl #2
    2798:	91035201 	tstls	r3, r1, lsl #4
    279c:	01200654 	teqeq	r0, r4, asr r6
    27a0:	cc0a0351 	stcgt	3, cr0, [sl], {81}	; 0x51
    27a4:	50012001 	andpl	r2, r1, r1
    27a8:	7bfc9103 	blvc	fff26bbc <__bss_end__+0xfff1c87c>
    27ac:	8f102400 	svchi	0x00102400
    27b0:	11670000 	cmnne	r7, r0
    27b4:	24250000 	strtcs	r0, [r5], #-0
    27b8:	6e00008f 	cdpvs	0, 0, cr0, cr0, cr15, {4}
    27bc:	f8000011 			; <UNDEFINED> instruction: 0xf8000011
    27c0:	2000000f 	andcs	r0, r0, pc
    27c4:	08025301 	stmdaeq	r2, {r0, r8, r9, ip, lr}
    27c8:	520120c0 	andpl	r2, r1, #192	; 0xc0
    27cc:	9e3c0305 	cdpls	3, 3, cr0, cr12, cr5, {0}
    27d0:	01200000 	teqeq	r0, r0
    27d4:	80030551 	andhi	r0, r3, r1, asr r5
    27d8:	2000009e 	mulcs	r0, lr, r0
    27dc:	03055001 	movweq	r5, #20481	; 0x5001
    27e0:	00009f10 	andeq	r9, r0, r0, lsl pc
    27e4:	8f282400 	svchi	0x00282400
    27e8:	11840000 	orrne	r0, r4, r0
    27ec:	341f0000 	ldrcc	r0, [pc], #-0	; 27f4 <_start-0x580c>
    27f0:	e100008f 	smlabb	r0, pc, r0, r0	; <UNPREDICTABLE>
    27f4:	2000000e 	andcs	r0, r0, lr
    27f8:	91035101 	tstls	r3, r1, lsl #2
    27fc:	01207bfc 	strdeq	r7, [r0, -ip]!
    2800:	00750250 	rsbseq	r0, r5, r0, asr r2
    2804:	902a0000 	eorls	r0, sl, r0
    2808:	2a000000 	bcs	2810 <_start-0x57f0>
    280c:	30000010 	andcc	r0, r0, r0, lsl r0
    2810:	00000081 	andeq	r0, r0, r1, lsl #1
    2814:	2a0001cb 	bcs	2f48 <_start-0x50b8>
    2818:	00000090 	muleq	r0, r0, r0
    281c:	0000103a 	andeq	r1, r0, sl, lsr r0
    2820:	0000812b 	andeq	r8, r0, fp, lsr #2
    2824:	07000e00 	streq	r0, [r0, -r0, lsl #28]
    2828:	0000102a 	andeq	r1, r0, sl, lsr #32
    282c:	00071023 	andeq	r1, r7, r3, lsr #32
    2830:	25c50100 	strbcs	r0, [r5, #256]	; 0x100
    2834:	58000000 	stmdapl	r0, {}	; <UNPREDICTABLE>
    2838:	4c00008f 	stcmi	0, cr0, [r0], {143}	; 0x8f
    283c:	01000000 	mrseq	r0, (UNDEF: 0)
    2840:	00111c9c 	mulseq	r1, ip, ip
    2844:	00751400 	rsbseq	r1, r5, r0, lsl #8
    2848:	0722c501 	streq	ip, [r2, -r1, lsl #10]!
    284c:	14a00000 	strtne	r0, [r0], #0
    2850:	62140000 	andsvs	r0, r4, #0
    2854:	01006675 	tsteq	r0, r5, ror r6
    2858:	000c02c5 	andeq	r0, ip, r5, asr #5
    285c:	0014c100 	andseq	ip, r4, r0, lsl #2
    2860:	02c41300 	sbceq	r1, r4, #0, 6
    2864:	c5010000 	strgt	r0, [r1, #-0]
    2868:	00000068 	andeq	r0, r0, r8, rrx
    286c:	000014e2 	andeq	r1, r0, r2, ror #9
    2870:	646e6514 	strbtvs	r6, [lr], #-1300	; 0x514
    2874:	4fc50100 	svcmi	0x00c50100
    2878:	03000000 	movweq	r0, #0
    287c:	16000015 			; <UNDEFINED> instruction: 0x16000015
    2880:	00736572 	rsbseq	r6, r3, r2, ror r5
    2884:	0025c601 	eoreq	ip, r5, r1, lsl #12
    2888:	15240000 	strne	r0, [r4, #-0]!
    288c:	7f290000 	svcvc	0x00290000
    2890:	2c000001 	stccs	0, cr0, [r0], {1}
    2894:	05000011 	streq	r0, [r0, #-17]
    2898:	009e4c03 	addseq	r4, lr, r3, lsl #24
    289c:	8f6c2500 	svchi	0x006c2500
    28a0:	0b1e0000 	bleq	7828a8 <__bss_end__+0x778568>
    28a4:	10da0000 	sbcsne	r0, sl, r0
    28a8:	01200000 	teqeq	r0, r0
    28ac:	01f30352 	mvnseq	r0, r2, asr r3
    28b0:	51012052 	qaddpl	r2, r2, r1
    28b4:	5101f303 	tstpl	r1, r3, lsl #6
    28b8:	03500120 	cmpeq	r0, #32, 2
    28bc:	205001f3 	ldrshcs	r0, [r0], #-19	; 0xffffffed
    28c0:	02007d02 	andeq	r7, r0, #2, 26	; 0x80
    28c4:	2400ff09 	strcs	pc, [r0], #-3849	; 0xf09
    28c8:	00008f78 	andeq	r8, r0, r8, ror pc
    28cc:	00001167 	andeq	r1, r0, r7, ror #2
    28d0:	008f8c25 	addeq	r8, pc, r5, lsr #24
    28d4:	00116e00 	andseq	r6, r1, r0, lsl #28
    28d8:	00111200 	andseq	r1, r1, r0, lsl #4
    28dc:	53012000 	movwpl	r2, #4096	; 0x1000
    28e0:	20c80802 	sbccs	r0, r8, r2, lsl #16
    28e4:	03055201 	movweq	r5, #20993	; 0x5201
    28e8:	00009e4c 	andeq	r9, r0, ip, asr #28
    28ec:	05510120 	ldrbeq	r0, [r1, #-288]	; 0x120
    28f0:	009e8003 	addseq	r8, lr, r3
    28f4:	50012000 	andpl	r2, r1, r0
    28f8:	9ed80305 	cdpls	3, 13, cr0, cr8, cr5, {0}
    28fc:	24000000 	strcs	r0, [r0], #-0
    2900:	00008f90 	muleq	r0, r0, pc	; <UNPREDICTABLE>
    2904:	00001184 	andeq	r1, r0, r4, lsl #3
    2908:	00902a00 	addseq	r2, r0, r0, lsl #20
    290c:	112c0000 	teqne	ip, r0
    2910:	812b0000 	teqhi	fp, r0
    2914:	16000000 	strne	r0, [r0], -r0
    2918:	111c0700 	tstne	ip, r0, lsl #14
    291c:	e9310000 	ldmdb	r1!, {}	; <UNPREDICTABLE>
    2920:	06000006 	streq	r0, [r0], -r6
    2924:	00114721 	andseq	r4, r1, r1, lsr #14
    2928:	002c3200 	eoreq	r3, ip, r0, lsl #4
    292c:	2c320000 	ldccs	0, cr0, [r2], #-0
    2930:	00000000 	andeq	r0, r0, r0
    2934:	0005bc33 	andeq	fp, r5, r3, lsr ip
    2938:	2c570700 	mrrccs	7, 0, r0, r7, cr0
    293c:	34000000 	strcc	r0, [r0], #-0
    2940:	000006ac 	andeq	r0, r0, ip, lsr #13
    2944:	00252406 	eoreq	r2, r5, r6, lsl #8
    2948:	11670000 	cmnne	r7, r0
    294c:	2c320000 	ldccs	0, cr0, [r2], #-0
    2950:	00000000 	andeq	r0, r0, r0
    2954:	00015035 	andeq	r5, r1, r5, lsr r0
    2958:	341e0700 	ldrcc	r0, [lr], #-1792	; 0x700
    295c:	00000356 	andeq	r0, r0, r6, asr r3
    2960:	00252907 	eoreq	r2, r5, r7, lsl #18
    2964:	11840000 	orrne	r0, r4, r0
    2968:	97320000 	ldrls	r0, [r2, -r0]!
    296c:	2f000000 	svccs	0x00000000
    2970:	00fc3500 	rscseq	r3, ip, r0, lsl #10
    2974:	66070000 	strvs	r0, [r7], -r0
    2978:	00072731 	andeq	r2, r7, r1, lsr r7
    297c:	9c1d0600 	ldcls	6, cr0, [sp], {-0}
    2980:	32000011 	andcc	r0, r0, #17
    2984:	0000002c 	andeq	r0, r0, ip, lsr #32
    2988:	07013100 	streq	r3, [r1, -r0, lsl #2]
    298c:	1c060000 	stcne	0, cr0, [r6], {-0}
    2990:	000011ad 	andeq	r1, r0, sp, lsr #3
    2994:	00002c32 	andeq	r2, r0, r2, lsr ip
    2998:	53360000 	teqpl	r6, #0
    299c:	08000003 	stmdaeq	r0, {r0, r1}
    29a0:	00002502 	andeq	r2, r0, r2, lsl #10
    29a4:	008a3200 	addeq	r3, sl, r0, lsl #4
    29a8:	25320000 	ldrcs	r0, [r2, #-0]!
    29ac:	32000000 	andcc	r0, r0, #0
    29b0:	00000097 	muleq	r0, r7, r0
    29b4:	00010632 	andeq	r0, r1, r2, lsr r6
    29b8:	ff000000 			; <UNDEFINED> instruction: 0xff000000
    29bc:	04000003 	streq	r0, [r0], #-3
    29c0:	000e2e00 	andeq	r2, lr, r0, lsl #28
    29c4:	7d010400 	cfstrsvc	mvf0, [r1, #-0]
    29c8:	01000000 	mrseq	r0, (UNDEF: 0)
    29cc:	000008a9 	andeq	r0, r0, r9, lsr #17
    29d0:	000002f2 	strdeq	r0, [r0], -r2
    29d4:	00008fa4 	andeq	r8, r0, r4, lsr #31
    29d8:	00000154 	andeq	r0, r0, r4, asr r1
    29dc:	00000c90 	muleq	r0, r0, ip
    29e0:	69050402 	stmdbvs	r5, {r1, sl}
    29e4:	0300746e 	movweq	r7, #1134	; 0x46e
    29e8:	019f0704 	orrseq	r0, pc, r4, lsl #14
    29ec:	01030000 	mrseq	r0, (UNDEF: 3)
    29f0:	0000f006 	andeq	pc, r0, r6
    29f4:	05020300 	streq	r0, [r2, #-768]	; 0x300
    29f8:	00000229 	andeq	r0, r0, r9, lsr #4
    29fc:	ef050403 	svc	0x00050403
    2a00:	03000001 	movweq	r0, #1
    2a04:	01ea0508 	mvneq	r0, r8, lsl #10
    2a08:	01030000 	mrseq	r0, (UNDEF: 3)
    2a0c:	0000ee08 	andeq	lr, r0, r8, lsl #28
    2a10:	07020300 	streq	r0, [r2, -r0, lsl #6]
    2a14:	00000052 	andeq	r0, r0, r2, asr r0
    2a18:	9a070403 	bls	1c3a2c <__bss_end__+0x1b96ec>
    2a1c:	03000001 	movweq	r0, #1
    2a20:	01950708 	orrseq	r0, r5, r8, lsl #14
    2a24:	04030000 	streq	r0, [r3], #-0
    2a28:	0001e107 	andeq	lr, r1, r7, lsl #2
    2a2c:	08010300 	stmdaeq	r1, {r8, r9}
    2a30:	000000f7 	strdeq	r0, [r0], -r7
    2a34:	0c020104 	stfeqs	f0, [r2], {4}
    2a38:	000000b2 	strheq	r0, [r0], -r2
    2a3c:	0008c605 	andeq	ip, r8, r5, lsl #12
    2a40:	ba050000 	blt	142a48 <__bss_end__+0x138708>
    2a44:	01000007 	tsteq	r0, r7
    2a48:	00077305 	andeq	r7, r7, r5, lsl #6
    2a4c:	cb050400 	blgt	143a54 <__bss_end__+0x139714>
    2a50:	05000007 	streq	r0, [r0, #-7]
    2a54:	0007da05 	andeq	sp, r7, r5, lsl #20
    2a58:	e9050600 	stmdb	r5, {r9, sl}
    2a5c:	07000007 	streq	r0, [r0, -r7]
    2a60:	00087905 	andeq	r7, r8, r5, lsl #18
    2a64:	f8050300 			; <UNDEFINED> instruction: 0xf8050300
    2a68:	02000007 	andeq	r0, r0, #7
    2a6c:	082b0600 	stmdaeq	fp!, {r9, sl}
    2a70:	15020000 	strne	r0, [r2, #-0]
    2a74:	00000079 	andeq	r0, r0, r9, ror r0
    2a78:	0000e407 	andeq	lr, r0, r7, lsl #8
    2a7c:	a4370100 	ldrtge	r0, [r7], #-256	; 0x100
    2a80:	9c00008f 	stcls	0, cr0, [r0], {143}	; 0x8f
    2a84:	01000000 	mrseq	r0, (UNDEF: 0)
    2a88:	0001c39c 	muleq	r1, ip, r3
    2a8c:	8fac0800 	svchi	0x00ac0800
    2a90:	03a80000 			; <UNDEFINED> instruction: 0x03a80000
    2a94:	b8090000 	stmdalt	r9, {}	; <UNPREDICTABLE>
    2a98:	af00008f 	svcge	0x0000008f
    2a9c:	f3000003 	vhadd.u8	d0, d0, d3
    2aa0:	0a000000 	beq	2aa8 <_start-0x5558>
    2aa4:	32015101 	andcc	r5, r1, #1073741824	; 0x40000000
    2aa8:	0150010a 	cmpeq	r0, sl, lsl #2
    2aac:	c409003e 	strgt	r0, [r9], #-62	; 0x3e
    2ab0:	af00008f 	svcge	0x0000008f
    2ab4:	0b000003 	bleq	2ac8 <_start-0x5538>
    2ab8:	0a000001 	beq	2ac4 <_start-0x553c>
    2abc:	32015101 	andcc	r5, r1, #1073741824	; 0x40000000
    2ac0:	0150010a 	cmpeq	r0, sl, lsl #2
    2ac4:	c808003f 	stmdagt	r8, {r0, r1, r2, r3, r4, r5}
    2ac8:	a800008f 	stmdage	r0, {r0, r1, r2, r3, r7}
    2acc:	09000003 	stmdbeq	r0, {r0, r1}
    2ad0:	00008fd8 	ldrdeq	r8, [r0], -r8	; <UNPREDICTABLE>
    2ad4:	000003c5 	andeq	r0, r0, r5, asr #7
    2ad8:	00000128 	andeq	r0, r0, r8, lsr #2
    2adc:	0250010a 	subseq	r0, r0, #-2147483646	; 0x80000002
    2ae0:	09000075 	stmdbeq	r0, {r0, r2, r4, r5, r6}
    2ae4:	00008fe4 	andeq	r8, r0, r4, ror #31
    2ae8:	000003e6 	andeq	r0, r0, r6, ror #7
    2aec:	0000013c 	andeq	r0, r0, ip, lsr r1
    2af0:	0250010a 	subseq	r0, r0, #-2147483646	; 0x80000002
    2af4:	08000075 	stmdaeq	r0, {r0, r2, r4, r5, r6}
    2af8:	00008fe8 	andeq	r8, r0, r8, ror #31
    2afc:	000003a8 	andeq	r0, r0, r8, lsr #7
    2b00:	008ff409 	addeq	pc, pc, r9, lsl #8
    2b04:	0003e600 	andeq	lr, r3, r0, lsl #12
    2b08:	00015800 	andeq	r5, r1, r0, lsl #16
    2b0c:	51010a00 	tstpl	r1, r0, lsl #20
    2b10:	09003001 	stmdbeq	r0, {r0, ip, sp}
    2b14:	00009000 	andeq	r9, r0, r0
    2b18:	000003e6 	andeq	r0, r0, r6, ror #7
    2b1c:	0000016b 	andeq	r0, r0, fp, ror #2
    2b20:	0151010a 	cmpeq	r1, sl, lsl #2
    2b24:	0c090030 	stceq	0, cr0, [r9], {48}	; 0x30
    2b28:	e6000090 			; <UNDEFINED> instruction: 0xe6000090
    2b2c:	7e000003 	cdpvc	0, 0, cr0, cr0, cr3, {0}
    2b30:	0a000001 	beq	2b3c <_start-0x54c4>
    2b34:	36015101 	strcc	r5, [r1], -r1, lsl #2
    2b38:	90180900 	andsls	r0, r8, r0, lsl #18
    2b3c:	03e60000 	mvneq	r0, #0
    2b40:	01910000 	orrseq	r0, r1, r0
    2b44:	010a0000 	mrseq	r0, (UNDEF: 10)
    2b48:	00330151 	eorseq	r0, r3, r1, asr r1
    2b4c:	00902409 	addseq	r2, r0, r9, lsl #8
    2b50:	0003e600 	andeq	lr, r3, r0, lsl #12
    2b54:	0001a600 	andeq	sl, r1, r0, lsl #12
    2b58:	51010a00 	tstpl	r1, r0, lsl #20
    2b5c:	010e0a03 	tsteq	lr, r3, lsl #20
    2b60:	90300900 	eorsls	r0, r0, r0, lsl #18
    2b64:	03e60000 	mvneq	r0, #0
    2b68:	01b90000 			; <UNDEFINED> instruction: 0x01b90000
    2b6c:	010a0000 	mrseq	r0, (UNDEF: 10)
    2b70:	00330151 	eorseq	r0, r3, r1, asr r1
    2b74:	00903408 	addseq	r3, r0, r8, lsl #8
    2b78:	0003a800 	andeq	sl, r3, r0, lsl #16
    2b7c:	820b0000 	andhi	r0, fp, #0
    2b80:	01000007 	tsteq	r0, r7
    2b84:	00002557 	andeq	r2, r0, r7, asr r5
    2b88:	00904000 	addseq	r4, r0, r0
    2b8c:	00001c00 	andeq	r1, r0, r0, lsl #24
    2b90:	e69c0100 	ldr	r0, [ip], r0, lsl #2
    2b94:	08000001 	stmdaeq	r0, {r0}
    2b98:	00009050 	andeq	r9, r0, r0, asr r0
    2b9c:	000003c5 	andeq	r0, r0, r5, asr #7
    2ba0:	065e0b00 	ldrbeq	r0, [lr], -r0, lsl #22
    2ba4:	5d010000 	stcpl	0, cr0, [r1, #-0]
    2ba8:	00000025 	andeq	r0, r0, r5, lsr #32
    2bac:	0000905c 	andeq	r9, r0, ip, asr r0
    2bb0:	00000028 	andeq	r0, r0, r8, lsr #32
    2bb4:	02129c01 	andseq	r9, r2, #256	; 0x100
    2bb8:	64080000 	strvs	r0, [r8], #-0
    2bbc:	c3000090 	movwgt	r0, #144	; 0x90
    2bc0:	08000001 	stmdaeq	r0, {r0}
    2bc4:	00009078 	andeq	r9, r0, r8, ror r0
    2bc8:	000003c5 	andeq	r0, r0, r5, asr #7
    2bcc:	08370b00 	ldmdaeq	r7!, {r8, r9, fp}
    2bd0:	64010000 	strvs	r0, [r1], #-0
    2bd4:	00000025 	andeq	r0, r0, r5, lsr #32
    2bd8:	00009084 	andeq	r9, r0, r4, lsl #1
    2bdc:	0000001c 	andeq	r0, r0, ip, lsl r0
    2be0:	02359c01 	eorseq	r9, r5, #256	; 0x100
    2be4:	94080000 	strls	r0, [r8], #-0
    2be8:	c5000090 	strgt	r0, [r0, #-144]	; 0x90
    2bec:	00000003 	andeq	r0, r0, r3
    2bf0:	0004f207 	andeq	pc, r4, r7, lsl #4
    2bf4:	a06a0100 	rsbge	r0, sl, r0, lsl #2
    2bf8:	2c000090 	stccs	0, cr0, [r0], {144}	; 0x90
    2bfc:	01000000 	mrseq	r0, (UNDEF: 0)
    2c00:	0002719c 	muleq	r2, ip, r1
    2c04:	00630c00 	rsbeq	r0, r3, r0, lsl #24
    2c08:	002c6a01 	eoreq	r6, ip, r1, lsl #20
    2c0c:	15420000 	strbne	r0, [r2, #-0]
    2c10:	ac080000 	stcge	0, cr0, [r8], {-0}
    2c14:	12000090 	andne	r0, r0, #144	; 0x90
    2c18:	0d000002 	stceq	0, cr0, [r0, #-8]
    2c1c:	000090c4 	andeq	r9, r0, r4, asr #1
    2c20:	000003e6 	andeq	r0, r0, r6, ror #7
    2c24:	0251010a 	subseq	r0, r1, #-2147483646	; 0x80000002
    2c28:	00000074 	andeq	r0, r0, r4, ror r0
    2c2c:	0007a00b 	andeq	sl, r7, fp
    2c30:	25740100 	ldrbcs	r0, [r4, #-256]!	; 0x100
    2c34:	cc000000 	stcgt	0, cr0, [r0], {-0}
    2c38:	0c000090 	stceq	0, cr0, [r0], {144}	; 0x90
    2c3c:	01000000 	mrseq	r0, (UNDEF: 0)
    2c40:	0002949c 	muleq	r2, ip, r4
    2c44:	90d40800 	sbcsls	r0, r4, r0, lsl #16
    2c48:	01c30000 	biceq	r0, r3, r0
    2c4c:	0b000000 	bleq	2c54 <_start-0x53ac>
    2c50:	000008e5 	andeq	r0, r0, r5, ror #17
    2c54:	00257801 	eoreq	r7, r5, r1, lsl #16
    2c58:	90d80000 	sbcsls	r0, r8, r0
    2c5c:	00200000 	eoreq	r0, r0, r0
    2c60:	9c010000 	stcls	0, cr0, [r1], {-0}
    2c64:	000002c0 	andeq	r0, r0, r0, asr #5
    2c68:	0090e008 	addseq	lr, r0, r8
    2c6c:	00027100 	andeq	r7, r2, r0, lsl #2
    2c70:	90ec0800 	rscls	r0, ip, r0, lsl #16
    2c74:	01e60000 	mvneq	r0, r0
    2c78:	0e000000 	cdpeq	0, 0, cr0, cr0, cr0, {0}
    2c7c:	00000851 	andeq	r0, r0, r1, asr r8
    2c80:	02d11601 	sbcseq	r1, r1, #1048576	; 0x100000
    2c84:	03050000 	movweq	r0, #20480	; 0x5000
    2c88:	00009770 	andeq	r9, r0, r0, ror r7
    2c8c:	02d7040f 	sbcseq	r0, r7, #251658240	; 0xf000000
    2c90:	2c100000 	ldccs	0, cr0, [r0], {-0}
    2c94:	0e000000 	cdpeq	0, 0, cr0, cr0, cr0, {0}
    2c98:	00000845 	andeq	r0, r0, r5, asr #16
    2c9c:	02d11701 	sbcseq	r1, r1, #262144	; 0x40000
    2ca0:	03050000 	movweq	r0, #20480	; 0x5000
    2ca4:	00009740 	andeq	r9, r0, r0, asr #14
    2ca8:	0007560e 	andeq	r5, r7, lr, lsl #12
    2cac:	d11a0100 	tstle	sl, r0, lsl #2
    2cb0:	05000002 	streq	r0, [r0, #-2]
    2cb4:	00975c03 	addseq	r5, r7, r3, lsl #24
    2cb8:	08070e00 	stmdaeq	r7, {r9, sl, fp}
    2cbc:	1b010000 	blne	42cc4 <__bss_end__+0x38984>
    2cc0:	000002d1 	ldrdeq	r0, [r0], -r1
    2cc4:	97480305 	strbls	r0, [r8, -r5, lsl #6]
    2cc8:	1c0e0000 	stcne	0, cr0, [lr], {-0}
    2ccc:	01000008 	tsteq	r0, r8
    2cd0:	0002d11c 	andeq	sp, r2, ip, lsl r1
    2cd4:	4c030500 	cfstr32mi	mvfx0, [r3], {-0}
    2cd8:	0e000097 	mcreq	0, 0, r0, cr0, cr7, {4}
    2cdc:	000008b7 			; <UNDEFINED> instruction: 0x000008b7
    2ce0:	02d11d01 	sbcseq	r1, r1, #1, 26	; 0x40
    2ce4:	03050000 	movweq	r0, #20480	; 0x5000
    2ce8:	00009750 	andeq	r9, r0, r0, asr r7
    2cec:	0007470e 	andeq	r4, r7, lr, lsl #14
    2cf0:	d11e0100 	tstle	lr, r0, lsl #2
    2cf4:	05000002 	streq	r0, [r0, #-2]
    2cf8:	00976c03 	addseq	r6, r7, r3, lsl #24
    2cfc:	08d60e00 	ldmeq	r6, {r9, sl, fp}^
    2d00:	1f010000 	svcne	0x00010000
    2d04:	000002d1 	ldrdeq	r0, [r0], -r1
    2d08:	97580305 	ldrbls	r0, [r8, -r5, lsl #6]
    2d0c:	640e0000 	strvs	r0, [lr], #-0
    2d10:	01000007 	tsteq	r0, r7
    2d14:	0002d120 	andeq	sp, r2, r0, lsr #2
    2d18:	68030500 	stmdavs	r3, {r8, sl}
    2d1c:	0e000097 	mcreq	0, 0, r0, cr0, cr7, {4}
    2d20:	0000089a 	muleq	r0, sl, r8
    2d24:	02d12101 	sbcseq	r2, r1, #1073741824	; 0x40000000
    2d28:	03050000 	movweq	r0, #20480	; 0x5000
    2d2c:	00009764 	andeq	r9, r0, r4, ror #14
    2d30:	0007900e 	andeq	r9, r7, lr
    2d34:	d1220100 	teqle	r2, r0, lsl #2
    2d38:	05000002 	streq	r0, [r0, #-2]
    2d3c:	00974403 	addseq	r4, r7, r3, lsl #8
    2d40:	08690e00 	stmdaeq	r9!, {r9, sl, fp}^
    2d44:	23010000 	movwcs	r0, #4096	; 0x1000
    2d48:	000002d1 	ldrdeq	r0, [r0], -r1
    2d4c:	97600305 	strbls	r0, [r0, -r5, lsl #6]!
    2d50:	590e0000 	stmdbpl	lr, {}	; <UNPREDICTABLE>
    2d54:	01000008 	tsteq	r0, r8
    2d58:	0002d124 	andeq	sp, r2, r4, lsr #2
    2d5c:	54030500 	strpl	r0, [r3], #-1280	; 0x500
    2d60:	11000097 	swpne	r0, r7, [r0]	; <UNPREDICTABLE>
    2d64:	000007ae 	andeq	r0, r0, lr, lsr #15
    2d68:	88128703 	ldmdahi	r2, {r0, r1, r8, r9, sl, pc}
    2d6c:	02000008 	andeq	r0, r0, #8
    2d70:	0003c519 	andeq	ip, r3, r9, lsl r5
    2d74:	002c1300 	eoreq	r1, ip, r0, lsl #6
    2d78:	b2130000 	andslt	r0, r3, #0
    2d7c:	00000000 	andeq	r0, r0, r0
    2d80:	0008f514 	andeq	pc, r8, r4, lsl r5	; <UNPREDICTABLE>
    2d84:	2ca60300 	stccs	3, cr0, [r6]
    2d88:	da000000 	ble	2d90 <_start-0x5270>
    2d8c:	13000003 	movwne	r0, #3
    2d90:	000003da 	ldrdeq	r0, [r0], -sl
    2d94:	e0040f00 	and	r0, r4, r0, lsl #30
    2d98:	15000003 	strne	r0, [r0, #-3]
    2d9c:	000003e5 	andeq	r0, r0, r5, ror #7
    2da0:	08161216 	ldmdaeq	r6, {r1, r2, r4, r9, ip}
    2da4:	9a030000 	bls	c2dac <__bss_end__+0xb8a6c>
    2da8:	000003fc 	strdeq	r0, [r0], -ip
    2dac:	0003fc13 	andeq	pc, r3, r3, lsl ip	; <UNPREDICTABLE>
    2db0:	002c1300 	eoreq	r1, ip, r0, lsl #6
    2db4:	0f000000 	svceq	0x00000000
    2db8:	0003e504 	andeq	lr, r3, r4, lsl #10
    2dbc:	08210000 	stmdaeq	r1!, {}	; <UNPREDICTABLE>
    2dc0:	00040000 	andeq	r0, r4, r0
    2dc4:	00000f5c 	andeq	r0, r0, ip, asr pc
    2dc8:	007d0104 	rsbseq	r0, sp, r4, lsl #2
    2dcc:	45010000 	strmi	r0, [r1, #-0]
    2dd0:	f2000009 	vhadd.s8	d0, d0, d9
    2dd4:	60000002 	andvs	r0, r0, r2
    2dd8:	68000091 	stmdavs	r0, {r0, r4, r7}
    2ddc:	95000005 	strls	r0, [r0, #-5]
    2de0:	0200000d 	andeq	r0, r0, #13
    2de4:	01950708 	orrseq	r0, r5, r8, lsl #14
    2de8:	04020000 	streq	r0, [r2], #-0
    2dec:	00019f07 	andeq	r9, r1, r7, lsl #30
    2df0:	06010200 	streq	r0, [r1], -r0, lsl #4
    2df4:	000000f0 	strdeq	r0, [r0], -r0	; <UNPREDICTABLE>
    2df8:	29050202 	stmdbcs	r5, {r1, r9}
    2dfc:	02000002 	andeq	r0, r0, #2
    2e00:	01ef0504 	mvneq	r0, r4, lsl #10
    2e04:	08020000 	stmdaeq	r2, {}	; <UNPREDICTABLE>
    2e08:	0001ea05 	andeq	lr, r1, r5, lsl #20
    2e0c:	08010200 	stmdaeq	r1, {r9}
    2e10:	000000ee 	andeq	r0, r0, lr, ror #1
    2e14:	52070202 	andpl	r0, r7, #536870912	; 0x20000000
    2e18:	02000000 	andeq	r0, r0, #0
    2e1c:	019a0704 	orrseq	r0, sl, r4, lsl #14
    2e20:	04030000 	streq	r0, [r3], #-0
    2e24:	746e6905 	strbtvc	r6, [lr], #-2309	; 0x905
    2e28:	07040200 	streq	r0, [r4, -r0, lsl #4]
    2e2c:	000001e1 	andeq	r0, r0, r1, ror #3
    2e30:	f7080102 			; <UNDEFINED> instruction: 0xf7080102
    2e34:	04000000 	streq	r0, [r0], #-0
    2e38:	b20c0201 	andlt	r0, ip, #268435456	; 0x10000000
    2e3c:	05000000 	streq	r0, [r0, #-0]
    2e40:	000008c6 	andeq	r0, r0, r6, asr #17
    2e44:	07ba0500 	ldreq	r0, [sl, r0, lsl #10]!
    2e48:	05010000 	streq	r0, [r1, #-0]
    2e4c:	00000773 	andeq	r0, r0, r3, ror r7
    2e50:	07cb0504 	strbeq	r0, [fp, r4, lsl #10]
    2e54:	05050000 	streq	r0, [r5, #-0]
    2e58:	000007da 	ldrdeq	r0, [r0], -sl
    2e5c:	07e90506 	strbeq	r0, [r9, r6, lsl #10]!
    2e60:	05070000 	streq	r0, [r7, #-0]
    2e64:	00000879 	andeq	r0, r0, r9, ror r8
    2e68:	07f80503 	ldrbeq	r0, [r8, r3, lsl #10]!
    2e6c:	00020000 	andeq	r0, r2, r0
    2e70:	00082b06 	andeq	r2, r8, r6, lsl #22
    2e74:	79150200 	ldmdbvc	r5, {r9}
    2e78:	07000000 	streq	r0, [r0, -r0]
    2e7c:	00000727 	andeq	r0, r0, r7, lsr #14
    2e80:	91603f01 	cmnls	r0, r1, lsl #30
    2e84:	00d40000 	sbcseq	r0, r4, r0
    2e88:	9c010000 	stcls	0, cr0, [r1], {-0}
    2e8c:	00000133 	andeq	r0, r0, r3, lsr r1
    2e90:	6e697008 	cdpvs	0, 6, cr7, cr9, cr8, {0}
    2e94:	2c3f0100 	ldfcss	f0, [pc], #-0	; 2e9c <_start-0x5164>
    2e98:	60000000 	andvs	r0, r0, r0
    2e9c:	09000015 	stmdbeq	r0, {r0, r2, r4}
    2ea0:	00000981 	andeq	r0, r0, r1, lsl #19
    2ea4:	01334701 	teqeq	r3, r1, lsl #14
    2ea8:	157e0000 	ldrbne	r0, [lr, #-0]!
    2eac:	69090000 	stmdbvs	r9, {}	; <UNPREDICTABLE>
    2eb0:	0100000a 	tsteq	r0, sl
    2eb4:	00002c49 	andeq	r2, r0, r9, asr #24
    2eb8:	0015d300 	andseq	sp, r5, r0, lsl #6
    2ebc:	0a140900 	beq	5052c4 <__bss_end__+0x4faf84>
    2ec0:	57010000 	strpl	r0, [r1, -r0]
    2ec4:	0000002c 	andeq	r0, r0, ip, lsr #32
    2ec8:	0000179f 	muleq	r0, pc, r7	; <UNPREDICTABLE>
    2ecc:	0091f40a 	addseq	pc, r1, sl, lsl #8
    2ed0:	0007e000 	andeq	lr, r7, r0
    2ed4:	00012200 	andeq	r2, r1, r0, lsl #4
    2ed8:	50010b00 	andpl	r0, r1, r0, lsl #22
    2edc:	00007502 	andeq	r7, r0, r2, lsl #10
    2ee0:	0092280c 	addseq	r2, r2, ip, lsl #16
    2ee4:	00080100 	andeq	r0, r8, r0, lsl #2
    2ee8:	50010b00 	andpl	r0, r1, r0, lsl #22
    2eec:	00007502 	andeq	r7, r0, r2, lsl #10
    2ef0:	39040d00 	stmdbcc	r4, {r8, sl, fp}
    2ef4:	0e000001 	cdpeq	0, 0, cr0, cr0, cr1, {0}
    2ef8:	0000002c 	andeq	r0, r0, ip, lsr #32
    2efc:	000a3907 	andeq	r3, sl, r7, lsl #18
    2f00:	34600100 	strbtcc	r0, [r0], #-256	; 0x100
    2f04:	38000092 	stmdacc	r0, {r1, r4, r7}
    2f08:	01000000 	mrseq	r0, (UNDEF: 0)
    2f0c:	0001969c 	muleq	r1, ip, r6
    2f10:	69700800 	ldmdbvs	r0!, {fp}^
    2f14:	6001006e 	andvs	r0, r1, lr, rrx
    2f18:	0000002c 	andeq	r0, r0, ip, lsr #32
    2f1c:	000017cf 	andeq	r1, r0, pc, asr #15
    2f20:	00098109 	andeq	r8, r9, r9, lsl #2
    2f24:	33670100 	cmncc	r7, #0, 2
    2f28:	f0000001 			; <UNDEFINED> instruction: 0xf0000001
    2f2c:	09000017 	stmdbeq	r0, {r0, r1, r2, r4}
    2f30:	00000a14 	andeq	r0, r0, r4, lsl sl
    2f34:	002c6801 	eoreq	r6, ip, r1, lsl #16
    2f38:	18260000 	stmdane	r6!, {}	; <UNPREDICTABLE>
    2f3c:	640c0000 	strvs	r0, [ip], #-0
    2f40:	01000092 	swpeq	r0, r2, [r0]	; <UNPREDICTABLE>
    2f44:	0b000008 	bleq	2f6c <_start-0x5094>
    2f48:	31075101 	tstcc	r7, r1, lsl #2
    2f4c:	4f5001f3 	svcmi	0x005001f3
    2f50:	0000241a 	andeq	r2, r0, sl, lsl r4
    2f54:	00093807 	andeq	r3, r9, r7, lsl #16
    2f58:	6c7b0100 	ldfvse	f0, [fp], #-0
    2f5c:	38000092 	stmdacc	r0, {r1, r4, r7}
    2f60:	01000000 	mrseq	r0, (UNDEF: 0)
    2f64:	0001ee9c 	muleq	r1, ip, lr
    2f68:	69700800 	ldmdbvs	r0!, {fp}^
    2f6c:	7b01006e 	blvc	4312c <__bss_end__+0x38dec>
    2f70:	0000002c 	andeq	r0, r0, ip, lsr #32
    2f74:	00001866 	andeq	r1, r0, r6, ror #16
    2f78:	00098109 	andeq	r8, r9, r9, lsl #2
    2f7c:	33810100 	orrcc	r0, r1, #0, 2
    2f80:	87000001 	strhi	r0, [r0, -r1]
    2f84:	09000018 	stmdbeq	r0, {r3, r4}
    2f88:	00000a14 	andeq	r0, r0, r4, lsl sl
    2f8c:	002c8201 	eoreq	r8, ip, r1, lsl #4
    2f90:	18bd0000 	popne	{}	; <UNPREDICTABLE>
    2f94:	9c0c0000 	stcls	0, cr0, [ip], {-0}
    2f98:	01000092 	swpeq	r0, r2, [r0]	; <UNPREDICTABLE>
    2f9c:	0b000008 	bleq	2fc4 <_start-0x503c>
    2fa0:	31075101 	tstcc	r7, r1, lsl #2
    2fa4:	4f5001f3 	svcmi	0x005001f3
    2fa8:	0000241a 	andeq	r2, r0, sl, lsl r4
    2fac:	00070107 	andeq	r0, r7, r7, lsl #2
    2fb0:	a4950100 	ldrge	r0, [r5], #256	; 0x100
    2fb4:	cc000092 	stcgt	0, cr0, [r0], {146}	; 0x92
    2fb8:	01000000 	mrseq	r0, (UNDEF: 0)
    2fbc:	0002649c 	muleq	r2, ip, r4
    2fc0:	69700800 	ldmdbvs	r0!, {fp}^
    2fc4:	9501006e 	strls	r0, [r1, #-110]	; 0x6e
    2fc8:	0000002c 	andeq	r0, r0, ip, lsr #32
    2fcc:	000018fd 	strdeq	r1, [r0], -sp
    2fd0:	00098109 	andeq	r8, r9, r9, lsl #2
    2fd4:	339b0100 	orrscc	r0, fp, #0, 2
    2fd8:	1b000001 	blne	2fe4 <_start-0x501c>
    2fdc:	09000019 	stmdbeq	r0, {r0, r3, r4}
    2fe0:	00000a69 	andeq	r0, r0, r9, ror #20
    2fe4:	002c9d01 	eoreq	r9, ip, r1, lsl #26
    2fe8:	19700000 	ldmdbne	r0!, {}^	; <UNPREDICTABLE>
    2fec:	14090000 	strne	r0, [r9], #-0
    2ff0:	0100000a 	tsteq	r0, sl
    2ff4:	00002cab 	andeq	r2, r0, fp, lsr #25
    2ff8:	001b3c00 	andseq	r3, fp, r0, lsl #24
    2ffc:	93380a00 	teqls	r8, #0, 20
    3000:	07e00000 	strbeq	r0, [r0, r0]!
    3004:	02530000 	subseq	r0, r3, #0
    3008:	010b0000 	mrseq	r0, (UNDEF: 11)
    300c:	00750250 	rsbseq	r0, r5, r0, asr r2
    3010:	93640c00 	cmnls	r4, #0, 24
    3014:	08010000 	stmdaeq	r1, {}	; <UNPREDICTABLE>
    3018:	010b0000 	mrseq	r0, (UNDEF: 11)
    301c:	00750250 	rsbseq	r0, r5, r0, asr r2
    3020:	ac0f0000 	stcge	0, cr0, [pc], {-0}
    3024:	01000006 	tsteq	r0, r6
    3028:	000064b3 			; <UNDEFINED> instruction: 0x000064b3
    302c:	00937000 	addseq	r7, r3, r0
    3030:	00004c00 	andeq	r4, r0, r0, lsl #24
    3034:	ac9c0100 	ldfges	f0, [ip], {0}
    3038:	08000002 	stmdaeq	r0, {r1}
    303c:	006e6970 	rsbeq	r6, lr, r0, ror r9
    3040:	002cb301 	eoreq	fp, ip, r1, lsl #6
    3044:	1b5a0000 	blne	168304c <__bss_end__+0x1678d0c>
    3048:	76100000 	ldrvc	r0, [r0], -r0
    304c:	2cb90100 	ldfcss	f0, [r9]
    3050:	b2000000 	andlt	r0, r0, #0
    3054:	1100001b 	tstne	r0, fp, lsl r0
    3058:	00009390 	muleq	r0, r0, r3
    305c:	000007e0 	andeq	r0, r0, r0, ror #15
    3060:	0093a011 	addseq	sl, r3, r1, lsl r0
    3064:	0007e000 	andeq	lr, r7, r0
    3068:	e9070000 	stmdb	r7, {}	; <UNPREDICTABLE>
    306c:	01000006 	tsteq	r0, r6
    3070:	0093bcc5 	addseq	fp, r3, r5, asr #25
    3074:	00002400 	andeq	r2, r0, r0, lsl #8
    3078:	fc9c0100 	ldc2	1, cr0, [ip], {0}
    307c:	08000002 	stmdaeq	r0, {r1}
    3080:	006e6970 	rsbeq	r6, lr, r0, ror r9
    3084:	002cc501 	eoreq	ip, ip, r1, lsl #10
    3088:	1be80000 	blne	ffa03090 <__bss_end__+0xff9f8d50>
    308c:	76080000 	strvc	r0, [r8], -r0
    3090:	2cc50100 	stfcse	f0, [r5], {0}
    3094:	22000000 	andcs	r0, r0, #0
    3098:	0a00001c 	beq	3110 <_start-0x4ef0>
    309c:	000093d4 	ldrdeq	r9, [r0], -r4
    30a0:	0000013e 	andeq	r0, r0, lr, lsr r1
    30a4:	000002f2 	strdeq	r0, [r0], -r2
    30a8:	0350010b 	cmpeq	r0, #-1073741822	; 0xc0000002
    30ac:	005001f3 	ldrsheq	r0, [r0], #-19	; 0xffffffed
    30b0:	0093dc11 	addseq	sp, r3, r1, lsl ip
    30b4:	00019600 	andeq	r9, r1, r0, lsl #12
    30b8:	88070000 	stmdahi	r7, {}	; <UNPREDICTABLE>
    30bc:	01000008 	tsteq	r0, r8
    30c0:	0093e0d1 	ldrsbeq	lr, [r3], r1
    30c4:	0000d800 	andeq	sp, r0, r0, lsl #16
    30c8:	819c0100 	orrshi	r0, ip, r0, lsl #2
    30cc:	08000003 	stmdaeq	r0, {r0, r1}
    30d0:	006e6970 	rsbeq	r6, lr, r0, ror r9
    30d4:	002cd101 	eoreq	sp, ip, r1, lsl #2
    30d8:	1c5c0000 	mrane	r0, ip, acc0
    30dc:	26120000 	ldrcs	r0, [r2], -r0
    30e0:	0100000a 	tsteq	r0, sl
    30e4:	0000b2d1 	ldrdeq	fp, [r0], -r1
    30e8:	001c7a00 	andseq	r7, ip, r0, lsl #20
    30ec:	09810900 	stmibeq	r1, {r8, fp}
    30f0:	d9010000 	stmdble	r1, {}	; <UNPREDICTABLE>
    30f4:	00000133 	andeq	r0, r0, r3, lsr r1
    30f8:	00001c9b 	muleq	r0, fp, ip
    30fc:	000a6909 	andeq	r6, sl, r9, lsl #18
    3100:	2cda0100 	ldfcse	f0, [sl], {0}
    3104:	f0000000 			; <UNDEFINED> instruction: 0xf0000000
    3108:	0900001c 	stmdbeq	r0, {r2, r3, r4}
    310c:	00000a14 	andeq	r0, r0, r4, lsl sl
    3110:	002ce801 	eoreq	lr, ip, r1, lsl #16
    3114:	1ebc0000 	cdpne	0, 11, cr0, cr12, cr0, {0}
    3118:	7c0a0000 	stcvc	0, cr0, [sl], {-0}
    311c:	e0000094 	mul	r0, r4, r0
    3120:	70000007 	andvc	r0, r0, r7
    3124:	0b000003 	bleq	3138 <_start-0x4ec8>
    3128:	76025001 	strvc	r5, [r2], -r1
    312c:	ac0c0000 	stcge	0, cr0, [ip], {-0}
    3130:	01000094 	swpeq	r0, r4, [r0]	; <UNPREDICTABLE>
    3134:	0b000008 	bleq	315c <_start-0x4ea4>
    3138:	76025001 	strvc	r5, [r2], -r1
    313c:	13000000 	movwne	r0, #0
    3140:	0000092c 	andeq	r0, r0, ip, lsr #18
    3144:	64010501 	strvs	r0, [r1], #-1281	; 0x501
    3148:	b8000000 	stmdalt	r0, {}	; <UNPREDICTABLE>
    314c:	2c000094 	stccs	0, cr0, [r0], {148}	; 0x94
    3150:	01000000 	mrseq	r0, (UNDEF: 0)
    3154:	0003b59c 	muleq	r3, ip, r5
    3158:	092f1400 	stmdbeq	pc!, {sl, ip}	; <UNPREDICTABLE>
    315c:	05010000 	streq	r0, [r1, #-0]
    3160:	00002c01 	andeq	r2, r0, r1, lsl #24
    3164:	001eed00 	andseq	lr, lr, r0, lsl #26
    3168:	94c81100 	strbls	r1, [r8], #256	; 0x100
    316c:	07e00000 	strbeq	r0, [r0, r0]!
    3170:	15000000 	strne	r0, [r0, #-0]
    3174:	000009c4 	andeq	r0, r0, r4, asr #19
    3178:	e4011401 	str	r1, [r1], #-1025	; 0x401
    317c:	84000094 	strhi	r0, [r0], #-148	; 0x94
    3180:	01000000 	mrseq	r0, (UNDEF: 0)
    3184:	0004799c 	muleq	r4, ip, r9
    3188:	69701600 	ldmdbvs	r0!, {r9, sl, ip}^
    318c:	1401006e 	strne	r0, [r1], #-110	; 0x6e
    3190:	00002c01 	andeq	r2, r0, r1, lsl #24
    3194:	001f0e00 	andseq	r0, pc, r0, lsl #28
    3198:	09531700 	ldmdbeq	r3, {r8, r9, sl, ip}^
    319c:	26010000 	strcs	r0, [r1], -r0
    31a0:	00002c01 	andeq	r2, r0, r1, lsl #24
    31a4:	001f3a00 	andseq	r3, pc, r0, lsl #20
    31a8:	95001800 	strls	r1, [r0, #-2048]	; 0x800
    31ac:	001c0000 	andseq	r0, ip, r0
    31b0:	041b0000 	ldreq	r0, [fp], #-0
    31b4:	14170000 	ldrne	r0, [r7], #-0
    31b8:	0100000a 	tsteq	r0, sl
    31bc:	002c011d 	eoreq	r0, ip, sp, lsl r1
    31c0:	1f580000 	svcne	0x00580000
    31c4:	0c110000 	ldceq	0, cr0, [r1], {-0}
    31c8:	e0000095 	mul	r0, r5, r0
    31cc:	11000007 	tstne	r0, r7
    31d0:	0000951c 	andeq	r9, r0, ip, lsl r5
    31d4:	00000801 	andeq	r0, r0, r1, lsl #16
    31d8:	95201800 	strls	r1, [r0, #-2048]!	; 0x800
    31dc:	00200000 	eoreq	r0, r0, r0
    31e0:	044b0000 	strbeq	r0, [fp], #-0
    31e4:	14170000 	ldrne	r0, [r7], #-0
    31e8:	0100000a 	tsteq	r0, sl
    31ec:	002c0121 	eoreq	r0, ip, r1, lsr #2
    31f0:	1f760000 	svcne	0x00760000
    31f4:	2c110000 	ldccs	0, cr0, [r1], {-0}
    31f8:	e0000095 	mul	r0, r5, r0
    31fc:	11000007 	tstne	r0, r7
    3200:	00009540 	andeq	r9, r0, r0, asr #10
    3204:	00000801 	andeq	r0, r0, r1, lsl #16
    3208:	94f81100 	ldrbtls	r1, [r8], #256	; 0x100
    320c:	081d0000 	ldmdaeq	sp, {}	; <UNPREDICTABLE>
    3210:	44110000 	ldrmi	r0, [r1], #-0
    3214:	1d000095 	stcne	0, cr0, [r0, #-596]	; 0xfffffdac
    3218:	11000008 	tstne	r0, r8
    321c:	00009550 	andeq	r9, r0, r0, asr r5
    3220:	000007e0 	andeq	r0, r0, r0, ror #15
    3224:	00955c11 	addseq	r5, r5, r1, lsl ip
    3228:	00080100 	andeq	r0, r8, r0, lsl #2
    322c:	95601100 	strbls	r1, [r0, #-256]!	; 0x100
    3230:	081d0000 	ldmdaeq	sp, {}	; <UNPREDICTABLE>
    3234:	15000000 	strne	r0, [r0, #-0]
    3238:	00000a53 	andeq	r0, r0, r3, asr sl
    323c:	68013101 	stmdavs	r1, {r0, r8, ip, sp}
    3240:	84000095 	strhi	r0, [r0], #-149	; 0x95
    3244:	01000000 	mrseq	r0, (UNDEF: 0)
    3248:	00053d9c 	muleq	r5, ip, sp
    324c:	69701600 	ldmdbvs	r0!, {r9, sl, ip}^
    3250:	3101006e 	tstcc	r1, lr, rrx
    3254:	00002c01 	andeq	r2, r0, r1, lsl #24
    3258:	001f9400 	andseq	r9, pc, r0, lsl #8
    325c:	09531700 	ldmdbeq	r3, {r8, r9, sl, ip}^
    3260:	42010000 	andmi	r0, r1, #0
    3264:	00002c01 	andeq	r2, r0, r1, lsl #24
    3268:	001fc000 	andseq	ip, pc, r0
    326c:	95841800 	strls	r1, [r4, #2048]	; 0x800
    3270:	001c0000 	andseq	r0, ip, r0
    3274:	04df0000 	ldrbeq	r0, [pc], #0	; 327c <_start-0x4d84>
    3278:	14170000 	ldrne	r0, [r7], #-0
    327c:	0100000a 	tsteq	r0, sl
    3280:	002c0139 	eoreq	r0, ip, r9, lsr r1
    3284:	1fde0000 	svcne	0x00de0000
    3288:	90110000 	andsls	r0, r1, r0
    328c:	e0000095 	mul	r0, r5, r0
    3290:	11000007 	tstne	r0, r7
    3294:	000095a0 	andeq	r9, r0, r0, lsr #11
    3298:	00000801 	andeq	r0, r0, r1, lsl #16
    329c:	95a41800 	strls	r1, [r4, #2048]!	; 0x800
    32a0:	00200000 	eoreq	r0, r0, r0
    32a4:	050f0000 	streq	r0, [pc, #-0]	; 32ac <_start-0x4d54>
    32a8:	14170000 	ldrne	r0, [r7], #-0
    32ac:	0100000a 	tsteq	r0, sl
    32b0:	002c013d 	eoreq	r0, ip, sp, lsr r1
    32b4:	1ffc0000 	svcne	0x00fc0000
    32b8:	b0110000 	andslt	r0, r1, r0
    32bc:	e0000095 	mul	r0, r5, r0
    32c0:	11000007 	tstne	r0, r7
    32c4:	000095c4 	andeq	r9, r0, r4, asr #11
    32c8:	00000801 	andeq	r0, r0, r1, lsl #16
    32cc:	957c1100 	ldrbls	r1, [ip, #-256]!	; 0x100
    32d0:	081d0000 	ldmdaeq	sp, {}	; <UNPREDICTABLE>
    32d4:	c8110000 	ldmdagt	r1, {}	; <UNPREDICTABLE>
    32d8:	1d000095 	stcne	0, cr0, [r0, #-596]	; 0xfffffdac
    32dc:	11000008 	tstne	r0, r8
    32e0:	000095d4 	ldrdeq	r9, [r0], -r4
    32e4:	000007e0 	andeq	r0, r0, r0, ror #15
    32e8:	0095e011 	addseq	lr, r5, r1, lsl r0
    32ec:	00080100 	andeq	r0, r8, r0, lsl #2
    32f0:	95e41100 	strbls	r1, [r4, #256]!	; 0x100
    32f4:	081d0000 	ldmdaeq	sp, {}	; <UNPREDICTABLE>
    32f8:	13000000 	movwne	r0, #0
    32fc:	000008fb 	strdeq	r0, [r0], -fp
    3300:	64014c01 	strvs	r4, [r1], #-3073	; 0xc01
    3304:	ec000000 	stc	0, cr0, [r0], {-0}
    3308:	84000095 	strhi	r0, [r0], #-149	; 0x95
    330c:	01000000 	mrseq	r0, (UNDEF: 0)
    3310:	0005e39c 	muleq	r5, ip, r3
    3314:	69701600 	ldmdbvs	r0!, {r9, sl, ip}^
    3318:	4c01006e 	stcmi	0, cr0, [r1], {110}	; 0x6e
    331c:	00002c01 	andeq	r2, r0, r1, lsl #24
    3320:	00201a00 	eoreq	r1, r0, r0, lsl #20
    3324:	96081800 	strls	r1, [r8], -r0, lsl #16
    3328:	00240000 	eoreq	r0, r4, r0
    332c:	05970000 	ldreq	r0, [r7]
    3330:	6a170000 	bvs	5c3338 <__bss_end__+0x5b8ff8>
    3334:	01000009 	tsteq	r0, r9
    3338:	002c0153 	eoreq	r0, ip, r3, asr r1
    333c:	205c0000 	subscs	r0, ip, r0
    3340:	14110000 	ldrne	r0, [r1], #-0
    3344:	e0000096 	mul	r0, r6, r0
    3348:	11000007 	tstne	r0, r7
    334c:	00009624 	andeq	r9, r0, r4, lsr #12
    3350:	0000081d 	andeq	r0, r0, sp, lsl r8
    3354:	962c1800 	strtls	r1, [ip], -r0, lsl #16
    3358:	002c0000 	eoreq	r0, ip, r0
    335c:	05d00000 	ldrbeq	r0, [r0]
    3360:	6a170000 	bvs	5c3368 <__bss_end__+0x5b9028>
    3364:	01000009 	tsteq	r0, r9
    3368:	002c0156 	eoreq	r0, ip, r6, asr r1
    336c:	20760000 	rsbscs	r0, r6, r0
    3370:	38110000 	ldmdacc	r1, {}	; <UNPREDICTABLE>
    3374:	e0000096 	mul	r0, r6, r0
    3378:	11000007 	tstne	r0, r7
    337c:	00009644 	andeq	r9, r0, r4, asr #12
    3380:	0000081d 	andeq	r0, r0, sp, lsl r8
    3384:	00965011 	addseq	r5, r6, r1, lsl r0
    3388:	00081d00 	andeq	r1, r8, r0, lsl #26
    338c:	00110000 	andseq	r0, r1, r0
    3390:	1d000096 	stcne	0, cr0, [r0, #-600]	; 0xfffffda8
    3394:	11000008 	tstne	r0, r8
    3398:	0000965c 	andeq	r9, r0, ip, asr r6
    339c:	0000081d 	andeq	r0, r0, sp, lsl r8
    33a0:	09e71500 	stmibeq	r7!, {r8, sl, ip}^
    33a4:	5f010000 	svcpl	0x00010000
    33a8:	00967001 	addseq	r7, r6, r1
    33ac:	00005800 	andeq	r5, r0, r0, lsl #16
    33b0:	489c0100 	ldmmi	ip, {r8}
    33b4:	16000006 	strne	r0, [r0], -r6
    33b8:	006e6970 	rsbeq	r6, lr, r0, ror r9
    33bc:	2c015f01 	stccs	15, cr5, [r1], {1}
    33c0:	89000000 	stmdbhi	r0, {}	; <UNPREDICTABLE>
    33c4:	11000020 	tstne	r0, r0, lsr #32
    33c8:	00009684 	andeq	r9, r0, r4, lsl #13
    33cc:	0000081d 	andeq	r0, r0, sp, lsl r8
    33d0:	0096a00a 	addseq	sl, r6, sl
    33d4:	00080100 	andeq	r0, r8, r0, lsl #2
    33d8:	00062800 	andeq	r2, r6, r0, lsl #16
    33dc:	51010b00 	tstpl	r1, r0, lsl #22
    33e0:	00743104 	rsbseq	r3, r4, r4, lsl #2
    33e4:	bc0a0024 	stclt	0, cr0, [sl], {36}	; 0x24
    33e8:	01000096 	swpeq	r0, r6, [r0]	; <UNPREDICTABLE>
    33ec:	3e000008 	cdpcc	0, 0, cr0, cr0, cr8, {0}
    33f0:	0b000006 	bleq	3410 <_start-0x4bf0>
    33f4:	31045101 	tstcc	r4, r1, lsl #2
    33f8:	00240074 	eoreq	r0, r4, r4, ror r0
    33fc:	0096c011 	addseq	ip, r6, r1, lsl r0
    3400:	00081d00 	andeq	r1, r8, r0, lsl #26
    3404:	b2190000 	andslt	r0, r9, #0
    3408:	01000009 	tsteq	r0, r9
    340c:	00013328 	andeq	r3, r1, r8, lsr #6
    3410:	d0030500 	andle	r0, r3, r0, lsl #10
    3414:	19000097 	stmdbne	r0, {r0, r1, r2, r4, r7}
    3418:	00000a1c 	andeq	r0, r0, ip, lsl sl
    341c:	01332901 	teqeq	r3, r1, lsl #18
    3420:	03050000 	movweq	r0, #20480	; 0x5000
    3424:	000097cc 	andeq	r9, r0, ip, asr #15
    3428:	000a7419 	andeq	r7, sl, r9, lsl r4
    342c:	332a0100 	teqcc	sl, #0, 2
    3430:	05000001 	streq	r0, [r0, #-1]
    3434:	0097c803 	addseq	ip, r7, r3, lsl #16
    3438:	098a1900 	stmibeq	sl, {r8, fp, ip}
    343c:	2c010000 	stccs	0, cr0, [r1], {-0}
    3440:	00000133 	andeq	r0, r0, r3, lsr r1
    3444:	97740305 	ldrbls	r0, [r4, -r5, lsl #6]!
    3448:	92190000 	andsls	r0, r9, #0
    344c:	01000009 	tsteq	r0, r9
    3450:	0001332d 	andeq	r3, r1, sp, lsr #6
    3454:	78030500 	stmdavc	r3, {r8, sl}
    3458:	19000097 	stmdbne	r0, {r0, r1, r2, r4, r7}
    345c:	0000090f 	andeq	r0, r0, pc, lsl #18
    3460:	01332e01 	teqeq	r3, r1, lsl #28
    3464:	03050000 	movweq	r0, #20480	; 0x5000
    3468:	0000977c 	andeq	r9, r0, ip, ror r7
    346c:	00099a19 	andeq	r9, r9, r9, lsl sl
    3470:	332f0100 	teqcc	pc, #0, 2
    3474:	05000001 	streq	r0, [r0, #-1]
    3478:	00978003 	addseq	r8, r7, r3
    347c:	09a21900 	stmibeq	r2!, {r8, fp, ip}
    3480:	30010000 	andcc	r0, r1, r0
    3484:	00000133 	andeq	r0, r0, r3, lsr r1
    3488:	97840305 	strls	r0, [r4, r5, lsl #6]
    348c:	aa190000 	bge	643494 <__bss_end__+0x639154>
    3490:	01000009 	tsteq	r0, r9
    3494:	00013331 	andeq	r3, r1, r1, lsr r3
    3498:	88030500 	stmdahi	r3, {r8, sl}
    349c:	19000097 	stmdbne	r0, {r0, r1, r2, r4, r7}
    34a0:	0000095c 	andeq	r0, r0, ip, asr r9
    34a4:	01333301 	teqeq	r3, r1, lsl #6
    34a8:	03050000 	movweq	r0, #20480	; 0x5000
    34ac:	0000978c 	andeq	r9, r0, ip, lsl #15
    34b0:	00096319 	andeq	r6, r9, r9, lsl r3
    34b4:	33340100 	teqcc	r4, #0, 2
    34b8:	05000001 	streq	r0, [r0, #-1]
    34bc:	00979003 	addseq	r9, r7, r3
    34c0:	09171900 	ldmdbeq	r7, {r8, fp, ip}
    34c4:	36010000 	strcc	r0, [r1], -r0
    34c8:	00000133 	andeq	r0, r0, r3, lsr r1
    34cc:	97940305 	ldrls	r0, [r4, r5, lsl #6]
    34d0:	bd190000 	ldclt	0, cr0, [r9, #-0]
    34d4:	01000009 	tsteq	r0, r9
    34d8:	00013337 	andeq	r3, r1, r7, lsr r3
    34dc:	98030500 	stmdals	r3, {r8, sl}
    34e0:	19000097 	stmdbne	r0, {r0, r1, r2, r4, r7}
    34e4:	00000973 	andeq	r0, r0, r3, ror r9
    34e8:	01333901 	teqeq	r3, r1, lsl #18
    34ec:	03050000 	movweq	r0, #20480	; 0x5000
    34f0:	0000979c 	muleq	r0, ip, r7
    34f4:	00097a19 	andeq	r7, r9, r9, lsl sl
    34f8:	333a0100 	teqcc	sl, #0, 2
    34fc:	05000001 	streq	r0, [r0, #-1]
    3500:	0097a003 	addseq	sl, r7, r3
    3504:	09f81900 	ldmibeq	r8!, {r8, fp, ip}^
    3508:	f0010000 			; <UNDEFINED> instruction: 0xf0010000
    350c:	00000133 	andeq	r0, r0, r3, lsr r1
    3510:	97c40305 	strbls	r0, [r4, r5, lsl #6]
    3514:	06190000 	ldreq	r0, [r9], -r0
    3518:	0100000a 	tsteq	r0, sl
    351c:	000133f1 	strdeq	r3, [r1], -r1
    3520:	a4030500 	strge	r0, [r3], #-1280	; 0x500
    3524:	19000097 	stmdbne	r0, {r0, r1, r2, r4, r7}
    3528:	00000a2b 	andeq	r0, r0, fp, lsr #20
    352c:	0133f301 	teqeq	r3, r1, lsl #6
    3530:	03050000 	movweq	r0, #20480	; 0x5000
    3534:	000097bc 			; <UNDEFINED> instruction: 0x000097bc
    3538:	000a3219 	andeq	r3, sl, r9, lsl r2
    353c:	33f40100 	mvnscc	r0, #0, 2
    3540:	05000001 	streq	r0, [r0, #-1]
    3544:	0097c003 	addseq	ip, r7, r3
    3548:	09d91900 	ldmibeq	r9, {r8, fp, ip}^
    354c:	f6010000 			; <UNDEFINED> instruction: 0xf6010000
    3550:	00000133 	andeq	r0, r0, r3, lsr r1
    3554:	97a80305 	strls	r0, [r8, r5, lsl #6]!
    3558:	e0190000 	ands	r0, r9, r0
    355c:	01000009 	tsteq	r0, r9
    3560:	000133f7 	strdeq	r3, [r1], -r7
    3564:	ac030500 	cfstr32ge	mvfx0, [r3], {-0}
    3568:	19000097 	stmdbne	r0, {r0, r1, r2, r4, r7}
    356c:	00000a45 	andeq	r0, r0, r5, asr #20
    3570:	0133f901 	teqeq	r3, r1, lsl #18
    3574:	03050000 	movweq	r0, #20480	; 0x5000
    3578:	000097b4 			; <UNDEFINED> instruction: 0x000097b4
    357c:	000a4c19 	andeq	r4, sl, r9, lsl ip
    3580:	33fa0100 	mvnscc	r0, #0, 2
    3584:	05000001 	streq	r0, [r0, #-1]
    3588:	0097b803 	addseq	fp, r7, r3, lsl #16
    358c:	091e1900 	ldmdbeq	lr, {r8, fp, ip}
    3590:	fc010000 	stc2	0, cr0, [r1], {-0}
    3594:	00000133 	andeq	r0, r0, r3, lsr r1
    3598:	97b00305 	ldrls	r0, [r0, r5, lsl #6]!
    359c:	f51a0000 			; <UNDEFINED> instruction: 0xf51a0000
    35a0:	01000008 	tsteq	r0, r8
    35a4:	00002c20 	andeq	r2, r0, r0, lsr #24
    35a8:	0007f500 	andeq	pc, r7, r0, lsl #10
    35ac:	07f51b00 	ldrbeq	r1, [r5, r0, lsl #22]!
    35b0:	0d000000 	stceq	0, cr0, [r0, #-0]
    35b4:	0007fb04 	andeq	pc, r7, r4, lsl #22
    35b8:	08001c00 	stmdaeq	r0, {sl, fp, ip}
    35bc:	1e1d0000 	cdpne	0, 1, cr0, cr13, cr0, {0}
    35c0:	00000816 	andeq	r0, r0, r6, lsl r8
    35c4:	08171e01 	ldmdaeq	r7, {r0, r9, sl, fp, ip}
    35c8:	171b0000 	ldrne	r0, [fp, -r0]
    35cc:	1b000008 	blne	35f4 <_start-0x4a0c>
    35d0:	0000002c 	andeq	r0, r0, ip, lsr #32
    35d4:	00040d00 	andeq	r0, r4, r0, lsl #26
    35d8:	1f000008 	svcne	0x00000008
    35dc:	000007ae 	andeq	r0, r0, lr, lsr #15
    35e0:	c3008703 	movwgt	r8, #1795	; 0x703
    35e4:	04000001 	streq	r0, [r0], #-1
    35e8:	00112500 	andseq	r2, r1, r0, lsl #10
    35ec:	7d010400 	cfstrsvc	mvf0, [r1, #-0]
    35f0:	01000000 	mrseq	r0, (UNDEF: 0)
    35f4:	00000a93 	muleq	r0, r3, sl
    35f8:	000002f2 	strdeq	r0, [r0], -r2
    35fc:	000096c8 	andeq	r9, r0, r8, asr #13
    3600:	00000050 	andeq	r0, r0, r0, asr r0
    3604:	00000f11 	andeq	r0, r0, r1, lsl pc
    3608:	69050402 	stmdbvs	r5, {r1, sl}
    360c:	0300746e 	movweq	r7, #1134	; 0x46e
    3610:	00000a7e 	andeq	r0, r0, lr, ror sl
    3614:	0037d402 	eorseq	sp, r7, r2, lsl #8
    3618:	04040000 	streq	r0, [r4], #-0
    361c:	00019f07 	andeq	r9, r1, r7, lsl #30
    3620:	06010400 	streq	r0, [r1], -r0, lsl #8
    3624:	000000f0 	strdeq	r0, [r0], -r0	; <UNPREDICTABLE>
    3628:	29050204 	stmdbcs	r5, {r2, r9}
    362c:	04000002 	streq	r0, [r0], #-2
    3630:	01ef0504 	mvneq	r0, r4, lsl #10
    3634:	08040000 	stmdaeq	r4, {}	; <UNPREDICTABLE>
    3638:	0001ea05 	andeq	lr, r1, r5, lsl #20
    363c:	01ac0300 			; <UNDEFINED> instruction: 0x01ac0300
    3640:	2e030000 	cdpcs	0, 0, cr0, cr3, cr0, {0}
    3644:	00000065 	andeq	r0, r0, r5, rrx
    3648:	ee080104 	adfe	f0, f0, f4
    364c:	04000000 	streq	r0, [r0], #-0
    3650:	00520702 	subseq	r0, r2, r2, lsl #14
    3654:	bb030000 	bllt	c365c <__bss_end__+0xb931c>
    3658:	03000002 	movweq	r0, #2
    365c:	00007e34 	andeq	r7, r0, r4, lsr lr
    3660:	07040400 	streq	r0, [r4, -r0, lsl #8]
    3664:	0000019a 	muleq	r0, sl, r1
    3668:	95070804 	strls	r0, [r7, #-2052]	; 0x804
    366c:	04000001 	streq	r0, [r0], #-1
    3670:	01e10704 	mvneq	r0, r4, lsl #14
    3674:	04050000 	streq	r0, [r5], #-0
    3678:	f7080104 			; <UNDEFINED> instruction: 0xf7080104
    367c:	06000000 	streq	r0, [r0], -r0
    3680:	d30e040c 	movwle	r0, #58380	; 0xe40c
    3684:	07000000 	streq	r0, [r0, -r0]
    3688:	04007874 	streq	r7, [r0], #-2164	; 0x874
    368c:	00005a0f 	andeq	r5, r0, pc, lsl #20
    3690:	72070000 	andvc	r0, r7, #0
    3694:	0f040078 	svceq	0x00040078
    3698:	0000005a 	andeq	r0, r0, sl, asr r0
    369c:	04ca0801 	strbeq	r0, [sl], #2049	; 0x801
    36a0:	10040000 	andne	r0, r4, r0
    36a4:	00000073 	andeq	r0, r0, r3, ror r0
    36a8:	047b0804 	ldrbteq	r0, [fp], #-2052	; 0x804
    36ac:	11040000 	mrsne	r0, (UNDEF: 4)
    36b0:	00000073 	andeq	r0, r0, r3, ror r0
    36b4:	b3030008 	movwlt	r0, #12296	; 0x3008
    36b8:	04000004 	streq	r0, [r0], #-4
    36bc:	00009c12 	andeq	r9, r0, r2, lsl ip
    36c0:	05010900 	streq	r0, [r1, #-2304]	; 0x900
    36c4:	0000f910 	andeq	pc, r0, r0, lsl r9	; <UNPREDICTABLE>
    36c8:	04cf0a00 	strbeq	r0, [pc], #2560	; 36d0 <_start-0x4930>
    36cc:	0a010000 	beq	436d4 <__bss_end__+0x39394>
    36d0:	000004bd 			; <UNDEFINED> instruction: 0x000004bd
    36d4:	04a50a02 	strteq	r0, [r5], #2562	; 0xa02
    36d8:	00030000 	andeq	r0, r3, r0
    36dc:	0004e403 	andeq	lr, r4, r3, lsl #8
    36e0:	de100500 	cfmul32le	mvfx0, mvfx0, mvfx0
    36e4:	06000000 	streq	r0, [r0], -r0
    36e8:	31140514 	tstcc	r4, r4, lsl r5
    36ec:	08000001 	stmdaeq	r0, {r0}
    36f0:	0000054b 	andeq	r0, r0, fp, asr #10
    36f4:	00371505 	eorseq	r1, r7, r5, lsl #10
    36f8:	08000000 	stmdaeq	r0, {}	; <UNPREDICTABLE>
    36fc:	0000053f 	andeq	r0, r0, pc, lsr r5
    3700:	00f91805 	rscseq	r1, r9, r5, lsl #16
    3704:	08040000 	stmdaeq	r4, {}	; <UNPREDICTABLE>
    3708:	0000050a 	andeq	r0, r0, sl, lsl #10
    370c:	00d31b05 	sbcseq	r1, r3, r5, lsl #22
    3710:	00080000 	andeq	r0, r8, r0
    3714:	0004fc03 	andeq	pc, r4, r3, lsl #24
    3718:	04200500 	strteq	r0, [r0], #-1280	; 0x500
    371c:	0b000001 	bleq	3728 <_start-0x48d8>
    3720:	00000a8c 	andeq	r0, r0, ip, lsl #21
    3724:	017e0501 	cmneq	lr, r1, lsl #10
    3728:	96c80000 	strbls	r0, [r8], r0
    372c:	00280000 	eoreq	r0, r8, r0
    3730:	9c010000 	stcls	0, cr0, [r1], {-0}
    3734:	0000017e 	andeq	r0, r0, lr, ror r1
    3738:	0100630c 	tsteq	r0, ip, lsl #6
    373c:	00017e06 	andeq	r7, r1, r6, lsl #28
    3740:	00000000 	andeq	r0, r0, r0
    3744:	96dc0d09 	ldrbls	r0, [ip], r9, lsl #26
    3748:	01ab0000 			; <UNDEFINED> instruction: 0x01ab0000
    374c:	010e0000 	mrseq	r0, (UNDEF: 14)
    3750:	0e340152 	mrceq	1, 1, r0, cr4, cr2, {2}
    3754:	30015101 	andcc	r5, r1, r1, lsl #2
    3758:	0350010e 	cmpeq	r0, #-2147483645	; 0x80000003
    375c:	00244742 	eoreq	r4, r4, r2, asr #14
    3760:	31040f00 	tstcc	r4, r0, lsl #30
    3764:	0b000001 	bleq	3770 <_start-0x4890>
    3768:	00000512 	andeq	r0, r0, r2, lsl r5
    376c:	017e0c01 	cmneq	lr, r1, lsl #24
    3770:	96f00000 	ldrbtls	r0, [r0], r0
    3774:	00280000 	eoreq	r0, r8, r0
    3778:	9c010000 	stcls	0, cr0, [r1], {-0}
    377c:	000001ab 	andeq	r0, r0, fp, lsr #3
    3780:	0100630c 	tsteq	r0, ip, lsl #6
    3784:	00017e0d 	andeq	r7, r1, sp, lsl #28
    3788:	00000000 	andeq	r0, r0, r0
    378c:	85100009 	ldrhi	r0, [r0, #-9]
    3790:	0600000a 	streq	r0, [r0], -sl
    3794:	0000931b 	andeq	r9, r0, fp, lsl r3
    3798:	00931100 	addseq	r1, r3, r0, lsl #2
    379c:	25110000 	ldrcs	r0, [r1, #-0]
    37a0:	11000000 	mrsne	r0, (UNDEF: 0)
    37a4:	0000002c 	andeq	r0, r0, ip, lsr #32
    37a8:	00db0000 	sbcseq	r0, fp, r0
    37ac:	00040000 	andeq	r0, r4, r0
    37b0:	00001209 	andeq	r1, r0, r9, lsl #4
    37b4:	007d0104 	rsbseq	r0, sp, r4, lsl #2
    37b8:	ae010000 	cdpge	0, 0, cr0, cr1, cr0, {0}
    37bc:	f200000a 	vhadd.s8	d0, d0, d10
    37c0:	18000002 	stmdane	r0, {r1}
    37c4:	20000097 	mulcs	r0, r7, r0
    37c8:	3d000000 	stccc	0, cr0, [r0, #-0]
    37cc:	02000010 	andeq	r0, r0, #16
    37d0:	00f00601 	rscseq	r0, r0, r1, lsl #12
    37d4:	01020000 	mrseq	r0, (UNDEF: 2)
    37d8:	0000ee08 	andeq	lr, r0, r8, lsl #28
    37dc:	05020200 	streq	r0, [r2, #-512]	; 0x200
    37e0:	00000229 	andeq	r0, r0, r9, lsr #4
    37e4:	52070202 	andpl	r0, r7, #536870912	; 0x20000000
    37e8:	03000000 	movweq	r0, #0
    37ec:	6e690504 	cdpvs	5, 6, cr0, cr9, cr4, {0}
    37f0:	04020074 	streq	r0, [r2], #-116	; 0x74
    37f4:	00019f07 	andeq	r9, r1, r7, lsl #30
    37f8:	05080200 	streq	r0, [r8, #-512]	; 0x200
    37fc:	000001ea 	andeq	r0, r0, sl, ror #3
    3800:	95070802 	strls	r0, [r7, #-2050]	; 0x802
    3804:	02000001 	andeq	r0, r0, #1
    3808:	01ef0504 	mvneq	r0, r4, lsl #10
    380c:	04020000 	streq	r0, [r2], #-0
    3810:	0001e107 	andeq	lr, r1, r7, lsl #2
    3814:	02040400 	andeq	r0, r4, #0, 8
    3818:	019a0704 	orrseq	r0, sl, r4, lsl #14
    381c:	04050000 	streq	r0, [r5], #-0
    3820:	0000007a 	andeq	r0, r0, sl, ror r0
    3824:	f7080102 			; <UNDEFINED> instruction: 0xf7080102
    3828:	06000000 	streq	r0, [r0], -r0
    382c:	00000a7e 	andeq	r0, r0, lr, ror sl
    3830:	0048d402 	subeq	sp, r8, r2, lsl #8
    3834:	85070000 	strhi	r0, [r7, #-0]
    3838:	0300000a 	movweq	r0, #10
    383c:	00006b1b 	andeq	r6, r0, fp, lsl fp
    3840:	00971800 	addseq	r1, r7, r0, lsl #16
    3844:	00002000 	andeq	r2, r0, r0
    3848:	089c0100 	ldmeq	ip, {r8}
    384c:	0100705f 	qaddeq	r7, pc, r0	; <UNPREDICTABLE>
    3850:	00006b03 	andeq	r6, r0, r3, lsl #22
    3854:	08500100 	ldmdaeq	r0, {r8}^
    3858:	03010063 	movweq	r0, #4195	; 0x1063
    385c:	00000041 	andeq	r0, r0, r1, asr #32
    3860:	6e095101 	adfvse	f5, f1, f1
    3864:	81030100 	mrshi	r0, (UNDEF: 19)
    3868:	b5000000 	strlt	r0, [r0, #-0]
    386c:	0a000020 	beq	38f4 <_start-0x470c>
    3870:	04010070 	streq	r0, [r1], #-112	; 0x70
    3874:	00000074 	andeq	r0, r0, r4, ror r0
    3878:	000020d6 	ldrdeq	r2, [r0], -r6
    387c:	0100650b 	tsteq	r0, fp, lsl #10
    3880:	00007404 	andeq	r7, r0, r4, lsl #8
    3884:	00520100 	subseq	r0, r2, r0, lsl #2
	...

Disassembly of section .debug_abbrev:

00000000 <.debug_abbrev>:
       0:	25011101 	strcs	r1, [r1, #-257]	; 0x101
       4:	030b130e 	movweq	r1, #45838	; 0xb30e
       8:	110e1b0e 	tstne	lr, lr, lsl #22
       c:	10061201 	andne	r1, r6, r1, lsl #4
      10:	02000017 	andeq	r0, r0, #23
      14:	0b0b0024 	bleq	2c00ac <__bss_end__+0x2b5d6c>
      18:	08030b3e 	stmdaeq	r3, {r1, r2, r3, r4, r5, r8, r9, fp}
      1c:	24030000 	strcs	r0, [r3], #-0
      20:	3e0b0b00 	vmlacc.f64	d0, d11, d0
      24:	000e030b 	andeq	r0, lr, fp, lsl #6
      28:	00160400 	andseq	r0, r6, r0, lsl #8
      2c:	0b3a0e03 	bleq	e83840 <__bss_end__+0xe79500>
      30:	13490b3b 	movtne	r0, #39739	; 0x9b3b
      34:	0f050000 	svceq	0x00050000
      38:	000b0b00 	andeq	r0, fp, r0, lsl #22
      3c:	000f0600 	andeq	r0, pc, r0, lsl #12
      40:	13490b0b 	movtne	r0, #39691	; 0x9b0b
      44:	26070000 	strcs	r0, [r7], -r0
      48:	00134900 	andseq	r4, r3, r0, lsl #18
      4c:	01010800 	tsteq	r1, r0, lsl #16
      50:	13011349 	movwne	r1, #4937	; 0x1349
      54:	21090000 	mrscs	r0, (UNDEF: 9)
      58:	2f134900 	svccs	0x00134900
      5c:	0a00000b 	beq	90 <_start-0x7f70>
      60:	0b0b0104 	bleq	2c0478 <__bss_end__+0x2b6138>
      64:	0b3b0b3a 	bleq	ec2d54 <__bss_end__+0xeb8a14>
      68:	00001301 	andeq	r1, r0, r1, lsl #6
      6c:	0300280b 	movweq	r2, #2059	; 0x80b
      70:	000d1c0e 	andeq	r1, sp, lr, lsl #24
      74:	01130c00 	tsteq	r3, r0, lsl #24
      78:	0b0b0e03 	bleq	2c388c <__bss_end__+0x2b954c>
      7c:	0b3b0b3a 	bleq	ec2d6c <__bss_end__+0xeb8a2c>
      80:	00001301 	andeq	r1, r0, r1, lsl #6
      84:	03000d0d 	movweq	r0, #3341	; 0xd0d
      88:	3b0b3a0e 	blcc	2ce8c8 <__bss_end__+0x2c4588>
      8c:	3813490b 	ldmdacc	r3, {r0, r1, r3, r8, fp, lr}
      90:	0e00000b 	cdpeq	0, 0, cr0, cr0, cr11, {0}
      94:	0e03012e 	adfeqsp	f0, f3, #0.5
      98:	0b3b0b3a 	bleq	ec2d88 <__bss_end__+0xeb8a48>
      9c:	01111927 	tsteq	r1, r7, lsr #18
      a0:	18400612 	stmdane	r0, {r1, r4, r9, sl}^
      a4:	01194297 			; <UNDEFINED> instruction: 0x01194297
      a8:	0f000013 	svceq	0x00000013
      ac:	0e030005 	cdpeq	0, 0, cr0, cr3, cr5, {0}
      b0:	0b3b0b3a 	bleq	ec2da0 <__bss_end__+0xeb8a60>
      b4:	17021349 	strne	r1, [r2, -r9, asr #6]
      b8:	05100000 	ldreq	r0, [r0, #-0]
      bc:	3a080300 	bcc	200cc4 <__bss_end__+0x1f6984>
      c0:	490b3b0b 	stmdbmi	fp, {r0, r1, r3, r8, r9, fp, ip, sp}
      c4:	00170213 	andseq	r0, r7, r3, lsl r2
      c8:	00341100 	eorseq	r1, r4, r0, lsl #2
      cc:	0b3a0803 	bleq	e820e0 <__bss_end__+0xe77da0>
      d0:	13490b3b 	movtne	r0, #39739	; 0x9b3b
      d4:	00001702 	andeq	r1, r0, r2, lsl #14
      d8:	11010b12 	tstne	r1, r2, lsl fp
      dc:	00061201 	andeq	r1, r6, r1, lsl #4
      e0:	82891300 	addhi	r1, r9, #0, 6
      e4:	01110001 	tsteq	r1, r1
      e8:	00001331 	andeq	r1, r0, r1, lsr r3
      ec:	3f012e14 	svccc	0x00012e14
      f0:	3a0e0319 	bcc	380d5c <__bss_end__+0x376a1c>
      f4:	270b3b0b 	strcs	r3, [fp, -fp, lsl #22]
      f8:	12011119 	andne	r1, r1, #1073741830	; 0x40000006
      fc:	97184006 	ldrls	r4, [r8, -r6]
     100:	13011942 	movwne	r1, #6466	; 0x1942
     104:	34150000 	ldrcc	r0, [r5], #-0
     108:	3a080300 	bcc	200d10 <__bss_end__+0x1f69d0>
     10c:	490b3b0b 	stmdbmi	fp, {r0, r1, r3, r8, r9, fp, ip, sp}
     110:	00180213 	andseq	r0, r8, r3, lsl r2
     114:	00341600 	eorseq	r1, r4, r0, lsl #12
     118:	0b3a0e03 	bleq	e8392c <__bss_end__+0xe795ec>
     11c:	13490b3b 	movtne	r0, #39739	; 0x9b3b
     120:	00001702 	andeq	r1, r0, r2, lsl #14
     124:	03003417 	movweq	r3, #1047	; 0x417
     128:	3413490e 	ldrcc	r4, [r3], #-2318	; 0x90e
     12c:	00180219 	andseq	r0, r8, r9, lsl r2
     130:	010b1800 	tsteq	fp, r0, lsl #16
     134:	13011755 	movwne	r1, #5973	; 0x1755
     138:	89190000 	ldmdbhi	r9, {}	; <UNPREDICTABLE>
     13c:	11010182 	smlabbne	r1, r2, r1, r0
     140:	01133101 	tsteq	r3, r1, lsl #2
     144:	1a000013 	bne	198 <_start-0x7e68>
     148:	0001828a 	andeq	r8, r1, sl, lsl #5
     14c:	42911802 	addsmi	r1, r1, #131072	; 0x20000
     150:	1b000018 	blne	1b8 <_start-0x7e48>
     154:	01018289 	smlabbeq	r1, r9, r2, r8
     158:	13310111 	teqne	r1, #1073741828	; 0x40000004
     15c:	2e1c0000 	cdpcs	0, 1, cr0, cr12, cr0, {0}
     160:	03193f00 	tsteq	r9, #0, 30
     164:	3b0b3a0e 	blcc	2ce9a4 <__bss_end__+0x2c4664>
     168:	4919270b 	ldmdbmi	r9, {r0, r1, r3, r8, r9, sl, sp}
     16c:	00193c13 	andseq	r3, r9, r3, lsl ip
     170:	012e1d00 	teqeq	lr, r0, lsl #26
     174:	0e03193f 	mcreq	9, 0, r1, cr3, cr15, {1}
     178:	0b3b0b3a 	bleq	ec2e68 <__bss_end__+0xeb8b28>
     17c:	13491927 	movtne	r1, #39207	; 0x9927
     180:	1301193c 	movwne	r1, #6460	; 0x193c
     184:	051e0000 	ldreq	r0, [lr, #-0]
     188:	00134900 	andseq	r4, r3, r0, lsl #18
     18c:	00181f00 	andseq	r1, r8, r0, lsl #30
     190:	2e200000 	cdpcs	0, 2, cr0, cr0, cr0, {0}
     194:	03193f01 	tsteq	r9, #1, 30
     198:	3b0b3a0e 	blcc	2ce9d8 <__bss_end__+0x2c4698>
     19c:	3c19270b 	ldccc	7, cr2, [r9], {11}
     1a0:	00130119 	andseq	r0, r3, r9, lsl r1
     1a4:	002e2100 	eoreq	r2, lr, r0, lsl #2
     1a8:	0e03193f 	mcreq	9, 0, r1, cr3, cr15, {1}
     1ac:	0b3b0b3a 	bleq	ec2e9c <__bss_end__+0xeb8b5c>
     1b0:	193c1927 	ldmdbne	ip!, {r0, r1, r2, r5, r8, fp, ip}
     1b4:	26220000 	strtcs	r0, [r2], -r0
     1b8:	23000000 	movwcs	r0, #0
     1bc:	193f012e 	ldmdbne	pc!, {r1, r2, r3, r5, r8}	; <UNPREDICTABLE>
     1c0:	0b3a0e03 	bleq	e839d4 <__bss_end__+0xe79694>
     1c4:	19270b3b 	stmdbne	r7!, {r0, r1, r3, r4, r5, r8, r9, fp}
     1c8:	193c1349 	ldmdbne	ip!, {r0, r3, r6, r8, r9, ip}
     1cc:	01000000 	mrseq	r0, (UNDEF: 0)
     1d0:	0e250111 	mcreq	1, 1, r0, cr5, cr1, {0}
     1d4:	0e030b13 	vmoveq.32	d3[0], r0
     1d8:	01110e1b 	tsteq	r1, fp, lsl lr
     1dc:	17100612 			; <UNDEFINED> instruction: 0x17100612
     1e0:	24020000 	strcs	r0, [r2], #-0
     1e4:	3e0b0b00 	vmlacc.f64	d0, d11, d0
     1e8:	000e030b 	andeq	r0, lr, fp, lsl #6
     1ec:	00160300 	andseq	r0, r6, r0, lsl #6
     1f0:	0b3a0e03 	bleq	e83a04 <__bss_end__+0xe796c4>
     1f4:	13490b3b 	movtne	r0, #39739	; 0x9b3b
     1f8:	24040000 	strcs	r0, [r4], #-0
     1fc:	3e0b0b00 	vmlacc.f64	d0, d11, d0
     200:	0008030b 	andeq	r0, r8, fp, lsl #6
     204:	012e0500 	teqeq	lr, r0, lsl #10
     208:	0e03193f 	mcreq	9, 0, r1, cr3, cr15, {1}
     20c:	0b3b0b3a 	bleq	ec2efc <__bss_end__+0xeb8bbc>
     210:	13491927 	movtne	r1, #39207	; 0x9927
     214:	06120111 			; <UNDEFINED> instruction: 0x06120111
     218:	42971840 	addsmi	r1, r7, #64, 16	; 0x400000
     21c:	00130119 	andseq	r0, r3, r9, lsl r1
     220:	00050600 	andeq	r0, r5, r0, lsl #12
     224:	0b3a0803 	bleq	e82238 <__bss_end__+0xe77ef8>
     228:	13490b3b 	movtne	r0, #39739	; 0x9b3b
     22c:	00001702 	andeq	r1, r0, r2, lsl #14
     230:	03000507 	movweq	r0, #1287	; 0x507
     234:	3b0b3a0e 	blcc	2cea74 <__bss_end__+0x2c4734>
     238:	0213490b 	andseq	r4, r3, #180224	; 0x2c000
     23c:	08000017 	stmdaeq	r0, {r0, r1, r2, r4}
     240:	08030034 	stmdaeq	r3, {r2, r4, r5}
     244:	0b3b0b3a 	bleq	ec2f34 <__bss_end__+0xeb8bf4>
     248:	17021349 	strne	r1, [r2, -r9, asr #6]
     24c:	0f090000 	svceq	0x00090000
     250:	490b0b00 	stmdbmi	fp, {r8, r9, fp}
     254:	0a000013 	beq	2a8 <_start-0x7d58>
     258:	00000026 	andeq	r0, r0, r6, lsr #32
     25c:	4900260b 	stmdbmi	r0, {r0, r1, r3, r9, sl, sp}
     260:	0c000013 	stceq	0, cr0, [r0], {19}
     264:	01018289 	smlabbeq	r1, r9, r2, r8
     268:	13310111 	teqne	r1, #1073741828	; 0x40000004
     26c:	8a0d0000 	bhi	340274 <__bss_end__+0x335f34>
     270:	02000182 	andeq	r0, r0, #-2147483616	; 0x80000020
     274:	18429118 	stmdane	r2, {r3, r4, r8, ip, pc}^
     278:	010e0000 	mrseq	r0, (UNDEF: 14)
     27c:	01134901 	tsteq	r3, r1, lsl #18
     280:	0f000013 	svceq	0x00000013
     284:	13490021 	movtne	r0, #36897	; 0x9021
     288:	00000b2f 	andeq	r0, r0, pc, lsr #22
     28c:	03003410 	movweq	r3, #1040	; 0x410
     290:	3b0b3a0e 	blcc	2cead0 <__bss_end__+0x2c4790>
     294:	0213490b 	andseq	r4, r3, #180224	; 0x2c000
     298:	00000018 	andeq	r0, r0, r8, lsl r0
     29c:	25011101 	strcs	r1, [r1, #-257]	; 0x101
     2a0:	030b130e 	movweq	r1, #45838	; 0xb30e
     2a4:	110e1b0e 	tstne	lr, lr, lsl #22
     2a8:	10061201 	andne	r1, r6, r1, lsl #4
     2ac:	02000017 	andeq	r0, r0, #23
     2b0:	0e030016 	mcreq	0, 0, r0, cr3, cr6, {0}
     2b4:	0b3b0b3a 	bleq	ec2fa4 <__bss_end__+0xeb8c64>
     2b8:	00001349 	andeq	r1, r0, r9, asr #6
     2bc:	03011303 	movweq	r1, #4867	; 0x1303
     2c0:	3a0b0b0e 	bcc	2c2f00 <__bss_end__+0x2b8bc0>
     2c4:	010b3b0b 	tsteq	fp, fp, lsl #22
     2c8:	04000013 	streq	r0, [r0], #-19
     2cc:	0e03000d 	cdpeq	0, 0, cr0, cr3, cr13, {0}
     2d0:	0b381349 	bleq	e04ffc <__bss_end__+0xdfacbc>
     2d4:	00001934 	andeq	r1, r0, r4, lsr r9
     2d8:	0b000f05 	bleq	3ef4 <_start-0x410c>
     2dc:	0600000b 	streq	r0, [r0], -fp
     2e0:	0b0b0024 	bleq	2c0378 <__bss_end__+0x2b6038>
     2e4:	08030b3e 	stmdaeq	r3, {r1, r2, r3, r4, r5, r8, r9, fp}
     2e8:	24070000 	strcs	r0, [r7], #-0
     2ec:	3e0b0b00 	vmlacc.f64	d0, d11, d0
     2f0:	000e030b 	andeq	r0, lr, fp, lsl #6
     2f4:	000f0800 	andeq	r0, pc, r0, lsl #16
     2f8:	13490b0b 	movtne	r0, #39691	; 0x9b0b
     2fc:	26090000 	strcs	r0, [r9], -r0
     300:	00134900 	andseq	r4, r3, r0, lsl #18
     304:	012e0a00 	teqeq	lr, r0, lsl #20
     308:	0e03193f 	mcreq	9, 0, r1, cr3, cr15, {1}
     30c:	0b3b0b3a 	bleq	ec2ffc <__bss_end__+0xeb8cbc>
     310:	13491927 	movtne	r1, #39207	; 0x9927
     314:	06120111 			; <UNDEFINED> instruction: 0x06120111
     318:	42971840 	addsmi	r1, r7, #64, 16	; 0x400000
     31c:	00130119 	andseq	r0, r3, r9, lsl r1
     320:	00050b00 	andeq	r0, r5, r0, lsl #22
     324:	0b3a0803 	bleq	e82338 <__bss_end__+0xe77ff8>
     328:	13490b3b 	movtne	r0, #39739	; 0x9b3b
     32c:	00001802 	andeq	r1, r0, r2, lsl #16
     330:	0000180c 	andeq	r1, r0, ip, lsl #16
     334:	00340d00 	eorseq	r0, r4, r0, lsl #26
     338:	0b3a0803 	bleq	e8234c <__bss_end__+0xe7800c>
     33c:	13490b3b 	movtne	r0, #39739	; 0x9b3b
     340:	00001802 	andeq	r1, r0, r2, lsl #16
     344:	0300340e 	movweq	r3, #1038	; 0x40e
     348:	3b0b3a0e 	blcc	2ceb88 <__bss_end__+0x2c4848>
     34c:	0213490b 	andseq	r4, r3, #180224	; 0x2c000
     350:	0f000018 	svceq	0x00000018
     354:	08030034 	stmdaeq	r3, {r2, r4, r5}
     358:	0b3b0b3a 	bleq	ec3048 <__bss_end__+0xeb8d08>
     35c:	17021349 	strne	r1, [r2, -r9, asr #6]
     360:	89100000 	ldmdbhi	r0, {}	; <UNPREDICTABLE>
     364:	11010182 	smlabbne	r1, r2, r1, r0
     368:	01133101 	tsteq	r3, r1, lsl #2
     36c:	11000013 	tstne	r0, r3, lsl r0
     370:	0001828a 	andeq	r8, r1, sl, lsl #5
     374:	42911802 	addsmi	r1, r1, #131072	; 0x20000
     378:	12000018 	andne	r0, r0, #24
     37c:	01018289 	smlabbeq	r1, r9, r2, r8
     380:	00000111 	andeq	r0, r0, r1, lsl r1
     384:	49010113 	stmdbmi	r1, {r0, r1, r4, r8}
     388:	00130113 	andseq	r0, r3, r3, lsl r1
     38c:	00211400 	eoreq	r1, r1, r0, lsl #8
     390:	052f1349 	streq	r1, [pc, #-841]!	; 4f <_start-0x7fb1>
     394:	15150000 	ldrne	r0, [r5, #-0]
     398:	49192701 	ldmdbmi	r9, {r0, r8, r9, sl, sp}
     39c:	00130113 	andseq	r0, r3, r3, lsl r1
     3a0:	00051600 	andeq	r1, r5, r0, lsl #12
     3a4:	00001349 	andeq	r1, r0, r9, asr #6
     3a8:	03003417 	movweq	r3, #1047	; 0x417
     3ac:	3b0b3a0e 	blcc	2cebec <__bss_end__+0x2c48ac>
     3b0:	3f13490b 	svccc	0x0013490b
     3b4:	00193c19 	andseq	r3, r9, r9, lsl ip
     3b8:	012e1800 	teqeq	lr, r0, lsl #16
     3bc:	0e03193f 	mcreq	9, 0, r1, cr3, cr15, {1}
     3c0:	0b3b0b3a 	bleq	ec30b0 <__bss_end__+0xeb8d70>
     3c4:	13491927 	movtne	r1, #39207	; 0x9927
     3c8:	0000193c 	andeq	r1, r0, ip, lsr r9
     3cc:	01110100 	tsteq	r1, r0, lsl #2
     3d0:	0b130e25 	bleq	4c3c6c <__bss_end__+0x4b992c>
     3d4:	0e1b0e03 	cdpeq	14, 1, cr0, cr11, cr3, {0}
     3d8:	06120111 			; <UNDEFINED> instruction: 0x06120111
     3dc:	00001710 	andeq	r1, r0, r0, lsl r7
     3e0:	0b002402 	bleq	93f0 <gpio_set_function+0x10>
     3e4:	030b3e0b 	movweq	r3, #48651	; 0xbe0b
     3e8:	03000008 	movweq	r0, #8
     3ec:	0b0b0024 	bleq	2c0484 <__bss_end__+0x2b6144>
     3f0:	0e030b3e 	vmoveq.16	d3[0], r0
     3f4:	2e040000 	cdpcs	0, 0, cr0, cr4, cr0, {0}
     3f8:	3a0e0301 	bcc	381004 <__bss_end__+0x376cc4>
     3fc:	270b3b0b 	strcs	r3, [fp, -fp, lsl #22]
     400:	11134919 	tstne	r3, r9, lsl r9
     404:	40061201 	andmi	r1, r6, r1, lsl #4
     408:	19429718 	stmdbne	r2, {r3, r4, r8, r9, sl, ip, pc}^
     40c:	00001301 	andeq	r1, r0, r1, lsl #6
     410:	03000505 	movweq	r0, #1285	; 0x505
     414:	3b0b3a08 	blcc	2cec3c <__bss_end__+0x2c48fc>
     418:	0213490b 	andseq	r4, r3, #180224	; 0x2c000
     41c:	06000017 			; <UNDEFINED> instruction: 0x06000017
     420:	01018289 	smlabbeq	r1, r9, r2, r8
     424:	13310111 	teqne	r1, #1073741828	; 0x40000004
     428:	8a070000 	bhi	1c0430 <__bss_end__+0x1b60f0>
     42c:	02000182 	andeq	r0, r0, #-2147483616	; 0x80000020
     430:	18429118 	stmdane	r2, {r3, r4, r8, ip, pc}^
     434:	2e080000 	cdpcs	0, 0, cr0, cr8, cr0, {0}
     438:	03193f00 	tsteq	r9, #0, 30
     43c:	3b0b3a0e 	blcc	2cec7c <__bss_end__+0x2c493c>
     440:	1119270b 	tstne	r9, fp, lsl #14
     444:	40061201 	andmi	r1, r6, r1, lsl #4
     448:	19429718 	stmdbne	r2, {r3, r4, r8, r9, sl, ip, pc}^
     44c:	2e090000 	cdpcs	0, 0, cr0, cr9, cr0, {0}
     450:	03193f01 	tsteq	r9, #1, 30
     454:	3b0b3a0e 	blcc	2cec94 <__bss_end__+0x2c4954>
     458:	1119270b 	tstne	r9, fp, lsl #14
     45c:	40061201 	andmi	r1, r6, r1, lsl #4
     460:	19429718 	stmdbne	r2, {r3, r4, r8, r9, sl, ip, pc}^
     464:	00001301 	andeq	r1, r0, r1, lsl #6
     468:	0300050a 	movweq	r0, #1290	; 0x50a
     46c:	3b0b3a08 	blcc	2cec94 <__bss_end__+0x2c4954>
     470:	0213490b 	andseq	r4, r3, #180224	; 0x2c000
     474:	0b000018 	bleq	4dc <_start-0x7b24>
     478:	19270115 	stmdbne	r7!, {r0, r2, r4, r8}
     47c:	13011349 	movwne	r1, #4937	; 0x1349
     480:	050c0000 	streq	r0, [ip, #-0]
     484:	00134900 	andseq	r4, r3, r0, lsl #18
     488:	000f0d00 	andeq	r0, pc, r0, lsl #26
     48c:	13490b0b 	movtne	r0, #39691	; 0x9b0b
     490:	340e0000 	strcc	r0, [lr], #-0
     494:	3a0e0300 	bcc	38109c <__bss_end__+0x376d5c>
     498:	490b3b0b 	stmdbmi	fp, {r0, r1, r3, r8, r9, fp, ip, sp}
     49c:	02193f13 	andseq	r3, r9, #19, 30	; 0x4c
     4a0:	0f000018 	svceq	0x00000018
     4a4:	193f012e 	ldmdbne	pc!, {r1, r2, r3, r5, r8}	; <UNPREDICTABLE>
     4a8:	0b3a0e03 	bleq	e83cbc <__bss_end__+0xe7997c>
     4ac:	19270b3b 	stmdbne	r7!, {r0, r1, r3, r4, r5, r8, r9, fp}
     4b0:	0000193c 	andeq	r1, r0, ip, lsr r9
     4b4:	01110100 	tsteq	r1, r0, lsl #2
     4b8:	0b130e25 	bleq	4c3d54 <__bss_end__+0x4b9a14>
     4bc:	0e1b0e03 	cdpeq	14, 1, cr0, cr11, cr3, {0}
     4c0:	06120111 			; <UNDEFINED> instruction: 0x06120111
     4c4:	00001710 	andeq	r1, r0, r0, lsl r7
     4c8:	0b002402 	bleq	94d8 <is_gpio_int+0x20>
     4cc:	030b3e0b 	movweq	r3, #48651	; 0xbe0b
     4d0:	03000008 	movweq	r0, #8
     4d4:	0b0b0024 	bleq	2c056c <__bss_end__+0x2b622c>
     4d8:	0e030b3e 	vmoveq.16	d3[0], r0
     4dc:	0f040000 	svceq	0x00040000
     4e0:	490b0b00 	stmdbmi	fp, {r8, r9, fp}
     4e4:	05000013 	streq	r0, [r0, #-19]
     4e8:	13490026 	movtne	r0, #36902	; 0x9026
     4ec:	2e060000 	cdpcs	0, 0, cr0, cr6, cr0, {0}
     4f0:	03193f01 	tsteq	r9, #1, 30
     4f4:	3b0b3a0e 	blcc	2ced34 <__bss_end__+0x2c49f4>
     4f8:	4919270b 	ldmdbmi	r9, {r0, r1, r3, r8, r9, sl, sp}
     4fc:	12011113 	andne	r1, r1, #-1073741820	; 0xc0000004
     500:	96184006 	ldrls	r4, [r8], -r6
     504:	13011942 	movwne	r1, #6466	; 0x1942
     508:	05070000 	streq	r0, [r7, #-0]
     50c:	3a080300 	bcc	201114 <__bss_end__+0x1f6dd4>
     510:	490b3b0b 	stmdbmi	fp, {r0, r1, r3, r8, r9, fp, ip, sp}
     514:	00170213 	andseq	r0, r7, r3, lsl r2
     518:	01150800 	tsteq	r5, r0, lsl #16
     51c:	13491927 	movtne	r1, #39207	; 0x9927
     520:	00001301 	andeq	r1, r0, r1, lsl #6
     524:	49000509 	stmdbmi	r0, {r0, r3, r8, sl}
     528:	0a000013 	beq	57c <_start-0x7a84>
     52c:	0e030034 	mcreq	0, 0, r0, cr3, cr4, {1}
     530:	0b3b0b3a 	bleq	ec3220 <__bss_end__+0xeb8ee0>
     534:	193f1349 	ldmdbne	pc!, {r0, r3, r6, r8, r9, ip}	; <UNPREDICTABLE>
     538:	0000193c 	andeq	r1, r0, ip, lsr r9
     53c:	0300340b 	movweq	r3, #1035	; 0x40b
     540:	3b0b3a0e 	blcc	2ced80 <__bss_end__+0x2c4a40>
     544:	3f13490b 	svccc	0x0013490b
     548:	00180219 	andseq	r0, r8, r9, lsl r2
     54c:	11010000 	mrsne	r0, (UNDEF: 1)
     550:	130e2501 	movwne	r2, #58625	; 0xe501
     554:	1b0e030b 	blne	381188 <__bss_end__+0x376e48>
     558:	1201110e 	andne	r1, r1, #-2147483645	; 0x80000003
     55c:	00171006 	andseq	r1, r7, r6
     560:	00240200 	eoreq	r0, r4, r0, lsl #4
     564:	0b3e0b0b 	bleq	f83198 <__bss_end__+0xf78e58>
     568:	00000803 	andeq	r0, r0, r3, lsl #16
     56c:	0b002403 	bleq	9580 <gpio_int_falling_edge+0x18>
     570:	030b3e0b 	movweq	r3, #48651	; 0xbe0b
     574:	0400000e 	streq	r0, [r0], #-14
     578:	0b0b000f 	bleq	2c05bc <__bss_end__+0x2b627c>
     57c:	0f050000 	svceq	0x00050000
     580:	490b0b00 	stmdbmi	fp, {r8, r9, fp}
     584:	06000013 			; <UNDEFINED> instruction: 0x06000013
     588:	13490026 	movtne	r0, #36902	; 0x9026
     58c:	16070000 	strne	r0, [r7], -r0
     590:	3a0e0300 	bcc	381198 <__bss_end__+0x376e58>
     594:	490b3b0b 	stmdbmi	fp, {r0, r1, r3, r8, r9, fp, ip, sp}
     598:	08000013 	stmdaeq	r0, {r0, r1, r4}
     59c:	0e030113 	mcreq	1, 0, r0, cr3, cr3, {0}
     5a0:	0b3a0b0b 	bleq	e831d4 <__bss_end__+0xe78e94>
     5a4:	13010b3b 	movwne	r0, #6971	; 0x1b3b
     5a8:	0d090000 	stceq	0, cr0, [r9, #-0]
     5ac:	490e0300 	stmdbmi	lr, {r8, r9}
     5b0:	340b3813 	strcc	r3, [fp], #-2067	; 0x813
     5b4:	0a000019 	beq	620 <_start-0x79e0>
     5b8:	0e03012e 	adfeqsp	f0, f3, #0.5
     5bc:	0b3b0b3a 	bleq	ec32ac <__bss_end__+0xeb8f6c>
     5c0:	13491927 	movtne	r1, #39207	; 0x9927
     5c4:	06120111 			; <UNDEFINED> instruction: 0x06120111
     5c8:	42971840 	addsmi	r1, r7, #64, 16	; 0x400000
     5cc:	00130119 	andseq	r0, r3, r9, lsl r1
     5d0:	00050b00 	andeq	r0, r5, r0, lsl #22
     5d4:	0b3a0803 	bleq	e825e8 <__bss_end__+0xe782a8>
     5d8:	13490b3b 	movtne	r0, #39739	; 0x9b3b
     5dc:	00001702 	andeq	r1, r0, r2, lsl #14
     5e0:	03012e0c 	movweq	r2, #7692	; 0x1e0c
     5e4:	3b0b3a08 	blcc	2cee0c <__bss_end__+0x2c4acc>
     5e8:	4919270b 	ldmdbmi	r9, {r0, r1, r3, r8, r9, sl, sp}
     5ec:	12011113 	andne	r1, r1, #-1073741820	; 0xc0000004
     5f0:	97184006 	ldrls	r4, [r8, -r6]
     5f4:	13011942 	movwne	r1, #6466	; 0x1942
     5f8:	050d0000 	streq	r0, [sp, #-0]
     5fc:	3a0e0300 	bcc	381204 <__bss_end__+0x376ec4>
     600:	490b3b0b 	stmdbmi	fp, {r0, r1, r3, r8, r9, fp, ip, sp}
     604:	00170213 	andseq	r0, r7, r3, lsl r2
     608:	00050e00 	andeq	r0, r5, r0, lsl #28
     60c:	0b3a0e03 	bleq	e83e20 <__bss_end__+0xe79ae0>
     610:	13490b3b 	movtne	r0, #39739	; 0x9b3b
     614:	00001802 	andeq	r1, r0, r2, lsl #16
     618:	0300340f 	movweq	r3, #1039	; 0x40f
     61c:	3b0b3a08 	blcc	2cee44 <__bss_end__+0x2c4b04>
     620:	0213490b 	andseq	r4, r3, #180224	; 0x2c000
     624:	10000018 	andne	r0, r0, r8, lsl r0
     628:	08030034 	stmdaeq	r3, {r2, r4, r5}
     62c:	0b3b0b3a 	bleq	ec331c <__bss_end__+0xeb8fdc>
     630:	17021349 	strne	r1, [r2, -r9, asr #6]
     634:	34110000 	ldrcc	r0, [r1], #-0
     638:	490e0300 	stmdbmi	lr, {r8, r9}
     63c:	02193413 	andseq	r3, r9, #318767104	; 0x13000000
     640:	12000018 	andne	r0, r0, #24
     644:	0111010b 	tsteq	r1, fp, lsl #2
     648:	13010612 	movwne	r0, #5650	; 0x1612
     64c:	34130000 	ldrcc	r0, [r3], #-0
     650:	3a0e0300 	bcc	381258 <__bss_end__+0x376f18>
     654:	490b3b0b 	stmdbmi	fp, {r0, r1, r3, r8, r9, fp, ip, sp}
     658:	00170213 	andseq	r0, r7, r3, lsl r2
     65c:	82891400 	addhi	r1, r9, #0, 8
     660:	01110001 	tsteq	r1, r1
     664:	00001331 	andeq	r1, r0, r1, lsr r3
     668:	01828915 	orreq	r8, r2, r5, lsl r9
     66c:	31011101 	tstcc	r1, r1, lsl #2
     670:	00130113 	andseq	r0, r3, r3, lsl r1
     674:	828a1600 	addhi	r1, sl, #0, 12
     678:	18020001 	stmdane	r2, {r0}
     67c:	00184291 	mulseq	r8, r1, r2
     680:	82891700 	addhi	r1, r9, #0, 14
     684:	01110101 	tsteq	r1, r1, lsl #2
     688:	00001331 	andeq	r1, r0, r1, lsr r3
     68c:	49010118 	stmdbmi	r1, {r3, r4, r8}
     690:	00130113 	andseq	r0, r3, r3, lsl r1
     694:	00211900 	eoreq	r1, r1, r0, lsl #18
     698:	0b2f1349 	bleq	bc53c4 <__bss_end__+0xbbb084>
     69c:	2e1a0000 	cdpcs	0, 1, cr0, cr10, cr0, {0}
     6a0:	03193f01 	tsteq	r9, #1, 30
     6a4:	3b0b3a0e 	blcc	2ceee4 <__bss_end__+0x2c4ba4>
     6a8:	1119270b 	tstne	r9, fp, lsl #14
     6ac:	40061201 	andmi	r1, r6, r1, lsl #4
     6b0:	19429718 	stmdbne	r2, {r3, r4, r8, r9, sl, ip, pc}^
     6b4:	00001301 	andeq	r1, r0, r1, lsl #6
     6b8:	2701151b 	smladcs	r1, fp, r5, r1
     6bc:	01134919 	tsteq	r3, r9, lsl r9
     6c0:	1c000013 	stcne	0, cr0, [r0], {19}
     6c4:	13490005 	movtne	r0, #36869	; 0x9005
     6c8:	2e1d0000 	cdpcs	0, 1, cr0, cr13, cr0, {0}
     6cc:	03193f01 	tsteq	r9, #1, 30
     6d0:	3b0b3a0e 	blcc	2cef10 <__bss_end__+0x2c4bd0>
     6d4:	4919270b 	ldmdbmi	r9, {r0, r1, r3, r8, r9, sl, sp}
     6d8:	12011113 	andne	r1, r1, #-1073741820	; 0xc0000004
     6dc:	97184006 	ldrls	r4, [r8, -r6]
     6e0:	13011942 	movwne	r1, #6466	; 0x1942
     6e4:	0b1e0000 	bleq	7806ec <__bss_end__+0x7763ac>
     6e8:	00175501 	andseq	r5, r7, r1, lsl #10
     6ec:	00341f00 	eorseq	r1, r4, r0, lsl #30
     6f0:	0b3a0e03 	bleq	e83f04 <__bss_end__+0xe79bc4>
     6f4:	13490b3b 	movtne	r0, #39739	; 0x9b3b
     6f8:	193c193f 	ldmdbne	ip!, {r0, r1, r2, r3, r4, r5, r8, fp, ip}
     6fc:	2e200000 	cdpcs	0, 2, cr0, cr0, cr0, {0}
     700:	03193f00 	tsteq	r9, #0, 30
     704:	3b0b3a0e 	blcc	2cef44 <__bss_end__+0x2c4c04>
     708:	3c19270b 	ldccc	7, cr2, [r9], {11}
     70c:	21000019 	tstcs	r0, r9, lsl r0
     710:	193f012e 	ldmdbne	pc!, {r1, r2, r3, r5, r8}	; <UNPREDICTABLE>
     714:	0b3a0e03 	bleq	e83f28 <__bss_end__+0xe79be8>
     718:	19270b3b 	stmdbne	r7!, {r0, r1, r3, r4, r5, r8, r9, fp}
     71c:	193c1349 	ldmdbne	ip!, {r0, r3, r6, r8, r9, ip}
     720:	00001301 	andeq	r1, r0, r1, lsl #6
     724:	00001822 	andeq	r1, r0, r2, lsr #16
     728:	11010000 	mrsne	r0, (UNDEF: 1)
     72c:	130e2501 	movwne	r2, #58625	; 0xe501
     730:	1b0e030b 	blne	381364 <__bss_end__+0x377024>
     734:	1201110e 	andne	r1, r1, #-2147483645	; 0x80000003
     738:	00171006 	andseq	r1, r7, r6
     73c:	00240200 	eoreq	r0, r4, r0, lsl #4
     740:	0b3e0b0b 	bleq	f83374 <__bss_end__+0xf79034>
     744:	00000803 	andeq	r0, r0, r3, lsl #16
     748:	0b002403 	bleq	975c <AUX_MU_IO_REG>
     74c:	030b3e0b 	movweq	r3, #48651	; 0xbe0b
     750:	0400000e 	streq	r0, [r0], #-14
     754:	0b0b000f 	bleq	2c0798 <__bss_end__+0x2b6458>
     758:	00001349 	andeq	r1, r0, r9, asr #6
     75c:	49002605 	stmdbmi	r0, {r0, r2, r9, sl, sp}
     760:	06000013 			; <UNDEFINED> instruction: 0x06000013
     764:	193f012e 	ldmdbne	pc!, {r1, r2, r3, r5, r8}	; <UNPREDICTABLE>
     768:	0b3a0e03 	bleq	e83f7c <__bss_end__+0xe79c3c>
     76c:	19270b3b 	stmdbne	r7!, {r0, r1, r3, r4, r5, r8, r9, fp}
     770:	06120111 			; <UNDEFINED> instruction: 0x06120111
     774:	42971840 	addsmi	r1, r7, #64, 16	; 0x400000
     778:	00130119 	andseq	r0, r3, r9, lsl r1
     77c:	82890700 	addhi	r0, r9, #0, 14
     780:	01110101 	tsteq	r1, r1, lsl #2
     784:	00001301 	andeq	r1, r0, r1, lsl #6
     788:	01828a08 	orreq	r8, r2, r8, lsl #20
     78c:	91180200 	tstls	r8, r0, lsl #4
     790:	00001842 	andeq	r1, r0, r2, asr #16
     794:	01828909 	orreq	r8, r2, r9, lsl #18
     798:	31011101 	tstcc	r1, r1, lsl #2
     79c:	00130113 	andseq	r0, r3, r3, lsl r1
     7a0:	82890a00 	addhi	r0, r9, #0, 20
     7a4:	01110001 	tsteq	r1, r1
     7a8:	00001331 	andeq	r1, r0, r1, lsr r3
     7ac:	2701150b 	strcs	r1, [r1, -fp, lsl #10]
     7b0:	01134919 	tsteq	r3, r9, lsl r9
     7b4:	0c000013 	stceq	0, cr0, [r0], {19}
     7b8:	13490005 	movtne	r0, #36869	; 0x9005
     7bc:	340d0000 	strcc	r0, [sp], #-0
     7c0:	3a0e0300 	bcc	3813c8 <__bss_end__+0x377088>
     7c4:	490b3b0b 	stmdbmi	fp, {r0, r1, r3, r8, r9, fp, ip, sp}
     7c8:	3c193f13 	ldccc	15, cr3, [r9], {19}
     7cc:	0e000019 	mcreq	0, 0, r0, cr0, cr9, {0}
     7d0:	193f012e 	ldmdbne	pc!, {r1, r2, r3, r5, r8}	; <UNPREDICTABLE>
     7d4:	0b3a0e03 	bleq	e83fe8 <__bss_end__+0xe79ca8>
     7d8:	19270b3b 	stmdbne	r7!, {r0, r1, r3, r4, r5, r8, r9, fp}
     7dc:	1301193c 	movwne	r1, #6460	; 0x193c
     7e0:	2e0f0000 	cdpcs	0, 0, cr0, cr15, cr0, {0}
     7e4:	03193f00 	tsteq	r9, #0, 30
     7e8:	3b0b3a0e 	blcc	2cf028 <__bss_end__+0x2c4ce8>
     7ec:	3c19270b 	ldccc	7, cr2, [r9], {11}
     7f0:	00000019 	andeq	r0, r0, r9, lsl r0
     7f4:	25011101 	strcs	r1, [r1, #-257]	; 0x101
     7f8:	030b130e 	movweq	r1, #45838	; 0xb30e
     7fc:	110e1b0e 	tstne	lr, lr, lsl #22
     800:	10061201 	andne	r1, r6, r1, lsl #4
     804:	02000017 	andeq	r0, r0, #23
     808:	0b0b0024 	bleq	2c08a0 <__bss_end__+0x2b6560>
     80c:	08030b3e 	stmdaeq	r3, {r1, r2, r3, r4, r5, r8, r9, fp}
     810:	24030000 	strcs	r0, [r3], #-0
     814:	3e0b0b00 	vmlacc.f64	d0, d11, d0
     818:	000e030b 	andeq	r0, lr, fp, lsl #6
     81c:	00160400 	andseq	r0, r6, r0, lsl #8
     820:	0b3a0e03 	bleq	e84034 <__bss_end__+0xe79cf4>
     824:	13490b3b 	movtne	r0, #39739	; 0x9b3b
     828:	0f050000 	svceq	0x00050000
     82c:	490b0b00 	stmdbmi	fp, {r8, r9, fp}
     830:	06000013 			; <UNDEFINED> instruction: 0x06000013
     834:	13490026 	movtne	r0, #36902	; 0x9026
     838:	13070000 	movwne	r0, #28672	; 0x7000
     83c:	3a0b0b01 	bcc	2c3448 <__bss_end__+0x2b9108>
     840:	010b3b0b 	tsteq	fp, fp, lsl #22
     844:	08000013 	stmdaeq	r0, {r0, r1, r4}
     848:	0803000d 	stmdaeq	r3, {r0, r2, r3}
     84c:	0b3b0b3a 	bleq	ec353c <__bss_end__+0xeb91fc>
     850:	0b381349 	bleq	e0557c <__bss_end__+0xdfb23c>
     854:	0d090000 	stceq	0, cr0, [r9, #-0]
     858:	3a0e0300 	bcc	381460 <__bss_end__+0x377120>
     85c:	490b3b0b 	stmdbmi	fp, {r0, r1, r3, r8, r9, fp, ip, sp}
     860:	000b3813 	andeq	r3, fp, r3, lsl r8
     864:	01040a00 	tsteq	r4, r0, lsl #20
     868:	0b3a0b0b 	bleq	e8349c <__bss_end__+0xe7915c>
     86c:	13010b3b 	movwne	r0, #6971	; 0x1b3b
     870:	280b0000 	stmdacs	fp, {}	; <UNPREDICTABLE>
     874:	1c0e0300 	stcne	3, cr0, [lr], {-0}
     878:	0c00000d 	stceq	0, cr0, [r0], {13}
     87c:	0e03012e 	adfeqsp	f0, f3, #0.5
     880:	0b3b0b3a 	bleq	ec3570 <__bss_end__+0xeb9230>
     884:	13491927 	movtne	r1, #39207	; 0x9927
     888:	06120111 			; <UNDEFINED> instruction: 0x06120111
     88c:	42971840 	addsmi	r1, r7, #64, 16	; 0x400000
     890:	00130119 	andseq	r0, r3, r9, lsl r1
     894:	00050d00 	andeq	r0, r5, r0, lsl #26
     898:	0b3a0803 	bleq	e828ac <__bss_end__+0xe7856c>
     89c:	13490b3b 	movtne	r0, #39739	; 0x9b3b
     8a0:	00001702 	andeq	r1, r0, r2, lsl #14
     8a4:	0182890e 	orreq	r8, r2, lr, lsl #18
     8a8:	31011101 	tstcc	r1, r1, lsl #2
     8ac:	0f000013 	svceq	0x00000013
     8b0:	0001828a 	andeq	r8, r1, sl, lsl #5
     8b4:	42911802 	addsmi	r1, r1, #131072	; 0x20000
     8b8:	10000018 	andne	r0, r0, r8, lsl r0
     8bc:	193f012e 	ldmdbne	pc!, {r1, r2, r3, r5, r8}	; <UNPREDICTABLE>
     8c0:	0b3a0e03 	bleq	e840d4 <__bss_end__+0xe79d94>
     8c4:	01110b3b 	tsteq	r1, fp, lsr fp
     8c8:	18400612 	stmdane	r0, {r1, r4, r9, sl}^
     8cc:	01194297 			; <UNDEFINED> instruction: 0x01194297
     8d0:	11000013 	tstne	r0, r3, lsl r0
     8d4:	0e030034 	mcreq	0, 0, r0, cr3, cr4, {1}
     8d8:	0b3b0b3a 	bleq	ec35c8 <__bss_end__+0xeb9288>
     8dc:	193f1349 	ldmdbne	pc!, {r0, r3, r6, r8, r9, ip}	; <UNPREDICTABLE>
     8e0:	0000193c 	andeq	r1, r0, ip, lsr r9
     8e4:	3f002e12 	svccc	0x00002e12
     8e8:	3a0e0319 	bcc	381554 <__bss_end__+0x377214>
     8ec:	270b3b0b 	strcs	r3, [fp, -fp, lsl #22]
     8f0:	00193c19 	andseq	r3, r9, r9, lsl ip
     8f4:	00341300 	eorseq	r1, r4, r0, lsl #6
     8f8:	0b3a0803 	bleq	e8290c <__bss_end__+0xe785cc>
     8fc:	13490b3b 	movtne	r0, #39739	; 0x9b3b
     900:	00001702 	andeq	r1, r0, r2, lsl #14
     904:	03003414 	movweq	r3, #1044	; 0x414
     908:	3b0b3a0e 	blcc	2cf148 <__bss_end__+0x2c4e08>
     90c:	0013490b 	andseq	r4, r3, fp, lsl #18
     910:	82891500 	addhi	r1, r9, #0, 10
     914:	01110001 	tsteq	r1, r1
     918:	00001331 	andeq	r1, r0, r1, lsr r3
     91c:	01828916 	orreq	r8, r2, r6, lsl r9
     920:	31011101 	tstcc	r1, r1, lsl #2
     924:	00130113 	andseq	r0, r3, r3, lsl r1
     928:	00341700 	eorseq	r1, r4, r0, lsl #14
     92c:	0b3a0e03 	bleq	e84140 <__bss_end__+0xe79e00>
     930:	13490b3b 	movtne	r0, #39739	; 0x9b3b
     934:	00001802 	andeq	r1, r0, r2, lsl #16
     938:	27011518 	smladcs	r1, r8, r5, r1
     93c:	01134919 	tsteq	r3, r9, lsl r9
     940:	19000013 	stmdbne	r0, {r0, r1, r4}
     944:	13490005 	movtne	r0, #36869	; 0x9005
     948:	2e1a0000 	cdpcs	0, 1, cr0, cr10, cr0, {0}
     94c:	03193f01 	tsteq	r9, #1, 30
     950:	3b0b3a0e 	blcc	2cf190 <__bss_end__+0x2c4e50>
     954:	3c19270b 	ldccc	7, cr2, [r9], {11}
     958:	00130119 	andseq	r0, r3, r9, lsl r1
     95c:	002e1b00 	eoreq	r1, lr, r0, lsl #22
     960:	0e03193f 	mcreq	9, 0, r1, cr3, cr15, {1}
     964:	0b3b0b3a 	bleq	ec3654 <__bss_end__+0xeb9314>
     968:	13491927 	movtne	r1, #39207	; 0x9927
     96c:	0000193c 	andeq	r1, r0, ip, lsr r9
     970:	3f012e1c 	svccc	0x00012e1c
     974:	3a0e0319 	bcc	3815e0 <__bss_end__+0x3772a0>
     978:	270b3b0b 	strcs	r3, [fp, -fp, lsl #22]
     97c:	3c134919 	ldccc	9, cr4, [r3], {25}
     980:	00130119 	andseq	r0, r3, r9, lsl r1
     984:	00181d00 	andseq	r1, r8, r0, lsl #26
     988:	01000000 	mrseq	r0, (UNDEF: 0)
     98c:	0e250111 	mcreq	1, 1, r0, cr5, cr1, {0}
     990:	0e030b13 	vmoveq.32	d3[0], r0
     994:	17550e1b 	smmlane	r5, fp, lr, r0
     998:	17100111 			; <UNDEFINED> instruction: 0x17100111
     99c:	24020000 	strcs	r0, [r2], #-0
     9a0:	3e0b0b00 	vmlacc.f64	d0, d11, d0
     9a4:	0008030b 	andeq	r0, r8, fp, lsl #6
     9a8:	00240300 	eoreq	r0, r4, r0, lsl #6
     9ac:	0b3e0b0b 	bleq	f835e0 <__bss_end__+0xf792a0>
     9b0:	00000e03 	andeq	r0, r0, r3, lsl #28
     9b4:	3f012e04 	svccc	0x00012e04
     9b8:	3a0e0319 	bcc	381624 <__bss_end__+0x3772e4>
     9bc:	270b3b0b 	strcs	r3, [fp, -fp, lsl #22]
     9c0:	11134919 	tstne	r3, r9, lsl r9
     9c4:	40061201 	andmi	r1, r6, r1, lsl #4
     9c8:	19429718 	stmdbne	r2, {r3, r4, r8, r9, sl, ip, pc}^
     9cc:	00001301 	andeq	r1, r0, r1, lsl #6
     9d0:	03003405 	movweq	r3, #1029	; 0x405
     9d4:	3b0b3a0e 	blcc	2cf214 <__bss_end__+0x2c4ed4>
     9d8:	0213490b 	andseq	r4, r3, #180224	; 0x2c000
     9dc:	06000017 			; <UNDEFINED> instruction: 0x06000017
     9e0:	193f012e 	ldmdbne	pc!, {r1, r2, r3, r5, r8}	; <UNPREDICTABLE>
     9e4:	0b3a0e03 	bleq	e841f8 <__bss_end__+0xe79eb8>
     9e8:	19270b3b 	stmdbne	r7!, {r0, r1, r3, r4, r5, r8, r9, fp}
     9ec:	06120111 			; <UNDEFINED> instruction: 0x06120111
     9f0:	42971840 	addsmi	r1, r7, #64, 16	; 0x400000
     9f4:	00130119 	andseq	r0, r3, r9, lsl r1
     9f8:	00340700 	eorseq	r0, r4, r0, lsl #14
     9fc:	0b3a0e03 	bleq	e84210 <__bss_end__+0xe79ed0>
     a00:	13490b3b 	movtne	r0, #39739	; 0x9b3b
     a04:	0000061c 	andeq	r0, r0, ip, lsl r6
     a08:	03003408 	movweq	r3, #1032	; 0x408
     a0c:	3b0b3a0e 	blcc	2cf24c <__bss_end__+0x2c4f0c>
     a10:	1c13490b 	ldcne	9, cr4, [r3], {11}
     a14:	0900000b 	stmdbeq	r0, {r0, r1, r3}
     a18:	00018289 	andeq	r8, r1, r9, lsl #5
     a1c:	13310111 	teqne	r1, #1073741828	; 0x40000004
     a20:	890a0000 	stmdbhi	sl, {}	; <UNPREDICTABLE>
     a24:	11010182 	smlabbne	r1, r2, r1, r0
     a28:	01133101 	tsteq	r3, r1, lsl #2
     a2c:	0b000013 	bleq	a80 <_start-0x7580>
     a30:	0001828a 	andeq	r8, r1, sl, lsl #5
     a34:	42911802 	addsmi	r1, r1, #131072	; 0x20000
     a38:	0c000018 	stceq	0, cr0, [r0], {24}
     a3c:	01018289 	smlabbeq	r1, r9, r2, r8
     a40:	13310111 	teqne	r1, #1073741828	; 0x40000004
     a44:	260d0000 	strcs	r0, [sp], -r0
     a48:	00134900 	andseq	r4, r3, r0, lsl #18
     a4c:	012e0e00 	teqeq	lr, r0, lsl #28
     a50:	0e03193f 	mcreq	9, 0, r1, cr3, cr15, {1}
     a54:	0b3b0b3a 	bleq	ec3744 <__bss_end__+0xeb9404>
     a58:	193c1927 	ldmdbne	ip!, {r0, r1, r2, r5, r8, fp, ip}
     a5c:	00001301 	andeq	r1, r0, r1, lsl #6
     a60:	4900050f 	stmdbmi	r0, {r0, r1, r2, r3, r8, sl}
     a64:	10000013 	andne	r0, r0, r3, lsl r0
     a68:	193f012e 	ldmdbne	pc!, {r1, r2, r3, r5, r8}	; <UNPREDICTABLE>
     a6c:	0b3a0e03 	bleq	e84280 <__bss_end__+0xe79f40>
     a70:	19270b3b 	stmdbne	r7!, {r0, r1, r3, r4, r5, r8, r9, fp}
     a74:	0000193c 	andeq	r1, r0, ip, lsr r9
     a78:	01110100 	tsteq	r1, r0, lsl #2
     a7c:	0b130e25 	bleq	4c4318 <__bss_end__+0x4b9fd8>
     a80:	0e1b0e03 	cdpeq	14, 1, cr0, cr11, cr3, {0}
     a84:	06120111 			; <UNDEFINED> instruction: 0x06120111
     a88:	00001710 	andeq	r1, r0, r0, lsl r7
     a8c:	0b002402 	bleq	9a9c <crc32_tab+0x1f0>
     a90:	030b3e0b 	movweq	r3, #48651	; 0xbe0b
     a94:	03000008 	movweq	r0, #8
     a98:	0b0b0024 	bleq	2c0b30 <__bss_end__+0x2b67f0>
     a9c:	0e030b3e 	vmoveq.16	d3[0], r0
     aa0:	2e040000 	cdpcs	0, 0, cr0, cr4, cr0, {0}
     aa4:	03193f01 	tsteq	r9, #1, 30
     aa8:	3b0b3a0e 	blcc	2cf2e8 <__bss_end__+0x2c4fa8>
     aac:	1119270b 	tstne	r9, fp, lsl #14
     ab0:	40061201 	andmi	r1, r6, r1, lsl #4
     ab4:	19429718 	stmdbne	r2, {r3, r4, r8, r9, sl, ip, pc}^
     ab8:	00001301 	andeq	r1, r0, r1, lsl #6
     abc:	03000505 	movweq	r0, #1285	; 0x505
     ac0:	3b0b3a0e 	blcc	2cf300 <__bss_end__+0x2c4fc0>
     ac4:	0213490b 	andseq	r4, r3, #180224	; 0x2c000
     ac8:	06000017 			; <UNDEFINED> instruction: 0x06000017
     acc:	193f012e 	ldmdbne	pc!, {r1, r2, r3, r5, r8}	; <UNPREDICTABLE>
     ad0:	0b3a0e03 	bleq	e842e4 <__bss_end__+0xe79fa4>
     ad4:	19270b3b 	stmdbne	r7!, {r0, r1, r3, r4, r5, r8, r9, fp}
     ad8:	01111349 	tsteq	r1, r9, asr #6
     adc:	18400612 	stmdane	r0, {r1, r4, r9, sl}^
     ae0:	01194297 			; <UNDEFINED> instruction: 0x01194297
     ae4:	07000013 	smladeq	r0, r3, r0, r0
     ae8:	01018289 	smlabbeq	r1, r9, r2, r8
     aec:	13310111 	teqne	r1, #1073741828	; 0x40000004
     af0:	8a080000 	bhi	200af8 <__bss_end__+0x1f67b8>
     af4:	02000182 	andeq	r0, r0, #-2147483616	; 0x80000020
     af8:	18429118 	stmdane	r2, {r3, r4, r8, ip, pc}^
     afc:	34090000 	strcc	r0, [r9], #-0
     b00:	3a080300 	bcc	201708 <__bss_end__+0x1f73c8>
     b04:	490b3b0b 	stmdbmi	fp, {r0, r1, r3, r8, r9, fp, ip, sp}
     b08:	00180213 	andseq	r0, r8, r3, lsl r2
     b0c:	82890a00 	addhi	r0, r9, #0, 20
     b10:	01110001 	tsteq	r1, r1
     b14:	00001331 	andeq	r1, r0, r1, lsr r3
     b18:	0300050b 	movweq	r0, #1291	; 0x50b
     b1c:	3b0b3a08 	blcc	2cf344 <__bss_end__+0x2c5004>
     b20:	0213490b 	andseq	r4, r3, #180224	; 0x2c000
     b24:	0c000017 	stceq	0, cr0, [r0], {23}
     b28:	0111010b 	tsteq	r1, fp, lsl #2
     b2c:	13010612 	movwne	r0, #5650	; 0x1612
     b30:	340d0000 	strcc	r0, [sp], #-0
     b34:	3a080300 	bcc	20173c <__bss_end__+0x1f73fc>
     b38:	490b3b0b 	stmdbmi	fp, {r0, r1, r3, r8, r9, fp, ip, sp}
     b3c:	00170213 	andseq	r0, r7, r3, lsl r2
     b40:	012e0e00 	teqeq	lr, r0, lsl #28
     b44:	0e03193f 	mcreq	9, 0, r1, cr3, cr15, {1}
     b48:	0b3b0b3a 	bleq	ec3838 <__bss_end__+0xeb94f8>
     b4c:	13491927 	movtne	r1, #39207	; 0x9927
     b50:	0000193c 	andeq	r1, r0, ip, lsr r9
     b54:	4900050f 	stmdbmi	r0, {r0, r1, r2, r3, r8, sl}
     b58:	00000013 	andeq	r0, r0, r3, lsl r0
     b5c:	25011101 	strcs	r1, [r1, #-257]	; 0x101
     b60:	030b130e 	movweq	r1, #45838	; 0xb30e
     b64:	110e1b0e 	tstne	lr, lr, lsl #22
     b68:	10061201 	andne	r1, r6, r1, lsl #4
     b6c:	02000017 	andeq	r0, r0, #23
     b70:	0b0b0024 	bleq	2c0c08 <__bss_end__+0x2b68c8>
     b74:	08030b3e 	stmdaeq	r3, {r1, r2, r3, r4, r5, r8, r9, fp}
     b78:	24030000 	strcs	r0, [r3], #-0
     b7c:	3e0b0b00 	vmlacc.f64	d0, d11, d0
     b80:	000e030b 	andeq	r0, lr, fp, lsl #6
     b84:	00160400 	andseq	r0, r6, r0, lsl #8
     b88:	0b3a0e03 	bleq	e8439c <__bss_end__+0xe7a05c>
     b8c:	13490b3b 	movtne	r0, #39739	; 0x9b3b
     b90:	0f050000 	svceq	0x00050000
     b94:	000b0b00 	andeq	r0, fp, r0, lsl #22
     b98:	000f0600 	andeq	r0, pc, r0, lsl #12
     b9c:	13490b0b 	movtne	r0, #39691	; 0x9b0b
     ba0:	26070000 	strcs	r0, [r7], -r0
     ba4:	00134900 	andseq	r4, r3, r0, lsl #18
     ba8:	01130800 	tsteq	r3, r0, lsl #16
     bac:	0b3a0b0b 	bleq	e837e0 <__bss_end__+0xe794a0>
     bb0:	13010b3b 	movwne	r0, #6971	; 0x1b3b
     bb4:	0d090000 	stceq	0, cr0, [r9, #-0]
     bb8:	3a080300 	bcc	2017c0 <__bss_end__+0x1f7480>
     bbc:	490b3b0b 	stmdbmi	fp, {r0, r1, r3, r8, r9, fp, ip, sp}
     bc0:	000b3813 	andeq	r3, fp, r3, lsl r8
     bc4:	000d0a00 	andeq	r0, sp, r0, lsl #20
     bc8:	0b3a0e03 	bleq	e843dc <__bss_end__+0xe7a09c>
     bcc:	13490b3b 	movtne	r0, #39739	; 0x9b3b
     bd0:	00000b38 	andeq	r0, r0, r8, lsr fp
     bd4:	0301130b 	movweq	r1, #4875	; 0x130b
     bd8:	3a0b0b0e 	bcc	2c3818 <__bss_end__+0x2b94d8>
     bdc:	010b3b0b 	tsteq	fp, fp, lsl #22
     be0:	0c000013 	stceq	0, cr0, [r0], {19}
     be4:	0e03000d 	cdpeq	0, 0, cr0, cr3, cr13, {0}
     be8:	0b381349 	bleq	e05914 <__bss_end__+0xdfb5d4>
     bec:	00001934 	andeq	r1, r0, r4, lsr r9
     bf0:	03012e0d 	movweq	r2, #7693	; 0x1e0d
     bf4:	3b0b3a0e 	blcc	2cf434 <__bss_end__+0x2c50f4>
     bf8:	2019270b 	andscs	r2, r9, fp, lsl #14
     bfc:	0013010b 	andseq	r0, r3, fp, lsl #2
     c00:	00050e00 	andeq	r0, r5, r0, lsl #28
     c04:	0b3a0e03 	bleq	e84418 <__bss_end__+0xe7a0d8>
     c08:	13490b3b 	movtne	r0, #39739	; 0x9b3b
     c0c:	050f0000 	streq	r0, [pc, #-0]	; c14 <_start-0x73ec>
     c10:	3a080300 	bcc	201818 <__bss_end__+0x1f74d8>
     c14:	490b3b0b 	stmdbmi	fp, {r0, r1, r3, r8, r9, fp, ip, sp}
     c18:	10000013 	andne	r0, r0, r3, lsl r0
     c1c:	0000010b 	andeq	r0, r0, fp, lsl #2
     c20:	03003411 	movweq	r3, #1041	; 0x411
     c24:	3b0b3a0e 	blcc	2cf464 <__bss_end__+0x2c5124>
     c28:	0013490b 	andseq	r4, r3, fp, lsl #18
     c2c:	012e1200 	teqeq	lr, r0, lsl #4
     c30:	0e03193f 	mcreq	9, 0, r1, cr3, cr15, {1}
     c34:	0b3b0b3a 	bleq	ec3924 <__bss_end__+0xeb95e4>
     c38:	01111927 	tsteq	r1, r7, lsr #18
     c3c:	18400612 	stmdane	r0, {r1, r4, r9, sl}^
     c40:	01194297 			; <UNDEFINED> instruction: 0x01194297
     c44:	13000013 	movwne	r0, #19
     c48:	0e030005 	cdpeq	0, 0, cr0, cr3, cr5, {0}
     c4c:	0b3b0b3a 	bleq	ec393c <__bss_end__+0xeb95fc>
     c50:	17021349 	strne	r1, [r2, -r9, asr #6]
     c54:	05140000 	ldreq	r0, [r4, #-0]
     c58:	3a080300 	bcc	201860 <__bss_end__+0x1f7520>
     c5c:	490b3b0b 	stmdbmi	fp, {r0, r1, r3, r8, r9, fp, ip, sp}
     c60:	00170213 	andseq	r0, r7, r3, lsl r2
     c64:	00341500 	eorseq	r1, r4, r0, lsl #10
     c68:	0b3a0803 	bleq	e82c7c <__bss_end__+0xe7893c>
     c6c:	13490b3b 	movtne	r0, #39739	; 0x9b3b
     c70:	00001802 	andeq	r1, r0, r2, lsl #16
     c74:	03003416 	movweq	r3, #1046	; 0x416
     c78:	3b0b3a08 	blcc	2cf4a0 <__bss_end__+0x2c5160>
     c7c:	0213490b 	andseq	r4, r3, #180224	; 0x2c000
     c80:	17000017 	smladne	r0, r7, r0, r0
     c84:	0111010b 	tsteq	r1, fp, lsl #2
     c88:	13010612 	movwne	r0, #5650	; 0x1612
     c8c:	34180000 	ldrcc	r0, [r8], #-0
     c90:	3a0e0300 	bcc	381898 <__bss_end__+0x377558>
     c94:	490b3b0b 	stmdbmi	fp, {r0, r1, r3, r8, r9, fp, ip, sp}
     c98:	00180213 	andseq	r0, r8, r3, lsl r2
     c9c:	011d1900 	tsteq	sp, r0, lsl #18
     ca0:	01111331 	tsteq	r1, r1, lsr r3
     ca4:	0b580612 	bleq	16024f4 <__bss_end__+0x15f81b4>
     ca8:	13010b59 	movwne	r0, #7001	; 0x1b59
     cac:	051a0000 	ldreq	r0, [sl, #-0]
     cb0:	02133100 	andseq	r3, r3, #0, 2
     cb4:	1b000017 	blne	d18 <_start-0x72e8>
     cb8:	13310005 	teqne	r1, #5
     cbc:	00001802 	andeq	r1, r0, r2, lsl #16
     cc0:	3100051c 	tstcc	r0, ip, lsl r5
     cc4:	000b1c13 	andeq	r1, fp, r3, lsl ip
     cc8:	010b1d00 	tsteq	fp, r0, lsl #26
     ccc:	06120111 			; <UNDEFINED> instruction: 0x06120111
     cd0:	341e0000 	ldrcc	r0, [lr], #-0
     cd4:	02133100 	andseq	r3, r3, #0, 2
     cd8:	1f000017 	svcne	0x00000017
     cdc:	01018289 	smlabbeq	r1, r9, r2, r8
     ce0:	13310111 	teqne	r1, #1073741828	; 0x40000004
     ce4:	8a200000 	bhi	800cec <__bss_end__+0x7f69ac>
     ce8:	02000182 	andeq	r0, r0, #-2147483616	; 0x80000020
     cec:	18429118 	stmdane	r2, {r3, r4, r8, ip, pc}^
     cf0:	1d210000 	stcne	0, cr0, [r1, #-0]
     cf4:	11133101 	tstne	r3, r1, lsl #2
     cf8:	58061201 	stmdapl	r6, {r0, r9, ip}
     cfc:	000b590b 	andeq	r5, fp, fp, lsl #18
     d00:	012e2200 	teqeq	lr, r0, lsl #4
     d04:	0b3a0e03 	bleq	e84518 <__bss_end__+0xe7a1d8>
     d08:	19270b3b 	stmdbne	r7!, {r0, r1, r3, r4, r5, r8, r9, fp}
     d0c:	0b201349 	bleq	805a38 <__bss_end__+0x7fb6f8>
     d10:	00001301 	andeq	r1, r0, r1, lsl #6
     d14:	3f012e23 	svccc	0x00012e23
     d18:	3a0e0319 	bcc	381984 <__bss_end__+0x377644>
     d1c:	270b3b0b 	strcs	r3, [fp, -fp, lsl #22]
     d20:	11134919 	tstne	r3, r9, lsl r9
     d24:	40061201 	andmi	r1, r6, r1, lsl #4
     d28:	19429718 	stmdbne	r2, {r3, r4, r8, r9, sl, ip, pc}^
     d2c:	00001301 	andeq	r1, r0, r1, lsl #6
     d30:	01828924 	orreq	r8, r2, r4, lsr #18
     d34:	31011100 	mrscc	r1, (UNDEF: 17)
     d38:	25000013 	strcs	r0, [r0, #-19]
     d3c:	01018289 	smlabbeq	r1, r9, r2, r8
     d40:	13310111 	teqne	r1, #1073741828	; 0x40000004
     d44:	00001301 	andeq	r1, r0, r1, lsl #6
     d48:	03003426 	movweq	r3, #1062	; 0x426
     d4c:	3b0b3a0e 	blcc	2cf58c <__bss_end__+0x2c524c>
     d50:	0213490b 	andseq	r4, r3, #180224	; 0x2c000
     d54:	27000017 	smladcs	r0, r7, r0, r0
     d58:	13310005 	teqne	r1, #5
     d5c:	05280000 	streq	r0, [r8, #-0]!
     d60:	3a0e0300 	bcc	381968 <__bss_end__+0x377628>
     d64:	490b3b0b 	stmdbmi	fp, {r0, r1, r3, r8, r9, fp, ip, sp}
     d68:	00180213 	andseq	r0, r8, r3, lsl r2
     d6c:	00342900 	eorseq	r2, r4, r0, lsl #18
     d70:	13490e03 	movtne	r0, #40451	; 0x9e03
     d74:	18021934 	stmdane	r2, {r2, r4, r5, r8, fp, ip}
     d78:	012a0000 	teqeq	sl, r0
     d7c:	01134901 	tsteq	r3, r1, lsl #18
     d80:	2b000013 	blcs	dd4 <_start-0x722c>
     d84:	13490021 	movtne	r0, #36897	; 0x9021
     d88:	00000b2f 	andeq	r0, r0, pc, lsr #22
     d8c:	0300342c 	movweq	r3, #1068	; 0x42c
     d90:	3b0b3a08 	blcc	2cf5b8 <__bss_end__+0x2c5278>
     d94:	1c13490b 	ldcne	9, cr4, [r3], {11}
     d98:	2d000006 	stccs	0, cr0, [r0, #-24]	; 0xffffffe8
     d9c:	08030034 	stmdaeq	r3, {r2, r4, r5}
     da0:	0b3b0b3a 	bleq	ec3a90 <__bss_end__+0xeb9750>
     da4:	0b1c1349 	bleq	705ad0 <__bss_end__+0x6fb790>
     da8:	052e0000 	streq	r0, [lr, #-0]!
     dac:	3a080300 	bcc	2019b4 <__bss_end__+0x1f7674>
     db0:	490b3b0b 	stmdbmi	fp, {r0, r1, r3, r8, r9, fp, ip, sp}
     db4:	00180213 	andseq	r0, r8, r3, lsl r2
     db8:	00182f00 	andseq	r2, r8, r0, lsl #30
     dbc:	21300000 	teqcs	r0, r0
     dc0:	2f134900 	svccs	0x00134900
     dc4:	31000005 	tstcc	r0, r5
     dc8:	193f012e 	ldmdbne	pc!, {r1, r2, r3, r5, r8}	; <UNPREDICTABLE>
     dcc:	0b3a0e03 	bleq	e845e0 <__bss_end__+0xe7a2a0>
     dd0:	19270b3b 	stmdbne	r7!, {r0, r1, r3, r4, r5, r8, r9, fp}
     dd4:	1301193c 	movwne	r1, #6460	; 0x193c
     dd8:	05320000 	ldreq	r0, [r2, #-0]!
     ddc:	00134900 	andseq	r4, r3, r0, lsl #18
     de0:	002e3300 	eoreq	r3, lr, r0, lsl #6
     de4:	0e03193f 	mcreq	9, 0, r1, cr3, cr15, {1}
     de8:	0b3b0b3a 	bleq	ec3ad8 <__bss_end__+0xeb9798>
     dec:	13491927 	movtne	r1, #39207	; 0x9927
     df0:	0000193c 	andeq	r1, r0, ip, lsr r9
     df4:	3f012e34 	svccc	0x00012e34
     df8:	3a0e0319 	bcc	381a64 <__bss_end__+0x377724>
     dfc:	270b3b0b 	strcs	r3, [fp, -fp, lsl #22]
     e00:	3c134919 	ldccc	9, cr4, [r3], {25}
     e04:	00130119 	andseq	r0, r3, r9, lsl r1
     e08:	002e3500 	eoreq	r3, lr, r0, lsl #10
     e0c:	0e03193f 	mcreq	9, 0, r1, cr3, cr15, {1}
     e10:	0b3b0b3a 	bleq	ec3b00 <__bss_end__+0xeb97c0>
     e14:	193c1927 	ldmdbne	ip!, {r0, r1, r2, r5, r8, fp, ip}
     e18:	2e360000 	cdpcs	0, 3, cr0, cr6, cr0, {0}
     e1c:	03193f01 	tsteq	r9, #1, 30
     e20:	3b0b3a0e 	blcc	2cf660 <__bss_end__+0x2c5320>
     e24:	4919270b 	ldmdbmi	r9, {r0, r1, r3, r8, r9, sl, sp}
     e28:	00193c13 	andseq	r3, r9, r3, lsl ip
     e2c:	11010000 	mrsne	r0, (UNDEF: 1)
     e30:	130e2501 	movwne	r2, #58625	; 0xe501
     e34:	1b0e030b 	blne	381a68 <__bss_end__+0x377728>
     e38:	1201110e 	andne	r1, r1, #-2147483645	; 0x80000003
     e3c:	00171006 	andseq	r1, r7, r6
     e40:	00240200 	eoreq	r0, r4, r0, lsl #4
     e44:	0b3e0b0b 	bleq	f83a78 <__bss_end__+0xf79738>
     e48:	00000803 	andeq	r0, r0, r3, lsl #16
     e4c:	0b002403 	bleq	9e60 <__FUNCTION__.4327+0x14>
     e50:	030b3e0b 	movweq	r3, #48651	; 0xbe0b
     e54:	0400000e 	streq	r0, [r0], #-14
     e58:	0b0b0104 	bleq	2c1270 <__bss_end__+0x2b6f30>
     e5c:	0b3b0b3a 	bleq	ec3b4c <__bss_end__+0xeb980c>
     e60:	00001301 	andeq	r1, r0, r1, lsl #6
     e64:	03002805 	movweq	r2, #2053	; 0x805
     e68:	000d1c0e 	andeq	r1, sp, lr, lsl #24
     e6c:	00160600 	andseq	r0, r6, r0, lsl #12
     e70:	0b3a0e03 	bleq	e84684 <__bss_end__+0xe7a344>
     e74:	13490b3b 	movtne	r0, #39739	; 0x9b3b
     e78:	2e070000 	cdpcs	0, 0, cr0, cr7, cr0, {0}
     e7c:	03193f01 	tsteq	r9, #1, 30
     e80:	3b0b3a0e 	blcc	2cf6c0 <__bss_end__+0x2c5380>
     e84:	1119270b 	tstne	r9, fp, lsl #14
     e88:	40061201 	andmi	r1, r6, r1, lsl #4
     e8c:	19429718 	stmdbne	r2, {r3, r4, r8, r9, sl, ip, pc}^
     e90:	00001301 	andeq	r1, r0, r1, lsl #6
     e94:	01828908 	orreq	r8, r2, r8, lsl #18
     e98:	31011100 	mrscc	r1, (UNDEF: 17)
     e9c:	09000013 	stmdbeq	r0, {r0, r1, r4}
     ea0:	01018289 	smlabbeq	r1, r9, r2, r8
     ea4:	13310111 	teqne	r1, #1073741828	; 0x40000004
     ea8:	00001301 	andeq	r1, r0, r1, lsl #6
     eac:	01828a0a 	orreq	r8, r2, sl, lsl #20
     eb0:	91180200 	tstls	r8, r0, lsl #4
     eb4:	00001842 	andeq	r1, r0, r2, asr #16
     eb8:	3f012e0b 	svccc	0x00012e0b
     ebc:	3a0e0319 	bcc	381b28 <__bss_end__+0x3777e8>
     ec0:	270b3b0b 	strcs	r3, [fp, -fp, lsl #22]
     ec4:	11134919 	tstne	r3, r9, lsl r9
     ec8:	40061201 	andmi	r1, r6, r1, lsl #4
     ecc:	19429718 	stmdbne	r2, {r3, r4, r8, r9, sl, ip, pc}^
     ed0:	00001301 	andeq	r1, r0, r1, lsl #6
     ed4:	0300050c 	movweq	r0, #1292	; 0x50c
     ed8:	3b0b3a08 	blcc	2cf700 <__bss_end__+0x2c53c0>
     edc:	0213490b 	andseq	r4, r3, #180224	; 0x2c000
     ee0:	0d000017 	stceq	0, cr0, [r0, #-92]	; 0xffffffa4
     ee4:	01018289 	smlabbeq	r1, r9, r2, r8
     ee8:	13310111 	teqne	r1, #1073741828	; 0x40000004
     eec:	340e0000 	strcc	r0, [lr], #-0
     ef0:	3a0e0300 	bcc	381af8 <__bss_end__+0x3777b8>
     ef4:	490b3b0b 	stmdbmi	fp, {r0, r1, r3, r8, r9, fp, ip, sp}
     ef8:	02193f13 	andseq	r3, r9, #19, 30	; 0x4c
     efc:	0f000018 	svceq	0x00000018
     f00:	0b0b000f 	bleq	2c0f44 <__bss_end__+0x2b6c04>
     f04:	00001349 	andeq	r1, r0, r9, asr #6
     f08:	49003510 	stmdbmi	r0, {r4, r8, sl, ip, sp}
     f0c:	11000013 	tstne	r0, r3, lsl r0
     f10:	193f002e 	ldmdbne	pc!, {r1, r2, r3, r5}	; <UNPREDICTABLE>
     f14:	0b3a0e03 	bleq	e84728 <__bss_end__+0xe7a3e8>
     f18:	19270b3b 	stmdbne	r7!, {r0, r1, r3, r4, r5, r8, r9, fp}
     f1c:	0000193c 	andeq	r1, r0, ip, lsr r9
     f20:	3f012e12 	svccc	0x00012e12
     f24:	3a0e0319 	bcc	381b90 <__bss_end__+0x377850>
     f28:	270b3b0b 	strcs	r3, [fp, -fp, lsl #22]
     f2c:	01193c19 	tsteq	r9, r9, lsl ip
     f30:	13000013 	movwne	r0, #19
     f34:	13490005 	movtne	r0, #36869	; 0x9005
     f38:	2e140000 	cdpcs	0, 1, cr0, cr4, cr0, {0}
     f3c:	03193f01 	tsteq	r9, #1, 30
     f40:	3b0b3a0e 	blcc	2cf780 <__bss_end__+0x2c5440>
     f44:	4919270b 	ldmdbmi	r9, {r0, r1, r3, r8, r9, sl, sp}
     f48:	01193c13 	tsteq	r9, r3, lsl ip
     f4c:	15000013 	strne	r0, [r0, #-19]
     f50:	13490026 	movtne	r0, #36902	; 0x9026
     f54:	35160000 	ldrcc	r0, [r6, #-0]
     f58:	00000000 	andeq	r0, r0, r0
     f5c:	25011101 	strcs	r1, [r1, #-257]	; 0x101
     f60:	030b130e 	movweq	r1, #45838	; 0xb30e
     f64:	110e1b0e 	tstne	lr, lr, lsl #22
     f68:	10061201 	andne	r1, r6, r1, lsl #4
     f6c:	02000017 	andeq	r0, r0, #23
     f70:	0b0b0024 	bleq	2c1008 <__bss_end__+0x2b6cc8>
     f74:	0e030b3e 	vmoveq.16	d3[0], r0
     f78:	24030000 	strcs	r0, [r3], #-0
     f7c:	3e0b0b00 	vmlacc.f64	d0, d11, d0
     f80:	0008030b 	andeq	r0, r8, fp, lsl #6
     f84:	01040400 	tsteq	r4, r0, lsl #8
     f88:	0b3a0b0b 	bleq	e83bbc <__bss_end__+0xe7987c>
     f8c:	13010b3b 	movwne	r0, #6971	; 0x1b3b
     f90:	28050000 	stmdacs	r5, {}	; <UNPREDICTABLE>
     f94:	1c0e0300 	stcne	3, cr0, [lr], {-0}
     f98:	0600000d 	streq	r0, [r0], -sp
     f9c:	0e030016 	mcreq	0, 0, r0, cr3, cr6, {0}
     fa0:	0b3b0b3a 	bleq	ec3c90 <__bss_end__+0xeb9950>
     fa4:	00001349 	andeq	r1, r0, r9, asr #6
     fa8:	3f012e07 	svccc	0x00012e07
     fac:	3a0e0319 	bcc	381c18 <__bss_end__+0x3778d8>
     fb0:	270b3b0b 	strcs	r3, [fp, -fp, lsl #22]
     fb4:	12011119 	andne	r1, r1, #1073741830	; 0x40000006
     fb8:	97184006 	ldrls	r4, [r8, -r6]
     fbc:	13011942 	movwne	r1, #6466	; 0x1942
     fc0:	05080000 	streq	r0, [r8, #-0]
     fc4:	3a080300 	bcc	201bcc <__bss_end__+0x1f788c>
     fc8:	490b3b0b 	stmdbmi	fp, {r0, r1, r3, r8, r9, fp, ip, sp}
     fcc:	00170213 	andseq	r0, r7, r3, lsl r2
     fd0:	00340900 	eorseq	r0, r4, r0, lsl #18
     fd4:	0b3a0e03 	bleq	e847e8 <__bss_end__+0xe7a4a8>
     fd8:	13490b3b 	movtne	r0, #39739	; 0x9b3b
     fdc:	00001702 	andeq	r1, r0, r2, lsl #14
     fe0:	0182890a 	orreq	r8, r2, sl, lsl #18
     fe4:	31011101 	tstcc	r1, r1, lsl #2
     fe8:	00130113 	andseq	r0, r3, r3, lsl r1
     fec:	828a0b00 	addhi	r0, sl, #0, 22
     ff0:	18020001 	stmdane	r2, {r0}
     ff4:	00184291 	mulseq	r8, r1, r2
     ff8:	82890c00 	addhi	r0, r9, #0, 24
     ffc:	01110101 	tsteq	r1, r1, lsl #2
    1000:	00001331 	andeq	r1, r0, r1, lsr r3
    1004:	0b000f0d 	bleq	4c40 <_start-0x33c0>
    1008:	0013490b 	andseq	r4, r3, fp, lsl #18
    100c:	00350e00 	eorseq	r0, r5, r0, lsl #28
    1010:	00001349 	andeq	r1, r0, r9, asr #6
    1014:	3f012e0f 	svccc	0x00012e0f
    1018:	3a0e0319 	bcc	381c84 <__bss_end__+0x377944>
    101c:	270b3b0b 	strcs	r3, [fp, -fp, lsl #22]
    1020:	11134919 	tstne	r3, r9, lsl r9
    1024:	40061201 	andmi	r1, r6, r1, lsl #4
    1028:	19429718 	stmdbne	r2, {r3, r4, r8, r9, sl, ip, pc}^
    102c:	00001301 	andeq	r1, r0, r1, lsl #6
    1030:	03003410 	movweq	r3, #1040	; 0x410
    1034:	3b0b3a08 	blcc	2cf85c <__bss_end__+0x2c551c>
    1038:	0213490b 	andseq	r4, r3, #180224	; 0x2c000
    103c:	11000017 	tstne	r0, r7, lsl r0
    1040:	00018289 	andeq	r8, r1, r9, lsl #5
    1044:	13310111 	teqne	r1, #1073741828	; 0x40000004
    1048:	05120000 	ldreq	r0, [r2, #-0]
    104c:	3a0e0300 	bcc	381c54 <__bss_end__+0x377914>
    1050:	490b3b0b 	stmdbmi	fp, {r0, r1, r3, r8, r9, fp, ip, sp}
    1054:	00170213 	andseq	r0, r7, r3, lsl r2
    1058:	012e1300 	teqeq	lr, r0, lsl #6
    105c:	0e03193f 	mcreq	9, 0, r1, cr3, cr15, {1}
    1060:	053b0b3a 	ldreq	r0, [fp, #-2874]!	; 0xb3a
    1064:	13491927 	movtne	r1, #39207	; 0x9927
    1068:	06120111 			; <UNDEFINED> instruction: 0x06120111
    106c:	42971840 	addsmi	r1, r7, #64, 16	; 0x400000
    1070:	00130119 	andseq	r0, r3, r9, lsl r1
    1074:	00051400 	andeq	r1, r5, r0, lsl #8
    1078:	0b3a0e03 	bleq	e8488c <__bss_end__+0xe7a54c>
    107c:	1349053b 	movtne	r0, #38203	; 0x953b
    1080:	00001702 	andeq	r1, r0, r2, lsl #14
    1084:	3f012e15 	svccc	0x00012e15
    1088:	3a0e0319 	bcc	381cf4 <__bss_end__+0x3779b4>
    108c:	27053b0b 	strcs	r3, [r5, -fp, lsl #22]
    1090:	12011119 	andne	r1, r1, #1073741830	; 0x40000006
    1094:	97184006 	ldrls	r4, [r8, -r6]
    1098:	13011942 	movwne	r1, #6466	; 0x1942
    109c:	05160000 	ldreq	r0, [r6, #-0]
    10a0:	3a080300 	bcc	201ca8 <__bss_end__+0x1f7968>
    10a4:	49053b0b 	stmdbmi	r5, {r0, r1, r3, r8, r9, fp, ip, sp}
    10a8:	00170213 	andseq	r0, r7, r3, lsl r2
    10ac:	00341700 	eorseq	r1, r4, r0, lsl #14
    10b0:	0b3a0e03 	bleq	e848c4 <__bss_end__+0xe7a584>
    10b4:	1349053b 	movtne	r0, #38203	; 0x953b
    10b8:	00001702 	andeq	r1, r0, r2, lsl #14
    10bc:	11010b18 	tstne	r1, r8, lsl fp
    10c0:	01061201 	tsteq	r6, r1, lsl #4
    10c4:	19000013 	stmdbne	r0, {r0, r1, r4}
    10c8:	0e030034 	mcreq	0, 0, r0, cr3, cr4, {1}
    10cc:	0b3b0b3a 	bleq	ec3dbc <__bss_end__+0xeb9a7c>
    10d0:	193f1349 	ldmdbne	pc!, {r0, r3, r6, r8, r9, ip}	; <UNPREDICTABLE>
    10d4:	00001802 	andeq	r1, r0, r2, lsl #16
    10d8:	3f012e1a 	svccc	0x00012e1a
    10dc:	3a0e0319 	bcc	381d48 <__bss_end__+0x377a08>
    10e0:	270b3b0b 	strcs	r3, [fp, -fp, lsl #22]
    10e4:	3c134919 	ldccc	9, cr4, [r3], {25}
    10e8:	00130119 	andseq	r0, r3, r9, lsl r1
    10ec:	00051b00 	andeq	r1, r5, r0, lsl #22
    10f0:	00001349 	andeq	r1, r0, r9, asr #6
    10f4:	4900261c 	stmdbmi	r0, {r2, r3, r4, r9, sl, sp}
    10f8:	1d000013 	stcne	0, cr0, [r0, #-76]	; 0xffffffb4
    10fc:	00000035 	andeq	r0, r0, r5, lsr r0
    1100:	3f012e1e 	svccc	0x00012e1e
    1104:	3a0e0319 	bcc	381d70 <__bss_end__+0x377a30>
    1108:	270b3b0b 	strcs	r3, [fp, -fp, lsl #22]
    110c:	01193c19 	tsteq	r9, r9, lsl ip
    1110:	1f000013 	svcne	0x00000013
    1114:	193f002e 	ldmdbne	pc!, {r1, r2, r3, r5}	; <UNPREDICTABLE>
    1118:	0b3a0e03 	bleq	e8492c <__bss_end__+0xe7a5ec>
    111c:	19270b3b 	stmdbne	r7!, {r0, r1, r3, r4, r5, r8, r9, fp}
    1120:	0000193c 	andeq	r1, r0, ip, lsr r9
    1124:	01110100 	tsteq	r1, r0, lsl #2
    1128:	0b130e25 	bleq	4c49c4 <__bss_end__+0x4ba684>
    112c:	0e1b0e03 	cdpeq	14, 1, cr0, cr11, cr3, {0}
    1130:	06120111 			; <UNDEFINED> instruction: 0x06120111
    1134:	00001710 	andeq	r1, r0, r0, lsl r7
    1138:	0b002402 	bleq	a148 <__bss_start__+0x214>
    113c:	030b3e0b 	movweq	r3, #48651	; 0xbe0b
    1140:	03000008 	movweq	r0, #8
    1144:	0e030016 	mcreq	0, 0, r0, cr3, cr6, {0}
    1148:	0b3b0b3a 	bleq	ec3e38 <__bss_end__+0xeb9af8>
    114c:	00001349 	andeq	r1, r0, r9, asr #6
    1150:	0b002404 	bleq	a168 <__bss_start__+0x234>
    1154:	030b3e0b 	movweq	r3, #48651	; 0xbe0b
    1158:	0500000e 	streq	r0, [r0, #-14]
    115c:	0b0b000f 	bleq	2c11a0 <__bss_end__+0x2b6e60>
    1160:	13060000 	movwne	r0, #24576	; 0x6000
    1164:	3a0b0b01 	bcc	2c3d70 <__bss_end__+0x2b9a30>
    1168:	010b3b0b 	tsteq	fp, fp, lsl #22
    116c:	07000013 	smladeq	r0, r3, r0, r0
    1170:	0803000d 	stmdaeq	r3, {r0, r2, r3}
    1174:	0b3b0b3a 	bleq	ec3e64 <__bss_end__+0xeb9b24>
    1178:	0b381349 	bleq	e05ea4 <__bss_end__+0xdfbb64>
    117c:	0d080000 	stceq	0, cr0, [r8, #-0]
    1180:	3a0e0300 	bcc	381d88 <__bss_end__+0x377a48>
    1184:	490b3b0b 	stmdbmi	fp, {r0, r1, r3, r8, r9, fp, ip, sp}
    1188:	000b3813 	andeq	r3, fp, r3, lsl r8
    118c:	01040900 	tsteq	r4, r0, lsl #18
    1190:	0b3a0b0b 	bleq	e83dc4 <__bss_end__+0xe79a84>
    1194:	13010b3b 	movwne	r0, #6971	; 0x1b3b
    1198:	280a0000 	stmdacs	sl, {}	; <UNPREDICTABLE>
    119c:	1c0e0300 	stcne	3, cr0, [lr], {-0}
    11a0:	0b00000d 	bleq	11dc <_start-0x6e24>
    11a4:	193f012e 	ldmdbne	pc!, {r1, r2, r3, r5, r8}	; <UNPREDICTABLE>
    11a8:	0b3a0e03 	bleq	e849bc <__bss_end__+0xe7a67c>
    11ac:	19270b3b 	stmdbne	r7!, {r0, r1, r3, r4, r5, r8, r9, fp}
    11b0:	01111349 	tsteq	r1, r9, asr #6
    11b4:	18400612 	stmdane	r0, {r1, r4, r9, sl}^
    11b8:	01194297 			; <UNDEFINED> instruction: 0x01194297
    11bc:	0c000013 	stceq	0, cr0, [r0], {19}
    11c0:	08030034 	stmdaeq	r3, {r2, r4, r5}
    11c4:	0b3b0b3a 	bleq	ec3eb4 <__bss_end__+0xeb9b74>
    11c8:	061c1349 	ldreq	r1, [ip], -r9, asr #6
    11cc:	890d0000 	stmdbhi	sp, {}	; <UNPREDICTABLE>
    11d0:	11010182 	smlabbne	r1, r2, r1, r0
    11d4:	00133101 	andseq	r3, r3, r1, lsl #2
    11d8:	828a0e00 	addhi	r0, sl, #0, 28
    11dc:	18020001 	stmdane	r2, {r0}
    11e0:	00184291 	mulseq	r8, r1, r2
    11e4:	000f0f00 	andeq	r0, pc, r0, lsl #30
    11e8:	13490b0b 	movtne	r0, #39691	; 0x9b0b
    11ec:	2e100000 	cdpcs	0, 1, cr0, cr0, cr0, {0}
    11f0:	03193f01 	tsteq	r9, #1, 30
    11f4:	3b0b3a0e 	blcc	2cfa34 <__bss_end__+0x2c56f4>
    11f8:	4919270b 	ldmdbmi	r9, {r0, r1, r3, r8, r9, sl, sp}
    11fc:	00193c13 	andseq	r3, r9, r3, lsl ip
    1200:	00051100 	andeq	r1, r5, r0, lsl #2
    1204:	00001349 	andeq	r1, r0, r9, asr #6
    1208:	01110100 	tsteq	r1, r0, lsl #2
    120c:	0b130e25 	bleq	4c4aa8 <__bss_end__+0x4ba768>
    1210:	0e1b0e03 	cdpeq	14, 1, cr0, cr11, cr3, {0}
    1214:	06120111 			; <UNDEFINED> instruction: 0x06120111
    1218:	00001710 	andeq	r1, r0, r0, lsl r7
    121c:	0b002402 	bleq	a22c <__bss_start__+0x2f8>
    1220:	030b3e0b 	movweq	r3, #48651	; 0xbe0b
    1224:	0300000e 	movweq	r0, #14
    1228:	0b0b0024 	bleq	2c12c0 <__bss_end__+0x2b6f80>
    122c:	08030b3e 	stmdaeq	r3, {r1, r2, r3, r4, r5, r8, r9, fp}
    1230:	0f040000 	svceq	0x00040000
    1234:	000b0b00 	andeq	r0, fp, r0, lsl #22
    1238:	000f0500 	andeq	r0, pc, r0, lsl #10
    123c:	13490b0b 	movtne	r0, #39691	; 0x9b0b
    1240:	16060000 	strne	r0, [r6], -r0
    1244:	3a0e0300 	bcc	381e4c <__bss_end__+0x377b0c>
    1248:	490b3b0b 	stmdbmi	fp, {r0, r1, r3, r8, r9, fp, ip, sp}
    124c:	07000013 	smladeq	r0, r3, r0, r0
    1250:	193f012e 	ldmdbne	pc!, {r1, r2, r3, r5, r8}	; <UNPREDICTABLE>
    1254:	0b3a0e03 	bleq	e84a68 <__bss_end__+0xe7a728>
    1258:	19270b3b 	stmdbne	r7!, {r0, r1, r3, r4, r5, r8, r9, fp}
    125c:	01111349 	tsteq	r1, r9, asr #6
    1260:	18400612 	stmdane	r0, {r1, r4, r9, sl}^
    1264:	00194297 	mulseq	r9, r7, r2
    1268:	00050800 	andeq	r0, r5, r0, lsl #16
    126c:	0b3a0803 	bleq	e83280 <__bss_end__+0xe78f40>
    1270:	13490b3b 	movtne	r0, #39739	; 0x9b3b
    1274:	00001802 	andeq	r1, r0, r2, lsl #16
    1278:	03000509 	movweq	r0, #1289	; 0x509
    127c:	3b0b3a08 	blcc	2cfaa4 <__bss_end__+0x2c5764>
    1280:	0213490b 	andseq	r4, r3, #180224	; 0x2c000
    1284:	0a000017 	beq	12e8 <_start-0x6d18>
    1288:	08030034 	stmdaeq	r3, {r2, r4, r5}
    128c:	0b3b0b3a 	bleq	ec3f7c <__bss_end__+0xeb9c3c>
    1290:	17021349 	strne	r1, [r2, -r9, asr #6]
    1294:	340b0000 	strcc	r0, [fp], #-0
    1298:	3a080300 	bcc	201ea0 <__bss_end__+0x1f7b60>
    129c:	490b3b0b 	stmdbmi	fp, {r0, r1, r3, r8, r9, fp, ip, sp}
    12a0:	00180213 	andseq	r0, r8, r3, lsl r2
	...

Disassembly of section .debug_loc:

00000000 <.debug_loc>:
       0:	00000000 	andeq	r0, r0, r0
       4:	00000014 	andeq	r0, r0, r4, lsl r0
       8:	14500001 	ldrbne	r0, [r0], #-1
       c:	2c000000 	stccs	0, cr0, [r0], {-0}
      10:	01000000 	mrseq	r0, (UNDEF: 0)
      14:	00005600 	andeq	r5, r0, r0, lsl #12
	...
      20:	00140000 	andseq	r0, r4, r0
      24:	00010000 	andeq	r0, r1, r0
      28:	00001451 	andeq	r1, r0, r1, asr r4
      2c:	00002c00 	andeq	r2, r0, r0, lsl #24
      30:	55000100 	strpl	r0, [r0, #-256]	; 0x100
	...
      3c:	0000000c 	andeq	r0, r0, ip
      40:	00000014 	andeq	r0, r0, r4, lsl r0
      44:	14500001 	ldrbne	r0, [r0], #-1
      48:	2c000000 	stccs	0, cr0, [r0], {-0}
      4c:	01000000 	mrseq	r0, (UNDEF: 0)
      50:	00005600 	andeq	r5, r0, r0, lsl #12
      54:	00000000 	andeq	r0, r0, r0
      58:	000c0000 	andeq	r0, ip, r0
      5c:	00140000 	andseq	r0, r4, r0
      60:	00020000 	andeq	r0, r2, r0
      64:	00149f30 	andseq	r9, r4, r0, lsr pc
      68:	002c0000 	eoreq	r0, ip, r0
      6c:	00010000 	andeq	r0, r1, r0
      70:	00000054 	andeq	r0, r0, r4, asr r0
      74:	00000000 	andeq	r0, r0, r0
      78:	00004000 	andeq	r4, r0, r0
      7c:	00006800 	andeq	r6, r0, r0, lsl #16
      80:	30000200 	andcc	r0, r0, r0, lsl #4
      84:	0000689f 	muleq	r0, pc, r8	; <UNPREDICTABLE>
      88:	0000c800 	andeq	ip, r0, r0, lsl #16
      8c:	55000100 	strpl	r0, [r0, #-256]	; 0x100
      90:	000000c8 	andeq	r0, r0, r8, asr #1
      94:	000000d3 	ldrdeq	r0, [r0], -r3
      98:	50910002 	addspl	r0, r1, r2
      9c:	000000d3 	ldrdeq	r0, [r0], -r3
      a0:	00000190 	muleq	r0, r0, r1
      a4:	70750003 	rsbsvc	r0, r5, r3
      a8:	0000009f 	muleq	r0, pc, r0	; <UNPREDICTABLE>
      ac:	00000000 	andeq	r0, r0, r0
      b0:	0000f000 	andeq	pc, r0, r0
      b4:	0000ff00 	andeq	pc, r0, r0, lsl #30
      b8:	50000100 	andpl	r0, r0, r0, lsl #2
      bc:	0000015c 	andeq	r0, r0, ip, asr r1
      c0:	00000168 	andeq	r0, r0, r8, ror #2
      c4:	00500001 	subseq	r0, r0, r1
      c8:	00000000 	andeq	r0, r0, r0
      cc:	30000000 	andcc	r0, r0, r0
      d0:	5c000001 	stcpl	0, cr0, [r0], {1}
      d4:	01000001 	tsteq	r0, r1
      d8:	01685400 	cmneq	r8, r0, lsl #8
      dc:	01900000 	orrseq	r0, r0, r0
      e0:	00010000 	andeq	r0, r1, r0
      e4:	00000054 	andeq	r0, r0, r4, asr r0
	...
      f0:	00000c00 	andeq	r0, r0, r0, lsl #24
      f4:	50000100 	andpl	r0, r0, r0, lsl #2
      f8:	0000000c 	andeq	r0, r0, ip
      fc:	00000040 	andeq	r0, r0, r0, asr #32
     100:	01f30004 	mvnseq	r0, r4
     104:	00009f50 	andeq	r9, r0, r0, asr pc
	...
     110:	000c0000 	andeq	r0, ip, r0
     114:	00010000 	andeq	r0, r1, r0
     118:	00000c51 	andeq	r0, r0, r1, asr ip
     11c:	00002800 	andeq	r2, r0, r0, lsl #16
     120:	53000100 	movwpl	r0, #256	; 0x100
     124:	00000028 	andeq	r0, r0, r8, lsr #32
     128:	0000002c 	andeq	r0, r0, ip, lsr #32
     12c:	2c510001 	mrrccs	0, 0, r0, r1, cr1
     130:	40000000 	andmi	r0, r0, r0
     134:	01000000 	mrseq	r0, (UNDEF: 0)
     138:	00005300 	andeq	r5, r0, r0, lsl #6
	...
     144:	00040000 	andeq	r0, r4, r0
     148:	00010000 	andeq	r0, r1, r0
     14c:	00000452 	andeq	r0, r0, r2, asr r4
     150:	00004000 	andeq	r4, r0, r0
     154:	52000100 	andpl	r0, r0, #0, 2
	...
     164:	0000000c 	andeq	r0, r0, ip
     168:	0c500001 	mrrceq	0, 0, r0, r0, cr1	; <UNPREDICTABLE>
     16c:	28000000 	stmdacs	r0, {}	; <UNPREDICTABLE>
     170:	03000000 	movweq	r0, #0
     174:	9f017000 	svcls	0x00017000
     178:	00000028 	andeq	r0, r0, r8, lsr #32
     17c:	00000038 	andeq	r0, r0, r8, lsr r0
     180:	00500001 	subseq	r0, r0, r1
     184:	00000000 	andeq	r0, r0, r0
     188:	40000000 	andmi	r0, r0, r0
     18c:	4b000000 	blmi	194 <_start-0x7e6c>
     190:	01000000 	mrseq	r0, (UNDEF: 0)
     194:	004b5000 	subeq	r5, fp, r0
     198:	00500000 	subseq	r0, r0, r0
     19c:	00040000 	andeq	r0, r4, r0
     1a0:	9f5001f3 	svcls	0x005001f3
	...
     1ac:	00000040 	andeq	r0, r0, r0, asr #32
     1b0:	0000004b 	andeq	r0, r0, fp, asr #32
     1b4:	4b510001 	blmi	14401c0 <__bss_end__+0x1435e80>
     1b8:	50000000 	andpl	r0, r0, r0
     1bc:	04000000 	streq	r0, [r0], #-0
     1c0:	5101f300 	mrspl	pc, SP_irq	; <UNPREDICTABLE>
     1c4:	0000009f 	muleq	r0, pc, r0	; <UNPREDICTABLE>
     1c8:	00000000 	andeq	r0, r0, r0
     1cc:	00002c00 	andeq	r2, r0, r0, lsl #24
     1d0:	00003800 	andeq	r3, r0, r0, lsl #16
     1d4:	50000100 	andpl	r0, r0, r0, lsl #2
     1d8:	00000038 	andeq	r0, r0, r8, lsr r0
     1dc:	00000048 	andeq	r0, r0, r8, asr #32
     1e0:	48550001 	ldmdami	r5, {r0}^
     1e4:	58000000 	stmdapl	r0, {}	; <UNPREDICTABLE>
     1e8:	01000000 	mrseq	r0, (UNDEF: 0)
     1ec:	00005000 	andeq	r5, r0, r0
	...
     1f8:	000b0000 	andeq	r0, fp, r0
     1fc:	00010000 	andeq	r0, r1, r0
     200:	00000b50 	andeq	r0, r0, r0, asr fp
     204:	00001400 	andeq	r1, r0, r0, lsl #8
     208:	54000100 	strpl	r0, [r0], #-256	; 0x100
	...
     218:	00000010 	andeq	r0, r0, r0, lsl r0
     21c:	10500001 	subsne	r0, r0, r1
     220:	34000000 	strcc	r0, [r0], #-0
     224:	01000000 	mrseq	r0, (UNDEF: 0)
     228:	00005400 	andeq	r5, r0, r0, lsl #8
	...
     234:	00040000 	andeq	r0, r4, r0
     238:	00010000 	andeq	r0, r1, r0
     23c:	00000450 	andeq	r0, r0, r0, asr r4
     240:	00000c00 	andeq	r0, r0, r0, lsl #24
     244:	70000300 	andvc	r0, r0, r0, lsl #6
     248:	000c9f30 	andeq	r9, ip, r0, lsr pc
     24c:	00140000 	andseq	r0, r4, r0
     250:	00040000 	andeq	r0, r4, r0
     254:	9f5001f3 	svcls	0x005001f3
	...
     260:	00000014 	andeq	r0, r0, r4, lsl r0
     264:	00000020 	andeq	r0, r0, r0, lsr #32
     268:	20500001 	subscs	r0, r0, r1
     26c:	2c000000 	stccs	0, cr0, [r0], {-0}
     270:	03000000 	movweq	r0, #0
     274:	9f017000 	svcls	0x00017000
     278:	0000002c 	andeq	r0, r0, ip, lsr #32
     27c:	00000040 	andeq	r0, r0, r0, asr #32
     280:	00500001 	subseq	r0, r0, r1
     284:	00000000 	andeq	r0, r0, r0
     288:	14000000 	strne	r0, [r0], #-0
     28c:	18000000 	stmdane	r0, {}	; <UNPREDICTABLE>
     290:	01000000 	mrseq	r0, (UNDEF: 0)
     294:	00185100 	andseq	r5, r8, r0, lsl #2
     298:	00400000 	subeq	r0, r0, r0
     29c:	00040000 	andeq	r0, r4, r0
     2a0:	9f5101f3 	svcls	0x005101f3
	...
     2ac:	00000040 	andeq	r0, r0, r0, asr #32
     2b0:	00000060 	andeq	r0, r0, r0, rrx
     2b4:	60500001 	subsvs	r0, r0, r1
     2b8:	6c000000 	stcvs	0, cr0, [r0], {-0}
     2bc:	03000000 	movweq	r0, #0
     2c0:	9f017100 	svcls	0x00017100
     2c4:	0000006c 	andeq	r0, r0, ip, rrx
     2c8:	00000074 	andeq	r0, r0, r4, ror r0
     2cc:	74510001 	ldrbvc	r0, [r1], #-1
     2d0:	80000000 	andhi	r0, r0, r0
     2d4:	03000000 	movweq	r0, #0
     2d8:	9f017100 	svcls	0x00017100
	...
     2e4:	00000040 	andeq	r0, r0, r0, asr #32
     2e8:	00000050 	andeq	r0, r0, r0, asr r0
     2ec:	50510001 	subspl	r0, r1, r1
     2f0:	80000000 	andhi	r0, r0, r0
     2f4:	04000000 	streq	r0, [r0], #-0
     2f8:	5101f300 	mrspl	pc, SP_irq	; <UNPREDICTABLE>
     2fc:	0000009f 	muleq	r0, pc, r0	; <UNPREDICTABLE>
     300:	00000000 	andeq	r0, r0, r0
     304:	00004000 	andeq	r4, r0, r0
     308:	00005800 	andeq	r5, r0, r0, lsl #16
     30c:	52000100 	andpl	r0, r0, #0, 2
     310:	00000058 	andeq	r0, r0, r8, asr r0
     314:	00000064 	andeq	r0, r0, r4, rrx
     318:	64520001 	ldrbvs	r0, [r2], #-1
     31c:	68000000 	stmdavs	r0, {}	; <UNPREDICTABLE>
     320:	03000000 	movweq	r0, #0
     324:	9f017200 	svcls	0x00017200
     328:	00000068 	andeq	r0, r0, r8, rrx
     32c:	00000080 	andeq	r0, r0, r0, lsl #1
     330:	00520001 	subseq	r0, r2, r1
     334:	00000000 	andeq	r0, r0, r0
     338:	40000000 	andmi	r0, r0, r0
     33c:	54000000 	strpl	r0, [r0], #-0
     340:	01000000 	mrseq	r0, (UNDEF: 0)
     344:	00545300 	subseq	r5, r4, r0, lsl #6
     348:	00780000 	rsbseq	r0, r8, r0
     34c:	00010000 	andeq	r0, r1, r0
     350:	00000053 	andeq	r0, r0, r3, asr r0
     354:	00000000 	andeq	r0, r0, r0
     358:	00004800 	andeq	r4, r0, r0, lsl #16
     35c:	00006000 	andeq	r6, r0, r0
     360:	5c000100 	stfpls	f0, [r0], {-0}
     364:	00000060 	andeq	r0, r0, r0, rrx
     368:	00000080 	andeq	r0, r0, r0, lsl #1
     36c:	01f3000a 	mvnseq	r0, sl
     370:	5301f352 	movwpl	pc, #4946	; 0x1352	; <UNPREDICTABLE>
     374:	9f01231c 	svcls	0x0001231c
	...
     380:	00000080 	andeq	r0, r0, r0, lsl #1
     384:	000000a4 	andeq	r0, r0, r4, lsr #1
     388:	a4500001 	ldrbge	r0, [r0], #-1
     38c:	18000000 	stmdane	r0, {}	; <UNPREDICTABLE>
     390:	03000001 	movweq	r0, #1
     394:	9f027000 	svcls	0x00027000
     398:	00000118 	andeq	r0, r0, r8, lsl r1
     39c:	0000021c 	andeq	r0, r0, ip, lsl r2
     3a0:	01f30004 	mvnseq	r0, r4
     3a4:	00009f50 	andeq	r9, r0, r0, asr pc
     3a8:	00000000 	andeq	r0, r0, r0
     3ac:	00800000 	addeq	r0, r0, r0
     3b0:	00f00000 	rscseq	r0, r0, r0
     3b4:	00010000 	andeq	r0, r1, r0
     3b8:	0000f051 	andeq	pc, r0, r1, asr r0	; <UNPREDICTABLE>
     3bc:	00016000 	andeq	r6, r1, r0
     3c0:	55000100 	strpl	r0, [r0, #-256]	; 0x100
     3c4:	00000160 	andeq	r0, r0, r0, ror #2
     3c8:	00000168 	andeq	r0, r0, r8, ror #2
     3cc:	68510001 	ldmdavs	r1, {r0}^
     3d0:	88000001 	stmdahi	r0, {r0}
     3d4:	01000001 	tsteq	r0, r1
     3d8:	01885500 	orreq	r5, r8, r0, lsl #10
     3dc:	019c0000 	orrseq	r0, ip, r0
     3e0:	00010000 	andeq	r0, r1, r0
     3e4:	00019c51 	andeq	r9, r1, r1, asr ip
     3e8:	0001bc00 	andeq	fp, r1, r0, lsl #24
     3ec:	55000100 	strpl	r0, [r0, #-256]	; 0x100
     3f0:	000001bc 			; <UNDEFINED> instruction: 0x000001bc
     3f4:	000001bf 			; <UNDEFINED> instruction: 0x000001bf
     3f8:	bf510001 	svclt	0x00510001
     3fc:	00000001 	andeq	r0, r0, r1
     400:	01000002 	tsteq	r0, r2
     404:	02005500 	andeq	r5, r0, #0, 10
     408:	021c0000 	andseq	r0, ip, #0
     40c:	00040000 	andeq	r0, r4, r0
     410:	9f5101f3 	svcls	0x005101f3
	...
     41c:	00000080 	andeq	r0, r0, r0, lsl #1
     420:	00000094 	muleq	r0, r4, r0
     424:	94520001 	ldrbls	r0, [r2], #-1
     428:	00000000 	andeq	r0, r0, r0
     42c:	01000002 	tsteq	r0, r2
     430:	02005400 	andeq	r5, r0, #0, 8
     434:	021c0000 	andseq	r0, ip, #0
     438:	00040000 	andeq	r0, r4, r0
     43c:	9f5201f3 	svcls	0x005201f3
	...
     448:	00000080 	andeq	r0, r0, r0, lsl #1
     44c:	00000100 	andeq	r0, r0, r0, lsl #2
     450:	04530001 	ldrbeq	r0, [r3], #-1
     454:	08000001 	stmdaeq	r0, {r0}
     458:	01000001 	tsteq	r0, r1
     45c:	01605300 	cmneq	r0, r0, lsl #6
     460:	01680000 	cmneq	r8, r0
     464:	00010000 	andeq	r0, r1, r0
     468:	00016853 	andeq	r6, r1, r3, asr r8
     46c:	00018800 	andeq	r8, r1, r0, lsl #16
     470:	f3000400 	vshl.u8	d0, d0, d0
     474:	889f5301 	ldmhi	pc, {r0, r8, r9, ip, lr}	; <UNPREDICTABLE>
     478:	90000001 	andls	r0, r0, r1
     47c:	01000001 	tsteq	r0, r1
     480:	01905300 	orrseq	r5, r0, r0, lsl #6
     484:	01940000 	orrseq	r0, r4, r0
     488:	00010000 	andeq	r0, r1, r0
     48c:	0001945c 	andeq	r9, r1, ip, asr r4
     490:	00019c00 	andeq	r9, r1, r0, lsl #24
     494:	53000100 	movwpl	r0, #256	; 0x100
     498:	0000019c 	muleq	r0, ip, r1
     49c:	000001bc 			; <UNDEFINED> instruction: 0x000001bc
     4a0:	01f30004 	mvnseq	r0, r4
     4a4:	01bc9f53 			; <UNDEFINED> instruction: 0x01bc9f53
     4a8:	01bf0000 			; <UNDEFINED> instruction: 0x01bf0000
     4ac:	00010000 	andeq	r0, r1, r0
     4b0:	0001bf53 	andeq	fp, r1, r3, asr pc
     4b4:	0001d800 	andeq	sp, r1, r0, lsl #16
     4b8:	f3000400 	vshl.u8	d0, d0, d0
     4bc:	009f5301 	addseq	r5, pc, r1, lsl #6
     4c0:	00000000 	andeq	r0, r0, r0
     4c4:	80000000 	andhi	r0, r0, r0
     4c8:	9c000000 	stcls	0, cr0, [r0], {-0}
     4cc:	02000000 	andeq	r0, r0, #0
     4d0:	9c009100 	stflsd	f1, [r0], {-0}
     4d4:	bf000000 	svclt	0x00000000
     4d8:	01000001 	tsteq	r0, r1
     4dc:	01d85200 	bicseq	r5, r8, r0, lsl #4
     4e0:	01e30000 	mvneq	r0, r0
     4e4:	00010000 	andeq	r0, r1, r0
     4e8:	00000052 	andeq	r0, r0, r2, asr r0
     4ec:	00000000 	andeq	r0, r0, r0
     4f0:	00009c00 	andeq	r9, r0, r0, lsl #24
     4f4:	00011800 	andeq	r1, r1, r0, lsl #16
     4f8:	5d000100 	stfpls	f0, [r0, #-0]
     4fc:	00000118 	andeq	r0, r0, r8, lsl r1
     500:	0000011c 	andeq	r0, r0, ip, lsl r1
     504:	1c530001 	mrrcne	0, 0, r0, r3, cr1
     508:	20000001 	andcs	r0, r0, r1
     50c:	01000001 	tsteq	r0, r1
     510:	01205100 	teqeq	r0, r0, lsl #2
     514:	01600000 	cmneq	r0, r0
     518:	00010000 	andeq	r0, r1, r0
     51c:	00016053 	andeq	r6, r1, r3, asr r0
     520:	00016800 	andeq	r6, r1, r0, lsl #16
     524:	5d000100 	stfpls	f0, [r0, #-0]
     528:	00000168 	andeq	r0, r0, r8, ror #2
     52c:	0000016c 	andeq	r0, r0, ip, ror #2
     530:	6c5e0001 	mrrcvs	0, 0, r0, lr, cr1
     534:	88000001 	stmdahi	r0, {r0}
     538:	01000001 	tsteq	r0, r1
     53c:	01885300 	orreq	r5, r8, r0, lsl #6
     540:	01900000 	orrseq	r0, r0, r0
     544:	00040000 	andeq	r0, r4, r0
     548:	9f7fa191 	svcls	0x007fa191
     54c:	00000190 	muleq	r0, r0, r1
     550:	00000194 	muleq	r0, r4, r1
     554:	94530001 	ldrbls	r0, [r3], #-1
     558:	9c000001 	stcls	0, cr0, [r0], {1}
     55c:	01000001 	tsteq	r0, r1
     560:	019c5d00 	orrseq	r5, ip, r0, lsl #26
     564:	01a00000 	moveq	r0, r0
     568:	00010000 	andeq	r0, r1, r0
     56c:	0001a05e 	andeq	sl, r1, lr, asr r0
     570:	0001bc00 	andeq	fp, r1, r0, lsl #24
     574:	53000100 	movwpl	r0, #256	; 0x100
     578:	000001bc 			; <UNDEFINED> instruction: 0x000001bc
     57c:	000001d8 	ldrdeq	r0, [r0], -r8
     580:	d85d0001 	ldmdale	sp, {r0}^
     584:	e3000001 	movw	r0, #1
     588:	01000001 	tsteq	r0, r1
     58c:	00005300 	andeq	r5, r0, r0, lsl #6
     590:	00000000 	andeq	r0, r0, r0
     594:	00a00000 	adceq	r0, r0, r0
     598:	00ec0000 	rsceq	r0, ip, r0
     59c:	00010000 	andeq	r0, r1, r0
     5a0:	0000ec5c 	andeq	lr, r0, ip, asr ip
     5a4:	00010000 	andeq	r0, r1, r0
     5a8:	53000100 	movwpl	r0, #256	; 0x100
     5ac:	00000100 	andeq	r0, r0, r0, lsl #2
     5b0:	00000104 	andeq	r0, r0, r4, lsl #2
     5b4:	045c0001 	ldrbeq	r0, [ip], #-1
     5b8:	08000001 	stmdaeq	r0, {r0}
     5bc:	01000001 	tsteq	r0, r1
     5c0:	01085300 	mrseq	r5, (UNDEF: 56)
     5c4:	01180000 	tsteq	r8, r0
     5c8:	00010000 	andeq	r0, r1, r0
     5cc:	0001185c 	andeq	r1, r1, ip, asr r8
     5d0:	00011c00 	andeq	r1, r1, r0, lsl #24
     5d4:	50000100 	andpl	r0, r0, r0, lsl #2
     5d8:	0000011c 	andeq	r0, r0, ip, lsl r1
     5dc:	0000013c 	andeq	r0, r0, ip, lsr r1
     5e0:	445c0001 	ldrbmi	r0, [ip], #-1
     5e4:	58000001 	stmdapl	r0, {r0}
     5e8:	01000001 	tsteq	r0, r1
     5ec:	01585000 	cmpeq	r8, r0
     5f0:	01600000 	cmneq	r0, r0
     5f4:	00010000 	andeq	r0, r1, r0
     5f8:	0001605c 	andeq	r6, r1, ip, asr r0
     5fc:	00016800 	andeq	r6, r1, r0, lsl #16
     600:	53000100 	movwpl	r0, #256	; 0x100
     604:	00000168 	andeq	r0, r0, r8, ror #2
     608:	00000178 	andeq	r0, r0, r8, ror r1
     60c:	785c0001 	ldmdavc	ip, {r0}^
     610:	80000001 	andhi	r0, r0, r1
     614:	05000001 	streq	r0, [r0, #-1]
     618:	34007c00 	strcc	r7, [r0], #-3072	; 0xc00
     61c:	01809f25 	orreq	r9, r0, r5, lsr #30
     620:	01880000 	orreq	r0, r8, r0
     624:	00010000 	andeq	r0, r1, r0
     628:	0001885c 	andeq	r8, r1, ip, asr r8
     62c:	00019000 	andeq	r9, r1, r0
     630:	53000100 	movwpl	r0, #256	; 0x100
     634:	00000190 	muleq	r0, r0, r1
     638:	00000194 	muleq	r0, r4, r1
     63c:	945c0001 	ldrbls	r0, [ip], #-1
     640:	9c000001 	stcls	0, cr0, [r0], {1}
     644:	01000001 	tsteq	r0, r1
     648:	019c5300 	orrseq	r5, ip, r0, lsl #6
     64c:	01ac0000 			; <UNDEFINED> instruction: 0x01ac0000
     650:	00010000 	andeq	r0, r1, r0
     654:	0001ac5c 	andeq	sl, r1, ip, asr ip
     658:	0001b400 	andeq	fp, r1, r0, lsl #8
     65c:	7c000500 	cfstr32vc	mvfx0, [r0], {-0}
     660:	9f253100 	svcls	0x00253100
     664:	000001b4 			; <UNDEFINED> instruction: 0x000001b4
     668:	000001bc 			; <UNDEFINED> instruction: 0x000001bc
     66c:	bc5c0001 	mrrclt	0, 0, r0, ip, cr1
     670:	bf000001 	svclt	0x00000001
     674:	01000001 	tsteq	r0, r1
     678:	01bf5300 			; <UNDEFINED> instruction: 0x01bf5300
     67c:	01d80000 	bicseq	r0, r8, r0
     680:	00040000 	andeq	r0, r4, r0
     684:	9f5301f3 	svcls	0x005301f3
     688:	000001d8 	ldrdeq	r0, [r0], -r8
     68c:	000001e3 	andeq	r0, r0, r3, ror #3
     690:	005c0001 	subseq	r0, ip, r1
     694:	00000000 	andeq	r0, r0, r0
     698:	ec000000 	stc	0, cr0, [r0], {-0}
     69c:	fc000000 	stc2	0, cr0, [r0], {-0}
     6a0:	02000000 	andeq	r0, r0, #0
     6a4:	fc9f3000 	ldc2	0, cr3, [pc], {0}
     6a8:	04000000 	streq	r0, [r0], #-0
     6ac:	02000001 	andeq	r0, r0, #1
     6b0:	049f3100 	ldreq	r3, [pc], #256	; 6b8 <_start-0x7948>
     6b4:	08000001 	stmdaeq	r0, {r0}
     6b8:	02000001 	andeq	r0, r0, #1
     6bc:	009f3000 	addseq	r3, pc, r0
     6c0:	00000000 	andeq	r0, r0, r0
     6c4:	1c000000 	stcne	0, cr0, [r0], {-0}
     6c8:	2b000002 	blcs	6d8 <_start-0x7928>
     6cc:	01000002 	tsteq	r0, r2
     6d0:	022b5000 	eoreq	r5, fp, #0
     6d4:	02440000 	subeq	r0, r4, #0
     6d8:	00040000 	andeq	r0, r4, r0
     6dc:	9f5001f3 	svcls	0x005001f3
     6e0:	00000244 	andeq	r0, r0, r4, asr #4
     6e4:	00000270 	andeq	r0, r0, r0, ror r2
     6e8:	00500001 	subseq	r0, r0, r1
     6ec:	00000000 	andeq	r0, r0, r0
     6f0:	1c000000 	stcne	0, cr0, [r0], {-0}
     6f4:	2b000002 	blcs	704 <_start-0x78fc>
     6f8:	01000002 	tsteq	r0, r2
     6fc:	022b5100 	eoreq	r5, fp, #0, 2
     700:	02440000 	subeq	r0, r4, #0
     704:	00040000 	andeq	r0, r4, r0
     708:	9f5101f3 	svcls	0x005101f3
     70c:	00000244 	andeq	r0, r0, r4, asr #4
     710:	00000270 	andeq	r0, r0, r0, ror r2
     714:	00510001 	subseq	r0, r1, r1
     718:	00000000 	andeq	r0, r0, r0
     71c:	70000000 	andvc	r0, r0, r0
     720:	9c000002 	stcls	0, cr0, [r0], {2}
     724:	01000002 	tsteq	r0, r2
     728:	029c5000 	addseq	r5, ip, #0
     72c:	04e40000 	strbteq	r0, [r4], #0
     730:	00010000 	andeq	r0, r1, r0
     734:	0004e45a 	andeq	lr, r4, sl, asr r4
     738:	0004f800 	andeq	pc, r4, r0, lsl #16
     73c:	f3000400 	vshl.u8	d0, d0, d0
     740:	009f5001 	addseq	r5, pc, r1
     744:	00000000 	andeq	r0, r0, r0
     748:	70000000 	andvc	r0, r0, r0
     74c:	84000002 	strhi	r0, [r0], #-2
     750:	01000002 	tsteq	r0, r2
     754:	02845100 	addeq	r5, r4, #0, 2
     758:	029c0000 	addseq	r0, ip, #0
     75c:	00030000 	andeq	r0, r3, r0
     760:	9c9f0171 	ldflss	f0, [pc], {113}	; 0x71
     764:	f8000002 			; <UNDEFINED> instruction: 0xf8000002
     768:	04000004 	streq	r0, [r0], #-4
     76c:	5101f300 	mrspl	pc, SP_irq	; <UNPREDICTABLE>
     770:	0000009f 	muleq	r0, pc, r0	; <UNPREDICTABLE>
     774:	00000000 	andeq	r0, r0, r0
     778:	00027000 	andeq	r7, r2, r0
     77c:	0002a400 	andeq	sl, r2, r0, lsl #8
     780:	52000100 	andpl	r0, r0, #0, 2
     784:	000002a4 	andeq	r0, r0, r4, lsr #5
     788:	000002cc 	andeq	r0, r0, ip, asr #5
     78c:	cc520001 	mrrcgt	0, 0, r0, r2, cr1
     790:	94000002 	strls	r0, [r0], #-2
     794:	01000004 	tsteq	r0, r4
     798:	04945600 	ldreq	r5, [r4], #1536	; 0x600
     79c:	04f80000 	ldrbteq	r0, [r8], #0
     7a0:	00010000 	andeq	r0, r1, r0
     7a4:	00000052 	andeq	r0, r0, r2, asr r0
     7a8:	00000000 	andeq	r0, r0, r0
     7ac:	00027000 	andeq	r7, r2, r0
     7b0:	00028c00 	andeq	r8, r2, r0, lsl #24
     7b4:	53000100 	movwpl	r0, #256	; 0x100
	...
     7c0:	00000280 	andeq	r0, r0, r0, lsl #5
     7c4:	0000029c 	muleq	r0, ip, r2
     7c8:	9c500001 	mrrcls	0, 0, r0, r0, cr1	; <UNPREDICTABLE>
     7cc:	a0000002 	andge	r0, r0, r2
     7d0:	01000002 	tsteq	r0, r2
     7d4:	02a05400 	adceq	r5, r0, #0, 8
     7d8:	02ac0000 	adceq	r0, ip, #0
     7dc:	00030000 	andeq	r0, r3, r0
     7e0:	ac9f0174 	ldfges	f0, [pc], {116}	; 0x74
     7e4:	b8000002 	stmdalt	r0, {r1}
     7e8:	01000002 	tsteq	r0, r2
     7ec:	02b85400 	adcseq	r5, r8, #0, 8
     7f0:	02c40000 	sbceq	r0, r4, #0
     7f4:	00030000 	andeq	r0, r3, r0
     7f8:	c49f0174 	ldrgt	r0, [pc], #372	; 800 <_start-0x7800>
     7fc:	98000002 	stmdals	r0, {r1}
     800:	01000004 	tsteq	r0, r4
     804:	04985400 	ldreq	r5, [r8], #1024	; 0x400
     808:	04a40000 	strteq	r0, [r4], #0
     80c:	00030000 	andeq	r0, r3, r0
     810:	a49f0174 	ldrge	r0, [pc], #372	; 818 <_start-0x77e8>
     814:	d0000004 	andle	r0, r0, r4
     818:	01000004 	tsteq	r0, r4
     81c:	04d05400 	ldrbeq	r5, [r0], #1024	; 0x400
     820:	04dc0000 	ldrbeq	r0, [ip], #0
     824:	00010000 	andeq	r0, r1, r0
     828:	0004dc50 	andeq	sp, r4, r0, asr ip
     82c:	0004e400 	andeq	lr, r4, r0, lsl #8
     830:	74000300 	strvc	r0, [r0], #-768	; 0x300
     834:	00009f01 	andeq	r9, r0, r1, lsl #30
     838:	00000000 	andeq	r0, r0, r0
     83c:	02880000 	addeq	r0, r8, #0
     840:	04e40000 	strbteq	r0, [r4], #0
     844:	00010000 	andeq	r0, r1, r0
     848:	0004e458 	andeq	lr, r4, r8, asr r4
     84c:	0004f800 	andeq	pc, r4, r0, lsl #16
     850:	f3000a00 	vpmax.u8	d0, d0, d0
     854:	01f35101 	mvnseq	r5, r1, lsl #2
     858:	1c312250 	lfmne	f2, 4, [r1], #-320	; 0xfffffec0
     85c:	0000009f 	muleq	r0, pc, r0	; <UNPREDICTABLE>
     860:	00000000 	andeq	r0, r0, r0
     864:	0003cc00 	andeq	ip, r3, r0, lsl #24
     868:	0003d000 	andeq	sp, r3, r0
     86c:	50000100 	andpl	r0, r0, r0, lsl #2
     870:	000003f0 	strdeq	r0, [r0], -r0	; <UNPREDICTABLE>
     874:	000003f4 	strdeq	r0, [r0], -r4
     878:	14500001 	ldrbne	r0, [r0], #-1
     87c:	18000004 	stmdane	r0, {r2}
     880:	01000004 	tsteq	r0, r4
     884:	04385000 	ldrteq	r5, [r8], #-0
     888:	043c0000 	ldrteq	r0, [ip], #-0
     88c:	00010000 	andeq	r0, r1, r0
     890:	00044450 	andeq	r4, r4, r0, asr r4
     894:	00044800 	andeq	r4, r4, r0, lsl #16
     898:	50000100 	andpl	r0, r0, r0, lsl #2
     89c:	00000468 	andeq	r0, r0, r8, ror #8
     8a0:	0000046c 	andeq	r0, r0, ip, ror #8
     8a4:	90500001 	subsls	r0, r0, r1
     8a8:	b8000004 	stmdalt	r0, {r2}
     8ac:	01000004 	tsteq	r0, r4
     8b0:	00005000 	andeq	r5, r0, r0
     8b4:	00000000 	andeq	r0, r0, r0
     8b8:	02cc0000 	sbceq	r0, ip, #0
     8bc:	02d40000 	sbcseq	r0, r4, #0
     8c0:	00020000 	andeq	r0, r2, r0
     8c4:	02d49f30 	sbcseq	r9, r4, #48, 30	; 0xc0
     8c8:	02d80000 	sbcseq	r0, r8, #0
     8cc:	00010000 	andeq	r0, r1, r0
     8d0:	0002e457 	andeq	lr, r2, r7, asr r4
     8d4:	0004b800 	andeq	fp, r4, r0, lsl #16
     8d8:	57000100 	strpl	r0, [r0, -r0, lsl #2]
	...
     8e8:	0000000c 	andeq	r0, r0, ip
     8ec:	0c500001 	mrrceq	0, 0, r0, r0, cr1	; <UNPREDICTABLE>
     8f0:	20000000 	andcs	r0, r0, r0
     8f4:	01000000 	mrseq	r0, (UNDEF: 0)
     8f8:	00005400 	andeq	r5, r0, r0, lsl #8
     8fc:	00000000 	andeq	r0, r0, r0
     900:	00340000 	eorseq	r0, r4, r0
     904:	003c0000 	eorseq	r0, ip, r0
     908:	00030000 	andeq	r0, r3, r0
     90c:	3c9f0473 	cfldrscc	mvf0, [pc], {115}	; 0x73
     910:	47000000 	strmi	r0, [r0, -r0]
     914:	01000000 	mrseq	r0, (UNDEF: 0)
     918:	00005300 	andeq	r5, r0, r0, lsl #6
     91c:	00000000 	andeq	r0, r0, r0
     920:	00480000 	subeq	r0, r8, r0
     924:	00740000 	rsbseq	r0, r4, r0
     928:	00010000 	andeq	r0, r1, r0
     92c:	00007450 	andeq	r7, r0, r0, asr r4
     930:	00008300 	andeq	r8, r0, r0, lsl #6
     934:	73000300 	movwvc	r0, #768	; 0x300
     938:	00009f78 	andeq	r9, r0, r8, ror pc
     93c:	00000000 	andeq	r0, r0, r0
     940:	88880000 	stmhi	r8, {}	; <UNPREDICTABLE>
     944:	888c0000 	stmhi	ip, {}	; <UNPREDICTABLE>
     948:	00020000 	andeq	r0, r2, r0
     94c:	888c9f30 	stmhi	ip, {r4, r5, r8, r9, sl, fp, ip, pc}
     950:	88900000 	ldmhi	r0, {}	; <UNPREDICTABLE>
     954:	00010000 	andeq	r0, r1, r0
     958:	00000050 	andeq	r0, r0, r0, asr r0
     95c:	00000000 	andeq	r0, r0, r0
     960:	0088a000 	addeq	sl, r8, r0
     964:	0088a400 	addeq	sl, r8, r0, lsl #8
     968:	30000200 	andcc	r0, r0, r0, lsl #4
     96c:	0088a49f 	umulleq	sl, r8, pc, r4	; <UNPREDICTABLE>
     970:	0088a800 	addeq	sl, r8, r0, lsl #16
     974:	53000100 	movwpl	r0, #256	; 0x100
     978:	000088ac 	andeq	r8, r0, ip, lsr #17
     97c:	000088b4 			; <UNDEFINED> instruction: 0x000088b4
     980:	00530001 	subseq	r0, r3, r1
	...
     98c:	04000000 	streq	r0, [r0], #-0
     990:	01000000 	mrseq	r0, (UNDEF: 0)
     994:	00045000 	andeq	r5, r4, r0
     998:	000c0000 	andeq	r0, ip, r0
     99c:	00010000 	andeq	r0, r1, r0
     9a0:	00000c53 	andeq	r0, r0, r3, asr ip
     9a4:	00001000 	andeq	r1, r0, r0
     9a8:	50000100 	andpl	r0, r0, r0, lsl #2
     9ac:	00000010 	andeq	r0, r0, r0, lsl r0
     9b0:	0000001c 	andeq	r0, r0, ip, lsl r0
     9b4:	00530001 	subseq	r0, r3, r1
     9b8:	00000000 	andeq	r0, r0, r0
     9bc:	3c000000 	stccc	0, cr0, [r0], {-0}
     9c0:	47000000 	strmi	r0, [r0, -r0]
     9c4:	01000000 	mrseq	r0, (UNDEF: 0)
     9c8:	00475000 	subeq	r5, r7, r0
     9cc:	00600000 	rsbeq	r0, r0, r0
     9d0:	00010000 	andeq	r0, r1, r0
     9d4:	00000055 	andeq	r0, r0, r5, asr r0
     9d8:	00000000 	andeq	r0, r0, r0
     9dc:	00005000 	andeq	r5, r0, r0
     9e0:	00005400 	andeq	r5, r0, r0, lsl #8
     9e4:	50000100 	andpl	r0, r0, r0, lsl #2
	...
     9f0:	00000060 	andeq	r0, r0, r0, rrx
     9f4:	0000006c 	andeq	r0, r0, ip, rrx
     9f8:	6c500001 	mrrcvs	0, 0, r0, r0, cr1	; <UNPREDICTABLE>
     9fc:	74000000 	strvc	r0, [r0], #-0
     a00:	04000000 	streq	r0, [r0], #-0
     a04:	5001f300 	andpl	pc, r1, r0, lsl #6
     a08:	0000009f 	muleq	r0, pc, r0	; <UNPREDICTABLE>
     a0c:	00000000 	andeq	r0, r0, r0
     a10:	00007400 	andeq	r7, r0, r0, lsl #8
     a14:	00008000 	andeq	r8, r0, r0
     a18:	50000100 	andpl	r0, r0, r0, lsl #2
     a1c:	00000080 	andeq	r0, r0, r0, lsl #1
     a20:	00000088 	andeq	r0, r0, r8, lsl #1
     a24:	01f30004 	mvnseq	r0, r4
     a28:	00009f50 	andeq	r9, r0, r0, asr pc
	...
     a34:	00180000 	andseq	r0, r8, r0
     a38:	00010000 	andeq	r0, r1, r0
     a3c:	00001850 	andeq	r1, r0, r0, asr r8
     a40:	00015400 	andeq	r5, r1, r0, lsl #8
     a44:	f3000400 	vshl.u8	d0, d0, d0
     a48:	009f5001 	addseq	r5, pc, r1
	...
     a54:	1c000000 	stcne	0, cr0, [r0], {-0}
     a58:	01000000 	mrseq	r0, (UNDEF: 0)
     a5c:	001c5100 	andseq	r5, ip, r0, lsl #2
     a60:	01540000 	cmpeq	r4, r0
     a64:	00040000 	andeq	r0, r4, r0
     a68:	9f5101f3 	svcls	0x005101f3
	...
     a74:	00000010 	andeq	r0, r0, r0, lsl r0
     a78:	00000134 	andeq	r0, r0, r4, lsr r1
     a7c:	00550001 	subseq	r0, r5, r1
     a80:	00000000 	andeq	r0, r0, r0
     a84:	10000000 	andne	r0, r0, r0
     a88:	34000000 	strcc	r0, [r0], #-0
     a8c:	01000000 	mrseq	r0, (UNDEF: 0)
     a90:	00345500 	eorseq	r5, r4, r0, lsl #10
     a94:	01340000 	teqeq	r4, r0
     a98:	00010000 	andeq	r0, r1, r0
     a9c:	00013458 	andeq	r3, r1, r8, asr r4
     aa0:	00015400 	andeq	r5, r1, r0, lsl #8
     aa4:	55000100 	strpl	r0, [r0, #-256]	; 0x100
	...
     ab0:	00000014 	andeq	r0, r0, r4, lsl r0
     ab4:	00000134 	andeq	r0, r0, r4, lsr r1
     ab8:	00550001 	subseq	r0, r5, r1
     abc:	00000000 	andeq	r0, r0, r0
     ac0:	20000000 	andcs	r0, r0, r0
     ac4:	34000000 	strcc	r0, [r0], #-0
     ac8:	01000001 	tsteq	r0, r1
     acc:	00005500 	andeq	r5, r0, r0, lsl #10
     ad0:	00000000 	andeq	r0, r0, r0
     ad4:	00240000 	eoreq	r0, r4, r0
     ad8:	00280000 	eoreq	r0, r8, r0
     adc:	00010000 	andeq	r0, r1, r0
     ae0:	00000053 	andeq	r0, r0, r3, asr r0
     ae4:	00000000 	andeq	r0, r0, r0
     ae8:	00003400 	andeq	r3, r0, r0, lsl #8
     aec:	00005400 	andeq	r5, r0, r0, lsl #8
     af0:	58000100 	stmdapl	r0, {r8}
     af4:	00000054 	andeq	r0, r0, r4, asr r0
     af8:	00000134 	andeq	r0, r0, r4, lsr r1
     afc:	00750005 	rsbseq	r0, r5, r5
     b00:	009f2431 	addseq	r2, pc, r1, lsr r4	; <UNPREDICTABLE>
     b04:	00000000 	andeq	r0, r0, r0
     b08:	34000000 	strcc	r0, [r0], #-0
     b0c:	3c000000 	stccc	0, cr0, [r0], {-0}
     b10:	05000000 	streq	r0, [r0, #-0]
     b14:	31007700 	tstcc	r0, r0, lsl #14
     b18:	003c9f1a 	eorseq	r9, ip, sl, lsl pc
     b1c:	003f0000 	eorseq	r0, pc, r0
     b20:	00010000 	andeq	r0, r1, r0
     b24:	00003f51 	andeq	r3, r0, r1, asr pc
     b28:	00015400 	andeq	r5, r1, r0, lsl #8
     b2c:	77000500 	strvc	r0, [r0, -r0, lsl #10]
     b30:	9f1a3100 	svcls	0x001a3100
	...
     b3c:	00000040 	andeq	r0, r0, r0, asr #32
     b40:	00000054 	andeq	r0, r0, r4, asr r0
     b44:	54580001 	ldrbpl	r0, [r8], #-1
     b48:	34000000 	strcc	r0, [r0], #-0
     b4c:	05000001 	streq	r0, [r0, #-1]
     b50:	31007500 	tstcc	r0, r0, lsl #10
     b54:	00009f24 	andeq	r9, r0, r4, lsr #30
     b58:	00000000 	andeq	r0, r0, r0
     b5c:	00440000 	subeq	r0, r4, r0
     b60:	00480000 	subeq	r0, r8, r0
     b64:	00010000 	andeq	r0, r1, r0
     b68:	00000053 	andeq	r0, r0, r3, asr r0
     b6c:	00000000 	andeq	r0, r0, r0
     b70:	00005400 	andeq	r5, r0, r0, lsl #8
     b74:	00007400 	andeq	r7, r0, r0, lsl #8
     b78:	58000100 	stmdapl	r0, {r8}
     b7c:	00000074 	andeq	r0, r0, r4, ror r0
     b80:	00000134 	andeq	r0, r0, r4, lsr r1
     b84:	00750008 	rsbseq	r0, r5, r8
     b88:	00752431 	rsbseq	r2, r5, r1, lsr r4
     b8c:	00009f22 	andeq	r9, r0, r2, lsr #30
     b90:	00000000 	andeq	r0, r0, r0
     b94:	00600000 	rsbeq	r0, r0, r0
     b98:	00740000 	rsbseq	r0, r4, r0
     b9c:	00010000 	andeq	r0, r1, r0
     ba0:	00007458 	andeq	r7, r0, r8, asr r4
     ba4:	00013400 	andeq	r3, r1, r0, lsl #8
     ba8:	75000800 	strvc	r0, [r0, #-2048]	; 0x800
     bac:	75243100 	strvc	r3, [r4, #-256]!	; 0x100
     bb0:	009f2200 	addseq	r2, pc, r0, lsl #4
     bb4:	00000000 	andeq	r0, r0, r0
     bb8:	64000000 	strvs	r0, [r0], #-0
     bbc:	68000000 	stmdavs	r0, {}	; <UNPREDICTABLE>
     bc0:	01000000 	mrseq	r0, (UNDEF: 0)
     bc4:	00005300 	andeq	r5, r0, r0, lsl #6
     bc8:	00000000 	andeq	r0, r0, r0
     bcc:	00740000 	rsbseq	r0, r4, r0
     bd0:	00940000 	addseq	r0, r4, r0
     bd4:	00010000 	andeq	r0, r1, r0
     bd8:	00009458 	andeq	r9, r0, r8, asr r4
     bdc:	00013400 	andeq	r3, r1, r0, lsl #8
     be0:	75000500 	strvc	r0, [r0, #-1280]	; 0x500
     be4:	9f243200 	svcls	0x00243200
	...
     bf0:	00000080 	andeq	r0, r0, r0, lsl #1
     bf4:	00000094 	muleq	r0, r4, r0
     bf8:	94580001 	ldrbls	r0, [r8], #-1
     bfc:	34000000 	strcc	r0, [r0], #-0
     c00:	05000001 	streq	r0, [r0, #-1]
     c04:	32007500 	andcc	r7, r0, #0, 10
     c08:	00009f24 	andeq	r9, r0, r4, lsr #30
     c0c:	00000000 	andeq	r0, r0, r0
     c10:	00840000 	addeq	r0, r4, r0
     c14:	00880000 	addeq	r0, r8, r0
     c18:	00010000 	andeq	r0, r1, r0
     c1c:	00000053 	andeq	r0, r0, r3, asr r0
     c20:	00000000 	andeq	r0, r0, r0
     c24:	00009400 	andeq	r9, r0, r0, lsl #8
     c28:	0000b400 	andeq	fp, r0, r0, lsl #8
     c2c:	58000100 	stmdapl	r0, {r8}
     c30:	000000b4 	strheq	r0, [r0], -r4
     c34:	00000134 	andeq	r0, r0, r4, lsr r1
     c38:	00750008 	rsbseq	r0, r5, r8
     c3c:	00752432 	rsbseq	r2, r5, r2, lsr r4
     c40:	00009f22 	andeq	r9, r0, r2, lsr #30
     c44:	00000000 	andeq	r0, r0, r0
     c48:	00a00000 	adceq	r0, r0, r0
     c4c:	00b40000 	adcseq	r0, r4, r0
     c50:	00010000 	andeq	r0, r1, r0
     c54:	0000b458 	andeq	fp, r0, r8, asr r4
     c58:	00013400 	andeq	r3, r1, r0, lsl #8
     c5c:	75000800 	strvc	r0, [r0, #-2048]	; 0x800
     c60:	75243200 	strvc	r3, [r4, #-512]!	; 0x200
     c64:	009f2200 	addseq	r2, pc, r0, lsl #4
     c68:	00000000 	andeq	r0, r0, r0
     c6c:	a4000000 	strge	r0, [r0], #-0
     c70:	a8000000 	stmdage	r0, {}	; <UNPREDICTABLE>
     c74:	01000000 	mrseq	r0, (UNDEF: 0)
     c78:	00005300 	andeq	r5, r0, r0, lsl #6
     c7c:	00000000 	andeq	r0, r0, r0
     c80:	00b40000 	adcseq	r0, r4, r0
     c84:	00d40000 	sbcseq	r0, r4, r0
     c88:	00010000 	andeq	r0, r1, r0
     c8c:	0000d458 	andeq	sp, r0, r8, asr r4
     c90:	00013400 	andeq	r3, r1, r0, lsl #8
     c94:	75000a00 	strvc	r0, [r0, #-2560]	; 0xa00
     c98:	75243200 	strvc	r3, [r4, #-512]!	; 0x200
     c9c:	22243100 	eorcs	r3, r4, #0, 2
     ca0:	0000009f 	muleq	r0, pc, r0	; <UNPREDICTABLE>
     ca4:	00000000 	andeq	r0, r0, r0
     ca8:	0000c000 	andeq	ip, r0, r0
     cac:	0000d400 	andeq	sp, r0, r0, lsl #8
     cb0:	58000100 	stmdapl	r0, {r8}
     cb4:	000000d4 	ldrdeq	r0, [r0], -r4
     cb8:	00000134 	andeq	r0, r0, r4, lsr r1
     cbc:	0075000a 	rsbseq	r0, r5, sl
     cc0:	00752432 	rsbseq	r2, r5, r2, lsr r4
     cc4:	9f222431 	svcls	0x00222431
	...
     cd0:	000000c4 	andeq	r0, r0, r4, asr #1
     cd4:	000000c8 	andeq	r0, r0, r8, asr #1
     cd8:	00530001 	subseq	r0, r3, r1
     cdc:	00000000 	andeq	r0, r0, r0
     ce0:	d4000000 	strle	r0, [r0], #-0
     ce4:	f4000000 	vst4.8	{d0-d3}, [r0], r0
     ce8:	01000000 	mrseq	r0, (UNDEF: 0)
     cec:	00f45800 	rscseq	r5, r4, r0, lsl #16
     cf0:	01340000 	teqeq	r4, r0
     cf4:	000d0000 	andeq	r0, sp, r0
     cf8:	24320075 	ldrtcs	r0, [r2], #-117	; 0x75
     cfc:	24310075 	ldrtcs	r0, [r1], #-117	; 0x75
     d00:	22007522 	andcs	r7, r0, #142606336	; 0x8800000
     d04:	0000009f 	muleq	r0, pc, r0	; <UNPREDICTABLE>
     d08:	00000000 	andeq	r0, r0, r0
     d0c:	0000e000 	andeq	lr, r0, r0
     d10:	0000f400 	andeq	pc, r0, r0, lsl #8
     d14:	58000100 	stmdapl	r0, {r8}
     d18:	000000f4 	strdeq	r0, [r0], -r4
     d1c:	00000134 	andeq	r0, r0, r4, lsr r1
     d20:	0075000d 	rsbseq	r0, r5, sp
     d24:	00752432 	rsbseq	r2, r5, r2, lsr r4
     d28:	75222431 	strvc	r2, [r2, #-1073]!	; 0x431
     d2c:	009f2200 	addseq	r2, pc, r0, lsl #4
     d30:	00000000 	andeq	r0, r0, r0
     d34:	e4000000 	str	r0, [r0], #-0
     d38:	e8000000 	stmda	r0, {}	; <UNPREDICTABLE>
     d3c:	01000000 	mrseq	r0, (UNDEF: 0)
     d40:	00005300 	andeq	r5, r0, r0, lsl #6
     d44:	00000000 	andeq	r0, r0, r0
     d48:	00f40000 	rscseq	r0, r4, r0
     d4c:	01140000 	tsteq	r4, r0
     d50:	00010000 	andeq	r0, r1, r0
     d54:	00011458 	andeq	r1, r1, r8, asr r4
     d58:	00013400 	andeq	r3, r1, r0, lsl #8
     d5c:	75000500 	strvc	r0, [r0, #-1280]	; 0x500
     d60:	9f243300 	svcls	0x00243300
	...
     d6c:	00000100 	andeq	r0, r0, r0, lsl #2
     d70:	00000114 	andeq	r0, r0, r4, lsl r1
     d74:	14580001 	ldrbne	r0, [r8], #-1
     d78:	34000001 	strcc	r0, [r0], #-1
     d7c:	05000001 	streq	r0, [r0, #-1]
     d80:	33007500 	movwcc	r7, #1280	; 0x500
     d84:	00009f24 	andeq	r9, r0, r4, lsr #30
     d88:	00000000 	andeq	r0, r0, r0
     d8c:	01040000 	mrseq	r0, (UNDEF: 4)
     d90:	01080000 	mrseq	r0, (UNDEF: 8)
     d94:	00010000 	andeq	r0, r1, r0
     d98:	00000053 	andeq	r0, r0, r3, asr r0
     d9c:	00000000 	andeq	r0, r0, r0
     da0:	00011400 	andeq	r1, r1, r0, lsl #8
     da4:	00011c00 	andeq	r1, r1, r0, lsl #24
     da8:	77000600 	strvc	r0, [r0, -r0, lsl #12]
     dac:	1a800800 	bne	fe002db4 <__bss_end__+0xfdff8a74>
     db0:	00011c9f 	muleq	r1, pc, ip	; <UNPREDICTABLE>
     db4:	00011f00 	andeq	r1, r1, r0, lsl #30
     db8:	51000100 	mrspl	r0, (UNDEF: 16)
     dbc:	0000011f 	andeq	r0, r0, pc, lsl r1
     dc0:	00000154 	andeq	r0, r0, r4, asr r1
     dc4:	00770006 	rsbseq	r0, r7, r6
     dc8:	9f1a8008 	svcls	0x001a8008
	...
     dd4:	00000124 	andeq	r0, r0, r4, lsr #2
     dd8:	00000128 	andeq	r0, r0, r8, lsr #2
     ddc:	00530001 	subseq	r0, r3, r1
     de0:	00000000 	andeq	r0, r0, r0
     de4:	44000000 	strmi	r0, [r0], #-0
     de8:	48000001 	stmdami	r0, {r0}
     dec:	01000001 	tsteq	r0, r1
     df0:	00005300 	andeq	r5, r0, r0, lsl #6
     df4:	00000000 	andeq	r0, r0, r0
     df8:	01540000 	cmpeq	r4, r0
     dfc:	016b0000 	cmneq	fp, r0
     e00:	00010000 	andeq	r0, r1, r0
     e04:	00016b50 	andeq	r6, r1, r0, asr fp
     e08:	0001d000 	andeq	sp, r1, r0
     e0c:	59000100 	stmdbpl	r0, {r8}
     e10:	000001d0 	ldrdeq	r0, [r0], -r0	; <UNPREDICTABLE>
     e14:	0000030c 	andeq	r0, r0, ip, lsl #6
     e18:	01f30004 	mvnseq	r0, r4
     e1c:	030c9f50 	movweq	r9, #53072	; 0xcf50
     e20:	03140000 	tsteq	r4, #0
     e24:	00010000 	andeq	r0, r1, r0
     e28:	00031459 	andeq	r1, r3, r9, asr r4
     e2c:	00031c00 	andeq	r1, r3, r0, lsl #24
     e30:	f3000400 	vshl.u8	d0, d0, d0
     e34:	009f5001 	addseq	r5, pc, r1
     e38:	00000000 	andeq	r0, r0, r0
     e3c:	54000000 	strpl	r0, [r0], #-0
     e40:	6b000001 	blvs	e4c <_start-0x71b4>
     e44:	01000001 	tsteq	r0, r1
     e48:	016b5100 	cmneq	fp, r0, lsl #2
     e4c:	031c0000 	tsteq	ip, #0
     e50:	00010000 	andeq	r0, r1, r0
     e54:	00000056 	andeq	r0, r0, r6, asr r0
     e58:	00000000 	andeq	r0, r0, r0
     e5c:	0001a800 	andeq	sl, r1, r0, lsl #16
     e60:	00029800 	andeq	r9, r2, r0, lsl #16
     e64:	58000100 	stmdapl	r0, {r8}
	...
     e70:	000001ac 	andeq	r0, r0, ip, lsr #3
     e74:	000002d0 	ldrdeq	r0, [r0], -r0	; <UNPREDICTABLE>
     e78:	00540001 	subseq	r0, r4, r1
     e7c:	00000000 	andeq	r0, r0, r0
     e80:	ac000000 	stcge	0, cr0, [r0], {-0}
     e84:	d0000001 	andle	r0, r0, r1
     e88:	05000002 	streq	r0, [r0, #-2]
     e8c:	31007400 	tstcc	r0, r0, lsl #8
     e90:	00009f25 	andeq	r9, r0, r5, lsr #30
     e94:	00000000 	andeq	r0, r0, r0
     e98:	01ac0000 			; <UNDEFINED> instruction: 0x01ac0000
     e9c:	01d00000 	bicseq	r0, r0, r0
     ea0:	00020000 	andeq	r0, r2, r0
     ea4:	01d09f30 	bicseq	r9, r0, r0, lsr pc
     ea8:	030c0000 	movweq	r0, #49152	; 0xc000
     eac:	00010000 	andeq	r0, r1, r0
     eb0:	00031459 	andeq	r1, r3, r9, asr r4
     eb4:	00031c00 	andeq	r1, r3, r0, lsl #24
     eb8:	59000100 	stmdbpl	r0, {r8}
	...
     ec4:	00000168 	andeq	r0, r0, r8, ror #2
     ec8:	0000016b 	andeq	r0, r0, fp, ror #2
     ecc:	6b510001 	blvs	1440ed8 <__bss_end__+0x1436b98>
     ed0:	1c000001 	stcne	0, cr0, [r0], {1}
     ed4:	01000003 	tsteq	r0, r3
     ed8:	00005600 	andeq	r5, r0, r0, lsl #12
     edc:	00000000 	andeq	r0, r0, r0
     ee0:	01700000 	cmneq	r0, r0
     ee4:	01ac0000 			; <UNDEFINED> instruction: 0x01ac0000
     ee8:	00010000 	andeq	r0, r1, r0
     eec:	00030c54 	andeq	r0, r3, r4, asr ip
     ef0:	00031400 	andeq	r1, r3, r0, lsl #8
     ef4:	54000100 	strpl	r0, [r0], #-256	; 0x100
	...
     f00:	000001a8 	andeq	r0, r0, r8, lsr #3
     f04:	000001c4 	andeq	r0, r0, r4, asr #3
     f08:	00580001 	subseq	r0, r8, r1
     f0c:	00000000 	andeq	r0, r0, r0
     f10:	b0000000 	andlt	r0, r0, r0
     f14:	cb000001 	blgt	f20 <_start-0x70e0>
     f18:	01000001 	tsteq	r0, r1
     f1c:	01cb5200 	biceq	r5, fp, r0, lsl #4
     f20:	02d00000 	sbcseq	r0, r0, #0
     f24:	00080000 	andeq	r0, r8, r0
     f28:	25310074 	ldrcs	r0, [r1, #-116]!	; 0x74
     f2c:	9f220074 	svcls	0x00220074
	...
     f38:	000001b0 			; <UNDEFINED> instruction: 0x000001b0
     f3c:	000001c4 	andeq	r0, r0, r4, asr #3
     f40:	00580001 	subseq	r0, r8, r1
     f44:	00000000 	andeq	r0, r0, r0
     f48:	b4000000 	strlt	r0, [r0], #-0
     f4c:	b8000001 	stmdalt	r0, {r0}
     f50:	01000001 	tsteq	r0, r1
     f54:	00005300 	andeq	r5, r0, r0, lsl #6
     f58:	00000000 	andeq	r0, r0, r0
     f5c:	01d00000 	bicseq	r0, r0, r0
     f60:	02d00000 	sbcseq	r0, r0, #0
     f64:	00010000 	andeq	r0, r1, r0
     f68:	00000054 	andeq	r0, r0, r4, asr r0
     f6c:	00000000 	andeq	r0, r0, r0
     f70:	0001d000 	andeq	sp, r1, r0
     f74:	0001e400 	andeq	lr, r1, r0, lsl #8
     f78:	58000100 	stmdapl	r0, {r8}
	...
     f84:	000001d4 	ldrdeq	r0, [r0], -r4
     f88:	000001d8 	ldrdeq	r0, [r0], -r8
     f8c:	00530001 	subseq	r0, r3, r1
     f90:	00000000 	andeq	r0, r0, r0
     f94:	f4000000 	vst4.8	{d0-d3}, [r0], r0
     f98:	d0000001 	andle	r0, r0, r1
     f9c:	01000002 	tsteq	r0, r2
     fa0:	00005400 	andeq	r5, r0, r0, lsl #8
     fa4:	00000000 	andeq	r0, r0, r0
     fa8:	01f40000 	mvnseq	r0, r0
     fac:	02080000 	andeq	r0, r8, #0
     fb0:	00010000 	andeq	r0, r1, r0
     fb4:	00000058 	andeq	r0, r0, r8, asr r0
     fb8:	00000000 	andeq	r0, r0, r0
     fbc:	0001f800 	andeq	pc, r1, r0, lsl #16
     fc0:	0001fc00 	andeq	pc, r1, r0, lsl #24
     fc4:	53000100 	movwpl	r0, #256	; 0x100
	...
     fd0:	00000218 	andeq	r0, r0, r8, lsl r2
     fd4:	000002d0 	ldrdeq	r0, [r0], -r0	; <UNPREDICTABLE>
     fd8:	00540001 	subseq	r0, r4, r1
     fdc:	00000000 	andeq	r0, r0, r0
     fe0:	18000000 	stmdane	r0, {}	; <UNPREDICTABLE>
     fe4:	2c000002 	stccs	0, cr0, [r0], {2}
     fe8:	01000002 	tsteq	r0, r2
     fec:	00005800 	andeq	r5, r0, r0, lsl #16
     ff0:	00000000 	andeq	r0, r0, r0
     ff4:	021c0000 	andseq	r0, ip, #0
     ff8:	02200000 	eoreq	r0, r0, #0
     ffc:	00010000 	andeq	r0, r1, r0
    1000:	00000053 	andeq	r0, r0, r3, asr r0
    1004:	00000000 	andeq	r0, r0, r0
    1008:	00023c00 	andeq	r3, r2, r0, lsl #24
    100c:	0002d000 	andeq	sp, r2, r0
    1010:	54000100 	strpl	r0, [r0], #-256	; 0x100
	...
    101c:	0000023c 	andeq	r0, r0, ip, lsr r2
    1020:	00000250 	andeq	r0, r0, r0, asr r2
    1024:	00580001 	subseq	r0, r8, r1
    1028:	00000000 	andeq	r0, r0, r0
    102c:	40000000 	andmi	r0, r0, r0
    1030:	44000002 	strmi	r0, [r0], #-2
    1034:	01000002 	tsteq	r0, r2
    1038:	00005300 	andeq	r5, r0, r0, lsl #6
    103c:	00000000 	andeq	r0, r0, r0
    1040:	02600000 	rsbeq	r0, r0, #0
    1044:	02d00000 	sbcseq	r0, r0, #0
    1048:	00010000 	andeq	r0, r1, r0
    104c:	00000054 	andeq	r0, r0, r4, asr r0
    1050:	00000000 	andeq	r0, r0, r0
    1054:	00026000 	andeq	r6, r2, r0
    1058:	00027400 	andeq	r7, r2, r0, lsl #8
    105c:	58000100 	stmdapl	r0, {r8}
	...
    1068:	00000264 	andeq	r0, r0, r4, ror #4
    106c:	00000268 	andeq	r0, r0, r8, ror #4
    1070:	00530001 	subseq	r0, r3, r1
    1074:	00000000 	andeq	r0, r0, r0
    1078:	84000000 	strhi	r0, [r0], #-0
    107c:	d0000002 	andle	r0, r0, r2
    1080:	01000002 	tsteq	r0, r2
    1084:	00005400 	andeq	r5, r0, r0, lsl #8
    1088:	00000000 	andeq	r0, r0, r0
    108c:	02840000 	addeq	r0, r4, #0
    1090:	02980000 	addseq	r0, r8, #0
    1094:	00010000 	andeq	r0, r1, r0
    1098:	00000058 	andeq	r0, r0, r8, asr r0
    109c:	00000000 	andeq	r0, r0, r0
    10a0:	00028800 	andeq	r8, r2, r0, lsl #16
    10a4:	00028c00 	andeq	r8, r2, r0, lsl #24
    10a8:	53000100 	movwpl	r0, #256	; 0x100
	...
    10b4:	000002a8 	andeq	r0, r0, r8, lsr #5
    10b8:	000002d0 	ldrdeq	r0, [r0], -r0	; <UNPREDICTABLE>
    10bc:	00540001 	subseq	r0, r4, r1
    10c0:	00000000 	andeq	r0, r0, r0
    10c4:	ac000000 	stcge	0, cr0, [r0], {-0}
    10c8:	b0000002 	andlt	r0, r0, r2
    10cc:	01000002 	tsteq	r0, r2
    10d0:	00005300 	andeq	r5, r0, r0, lsl #6
    10d4:	00000000 	andeq	r0, r0, r0
    10d8:	02c80000 	sbceq	r0, r8, #0
    10dc:	030c0000 	movweq	r0, #49152	; 0xc000
    10e0:	00020000 	andeq	r0, r2, r0
    10e4:	03149f30 	tsteq	r4, #48, 30	; 0xc0
    10e8:	031c0000 	tsteq	ip, #0
    10ec:	00020000 	andeq	r0, r2, r0
    10f0:	00009f30 	andeq	r9, r0, r0, lsr pc
    10f4:	00000000 	andeq	r0, r0, r0
    10f8:	02c80000 	sbceq	r0, r8, #0
    10fc:	030c0000 	movweq	r0, #49152	; 0xc000
    1100:	00010000 	andeq	r0, r1, r0
    1104:	00031455 	andeq	r1, r3, r5, asr r4
    1108:	00031c00 	andeq	r1, r3, r0, lsl #24
    110c:	55000100 	strpl	r0, [r0, #-256]	; 0x100
	...
    1118:	000002d0 	ldrdeq	r0, [r0], -r0	; <UNPREDICTABLE>
    111c:	0000030c 	andeq	r0, r0, ip, lsl #6
    1120:	14540001 	ldrbne	r0, [r4], #-1
    1124:	1c000003 	stcne	0, cr0, [r0], {3}
    1128:	01000003 	tsteq	r0, r3
    112c:	00005400 	andeq	r5, r0, r0, lsl #8
    1130:	00000000 	andeq	r0, r0, r0
    1134:	031c0000 	tsteq	ip, #0
    1138:	033b0000 	teqeq	fp, #0
    113c:	00010000 	andeq	r0, r1, r0
    1140:	00033b50 	andeq	r3, r3, r0, asr fp
    1144:	00035400 	andeq	r5, r3, r0, lsl #8
    1148:	58000100 	stmdapl	r0, {r8}
    114c:	00000354 	andeq	r0, r0, r4, asr r3
    1150:	00000364 	andeq	r0, r0, r4, ror #6
    1154:	64500001 	ldrbvs	r0, [r0], #-1
    1158:	ac000003 	stcge	0, cr0, [r0], {3}
    115c:	01000003 	tsteq	r0, r3
    1160:	00005800 	andeq	r5, r0, r0, lsl #16
    1164:	00000000 	andeq	r0, r0, r0
    1168:	031c0000 	tsteq	ip, #0
    116c:	033b0000 	teqeq	fp, #0
    1170:	00010000 	andeq	r0, r1, r0
    1174:	00033b51 	andeq	r3, r3, r1, asr fp
    1178:	00035400 	andeq	r5, r3, r0, lsl #8
    117c:	56000100 	strpl	r0, [r0], -r0, lsl #2
    1180:	00000354 	andeq	r0, r0, r4, asr r3
    1184:	00000364 	andeq	r0, r0, r4, ror #6
    1188:	64510001 	ldrbvs	r0, [r1], #-1
    118c:	ac000003 	stcge	0, cr0, [r0], {3}
    1190:	01000003 	tsteq	r0, r3
    1194:	00005600 	andeq	r5, r0, r0, lsl #12
    1198:	00000000 	andeq	r0, r0, r0
    119c:	031c0000 	tsteq	ip, #0
    11a0:	033b0000 	teqeq	fp, #0
    11a4:	00010000 	andeq	r0, r1, r0
    11a8:	00033b52 	andeq	r3, r3, r2, asr fp
    11ac:	00035400 	andeq	r5, r3, r0, lsl #8
    11b0:	f3000400 	vshl.u8	d0, d0, d0
    11b4:	549f5201 	ldrpl	r5, [pc], #513	; 11bc <_start-0x6e44>
    11b8:	64000003 	strvs	r0, [r0], #-3
    11bc:	01000003 	tsteq	r0, r3
    11c0:	03645200 	cmneq	r4, #0, 4
    11c4:	03ac0000 			; <UNDEFINED> instruction: 0x03ac0000
    11c8:	00030000 	andeq	r0, r3, r0
    11cc:	009f0177 	addseq	r0, pc, r7, ror r1	; <UNPREDICTABLE>
    11d0:	00000000 	andeq	r0, r0, r0
    11d4:	1c000000 	stcne	0, cr0, [r0], {-0}
    11d8:	3b000003 	blcc	11ec <_start-0x6e14>
    11dc:	01000003 	tsteq	r0, r3
    11e0:	033b5300 	teqeq	fp, #0, 6
    11e4:	03540000 	cmpeq	r4, #0
    11e8:	00040000 	andeq	r0, r4, r0
    11ec:	9f5301f3 	svcls	0x005301f3
    11f0:	00000354 	andeq	r0, r0, r4, asr r3
    11f4:	00000364 	andeq	r0, r0, r4, ror #6
    11f8:	64530001 	ldrbvs	r0, [r3], #-1
    11fc:	ac000003 	stcge	0, cr0, [r0], {3}
    1200:	04000003 	streq	r0, [r0], #-3
    1204:	5301f300 	movwpl	pc, #4864	; 0x1300	; <UNPREDICTABLE>
    1208:	0000009f 	muleq	r0, pc, r0	; <UNPREDICTABLE>
    120c:	00000000 	andeq	r0, r0, r0
    1210:	00035c00 	andeq	r5, r3, r0, lsl #24
    1214:	00036400 	andeq	r6, r3, r0, lsl #8
    1218:	30000200 	andcc	r0, r0, r0, lsl #4
    121c:	0003649f 	muleq	r3, pc, r4	; <UNPREDICTABLE>
    1220:	0003ac00 	andeq	sl, r3, r0, lsl #24
    1224:	54000100 	strpl	r0, [r0], #-256	; 0x100
	...
    1230:	00000374 	andeq	r0, r0, r4, ror r3
    1234:	00000384 	andeq	r0, r0, r4, lsl #7
    1238:	00500001 	subseq	r0, r0, r1
    123c:	00000000 	andeq	r0, r0, r0
    1240:	ac000000 	stcge	0, cr0, [r0], {-0}
    1244:	c7000003 	strgt	r0, [r0, -r3]
    1248:	01000003 	tsteq	r0, r3
    124c:	03c75000 	biceq	r5, r7, #0
    1250:	03e00000 	mvneq	r0, #0
    1254:	00010000 	andeq	r0, r1, r0
    1258:	0003e057 	andeq	lr, r3, r7, asr r0
    125c:	0003f000 	andeq	pc, r3, r0
    1260:	50000100 	andpl	r0, r0, r0, lsl #2
    1264:	000003f0 	strdeq	r0, [r0], -r0	; <UNPREDICTABLE>
    1268:	00000428 	andeq	r0, r0, r8, lsr #8
    126c:	00570001 	subseq	r0, r7, r1
    1270:	00000000 	andeq	r0, r0, r0
    1274:	ac000000 	stcge	0, cr0, [r0], {-0}
    1278:	c7000003 	strgt	r0, [r0, -r3]
    127c:	01000003 	tsteq	r0, r3
    1280:	03c75100 	biceq	r5, r7, #0, 2
    1284:	03e00000 	mvneq	r0, #0
    1288:	00010000 	andeq	r0, r1, r0
    128c:	0003e055 	andeq	lr, r3, r5, asr r0
    1290:	0003f000 	andeq	pc, r3, r0
    1294:	51000100 	mrspl	r0, (UNDEF: 16)
    1298:	000003f0 	strdeq	r0, [r0], -r0	; <UNPREDICTABLE>
    129c:	00000428 	andeq	r0, r0, r8, lsr #8
    12a0:	00550001 	subseq	r0, r5, r1
    12a4:	00000000 	andeq	r0, r0, r0
    12a8:	ac000000 	stcge	0, cr0, [r0], {-0}
    12ac:	c7000003 	strgt	r0, [r0, -r3]
    12b0:	01000003 	tsteq	r0, r3
    12b4:	03c75200 	biceq	r5, r7, #0, 4
    12b8:	03e00000 	mvneq	r0, #0
    12bc:	00040000 	andeq	r0, r4, r0
    12c0:	9f5201f3 	svcls	0x005201f3
    12c4:	000003e0 	andeq	r0, r0, r0, ror #7
    12c8:	000003f0 	strdeq	r0, [r0], -r0	; <UNPREDICTABLE>
    12cc:	f0520001 			; <UNDEFINED> instruction: 0xf0520001
    12d0:	28000003 	stmdacs	r0, {r0, r1}
    12d4:	03000004 	movweq	r0, #4
    12d8:	9f017600 	svcls	0x00017600
	...
    12e4:	000003ac 	andeq	r0, r0, ip, lsr #7
    12e8:	000003c7 	andeq	r0, r0, r7, asr #7
    12ec:	c7530001 	ldrbgt	r0, [r3, -r1]
    12f0:	e0000003 	and	r0, r0, r3
    12f4:	01000003 	tsteq	r0, r3
    12f8:	03e05800 	mvneq	r5, #0, 16
    12fc:	03f00000 	mvnseq	r0, #0
    1300:	00010000 	andeq	r0, r1, r0
    1304:	0003f053 	andeq	pc, r3, r3, asr r0	; <UNPREDICTABLE>
    1308:	00042800 	andeq	r2, r4, r0, lsl #16
    130c:	58000100 	stmdapl	r0, {r8}
	...
    1318:	000003e8 	andeq	r0, r0, r8, ror #7
    131c:	000003f0 	strdeq	r0, [r0], -r0	; <UNPREDICTABLE>
    1320:	9f300002 	svcls	0x00300002
    1324:	000003f0 	strdeq	r0, [r0], -r0	; <UNPREDICTABLE>
    1328:	00000428 	andeq	r0, r0, r8, lsr #8
    132c:	00540001 	subseq	r0, r4, r1
    1330:	00000000 	andeq	r0, r0, r0
    1334:	28000000 	stmdacs	r0, {}	; <UNPREDICTABLE>
    1338:	47000004 	strmi	r0, [r0, -r4]
    133c:	01000004 	tsteq	r0, r4
    1340:	04475100 	strbeq	r5, [r7], #-256	; 0x100
    1344:	04e80000 	strbteq	r0, [r8], #0
    1348:	00040000 	andeq	r0, r4, r0
    134c:	9f5101f3 	svcls	0x005101f3
	...
    1358:	00000428 	andeq	r0, r0, r8, lsr #8
    135c:	00000447 	andeq	r0, r0, r7, asr #8
    1360:	47520001 	ldrbmi	r0, [r2, -r1]
    1364:	e8000004 	stmda	r0, {r2}
    1368:	04000004 	streq	r0, [r0], #-4
    136c:	5201f300 	andpl	pc, r1, #0, 6
    1370:	0000009f 	muleq	r0, pc, r0	; <UNPREDICTABLE>
    1374:	00000000 	andeq	r0, r0, r0
    1378:	00042800 	andeq	r2, r4, r0, lsl #16
    137c:	00044700 	andeq	r4, r4, r0, lsl #14
    1380:	53000100 	movwpl	r0, #256	; 0x100
    1384:	00000447 	andeq	r0, r0, r7, asr #8
    1388:	000004e8 	andeq	r0, r0, r8, ror #9
    138c:	00550001 	subseq	r0, r5, r1
    1390:	00000000 	andeq	r0, r0, r0
    1394:	68000000 	stmdavs	r0, {}	; <UNPREDICTABLE>
    1398:	a7000004 	strge	r0, [r0, -r4]
    139c:	01000004 	tsteq	r0, r4
    13a0:	04a75200 	strteq	r5, [r7], #512	; 0x200
    13a4:	04c00000 	strbeq	r0, [r0], #0
    13a8:	00060000 	andeq	r0, r6, r0
    13ac:	00770075 	rsbseq	r0, r7, r5, ror r0
    13b0:	04c09f1e 	strbeq	r9, [r0], #3870	; 0xf1e
    13b4:	04e80000 	strbteq	r0, [r8], #0
    13b8:	00010000 	andeq	r0, r1, r0
    13bc:	00000052 	andeq	r0, r0, r2, asr r0
    13c0:	00000000 	andeq	r0, r0, r0
    13c4:	0004e800 	andeq	lr, r4, r0, lsl #16
    13c8:	0004f300 	andeq	pc, r4, r0, lsl #6
    13cc:	50000100 	andpl	r0, r0, r0, lsl #2
    13d0:	000004f3 	strdeq	r0, [r0], -r3
    13d4:	00000524 	andeq	r0, r0, r4, lsr #10
    13d8:	01f30004 	mvnseq	r0, r4
    13dc:	00009f50 	andeq	r9, r0, r0, asr pc
    13e0:	00000000 	andeq	r0, r0, r0
    13e4:	04f40000 	ldrbteq	r0, [r4], #0
    13e8:	04ff0000 	ldrbteq	r0, [pc], #0	; 13f0 <_start-0x6c10>
    13ec:	00010000 	andeq	r0, r1, r0
    13f0:	00000050 	andeq	r0, r0, r0, asr r0
    13f4:	00000000 	andeq	r0, r0, r0
    13f8:	00052400 	andeq	r2, r5, r0, lsl #8
    13fc:	00053400 	andeq	r3, r5, r0, lsl #8
    1400:	50000100 	andpl	r0, r0, r0, lsl #2
    1404:	00000534 	andeq	r0, r0, r4, lsr r5
    1408:	00000550 	andeq	r0, r0, r0, asr r5
    140c:	00550001 	subseq	r0, r5, r1
    1410:	00000000 	andeq	r0, r0, r0
    1414:	24000000 	strcs	r0, [r0], #-0
    1418:	34000005 	strcc	r0, [r0], #-5
    141c:	01000005 	tsteq	r0, r5
    1420:	05345100 	ldreq	r5, [r4, #-256]!	; 0x100
    1424:	05500000 	ldrbeq	r0, [r0, #-0]
    1428:	00010000 	andeq	r0, r1, r0
    142c:	00000054 	andeq	r0, r0, r4, asr r0
    1430:	00000000 	andeq	r0, r0, r0
    1434:	00055000 	andeq	r5, r5, r0
    1438:	00056c00 	andeq	r6, r5, r0, lsl #24
    143c:	50000100 	andpl	r0, r0, r0, lsl #2
    1440:	0000056c 	andeq	r0, r0, ip, ror #10
    1444:	000005bc 			; <UNDEFINED> instruction: 0x000005bc
    1448:	bc550001 	mrrclt	0, 0, r0, r5, cr1
    144c:	d4000005 	strle	r0, [r0], #-5
    1450:	04000005 	streq	r0, [r0], #-5
    1454:	5001f300 	andpl	pc, r1, r0, lsl #6
    1458:	0000009f 	muleq	r0, pc, r0	; <UNPREDICTABLE>
    145c:	00000000 	andeq	r0, r0, r0
    1460:	00057c00 	andeq	r7, r5, r0, lsl #24
    1464:	00058b00 	andeq	r8, r5, r0, lsl #22
    1468:	50000100 	andpl	r0, r0, r0, lsl #2
    146c:	0000058b 	andeq	r0, r0, fp, lsl #11
    1470:	000005a4 	andeq	r0, r0, r4, lsr #11
    1474:	a4540001 	ldrbge	r0, [r4], #-1
    1478:	a8000005 	stmdage	r0, {r0, r2}
    147c:	01000005 	tsteq	r0, r5
    1480:	05a85000 	streq	r5, [r8, #0]!
    1484:	05bc0000 	ldreq	r0, [ip, #0]!
    1488:	00010000 	andeq	r0, r1, r0
    148c:	0005bc54 	andeq	fp, r5, r4, asr ip
    1490:	0005d400 	andeq	sp, r5, r0, lsl #8
    1494:	50000100 	andpl	r0, r0, r0, lsl #2
	...
    14a0:	000005d4 	ldrdeq	r0, [r0], -r4
    14a4:	000005e7 	andeq	r0, r0, r7, ror #11
    14a8:	e7500001 	ldrb	r0, [r0, -r1]
    14ac:	20000005 	andcs	r0, r0, r5
    14b0:	04000006 	streq	r0, [r0], #-6
    14b4:	5001f300 	andpl	pc, r1, r0, lsl #6
    14b8:	0000009f 	muleq	r0, pc, r0	; <UNPREDICTABLE>
    14bc:	00000000 	andeq	r0, r0, r0
    14c0:	0005d400 	andeq	sp, r5, r0, lsl #8
    14c4:	0005e700 	andeq	lr, r5, r0, lsl #14
    14c8:	51000100 	mrspl	r0, (UNDEF: 16)
    14cc:	000005e7 	andeq	r0, r0, r7, ror #11
    14d0:	00000620 	andeq	r0, r0, r0, lsr #12
    14d4:	01f30004 	mvnseq	r0, r4
    14d8:	00009f51 	andeq	r9, r0, r1, asr pc
    14dc:	00000000 	andeq	r0, r0, r0
    14e0:	05d40000 	ldrbeq	r0, [r4]
    14e4:	05e70000 	strbeq	r0, [r7, #0]!
    14e8:	00010000 	andeq	r0, r1, r0
    14ec:	0005e752 	andeq	lr, r5, r2, asr r7
    14f0:	00062000 	andeq	r2, r6, r0
    14f4:	f3000400 	vshl.u8	d0, d0, d0
    14f8:	009f5201 	addseq	r5, pc, r1, lsl #4
    14fc:	00000000 	andeq	r0, r0, r0
    1500:	d4000000 	strle	r0, [r0], #-0
    1504:	e7000005 	str	r0, [r0, -r5]
    1508:	01000005 	tsteq	r0, r5
    150c:	05e75300 	strbeq	r5, [r7, #768]!	; 0x300
    1510:	06200000 	strteq	r0, [r0], -r0
    1514:	00040000 	andeq	r0, r4, r0
    1518:	9f5301f3 	svcls	0x005301f3
	...
    1524:	000005e8 	andeq	r0, r0, r8, ror #11
    1528:	000005f3 	strdeq	r0, [r0], -r3
    152c:	0c500001 	mrrceq	0, 0, r0, r0, cr1	; <UNPREDICTABLE>
    1530:	20000006 	andcs	r0, r0, r6
    1534:	01000006 	tsteq	r0, r6
    1538:	00005000 	andeq	r5, r0, r0
    153c:	00000000 	andeq	r0, r0, r0
    1540:	00fc0000 	rscseq	r0, ip, r0
    1544:	01040000 	mrseq	r0, (UNDEF: 4)
    1548:	00010000 	andeq	r0, r1, r0
    154c:	00010450 	andeq	r0, r1, r0, asr r4
    1550:	00012800 	andeq	r2, r1, r0, lsl #16
    1554:	54000100 	strpl	r0, [r0], #-256	; 0x100
	...
    1564:	00000090 	muleq	r0, r0, r0
    1568:	90500001 	subsls	r0, r0, r1
    156c:	d4000000 	strle	r0, [r0], #-0
    1570:	01000000 	mrseq	r0, (UNDEF: 0)
    1574:	00005400 	andeq	r5, r0, r0, lsl #8
    1578:	00000000 	andeq	r0, r0, r0
    157c:	00480000 	subeq	r0, r8, r0
    1580:	004c0000 	subeq	r0, ip, r0
    1584:	00010000 	andeq	r0, r1, r0
    1588:	00005455 	andeq	r5, r0, r5, asr r4
    158c:	00005800 	andeq	r5, r0, r0, lsl #16
    1590:	55000100 	strpl	r0, [r0, #-256]	; 0x100
    1594:	00000060 	andeq	r0, r0, r0, rrx
    1598:	00000064 	andeq	r0, r0, r4, rrx
    159c:	6c550001 	mrrcvs	0, 0, r0, r5, cr1
    15a0:	70000000 	andvc	r0, r0, r0
    15a4:	01000000 	mrseq	r0, (UNDEF: 0)
    15a8:	00785500 	rsbseq	r5, r8, r0, lsl #10
    15ac:	007c0000 	rsbseq	r0, ip, r0
    15b0:	00010000 	andeq	r0, r1, r0
    15b4:	00008455 	andeq	r8, r0, r5, asr r4
    15b8:	00008800 	andeq	r8, r0, r0, lsl #16
    15bc:	55000100 	strpl	r0, [r0, #-256]	; 0x100
    15c0:	0000008c 	andeq	r0, r0, ip, lsl #1
    15c4:	000000d4 	ldrdeq	r0, [r0], -r4
    15c8:	00550001 	subseq	r0, r5, r1
    15cc:	00000000 	andeq	r0, r0, r0
    15d0:	1c000000 	stcne	0, cr0, [r0], {-0}
    15d4:	44000000 	strmi	r0, [r0], #-0
    15d8:	01000000 	mrseq	r0, (UNDEF: 0)
    15dc:	00445300 	subeq	r5, r4, r0, lsl #6
    15e0:	004c0000 	subeq	r0, ip, r0
    15e4:	001c0000 	andseq	r0, ip, r0
    15e8:	2cf70070 	ldclcs	0, cr0, [r7], #448	; 0x1c0
    15ec:	25f425f7 	ldrbcs	r2, [r4, #1527]!	; 0x5f7
    15f0:	cccccd08 	stclgt	13, cr12, [ip], {8}
    15f4:	000000cc 	andeq	r0, r0, ip, asr #1
    15f8:	20081e00 	andcs	r1, r8, r0, lsl #28
    15fc:	f72525f7 			; <UNDEFINED> instruction: 0xf72525f7
    1600:	9f25332c 	svcls	0x0025332c
    1604:	0000004c 	andeq	r0, r0, ip, asr #32
    1608:	00000050 	andeq	r0, r0, r0, asr r0
    160c:	50530001 	subspl	r0, r3, r1
    1610:	58000000 	stmdapl	r0, {}	; <UNPREDICTABLE>
    1614:	1c000000 	stcne	0, cr0, [r0], {-0}
    1618:	f7007000 			; <UNDEFINED> instruction: 0xf7007000
    161c:	f425f72c 	vld1.8	{d15}, [r5 :128], ip
    1620:	cccd0825 	stclgt	8, cr0, [sp], {37}	; 0x25
    1624:	0000cccc 	andeq	ip, r0, ip, asr #25
    1628:	081e0000 	ldmdaeq	lr, {}	; <UNPREDICTABLE>
    162c:	2525f720 	strcs	pc, [r5, #-1824]!	; 0x720
    1630:	25332cf7 	ldrcs	r2, [r3, #-3319]!	; 0xcf7
    1634:	0000589f 	muleq	r0, pc, r8	; <UNPREDICTABLE>
    1638:	00005c00 	andeq	r5, r0, r0, lsl #24
    163c:	53000100 	movwpl	r0, #256	; 0x100
    1640:	0000005c 	andeq	r0, r0, ip, asr r0
    1644:	00000064 	andeq	r0, r0, r4, rrx
    1648:	0070001c 	rsbseq	r0, r0, ip, lsl r0
    164c:	25f72cf7 	ldrbcs	r2, [r7, #3319]!	; 0xcf7
    1650:	cd0825f4 	cfstr32gt	mvfx2, [r8, #-976]	; 0xfffffc30
    1654:	00cccccc 	sbceq	ip, ip, ip, asr #25
    1658:	1e000000 	cdpne	0, 0, cr0, cr0, cr0, {0}
    165c:	25f72008 	ldrbcs	r2, [r7, #8]!
    1660:	332cf725 	msrcc	CPSR_fs, #9699328	; 0x940000
    1664:	00649f25 	rsbeq	r9, r4, r5, lsr #30
    1668:	00680000 	rsbeq	r0, r8, r0
    166c:	00010000 	andeq	r0, r1, r0
    1670:	00006853 	andeq	r6, r0, r3, asr r8
    1674:	00007000 	andeq	r7, r0, r0
    1678:	70001c00 	andvc	r1, r0, r0, lsl #24
    167c:	f72cf700 			; <UNDEFINED> instruction: 0xf72cf700
    1680:	0825f425 	stmdaeq	r5!, {r0, r2, r5, sl, ip, sp, lr, pc}
    1684:	cccccccd 	stclgt	12, cr12, [ip], {205}	; 0xcd
    1688:	00000000 	andeq	r0, r0, r0
    168c:	f720081e 			; <UNDEFINED> instruction: 0xf720081e
    1690:	2cf72525 	cfldr64cs	mvdx2, [r7], #148	; 0x94
    1694:	709f2533 	addsvc	r2, pc, r3, lsr r5	; <UNPREDICTABLE>
    1698:	74000000 	strvc	r0, [r0], #-0
    169c:	01000000 	mrseq	r0, (UNDEF: 0)
    16a0:	00745300 	rsbseq	r5, r4, r0, lsl #6
    16a4:	007c0000 	rsbseq	r0, ip, r0
    16a8:	001c0000 	andseq	r0, ip, r0
    16ac:	2cf70070 	ldclcs	0, cr0, [r7], #448	; 0x1c0
    16b0:	25f425f7 	ldrbcs	r2, [r4, #1527]!	; 0x5f7
    16b4:	cccccd08 	stclgt	13, cr12, [ip], {8}
    16b8:	000000cc 	andeq	r0, r0, ip, asr #1
    16bc:	20081e00 	andcs	r1, r8, r0, lsl #28
    16c0:	f72525f7 			; <UNDEFINED> instruction: 0xf72525f7
    16c4:	9f25332c 	svcls	0x0025332c
    16c8:	0000007c 	andeq	r0, r0, ip, ror r0
    16cc:	00000080 	andeq	r0, r0, r0, lsl #1
    16d0:	80530001 	subshi	r0, r3, r1
    16d4:	88000000 	stmdahi	r0, {}	; <UNPREDICTABLE>
    16d8:	1c000000 	stcne	0, cr0, [r0], {-0}
    16dc:	f7007000 			; <UNDEFINED> instruction: 0xf7007000
    16e0:	f425f72c 	vld1.8	{d15}, [r5 :128], ip
    16e4:	cccd0825 	stclgt	8, cr0, [sp], {37}	; 0x25
    16e8:	0000cccc 	andeq	ip, r0, ip, asr #25
    16ec:	081e0000 	ldmdaeq	lr, {}	; <UNPREDICTABLE>
    16f0:	2525f720 	strcs	pc, [r5, #-1824]!	; 0x720
    16f4:	25332cf7 	ldrcs	r2, [r3, #-3319]!	; 0xcf7
    16f8:	0000889f 	muleq	r0, pc, r8	; <UNPREDICTABLE>
    16fc:	00008c00 	andeq	r8, r0, r0, lsl #24
    1700:	53000100 	movwpl	r0, #256	; 0x100
    1704:	0000008c 	andeq	r0, r0, ip, lsl #1
    1708:	00000090 	muleq	r0, r0, r0
    170c:	0070001c 	rsbseq	r0, r0, ip, lsl r0
    1710:	25f72cf7 	ldrbcs	r2, [r7, #3319]!	; 0xcf7
    1714:	cd0825f4 	cfstr32gt	mvfx2, [r8, #-976]	; 0xfffffc30
    1718:	00cccccc 	sbceq	ip, ip, ip, asr #25
    171c:	1e000000 	cdpne	0, 0, cr0, cr0, cr0, {0}
    1720:	25f72008 	ldrbcs	r2, [r7, #8]!
    1724:	332cf725 	msrcc	CPSR_fs, #9699328	; 0x940000
    1728:	00909f25 	addseq	r9, r0, r5, lsr #30
    172c:	00980000 	addseq	r0, r8, r0
    1730:	001c0000 	andseq	r0, ip, r0
    1734:	2cf70074 	ldclcs	0, cr0, [r7], #464	; 0x1d0
    1738:	25f425f7 	ldrbcs	r2, [r4, #1527]!	; 0x5f7
    173c:	cccccd08 	stclgt	13, cr12, [ip], {8}
    1740:	000000cc 	andeq	r0, r0, ip, asr #1
    1744:	20081e00 	andcs	r1, r8, r0, lsl #28
    1748:	f72525f7 			; <UNDEFINED> instruction: 0xf72525f7
    174c:	9f25332c 	svcls	0x0025332c
    1750:	00000098 	muleq	r0, r8, r0
    1754:	0000009c 	muleq	r0, ip, r0
    1758:	00740017 	rsbseq	r0, r4, r7, lsl r0
    175c:	25f72cf7 	ldrbcs	r2, [r7, #3319]!	; 0xcf7
    1760:	2cf70071 	ldclcs	0, cr0, [r7], #452	; 0x1c4
    1764:	081e25f7 	ldmdaeq	lr, {r0, r1, r2, r4, r5, r6, r7, r8, sl, sp}
    1768:	2525f720 	strcs	pc, [r5, #-1824]!	; 0x720
    176c:	25332cf7 	ldrcs	r2, [r3, #-3319]!	; 0xcf7
    1770:	00009c9f 	muleq	r0, pc, ip	; <UNPREDICTABLE>
    1774:	0000d400 	andeq	sp, r0, r0, lsl #8
    1778:	74001c00 	strvc	r1, [r0], #-3072	; 0xc00
    177c:	f72cf700 			; <UNDEFINED> instruction: 0xf72cf700
    1780:	0825f425 	stmdaeq	r5!, {r0, r2, r5, sl, ip, sp, lr, pc}
    1784:	cccccccd 	stclgt	12, cr12, [ip], {205}	; 0xcd
    1788:	00000000 	andeq	r0, r0, r0
    178c:	f720081e 			; <UNDEFINED> instruction: 0xf720081e
    1790:	2cf72525 	cfldr64cs	mvdx2, [r7], #148	; 0x94
    1794:	009f2533 	addseq	r2, pc, r3, lsr r5	; <UNPREDICTABLE>
    1798:	00000000 	andeq	r0, r0, r0
    179c:	94000000 	strls	r0, [r0], #-0
    17a0:	b8000000 	stmdalt	r0, {}	; <UNPREDICTABLE>
    17a4:	01000000 	mrseq	r0, (UNDEF: 0)
    17a8:	00b85000 	adcseq	r5, r8, r0
    17ac:	00c40000 	sbceq	r0, r4, r0
    17b0:	00080000 	andeq	r0, r8, r0
    17b4:	24007131 	strcs	r7, [r0], #-305	; 0x131
    17b8:	9f210073 	svcls	0x00210073
    17bc:	000000c4 	andeq	r0, r0, r4, asr #1
    17c0:	000000c7 	andeq	r0, r0, r7, asr #1
    17c4:	00510001 	subseq	r0, r1, r1
    17c8:	00000000 	andeq	r0, r0, r0
    17cc:	d4000000 	strle	r0, [r0], #-0
    17d0:	f8000000 			; <UNDEFINED> instruction: 0xf8000000
    17d4:	01000000 	mrseq	r0, (UNDEF: 0)
    17d8:	00f85000 	rscseq	r5, r8, r0
    17dc:	010c0000 	mrseq	r0, (UNDEF: 12)
    17e0:	00040000 	andeq	r0, r4, r0
    17e4:	9f5001f3 	svcls	0x005001f3
	...
    17f0:	000000e0 	andeq	r0, r0, r0, ror #1
    17f4:	000000e8 	andeq	r0, r0, r8, ror #1
    17f8:	9f300002 	svcls	0x00300002
    17fc:	000000e8 	andeq	r0, r0, r8, ror #1
    1800:	000000e8 	andeq	r0, r0, r8, ror #1
    1804:	e8520001 	ldmda	r2, {r0}^
    1808:	f0000000 			; <UNDEFINED> instruction: 0xf0000000
    180c:	02000000 	andeq	r0, r0, #0
    1810:	f09f3000 			; <UNDEFINED> instruction: 0xf09f3000
    1814:	03000000 	movweq	r0, #0
    1818:	01000001 	tsteq	r0, r1
    181c:	00005200 	andeq	r5, r0, r0, lsl #4
    1820:	00000000 	andeq	r0, r0, r0
    1824:	00e00000 	rsceq	r0, r0, r0
    1828:	00f40000 	rscseq	r0, r4, r0
    182c:	00020000 	andeq	r0, r2, r0
    1830:	00f49f30 	rscseq	r9, r4, r0, lsr pc
    1834:	01000000 	mrseq	r0, (UNDEF: 0)
    1838:	00050000 	andeq	r0, r5, r0
    183c:	24007331 	strcs	r7, [r0], #-817	; 0x331
    1840:	0001009f 	muleq	r1, pc, r0	; <UNPREDICTABLE>
    1844:	00010300 	andeq	r0, r1, r0, lsl #6
    1848:	51000100 	mrspl	r0, (UNDEF: 16)
    184c:	00000103 	andeq	r0, r0, r3, lsl #2
    1850:	0000010c 	andeq	r0, r0, ip, lsl #2
    1854:	f3310008 	vhadd.u<illegal width 64>	d0, d1, d8
    1858:	1a4f5001 	bne	13d5864 <__bss_end__+0x13cb524>
    185c:	00009f24 	andeq	r9, r0, r4, lsr #30
    1860:	00000000 	andeq	r0, r0, r0
    1864:	010c0000 	mrseq	r0, (UNDEF: 12)
    1868:	01300000 	teqeq	r0, r0
    186c:	00010000 	andeq	r0, r1, r0
    1870:	00013050 	andeq	r3, r1, r0, asr r0
    1874:	00014400 	andeq	r4, r1, r0, lsl #8
    1878:	f3000400 	vshl.u8	d0, d0, d0
    187c:	009f5001 	addseq	r5, pc, r1
    1880:	00000000 	andeq	r0, r0, r0
    1884:	18000000 	stmdane	r0, {}	; <UNPREDICTABLE>
    1888:	20000001 	andcs	r0, r0, r1
    188c:	02000001 	andeq	r0, r0, #1
    1890:	209f3000 	addscs	r3, pc, r0
    1894:	20000001 	andcs	r0, r0, r1
    1898:	01000001 	tsteq	r0, r1
    189c:	01205200 	teqeq	r0, r0, lsl #4
    18a0:	01280000 	teqeq	r8, r0
    18a4:	00020000 	andeq	r0, r2, r0
    18a8:	01289f30 	teqeq	r8, r0, lsr pc
    18ac:	013b0000 	teqeq	fp, r0
    18b0:	00010000 	andeq	r0, r1, r0
    18b4:	00000052 	andeq	r0, r0, r2, asr r0
    18b8:	00000000 	andeq	r0, r0, r0
    18bc:	00011800 	andeq	r1, r1, r0, lsl #16
    18c0:	00012c00 	andeq	r2, r1, r0, lsl #24
    18c4:	30000200 	andcc	r0, r0, r0, lsl #4
    18c8:	00012c9f 	muleq	r1, pc, ip	; <UNPREDICTABLE>
    18cc:	00013800 	andeq	r3, r1, r0, lsl #16
    18d0:	31000500 	tstcc	r0, r0, lsl #10
    18d4:	9f240073 	svcls	0x00240073
    18d8:	00000138 	andeq	r0, r0, r8, lsr r1
    18dc:	0000013b 	andeq	r0, r0, fp, lsr r1
    18e0:	3b510001 	blcc	14418ec <__bss_end__+0x14375ac>
    18e4:	44000001 	strmi	r0, [r0], #-1
    18e8:	08000001 	stmdaeq	r0, {r0}
    18ec:	01f33100 	mvnseq	r3, r0, lsl #2
    18f0:	241a4f50 	ldrcs	r4, [sl], #-3920	; 0xf50
    18f4:	0000009f 	muleq	r0, pc, r0	; <UNPREDICTABLE>
    18f8:	00000000 	andeq	r0, r0, r0
    18fc:	00014400 	andeq	r4, r1, r0, lsl #8
    1900:	0001d400 	andeq	sp, r1, r0, lsl #8
    1904:	50000100 	andpl	r0, r0, r0, lsl #2
    1908:	000001d4 	ldrdeq	r0, [r0], -r4
    190c:	00000210 	andeq	r0, r0, r0, lsl r2
    1910:	00540001 	subseq	r0, r4, r1
    1914:	00000000 	andeq	r0, r0, r0
    1918:	8c000000 	stchi	0, cr0, [r0], {-0}
    191c:	90000001 	andls	r0, r0, r1
    1920:	01000001 	tsteq	r0, r1
    1924:	01985500 	orrseq	r5, r8, r0, lsl #10
    1928:	019c0000 	orrseq	r0, ip, r0
    192c:	00010000 	andeq	r0, r1, r0
    1930:	0001a455 	andeq	sl, r1, r5, asr r4
    1934:	0001a800 	andeq	sl, r1, r0, lsl #16
    1938:	55000100 	strpl	r0, [r0, #-256]	; 0x100
    193c:	000001b0 			; <UNDEFINED> instruction: 0x000001b0
    1940:	000001b4 			; <UNDEFINED> instruction: 0x000001b4
    1944:	bc550001 	mrrclt	0, 0, r0, r5, cr1
    1948:	c0000001 	andgt	r0, r0, r1
    194c:	01000001 	tsteq	r0, r1
    1950:	01c85500 	biceq	r5, r8, r0, lsl #10
    1954:	01cc0000 	biceq	r0, ip, r0
    1958:	00010000 	andeq	r0, r1, r0
    195c:	0001d055 	andeq	sp, r1, r5, asr r0
    1960:	00021000 	andeq	r1, r2, r0
    1964:	55000100 	strpl	r0, [r0, #-256]	; 0x100
	...
    1970:	00000160 	andeq	r0, r0, r0, ror #2
    1974:	00000188 	andeq	r0, r0, r8, lsl #3
    1978:	88530001 	ldmdahi	r3, {r0}^
    197c:	90000001 	andls	r0, r0, r1
    1980:	1c000001 	stcne	0, cr0, [r0], {1}
    1984:	f7007000 			; <UNDEFINED> instruction: 0xf7007000
    1988:	f425f72c 	vld1.8	{d15}, [r5 :128], ip
    198c:	cccd0825 	stclgt	8, cr0, [sp], {37}	; 0x25
    1990:	0000cccc 	andeq	ip, r0, ip, asr #25
    1994:	081e0000 	ldmdaeq	lr, {}	; <UNPREDICTABLE>
    1998:	2525f720 	strcs	pc, [r5, #-1824]!	; 0x720
    199c:	25332cf7 	ldrcs	r2, [r3, #-3319]!	; 0xcf7
    19a0:	0001909f 	muleq	r1, pc, r0	; <UNPREDICTABLE>
    19a4:	00019400 	andeq	r9, r1, r0, lsl #8
    19a8:	53000100 	movwpl	r0, #256	; 0x100
    19ac:	00000194 	muleq	r0, r4, r1
    19b0:	0000019c 	muleq	r0, ip, r1
    19b4:	0070001c 	rsbseq	r0, r0, ip, lsl r0
    19b8:	25f72cf7 	ldrbcs	r2, [r7, #3319]!	; 0xcf7
    19bc:	cd0825f4 	cfstr32gt	mvfx2, [r8, #-976]	; 0xfffffc30
    19c0:	00cccccc 	sbceq	ip, ip, ip, asr #25
    19c4:	1e000000 	cdpne	0, 0, cr0, cr0, cr0, {0}
    19c8:	25f72008 	ldrbcs	r2, [r7, #8]!
    19cc:	332cf725 	msrcc	CPSR_fs, #9699328	; 0x940000
    19d0:	019c9f25 	orrseq	r9, ip, r5, lsr #30
    19d4:	01a00000 	moveq	r0, r0
    19d8:	00010000 	andeq	r0, r1, r0
    19dc:	0001a053 	andeq	sl, r1, r3, asr r0
    19e0:	0001a800 	andeq	sl, r1, r0, lsl #16
    19e4:	70001c00 	andvc	r1, r0, r0, lsl #24
    19e8:	f72cf700 			; <UNDEFINED> instruction: 0xf72cf700
    19ec:	0825f425 	stmdaeq	r5!, {r0, r2, r5, sl, ip, sp, lr, pc}
    19f0:	cccccccd 	stclgt	12, cr12, [ip], {205}	; 0xcd
    19f4:	00000000 	andeq	r0, r0, r0
    19f8:	f720081e 			; <UNDEFINED> instruction: 0xf720081e
    19fc:	2cf72525 	cfldr64cs	mvdx2, [r7], #148	; 0x94
    1a00:	a89f2533 	ldmge	pc, {r0, r1, r4, r5, r8, sl, sp}	; <UNPREDICTABLE>
    1a04:	ac000001 	stcge	0, cr0, [r0], {1}
    1a08:	01000001 	tsteq	r0, r1
    1a0c:	01ac5300 			; <UNDEFINED> instruction: 0x01ac5300
    1a10:	01b40000 			; <UNDEFINED> instruction: 0x01b40000
    1a14:	001c0000 	andseq	r0, ip, r0
    1a18:	2cf70070 	ldclcs	0, cr0, [r7], #448	; 0x1c0
    1a1c:	25f425f7 	ldrbcs	r2, [r4, #1527]!	; 0x5f7
    1a20:	cccccd08 	stclgt	13, cr12, [ip], {8}
    1a24:	000000cc 	andeq	r0, r0, ip, asr #1
    1a28:	20081e00 	andcs	r1, r8, r0, lsl #28
    1a2c:	f72525f7 			; <UNDEFINED> instruction: 0xf72525f7
    1a30:	9f25332c 	svcls	0x0025332c
    1a34:	000001b4 			; <UNDEFINED> instruction: 0x000001b4
    1a38:	000001b8 			; <UNDEFINED> instruction: 0x000001b8
    1a3c:	b8530001 	ldmdalt	r3, {r0}^
    1a40:	c0000001 	andgt	r0, r0, r1
    1a44:	1c000001 	stcne	0, cr0, [r0], {1}
    1a48:	f7007000 			; <UNDEFINED> instruction: 0xf7007000
    1a4c:	f425f72c 	vld1.8	{d15}, [r5 :128], ip
    1a50:	cccd0825 	stclgt	8, cr0, [sp], {37}	; 0x25
    1a54:	0000cccc 	andeq	ip, r0, ip, asr #25
    1a58:	081e0000 	ldmdaeq	lr, {}	; <UNPREDICTABLE>
    1a5c:	2525f720 	strcs	pc, [r5, #-1824]!	; 0x720
    1a60:	25332cf7 	ldrcs	r2, [r3, #-3319]!	; 0xcf7
    1a64:	0001c09f 	muleq	r1, pc, r0	; <UNPREDICTABLE>
    1a68:	0001c400 	andeq	ip, r1, r0, lsl #8
    1a6c:	53000100 	movwpl	r0, #256	; 0x100
    1a70:	000001c4 	andeq	r0, r0, r4, asr #3
    1a74:	000001cc 	andeq	r0, r0, ip, asr #3
    1a78:	0070001c 	rsbseq	r0, r0, ip, lsl r0
    1a7c:	25f72cf7 	ldrbcs	r2, [r7, #3319]!	; 0xcf7
    1a80:	cd0825f4 	cfstr32gt	mvfx2, [r8, #-976]	; 0xfffffc30
    1a84:	00cccccc 	sbceq	ip, ip, ip, asr #25
    1a88:	1e000000 	cdpne	0, 0, cr0, cr0, cr0, {0}
    1a8c:	25f72008 	ldrbcs	r2, [r7, #8]!
    1a90:	332cf725 	msrcc	CPSR_fs, #9699328	; 0x940000
    1a94:	01cc9f25 	biceq	r9, ip, r5, lsr #30
    1a98:	01d00000 	bicseq	r0, r0, r0
    1a9c:	00010000 	andeq	r0, r1, r0
    1aa0:	0001d053 	andeq	sp, r1, r3, asr r0
    1aa4:	0001d400 	andeq	sp, r1, r0, lsl #8
    1aa8:	70001c00 	andvc	r1, r0, r0, lsl #24
    1aac:	f72cf700 			; <UNDEFINED> instruction: 0xf72cf700
    1ab0:	0825f425 	stmdaeq	r5!, {r0, r2, r5, sl, ip, sp, lr, pc}
    1ab4:	cccccccd 	stclgt	12, cr12, [ip], {205}	; 0xcd
    1ab8:	00000000 	andeq	r0, r0, r0
    1abc:	f720081e 			; <UNDEFINED> instruction: 0xf720081e
    1ac0:	2cf72525 	cfldr64cs	mvdx2, [r7], #148	; 0x94
    1ac4:	d49f2533 	ldrle	r2, [pc], #1331	; 1acc <_start-0x6534>
    1ac8:	dc000001 	stcle	0, cr0, [r0], {1}
    1acc:	1c000001 	stcne	0, cr0, [r0], {1}
    1ad0:	f7007400 			; <UNDEFINED> instruction: 0xf7007400
    1ad4:	f425f72c 	vld1.8	{d15}, [r5 :128], ip
    1ad8:	cccd0825 	stclgt	8, cr0, [sp], {37}	; 0x25
    1adc:	0000cccc 	andeq	ip, r0, ip, asr #25
    1ae0:	081e0000 	ldmdaeq	lr, {}	; <UNPREDICTABLE>
    1ae4:	2525f720 	strcs	pc, [r5, #-1824]!	; 0x720
    1ae8:	25332cf7 	ldrcs	r2, [r3, #-3319]!	; 0xcf7
    1aec:	0001dc9f 	muleq	r1, pc, ip	; <UNPREDICTABLE>
    1af0:	0001e000 	andeq	lr, r1, r0
    1af4:	74001700 	strvc	r1, [r0], #-1792	; 0x700
    1af8:	f72cf700 			; <UNDEFINED> instruction: 0xf72cf700
    1afc:	f7007125 			; <UNDEFINED> instruction: 0xf7007125
    1b00:	1e25f72c 	cdpne	7, 2, cr15, cr5, cr12, {1}
    1b04:	25f72008 	ldrbcs	r2, [r7, #8]!
    1b08:	332cf725 	msrcc	CPSR_fs, #9699328	; 0x940000
    1b0c:	01e09f25 	mvneq	r9, r5, lsr #30
    1b10:	02100000 	andseq	r0, r0, #0
    1b14:	001c0000 	andseq	r0, ip, r0
    1b18:	2cf70074 	ldclcs	0, cr0, [r7], #464	; 0x1d0
    1b1c:	25f425f7 	ldrbcs	r2, [r4, #1527]!	; 0x5f7
    1b20:	cccccd08 	stclgt	13, cr12, [ip], {8}
    1b24:	000000cc 	andeq	r0, r0, ip, asr #1
    1b28:	20081e00 	andcs	r1, r8, r0, lsl #28
    1b2c:	f72525f7 			; <UNDEFINED> instruction: 0xf72525f7
    1b30:	9f25332c 	svcls	0x0025332c
	...
    1b3c:	000001d8 	ldrdeq	r0, [r0], -r8
    1b40:	000001fc 	strdeq	r0, [r0], -ip
    1b44:	fc500001 	mrrc2	0, 0, r0, r0, cr1	; <UNPREDICTABLE>
    1b48:	03000001 	movweq	r0, #1
    1b4c:	01000002 	tsteq	r0, r2
    1b50:	00005100 	andeq	r5, r0, r0, lsl #2
    1b54:	00000000 	andeq	r0, r0, r0
    1b58:	02100000 	andseq	r0, r0, #0
    1b5c:	022c0000 	eoreq	r0, ip, #0
    1b60:	00010000 	andeq	r0, r1, r0
    1b64:	00022c50 	andeq	r2, r2, r0, asr ip
    1b68:	00023400 	andeq	r3, r2, r0, lsl #8
    1b6c:	54000100 	strpl	r0, [r0], #-256	; 0x100
    1b70:	00000234 	andeq	r0, r0, r4, lsr r2
    1b74:	0000023c 	andeq	r0, r0, ip, lsr r2
    1b78:	3c500001 	mrrccc	0, 0, r0, r0, cr1	; <UNPREDICTABLE>
    1b7c:	44000002 	strmi	r0, [r0], #-2
    1b80:	01000002 	tsteq	r0, r2
    1b84:	02445400 	subeq	r5, r4, #0, 8
    1b88:	02500000 	subseq	r0, r0, #0
    1b8c:	00040000 	andeq	r0, r4, r0
    1b90:	9f5001f3 	svcls	0x005001f3
    1b94:	00000250 	andeq	r0, r0, r0, asr r2
    1b98:	00000254 	andeq	r0, r0, r4, asr r2
    1b9c:	54500001 	ldrbpl	r0, [r0], #-1
    1ba0:	5c000002 	stcpl	0, cr0, [r0], {2}
    1ba4:	01000002 	tsteq	r0, r2
    1ba8:	00005400 	andeq	r5, r0, r0, lsl #8
    1bac:	00000000 	andeq	r0, r0, r0
    1bb0:	02200000 	eoreq	r0, r0, #0
    1bb4:	02300000 	eorseq	r0, r0, #0
    1bb8:	00020000 	andeq	r0, r2, r0
    1bbc:	02309f30 	eorseq	r9, r0, #48, 30	; 0xc0
    1bc0:	02340000 	eorseq	r0, r4, #0
    1bc4:	00010000 	andeq	r0, r1, r0
    1bc8:	00023450 	andeq	r3, r2, r0, asr r4
    1bcc:	00024000 	andeq	r4, r2, r0
    1bd0:	30000200 	andcc	r0, r0, r0, lsl #4
    1bd4:	0002409f 	muleq	r2, pc, r0	; <UNPREDICTABLE>
    1bd8:	00024c00 	andeq	r4, r2, r0, lsl #24
    1bdc:	50000100 	andpl	r0, r0, r0, lsl #2
	...
    1be8:	0000025c 	andeq	r0, r0, ip, asr r2
    1bec:	00000273 	andeq	r0, r0, r3, ror r2
    1bf0:	73500001 	cmpvc	r0, #1
    1bf4:	78000002 	stmdavc	r0, {r1}
    1bf8:	04000002 	streq	r0, [r0], #-2
    1bfc:	5001f300 	andpl	pc, r1, r0, lsl #6
    1c00:	0002789f 	muleq	r2, pc, r8	; <UNPREDICTABLE>
    1c04:	00027b00 	andeq	r7, r2, r0, lsl #22
    1c08:	50000100 	andpl	r0, r0, r0, lsl #2
    1c0c:	0000027b 	andeq	r0, r0, fp, ror r2
    1c10:	00000280 	andeq	r0, r0, r0, lsl #5
    1c14:	01f30004 	mvnseq	r0, r4
    1c18:	00009f50 	andeq	r9, r0, r0, asr pc
    1c1c:	00000000 	andeq	r0, r0, r0
    1c20:	025c0000 	subseq	r0, ip, #0
    1c24:	02730000 	rsbseq	r0, r3, #0
    1c28:	00010000 	andeq	r0, r1, r0
    1c2c:	00027351 	andeq	r7, r2, r1, asr r3
    1c30:	00027800 	andeq	r7, r2, r0, lsl #16
    1c34:	f3000400 	vshl.u8	d0, d0, d0
    1c38:	789f5101 	ldmvc	pc, {r0, r8, ip, lr}	; <UNPREDICTABLE>
    1c3c:	7b000002 	blvc	1c4c <_start-0x63b4>
    1c40:	01000002 	tsteq	r0, r2
    1c44:	027b5100 	rsbseq	r5, fp, #0, 2
    1c48:	02800000 	addeq	r0, r0, #0
    1c4c:	00040000 	andeq	r0, r4, r0
    1c50:	9f5101f3 	svcls	0x005101f3
	...
    1c5c:	00000280 	andeq	r0, r0, r0, lsl #5
    1c60:	00000318 	andeq	r0, r0, r8, lsl r3
    1c64:	18500001 	ldmdane	r0, {r0}^
    1c68:	58000003 	stmdapl	r0, {r0, r1}
    1c6c:	01000003 	tsteq	r0, r3
    1c70:	00005400 	andeq	r5, r0, r0, lsl #8
    1c74:	00000000 	andeq	r0, r0, r0
    1c78:	02800000 	addeq	r0, r0, #0
    1c7c:	031b0000 	tsteq	fp, #0
    1c80:	00010000 	andeq	r0, r1, r0
    1c84:	00031b51 	andeq	r1, r3, r1, asr fp
    1c88:	00035800 	andeq	r5, r3, r0, lsl #16
    1c8c:	f3000400 	vshl.u8	d0, d0, d0
    1c90:	009f5101 	addseq	r5, pc, r1, lsl #2
    1c94:	00000000 	andeq	r0, r0, r0
    1c98:	d0000000 	andle	r0, r0, r0
    1c9c:	d4000002 	strle	r0, [r0], #-2
    1ca0:	01000002 	tsteq	r0, r2
    1ca4:	02dc5600 	sbcseq	r5, ip, #0, 12
    1ca8:	02e00000 	rsceq	r0, r0, #0
    1cac:	00010000 	andeq	r0, r1, r0
    1cb0:	0002e856 	andeq	lr, r2, r6, asr r8
    1cb4:	0002ec00 	andeq	lr, r2, r0, lsl #24
    1cb8:	56000100 	strpl	r0, [r0], -r0, lsl #2
    1cbc:	000002f4 	strdeq	r0, [r0], -r4
    1cc0:	000002f8 	strdeq	r0, [r0], -r8
    1cc4:	00560001 	subseq	r0, r6, r1
    1cc8:	04000003 	streq	r0, [r0], #-3
    1ccc:	01000003 	tsteq	r0, r3
    1cd0:	030c5600 	movweq	r5, #50688	; 0xc600
    1cd4:	03100000 	tsteq	r0, #0
    1cd8:	00010000 	andeq	r0, r1, r0
    1cdc:	00031456 	andeq	r1, r3, r6, asr r4
    1ce0:	00035800 	andeq	r5, r3, r0, lsl #16
    1ce4:	56000100 	strpl	r0, [r0], -r0, lsl #2
	...
    1cf0:	000002a4 	andeq	r0, r0, r4, lsr #5
    1cf4:	000002cc 	andeq	r0, r0, ip, asr #5
    1cf8:	cc530001 	mrrcgt	0, 0, r0, r3, cr1
    1cfc:	d4000002 	strle	r0, [r0], #-2
    1d00:	1c000002 	stcne	0, cr0, [r0], {2}
    1d04:	f7007000 			; <UNDEFINED> instruction: 0xf7007000
    1d08:	f425f72c 	vld1.8	{d15}, [r5 :128], ip
    1d0c:	cccd0825 	stclgt	8, cr0, [sp], {37}	; 0x25
    1d10:	0000cccc 	andeq	ip, r0, ip, asr #25
    1d14:	081e0000 	ldmdaeq	lr, {}	; <UNPREDICTABLE>
    1d18:	2525f720 	strcs	pc, [r5, #-1824]!	; 0x720
    1d1c:	25332cf7 	ldrcs	r2, [r3, #-3319]!	; 0xcf7
    1d20:	0002d49f 	muleq	r2, pc, r4	; <UNPREDICTABLE>
    1d24:	0002d800 	andeq	sp, r2, r0, lsl #16
    1d28:	53000100 	movwpl	r0, #256	; 0x100
    1d2c:	000002d8 	ldrdeq	r0, [r0], -r8
    1d30:	000002e0 	andeq	r0, r0, r0, ror #5
    1d34:	0070001c 	rsbseq	r0, r0, ip, lsl r0
    1d38:	25f72cf7 	ldrbcs	r2, [r7, #3319]!	; 0xcf7
    1d3c:	cd0825f4 	cfstr32gt	mvfx2, [r8, #-976]	; 0xfffffc30
    1d40:	00cccccc 	sbceq	ip, ip, ip, asr #25
    1d44:	1e000000 	cdpne	0, 0, cr0, cr0, cr0, {0}
    1d48:	25f72008 	ldrbcs	r2, [r7, #8]!
    1d4c:	332cf725 	msrcc	CPSR_fs, #9699328	; 0x940000
    1d50:	02e09f25 	rsceq	r9, r0, #37, 30	; 0x94
    1d54:	02e40000 	rsceq	r0, r4, #0
    1d58:	00010000 	andeq	r0, r1, r0
    1d5c:	0002e453 	andeq	lr, r2, r3, asr r4
    1d60:	0002ec00 	andeq	lr, r2, r0, lsl #24
    1d64:	70001c00 	andvc	r1, r0, r0, lsl #24
    1d68:	f72cf700 			; <UNDEFINED> instruction: 0xf72cf700
    1d6c:	0825f425 	stmdaeq	r5!, {r0, r2, r5, sl, ip, sp, lr, pc}
    1d70:	cccccccd 	stclgt	12, cr12, [ip], {205}	; 0xcd
    1d74:	00000000 	andeq	r0, r0, r0
    1d78:	f720081e 			; <UNDEFINED> instruction: 0xf720081e
    1d7c:	2cf72525 	cfldr64cs	mvdx2, [r7], #148	; 0x94
    1d80:	ec9f2533 	cfldr32	mvfx2, [pc], {51}	; 0x33
    1d84:	f0000002 			; <UNDEFINED> instruction: 0xf0000002
    1d88:	01000002 	tsteq	r0, r2
    1d8c:	02f05300 	rscseq	r5, r0, #0, 6
    1d90:	02f80000 	rscseq	r0, r8, #0
    1d94:	001c0000 	andseq	r0, ip, r0
    1d98:	2cf70070 	ldclcs	0, cr0, [r7], #448	; 0x1c0
    1d9c:	25f425f7 	ldrbcs	r2, [r4, #1527]!	; 0x5f7
    1da0:	cccccd08 	stclgt	13, cr12, [ip], {8}
    1da4:	000000cc 	andeq	r0, r0, ip, asr #1
    1da8:	20081e00 	andcs	r1, r8, r0, lsl #28
    1dac:	f72525f7 			; <UNDEFINED> instruction: 0xf72525f7
    1db0:	9f25332c 	svcls	0x0025332c
    1db4:	000002f8 	strdeq	r0, [r0], -r8
    1db8:	000002fc 	strdeq	r0, [r0], -ip
    1dbc:	fc530001 	mrrc2	0, 0, r0, r3, cr1
    1dc0:	04000002 	streq	r0, [r0], #-2
    1dc4:	1c000003 	stcne	0, cr0, [r0], {3}
    1dc8:	f7007000 			; <UNDEFINED> instruction: 0xf7007000
    1dcc:	f425f72c 	vld1.8	{d15}, [r5 :128], ip
    1dd0:	cccd0825 	stclgt	8, cr0, [sp], {37}	; 0x25
    1dd4:	0000cccc 	andeq	ip, r0, ip, asr #25
    1dd8:	081e0000 	ldmdaeq	lr, {}	; <UNPREDICTABLE>
    1ddc:	2525f720 	strcs	pc, [r5, #-1824]!	; 0x720
    1de0:	25332cf7 	ldrcs	r2, [r3, #-3319]!	; 0xcf7
    1de4:	0003049f 	muleq	r3, pc, r4	; <UNPREDICTABLE>
    1de8:	00030800 	andeq	r0, r3, r0, lsl #16
    1dec:	53000100 	movwpl	r0, #256	; 0x100
    1df0:	00000308 	andeq	r0, r0, r8, lsl #6
    1df4:	00000310 	andeq	r0, r0, r0, lsl r3
    1df8:	0070001c 	rsbseq	r0, r0, ip, lsl r0
    1dfc:	25f72cf7 	ldrbcs	r2, [r7, #3319]!	; 0xcf7
    1e00:	cd0825f4 	cfstr32gt	mvfx2, [r8, #-976]	; 0xfffffc30
    1e04:	00cccccc 	sbceq	ip, ip, ip, asr #25
    1e08:	1e000000 	cdpne	0, 0, cr0, cr0, cr0, {0}
    1e0c:	25f72008 	ldrbcs	r2, [r7, #8]!
    1e10:	332cf725 	msrcc	CPSR_fs, #9699328	; 0x940000
    1e14:	03109f25 	tsteq	r0, #37, 30	; 0x94
    1e18:	03140000 	tsteq	r4, #0
    1e1c:	00010000 	andeq	r0, r1, r0
    1e20:	00031453 	andeq	r1, r3, r3, asr r4
    1e24:	00031800 	andeq	r1, r3, r0, lsl #16
    1e28:	70001c00 	andvc	r1, r0, r0, lsl #24
    1e2c:	f72cf700 			; <UNDEFINED> instruction: 0xf72cf700
    1e30:	0825f425 	stmdaeq	r5!, {r0, r2, r5, sl, ip, sp, lr, pc}
    1e34:	cccccccd 	stclgt	12, cr12, [ip], {205}	; 0xcd
    1e38:	00000000 	andeq	r0, r0, r0
    1e3c:	f720081e 			; <UNDEFINED> instruction: 0xf720081e
    1e40:	2cf72525 	cfldr64cs	mvdx2, [r7], #148	; 0x94
    1e44:	189f2533 	ldmne	pc, {r0, r1, r4, r5, r8, sl, sp}	; <UNPREDICTABLE>
    1e48:	20000003 	andcs	r0, r0, r3
    1e4c:	1c000003 	stcne	0, cr0, [r0], {3}
    1e50:	f7007400 			; <UNDEFINED> instruction: 0xf7007400
    1e54:	f425f72c 	vld1.8	{d15}, [r5 :128], ip
    1e58:	cccd0825 	stclgt	8, cr0, [sp], {37}	; 0x25
    1e5c:	0000cccc 	andeq	ip, r0, ip, asr #25
    1e60:	081e0000 	ldmdaeq	lr, {}	; <UNPREDICTABLE>
    1e64:	2525f720 	strcs	pc, [r5, #-1824]!	; 0x720
    1e68:	25332cf7 	ldrcs	r2, [r3, #-3319]!	; 0xcf7
    1e6c:	0003209f 	muleq	r3, pc, r0	; <UNPREDICTABLE>
    1e70:	00032400 	andeq	r2, r3, r0, lsl #8
    1e74:	74001700 	strvc	r1, [r0], #-1792	; 0x700
    1e78:	f72cf700 			; <UNDEFINED> instruction: 0xf72cf700
    1e7c:	f7007325 			; <UNDEFINED> instruction: 0xf7007325
    1e80:	1e25f72c 	cdpne	7, 2, cr15, cr5, cr12, {1}
    1e84:	25f72008 	ldrbcs	r2, [r7, #8]!
    1e88:	332cf725 	msrcc	CPSR_fs, #9699328	; 0x940000
    1e8c:	03249f25 	teqeq	r4, #37, 30	; 0x94
    1e90:	03580000 	cmpeq	r8, #0
    1e94:	001c0000 	andseq	r0, ip, r0
    1e98:	2cf70074 	ldclcs	0, cr0, [r7], #464	; 0x1d0
    1e9c:	25f425f7 	ldrbcs	r2, [r4, #1527]!	; 0x5f7
    1ea0:	cccccd08 	stclgt	13, cr12, [ip], {8}
    1ea4:	000000cc 	andeq	r0, r0, ip, asr #1
    1ea8:	20081e00 	andcs	r1, r8, r0, lsl #28
    1eac:	f72525f7 			; <UNDEFINED> instruction: 0xf72525f7
    1eb0:	9f25332c 	svcls	0x0025332c
	...
    1ebc:	0000031c 	andeq	r0, r0, ip, lsl r3
    1ec0:	00000340 	andeq	r0, r0, r0, asr #6
    1ec4:	40500001 	subsmi	r0, r0, r1
    1ec8:	48000003 	stmdami	r0, {r0, r1}
    1ecc:	09000003 	stmdbeq	r0, {r0, r1}
    1ed0:	73007500 	movwvc	r7, #1280	; 0x500
    1ed4:	00712400 	rsbseq	r2, r1, r0, lsl #8
    1ed8:	03489f21 	movteq	r9, #36641	; 0x8f21
    1edc:	034b0000 	movteq	r0, #45056	; 0xb000
    1ee0:	00010000 	andeq	r0, r1, r0
    1ee4:	00000051 	andeq	r0, r0, r1, asr r0
    1ee8:	00000000 	andeq	r0, r0, r0
    1eec:	00035800 	andeq	r5, r3, r0, lsl #16
    1ef0:	00036400 	andeq	r6, r3, r0, lsl #8
    1ef4:	50000100 	andpl	r0, r0, r0, lsl #2
    1ef8:	00000364 	andeq	r0, r0, r4, ror #6
    1efc:	00000384 	andeq	r0, r0, r4, lsl #7
    1f00:	01f30004 	mvnseq	r0, r4
    1f04:	00009f50 	andeq	r9, r0, r0, asr pc
    1f08:	00000000 	andeq	r0, r0, r0
    1f0c:	03840000 	orreq	r0, r4, #0
    1f10:	03970000 	orrseq	r0, r7, #0
    1f14:	00010000 	andeq	r0, r1, r0
    1f18:	00039750 	andeq	r9, r3, r0, asr r7
    1f1c:	0003d000 	andeq	sp, r3, r0
    1f20:	54000100 	strpl	r0, [r0], #-256	; 0x100
    1f24:	000003d0 	ldrdeq	r0, [r0], -r0	; <UNPREDICTABLE>
    1f28:	00000408 	andeq	r0, r0, r8, lsl #8
    1f2c:	01f30004 	mvnseq	r0, r4
    1f30:	00009f50 	andeq	r9, r0, r0, asr pc
    1f34:	00000000 	andeq	r0, r0, r0
    1f38:	03f00000 	mvnseq	r0, #0
    1f3c:	03f40000 	mvnseq	r0, #0
    1f40:	00010000 	andeq	r0, r1, r0
    1f44:	0003f450 	andeq	pc, r3, r0, asr r4	; <UNPREDICTABLE>
    1f48:	0003fb00 	andeq	pc, r3, r0, lsl #22
    1f4c:	51000100 	mrspl	r0, (UNDEF: 16)
	...
    1f58:	000003ac 	andeq	r0, r0, ip, lsr #7
    1f5c:	000003b4 			; <UNDEFINED> instruction: 0x000003b4
    1f60:	b4500001 	ldrblt	r0, [r0], #-1
    1f64:	bb000003 	bllt	1f78 <_start-0x6088>
    1f68:	01000003 	tsteq	r0, r3
    1f6c:	00005100 	andeq	r5, r0, r0, lsl #2
    1f70:	00000000 	andeq	r0, r0, r0
    1f74:	03cc0000 	biceq	r0, ip, #0
    1f78:	03d80000 	bicseq	r0, r8, #0
    1f7c:	00010000 	andeq	r0, r1, r0
    1f80:	0003d850 	andeq	sp, r3, r0, asr r8
    1f84:	0003df00 	andeq	sp, r3, r0, lsl #30
    1f88:	51000100 	mrspl	r0, (UNDEF: 16)
	...
    1f94:	00000408 	andeq	r0, r0, r8, lsl #8
    1f98:	0000041b 	andeq	r0, r0, fp, lsl r4
    1f9c:	1b500001 	blne	1401fa8 <__bss_end__+0x13f7c68>
    1fa0:	54000004 	strpl	r0, [r0], #-4
    1fa4:	01000004 	tsteq	r0, r4
    1fa8:	04545400 	ldrbeq	r5, [r4], #-1024	; 0x400
    1fac:	048c0000 	streq	r0, [ip], #0
    1fb0:	00040000 	andeq	r0, r4, r0
    1fb4:	9f5001f3 	svcls	0x005001f3
	...
    1fc0:	00000474 	andeq	r0, r0, r4, ror r4
    1fc4:	00000478 	andeq	r0, r0, r8, ror r4
    1fc8:	78500001 	ldmdavc	r0, {r0}^
    1fcc:	7f000004 	svcvc	0x00000004
    1fd0:	01000004 	tsteq	r0, r4
    1fd4:	00005100 	andeq	r5, r0, r0, lsl #2
    1fd8:	00000000 	andeq	r0, r0, r0
    1fdc:	04300000 	ldrteq	r0, [r0], #-0
    1fe0:	04380000 	ldrteq	r0, [r8], #-0
    1fe4:	00010000 	andeq	r0, r1, r0
    1fe8:	00043850 	andeq	r3, r4, r0, asr r8
    1fec:	00043f00 	andeq	r3, r4, r0, lsl #30
    1ff0:	51000100 	mrspl	r0, (UNDEF: 16)
	...
    1ffc:	00000450 	andeq	r0, r0, r0, asr r4
    2000:	0000045c 	andeq	r0, r0, ip, asr r4
    2004:	5c500001 	mrrcpl	0, 0, r0, r0, cr1	; <UNPREDICTABLE>
    2008:	63000004 	movwvs	r0, #4
    200c:	01000004 	tsteq	r0, r4
    2010:	00005100 	andeq	r5, r0, r0, lsl #2
    2014:	00000000 	andeq	r0, r0, r0
    2018:	048c0000 	streq	r0, [ip], #0
    201c:	049f0000 	ldreq	r0, [pc], #0	; 2024 <_start-0x5fdc>
    2020:	00010000 	andeq	r0, r1, r0
    2024:	00049f50 	andeq	r9, r4, r0, asr pc
    2028:	0004e000 	andeq	lr, r4, r0
    202c:	54000100 	strpl	r0, [r0], #-256	; 0x100
    2030:	000004e0 	andeq	r0, r0, r0, ror #9
    2034:	00000504 	andeq	r0, r0, r4, lsl #10
    2038:	01f30004 	mvnseq	r0, r4
    203c:	05049f50 	streq	r9, [r4, #-3920]	; 0xf50
    2040:	05080000 	streq	r0, [r8, #-0]
    2044:	00010000 	andeq	r0, r1, r0
    2048:	00050850 	andeq	r0, r5, r0, asr r8
    204c:	00051000 	andeq	r1, r5, r0
    2050:	54000100 	strpl	r0, [r0], #-256	; 0x100
	...
    205c:	000004b4 			; <UNDEFINED> instruction: 0x000004b4
    2060:	000004c3 	andeq	r0, r0, r3, asr #9
    2064:	74310008 	ldrtvc	r0, [r1], #-8
    2068:	00702400 	rsbseq	r2, r0, r0, lsl #8
    206c:	00009f1a 	andeq	r9, r0, sl, lsl pc
    2070:	00000000 	andeq	r0, r0, r0
    2074:	04e00000 	strbteq	r0, [r0], #0
    2078:	04f80000 	ldrbteq	r0, [r8], #0
    207c:	00010000 	andeq	r0, r1, r0
    2080:	00000054 	andeq	r0, r0, r4, asr r0
    2084:	00000000 	andeq	r0, r0, r0
    2088:	00051000 	andeq	r1, r5, r0
    208c:	00052300 	andeq	r2, r5, r0, lsl #6
    2090:	50000100 	andpl	r0, r0, r0, lsl #2
    2094:	00000523 	andeq	r0, r0, r3, lsr #10
    2098:	00000548 	andeq	r0, r0, r8, asr #10
    209c:	48540001 	ldmdami	r4, {r0}^
    20a0:	68000005 	stmdavs	r0, {r0, r2}
    20a4:	04000005 	streq	r0, [r0], #-5
    20a8:	5001f300 	andpl	pc, r1, r0, lsl #6
    20ac:	0000009f 	muleq	r0, pc, r0	; <UNPREDICTABLE>
	...
    20b8:	00000400 	andeq	r0, r0, r0, lsl #8
    20bc:	52000100 	andpl	r0, r0, #0, 2
    20c0:	00000004 	andeq	r0, r0, r4
    20c4:	00000020 	andeq	r0, r0, r0, lsr #32
    20c8:	01f30004 	mvnseq	r0, r4
    20cc:	00009f52 	andeq	r9, r0, r2, asr pc
	...
    20d8:	000c0000 	andeq	r0, ip, r0
    20dc:	00010000 	andeq	r0, r1, r0
    20e0:	00000c50 	andeq	r0, r0, r0, asr ip
    20e4:	00001400 	andeq	r1, r0, r0, lsl #8
    20e8:	73000300 	movwvc	r0, #768	; 0x300
    20ec:	00149f01 	andseq	r9, r4, r1, lsl #30
    20f0:	00200000 	eoreq	r0, r0, r0
    20f4:	00010000 	andeq	r0, r1, r0
    20f8:	00000053 	andeq	r0, r0, r3, asr r0
    20fc:	00000000 	andeq	r0, r0, r0
	...

Disassembly of section .debug_aranges:

00000000 <.debug_aranges>:
   0:	0000001c 	andeq	r0, r0, ip, lsl r0
   4:	00000002 	andeq	r0, r0, r2
   8:	00040000 	andeq	r0, r4, r0
   c:	00000000 	andeq	r0, r0, r0
  10:	00008010 	andeq	r8, r0, r0, lsl r0
  14:	00000190 	muleq	r0, r0, r1
	...
  20:	0000001c 	andeq	r0, r0, ip, lsl r0
  24:	04ef0002 	strbteq	r0, [pc], #2	; 2c <_start-0x7fd4>
  28:	00040000 	andeq	r0, r4, r0
  2c:	00000000 	andeq	r0, r0, r0
  30:	000081a0 	andeq	r8, r0, r0, lsr #3
  34:	00000050 	andeq	r0, r0, r0, asr r0
	...
  40:	0000001c 	andeq	r0, r0, ip, lsl r0
  44:	06590002 	ldrbeq	r0, [r9], -r2
  48:	00040000 	andeq	r0, r4, r0
  4c:	00000000 	andeq	r0, r0, r0
  50:	000081f0 	strdeq	r8, [r0], -r0
  54:	00000058 	andeq	r0, r0, r8, asr r0
	...
  60:	0000001c 	andeq	r0, r0, ip, lsl r0
  64:	07ee0002 	strbeq	r0, [lr, r2]!
  68:	00040000 	andeq	r0, r4, r0
  6c:	00000000 	andeq	r0, r0, r0
  70:	00008248 	andeq	r8, r0, r8, asr #4
  74:	0000003c 	andeq	r0, r0, ip, lsr r0
	...
  80:	0000001c 	andeq	r0, r0, ip, lsl r0
  84:	09050002 	stmdbeq	r5, {r1}
  88:	00040000 	andeq	r0, r4, r0
  8c:	00000000 	andeq	r0, r0, r0
  90:	00008284 	andeq	r8, r0, r4, lsl #5
  94:	00000034 	andeq	r0, r0, r4, lsr r0
	...
  a0:	0000001c 	andeq	r0, r0, ip, lsl r0
  a4:	09f70002 	ldmibeq	r7!, {r1}^
  a8:	00040000 	andeq	r0, r4, r0
  ac:	00000000 	andeq	r0, r0, r0
  b0:	000082b8 			; <UNDEFINED> instruction: 0x000082b8
  b4:	000004f8 	strdeq	r0, [r0], -r8
	...
  c0:	0000001c 	andeq	r0, r0, ip, lsl r0
  c4:	107c0002 	rsbsne	r0, ip, r2
  c8:	00040000 	andeq	r0, r4, r0
  cc:	00000000 	andeq	r0, r0, r0
  d0:	000087b0 			; <UNDEFINED> instruction: 0x000087b0
  d4:	00000028 	andeq	r0, r0, r8, lsr #32
	...
  e0:	0000001c 	andeq	r0, r0, ip, lsl r0
  e4:	117f0002 	cmnne	pc, r2
  e8:	00040000 	andeq	r0, r4, r0
  ec:	00000000 	andeq	r0, r0, r0
  f0:	000087d8 	ldrdeq	r8, [r0], -r8	; <UNPREDICTABLE>
  f4:	000000b0 	strheq	r0, [r0], -r0	; <UNPREDICTABLE>
	...
 100:	0000001c 	andeq	r0, r0, ip, lsl r0
 104:	14600002 	strbtne	r0, [r0], #-2
 108:	00040000 	andeq	r0, r4, r0
 10c:	00000000 	andeq	r0, r0, r0
 110:	00008888 	andeq	r8, r0, r8, lsl #17
 114:	00000074 	andeq	r0, r0, r4, ror r0
	...
 120:	0000001c 	andeq	r0, r0, ip, lsl r0
 124:	16110002 	ldrne	r0, [r1], -r2
 128:	00040000 	andeq	r0, r4, r0
 12c:	00000000 	andeq	r0, r0, r0
 130:	000088fc 	strdeq	r8, [r0], -ip
 134:	00000088 	andeq	r0, r0, r8, lsl #1
	...
 140:	0000001c 	andeq	r0, r0, ip, lsl r0
 144:	17ed0002 	strbne	r0, [sp, r2]!
 148:	00040000 	andeq	r0, r4, r0
 14c:	00000000 	andeq	r0, r0, r0
 150:	00008984 	andeq	r8, r0, r4, lsl #19
 154:	00000620 	andeq	r0, r0, r0, lsr #12
	...
 160:	0000001c 	andeq	r0, r0, ip, lsl r0
 164:	29bb0002 	ldmibcs	fp!, {r1}
 168:	00040000 	andeq	r0, r4, r0
 16c:	00000000 	andeq	r0, r0, r0
 170:	00008fa4 	andeq	r8, r0, r4, lsr #31
 174:	00000154 	andeq	r0, r0, r4, asr r1
	...
 180:	0000001c 	andeq	r0, r0, ip, lsl r0
 184:	2dbe0002 	ldccs	0, cr0, [lr, #8]!
 188:	00040000 	andeq	r0, r4, r0
 18c:	00000000 	andeq	r0, r0, r0
 190:	00009160 	andeq	r9, r0, r0, ror #2
 194:	00000568 	andeq	r0, r0, r8, ror #10
	...
 1a0:	0000001c 	andeq	r0, r0, ip, lsl r0
 1a4:	35e30002 	strbcc	r0, [r3, #2]!
 1a8:	00040000 	andeq	r0, r4, r0
 1ac:	00000000 	andeq	r0, r0, r0
 1b0:	000096c8 	andeq	r9, r0, r8, asr #13
 1b4:	00000050 	andeq	r0, r0, r0, asr r0
	...
 1c0:	0000001c 	andeq	r0, r0, ip, lsl r0
 1c4:	37aa0002 	strcc	r0, [sl, r2]!
 1c8:	00040000 	andeq	r0, r4, r0
 1cc:	00000000 	andeq	r0, r0, r0
 1d0:	00009718 	andeq	r9, r0, r8, lsl r7
 1d4:	00000020 	andeq	r0, r0, r0, lsr #32
	...

Disassembly of section .debug_ranges:

00000000 <.debug_ranges>:
   0:	00000130 	andeq	r0, r0, r0, lsr r1
   4:	0000015c 	andeq	r0, r0, ip, asr r1
   8:	00000160 	andeq	r0, r0, r0, ror #2
   c:	00000170 	andeq	r0, r0, r0, ror r1
	...
  18:	00000294 	muleq	r0, r4, r2
  1c:	00000298 	muleq	r0, r8, r2
  20:	000002c8 	andeq	r0, r0, r8, asr #5
  24:	000004b8 			; <UNDEFINED> instruction: 0x000004b8
	...
  30:	00008888 	andeq	r8, r0, r8, lsl #17
  34:	000088fc 	strdeq	r8, [r0], -ip
	...

Disassembly of section .debug_line:

00000000 <.debug_line>:
       0:	00000189 	andeq	r0, r0, r9, lsl #3
       4:	01310002 	teqeq	r1, r2
       8:	01020000 	mrseq	r0, (UNDEF: 2)
       c:	000d0efb 	strdeq	r0, [sp], -fp
      10:	01010101 	tsteq	r1, r1, lsl #2
      14:	01000000 	mrseq	r0, (UNDEF: 0)
      18:	2f010000 	svccs	0x00010000
      1c:	2f727375 	svccs	0x00727375
      20:	61636f6c 	cmnvs	r3, ip, ror #30
      24:	65432f6c 	strbvs	r2, [r3, #-3948]	; 0xf6c
      28:	72616c6c 	rsbvc	r6, r1, #108, 24	; 0x6c00
      2c:	6d72612f 	ldfvse	f6, [r2, #-188]!	; 0xffffff44
      30:	6e6f6e2d 	cdpvs	14, 6, cr6, cr15, cr13, {1}
      34:	61652d65 	cmnvs	r5, r5, ror #26
      38:	342f6962 	strtcc	r6, [pc], #-2402	; 40 <_start-0x7fc0>
      3c:	332e382e 	teqcc	lr, #3014656	; 0x2e0000
      40:	3173632d 	cmncc	r3, sp, lsr #6
      44:	2f653037 	svccs	0x00653037
      48:	2f62696c 	svccs	0x0062696c
      4c:	2f636367 	svccs	0x00636367
      50:	2d6d7261 	sfmcs	f7, 2, [sp, #-388]!	; 0xfffffe7c
      54:	656e6f6e 	strbvs	r6, [lr, #-3950]!	; 0xf6e
      58:	6261652d 	rsbvs	r6, r1, #188743680	; 0xb400000
      5c:	2e342f69 	cdpcs	15, 3, cr2, cr4, cr9, {3}
      60:	2f332e38 	svccs	0x00332e38
      64:	6c636e69 	stclvs	14, cr6, [r3], #-420	; 0xfffffe5c
      68:	00656475 	rsbeq	r6, r5, r5, ror r4
      6c:	6573552f 	ldrbvs	r5, [r3, #-1327]!	; 0x52f
      70:	622f7372 	eorvs	r7, pc, #-939524095	; 0xc8000001
      74:	6e616972 	mcrvs	9, 3, r6, cr1, cr2, {3}
      78:	2f6e756a 	svccs	0x006e756a
      7c:	6b736544 	blvs	1cd9594 <__bss_end__+0x1ccf254>
      80:	2f706f74 	svccs	0x00706f74
      84:	6f686373 	svcvs	0x00686373
      88:	572f6c6f 	strpl	r6, [pc, -pc, ror #24]!
      8c:	65746e69 	ldrbvs	r6, [r4, #-3689]!	; 0xe69
      90:	32393172 	eorscc	r3, r9, #-2147483620	; 0x8000001c
      94:	53432f30 	movtpl	r2, #16176	; 0x3f30
      98:	45303431 	ldrmi	r3, [r0, #-1073]!	; 0x431
      9c:	3173632f 	cmncc	r3, pc, lsr #6
      a0:	2d653034 	stclcs	0, cr3, [r5, #-208]!	; 0xffffff30
      a4:	69773032 	ldmdbvs	r7!, {r1, r4, r5, ip, sp}^
      a8:	696c2f6e 	stmdbvs	ip!, {r1, r2, r3, r5, r6, r8, r9, sl, fp, sp}^
      ac:	00697062 	rsbeq	r7, r9, r2, rrx
      b0:	6573552f 	ldrbvs	r5, [r3, #-1327]!	; 0x52f
      b4:	622f7372 	eorvs	r7, pc, #-939524095	; 0xc8000001
      b8:	6e616972 	mcrvs	9, 3, r6, cr1, cr2, {3}
      bc:	2f6e756a 	svccs	0x006e756a
      c0:	6b736544 	blvs	1cd95d8 <__bss_end__+0x1ccf298>
      c4:	2f706f74 	svccs	0x00706f74
      c8:	6f686373 	svcvs	0x00686373
      cc:	572f6c6f 	strpl	r6, [pc, -pc, ror #24]!
      d0:	65746e69 	ldrbvs	r6, [r4, #-3689]!	; 0xe69
      d4:	32393172 	eorscc	r3, r9, #-2147483620	; 0x8000001c
      d8:	53432f30 	movtpl	r2, #16176	; 0x3f30
      dc:	45303431 	ldrmi	r3, [r0, #-1073]!	; 0x431
      e0:	3173632f 	cmncc	r3, pc, lsr #6
      e4:	2d653034 	stclcs	0, cr3, [r5, #-208]!	; 0xffffff30
      e8:	69773032 	ldmdbvs	r7!, {r1, r4, r5, ip, sp}^
      ec:	696c2f6e 	stmdbvs	ip!, {r1, r2, r3, r5, r6, r8, r9, sl, fp, sp}^
      f0:	2f697062 	svccs	0x00697062
      f4:	6362696c 	cmnvs	r2, #108, 18	; 0x1b0000
      f8:	65670000 	strbvs	r0, [r7, #-0]!
      fc:	6f632d74 	svcvs	0x00632d74
     100:	632e6564 	teqvs	lr, #100, 10	; 0x19000000
     104:	00000000 	andeq	r0, r0, r0
     108:	69647473 	stmdbvs	r4!, {r0, r1, r4, r5, r6, sl, ip, sp, lr}^
     10c:	672d746e 	strvs	r7, [sp, -lr, ror #8]!
     110:	682e6363 	stmdavs	lr!, {r0, r1, r5, r6, r8, r9, sp, lr}
     114:	00000100 	andeq	r0, r0, r0, lsl #2
     118:	6d2d6970 	stcvs	9, cr6, [sp, #-448]!	; 0xfffffe40
     11c:	61737365 	cmnvs	r3, r5, ror #6
     120:	682e6567 	stmdavs	lr!, {r0, r1, r2, r5, r6, r8, sl, sp, lr}
     124:	00000200 	andeq	r0, r0, r0, lsl #4
     128:	2e697072 	mcrcs	0, 3, r7, cr9, cr2, {3}
     12c:	00020068 	andeq	r0, r2, r8, rrx
     130:	63726300 	cmnvs	r2, #0, 6
     134:	0300682e 	movweq	r6, #2094	; 0x82e
     138:	00000000 	andeq	r0, r0, r0
     13c:	80100205 	andshi	r0, r0, r5, lsl #4
     140:	1d030000 	stcne	0, cr0, [r3, #-0]
     144:	02006801 	andeq	r6, r0, #65536	; 0x10000
     148:	004b0204 	subeq	r0, fp, r4, lsl #4
     14c:	49020402 	stmdbmi	r2, {r1, sl}
     150:	01040200 	mrseq	r0, R12_usr
     154:	4c062e06 	stcmi	14, cr2, [r6], {6}
     158:	03314b30 	teqeq	r1, #48, 22	; 0xc000
     15c:	69674a14 	stmdbvs	r7!, {r2, r4, r9, fp, lr}^
     160:	d9673068 	stmdble	r7!, {r3, r5, r6, ip, sp}^
     164:	303e084b 	eorscc	r0, lr, fp, asr #16
     168:	0067d784 	rsbeq	sp, r7, r4, lsl #15
     16c:	08020402 	stmdaeq	r2, {r1, sl}
     170:	04020094 	streq	r0, [r2], #-148	; 0x94
     174:	02009f02 	andeq	r9, r0, #2, 30
     178:	004b0204 	subeq	r0, fp, r4, lsl #4
     17c:	47020402 	strmi	r0, [r2, -r2, lsl #8]
     180:	02003067 	andeq	r3, r0, #103	; 0x67
     184:	4f2b0104 	svcmi	0x002b0104
     188:	01001002 	tsteq	r0, r2
     18c:	0000a601 	andeq	sl, r0, r1, lsl #12
     190:	82000200 	andhi	r0, r0, #0, 4
     194:	02000000 	andeq	r0, r0, #0
     198:	0d0efb01 	vstreq	d15, [lr, #-4]
     19c:	01010100 	mrseq	r0, (UNDEF: 17)
     1a0:	00000001 	andeq	r0, r0, r1
     1a4:	01000001 	tsteq	r0, r1
     1a8:	6362696c 	cmnvs	r2, #108, 18	; 0x1b0000
     1ac:	73752f00 	cmnvc	r5, #0, 30
     1b0:	6f6c2f72 	svcvs	0x006c2f72
     1b4:	2f6c6163 	svccs	0x006c6163
     1b8:	6c6c6543 	cfstr64vs	mvdx6, [ip], #-268	; 0xfffffef4
     1bc:	612f7261 	teqvs	pc, r1, ror #4
     1c0:	6e2d6d72 	mcrvs	13, 1, r6, cr13, cr2, {3}
     1c4:	2d656e6f 	stclcs	14, cr6, [r5, #-444]!	; 0xfffffe44
     1c8:	69626165 	stmdbvs	r2!, {r0, r2, r5, r6, r8, sp, lr}^
     1cc:	382e342f 	stmdacc	lr!, {r0, r1, r2, r3, r5, sl, ip, sp}
     1d0:	632d332e 	teqvs	sp, #-1207959552	; 0xb8000000
     1d4:	30373173 	eorscc	r3, r7, r3, ror r1
     1d8:	696c2f65 	stmdbvs	ip!, {r0, r2, r5, r6, r8, r9, sl, fp, sp}^
     1dc:	63672f62 	cmnvs	r7, #392	; 0x188
     1e0:	72612f63 	rsbvc	r2, r1, #396	; 0x18c
     1e4:	6f6e2d6d 	svcvs	0x006e2d6d
     1e8:	652d656e 	strvs	r6, [sp, #-1390]!	; 0x56e
     1ec:	2f696261 	svccs	0x00696261
     1f0:	2e382e34 	mrccs	14, 1, r2, cr8, cr4, {1}
     1f4:	6e692f33 	mcrvs	15, 3, r2, cr9, cr3, {1}
     1f8:	64756c63 	ldrbtvs	r6, [r5], #-3171	; 0xc63
     1fc:	63000065 	movwvs	r0, #101	; 0x65
     200:	632e6372 	teqvs	lr, #-939524095	; 0xc8000001
     204:	00000100 	andeq	r0, r0, r0, lsl #2
     208:	69647473 	stmdbvs	r4!, {r0, r1, r4, r5, r6, sl, ip, sp, lr}^
     20c:	672d746e 	strvs	r7, [sp, -lr, ror #8]!
     210:	682e6363 	stmdavs	lr!, {r0, r1, r5, r6, r8, r9, sp, lr}
     214:	00000200 	andeq	r0, r0, r0, lsl #4
     218:	02050000 	andeq	r0, r5, #0
     21c:	000081a0 	andeq	r8, r0, r0, lsr #3
     220:	15013503 	strne	r3, [r1, #-1283]	; 0x503
     224:	9d2f2d30 	stcls	13, cr2, [pc, #-192]!	; 16c <_start-0x7e94>
     228:	0402002f 	streq	r0, [r2], #-47	; 0x2f
     22c:	68692d01 	stmdavs	r9!, {r0, r8, sl, fp, sp}^
     230:	02024b2f 	andeq	r4, r2, #48128	; 0xbc00
     234:	02010100 	andeq	r0, r1, #0, 2
     238:	02000001 	andeq	r0, r0, #1
     23c:	0000eb00 	andeq	lr, r0, r0, lsl #22
     240:	fb010200 	blx	40a4a <__bss_end__+0x3670a>
     244:	01000d0e 	tsteq	r0, lr, lsl #26
     248:	00010101 	andeq	r0, r1, r1, lsl #2
     24c:	00010000 	andeq	r0, r1, r0
     250:	696c0100 	stmdbvs	ip!, {r8}^
     254:	2f006362 	svccs	0x00006362
     258:	2f727375 	svccs	0x00727375
     25c:	61636f6c 	cmnvs	r3, ip, ror #30
     260:	65432f6c 	strbvs	r2, [r3, #-3948]	; 0xf6c
     264:	72616c6c 	rsbvc	r6, r1, #108, 24	; 0x6c00
     268:	6d72612f 	ldfvse	f6, [r2, #-188]!	; 0xffffff44
     26c:	6e6f6e2d 	cdpvs	14, 6, cr6, cr15, cr13, {1}
     270:	61652d65 	cmnvs	r5, r5, ror #26
     274:	342f6962 	strtcc	r6, [pc], #-2402	; 27c <_start-0x7d84>
     278:	332e382e 	teqcc	lr, #3014656	; 0x2e0000
     27c:	3173632d 	cmncc	r3, sp, lsr #6
     280:	2f653037 	svccs	0x00653037
     284:	2f62696c 	svccs	0x0062696c
     288:	2f636367 	svccs	0x00636367
     28c:	2d6d7261 	sfmcs	f7, 2, [sp, #-388]!	; 0xfffffe7c
     290:	656e6f6e 	strbvs	r6, [lr, #-3950]!	; 0xf6e
     294:	6261652d 	rsbvs	r6, r1, #188743680	; 0xb400000
     298:	2e342f69 	cdpcs	15, 3, cr2, cr4, cr9, {3}
     29c:	2f332e38 	svccs	0x00332e38
     2a0:	6c636e69 	stclvs	14, cr6, [r3], #-420	; 0xfffffe5c
     2a4:	00656475 	rsbeq	r6, r5, r5, ror r4
     2a8:	6573552f 	ldrbvs	r5, [r3, #-1327]!	; 0x52f
     2ac:	622f7372 	eorvs	r7, pc, #-939524095	; 0xc8000001
     2b0:	6e616972 	mcrvs	9, 3, r6, cr1, cr2, {3}
     2b4:	2f6e756a 	svccs	0x006e756a
     2b8:	6b736544 	blvs	1cd97d0 <__bss_end__+0x1ccf490>
     2bc:	2f706f74 	svccs	0x00706f74
     2c0:	6f686373 	svcvs	0x00686373
     2c4:	572f6c6f 	strpl	r6, [pc, -pc, ror #24]!
     2c8:	65746e69 	ldrbvs	r6, [r4, #-3689]!	; 0xe69
     2cc:	32393172 	eorscc	r3, r9, #-2147483620	; 0x8000001c
     2d0:	53432f30 	movtpl	r2, #16176	; 0x3f30
     2d4:	45303431 	ldrmi	r3, [r0, #-1073]!	; 0x431
     2d8:	3173632f 	cmncc	r3, pc, lsr #6
     2dc:	2d653034 	stclcs	0, cr3, [r5, #-208]!	; 0xffffff30
     2e0:	69773032 	ldmdbvs	r7!, {r1, r4, r5, ip, sp}^
     2e4:	696c2f6e 	stmdbvs	ip!, {r1, r2, r3, r5, r6, r8, r9, sl, fp, sp}^
     2e8:	00697062 	rsbeq	r7, r9, r2, rrx
     2ec:	69727000 	ldmdbvs	r2!, {ip, sp, lr}^
     2f0:	2e6b746e 	cdpcs	4, 6, cr7, cr11, cr14, {3}
     2f4:	00010063 	andeq	r0, r1, r3, rrx
     2f8:	64747300 	ldrbtvs	r7, [r4], #-768	; 0x300
     2fc:	2e677261 	cdpcs	2, 6, cr7, cr7, cr1, {3}
     300:	00020068 	andeq	r0, r2, r8, rrx
     304:	75623c00 	strbvc	r3, [r2, #-3072]!	; 0xc00
     308:	2d746c69 	ldclcs	12, cr6, [r4, #-420]!	; 0xfffffe5c
     30c:	003e6e69 	eorseq	r6, lr, r9, ror #28
     310:	72000000 	andvc	r0, r0, #0
     314:	682e6970 	stmdavs	lr!, {r4, r5, r6, r8, fp, sp, lr}
     318:	00000300 	andeq	r0, r0, r0, lsl #6
     31c:	702d6176 	eorvc	r6, sp, r6, ror r1
     320:	746e6972 	strbtvc	r6, [lr], #-2418	; 0x972
     324:	00682e6b 	rsbeq	r2, r8, fp, ror #28
     328:	00000001 	andeq	r0, r0, r1
     32c:	f0020500 			; <UNDEFINED> instruction: 0xf0020500
     330:	17000081 	strne	r0, [r0, -r1, lsl #1]
     334:	89bf4b6b 	ldmibhi	pc!, {r0, r1, r3, r5, r6, r8, r9, fp, lr}	; <UNPREDICTABLE>
     338:	01000e02 	tsteq	r0, r2, lsl #28
     33c:	00008a01 	andeq	r8, r0, r1, lsl #20
     340:	72000200 	andvc	r0, r0, #0, 4
     344:	02000000 	andeq	r0, r0, #0
     348:	0d0efb01 	vstreq	d15, [lr, #-4]
     34c:	01010100 	mrseq	r0, (UNDEF: 17)
     350:	00000001 	andeq	r0, r0, r1
     354:	01000001 	tsteq	r0, r1
     358:	6362696c 	cmnvs	r2, #108, 18	; 0x1b0000
     35c:	73552f00 	cmpvc	r5, #0, 30
     360:	2f737265 	svccs	0x00737265
     364:	61697262 	cmnvs	r9, r2, ror #4
     368:	6e756a6e 	vsubvs.f32	s13, s10, s29
     36c:	7365442f 	cmnvc	r5, #788529152	; 0x2f000000
     370:	706f746b 	rsbvc	r7, pc, fp, ror #8
     374:	6863732f 	stmdavs	r3!, {r0, r1, r2, r3, r5, r8, r9, ip, sp, lr}^
     378:	2f6c6f6f 	svccs	0x006c6f6f
     37c:	746e6957 	strbtvc	r6, [lr], #-2391	; 0x957
     380:	39317265 	ldmdbcc	r1!, {r0, r2, r5, r6, r9, ip, sp, lr}
     384:	432f3032 	teqmi	pc, #50	; 0x32
     388:	30343153 	eorscc	r3, r4, r3, asr r1
     38c:	73632f45 	cmnvc	r3, #276	; 0x114
     390:	65303431 	ldrvs	r3, [r0, #-1073]!	; 0x431
     394:	7730322d 	ldrvc	r3, [r0, -sp, lsr #4]!
     398:	6c2f6e69 	stcvs	14, cr6, [pc], #-420	; 1fc <_start-0x7e04>
     39c:	69706269 	ldmdbvs	r0!, {r0, r3, r5, r6, r9, sp, lr}^
     3a0:	75700000 	ldrbvc	r0, [r0, #-0]!
     3a4:	61686374 	smcvs	34356	; 0x8634
     3a8:	00632e72 	rsbeq	r2, r3, r2, ror lr
     3ac:	72000001 	andvc	r0, r0, #1
     3b0:	682e6970 	stmdavs	lr!, {r4, r5, r6, r8, fp, sp, lr}
     3b4:	00000200 	andeq	r0, r0, r0, lsl #4
     3b8:	02050000 	andeq	r0, r5, #0
     3bc:	00008248 	andeq	r8, r0, r8, asr #4
     3c0:	136b4a14 	cmnne	fp, #20, 20	; 0x14000
     3c4:	080213bc 	stmdaeq	r2, {r2, r3, r4, r5, r7, r8, r9, ip}
     3c8:	96010100 	strls	r0, [r1], -r0, lsl #2
     3cc:	02000000 	andeq	r0, r0, #0
     3d0:	00006f00 	andeq	r6, r0, r0, lsl #30
     3d4:	fb010200 	blx	40bde <__bss_end__+0x3689e>
     3d8:	01000d0e 	tsteq	r0, lr, lsl #26
     3dc:	00010101 	andeq	r0, r1, r1, lsl #2
     3e0:	00010000 	andeq	r0, r1, r0
     3e4:	696c0100 	stmdbvs	ip!, {r8}^
     3e8:	2f006362 	svccs	0x00006362
     3ec:	72657355 	rsbvc	r7, r5, #1409286145	; 0x54000001
     3f0:	72622f73 	rsbvc	r2, r2, #460	; 0x1cc
     3f4:	6a6e6169 	bvs	1b989a0 <__bss_end__+0x1b8e660>
     3f8:	442f6e75 	strtmi	r6, [pc], #-3701	; 400 <_start-0x7c00>
     3fc:	746b7365 	strbtvc	r7, [fp], #-869	; 0x365
     400:	732f706f 	teqvc	pc, #111	; 0x6f
     404:	6f6f6863 	svcvs	0x006f6863
     408:	69572f6c 	ldmdbvs	r7, {r2, r3, r5, r6, r8, r9, sl, fp, sp}^
     40c:	7265746e 	rsbvc	r7, r5, #1845493760	; 0x6e000000
     410:	30323931 	eorscc	r3, r2, r1, lsr r9
     414:	3153432f 	cmpcc	r3, pc, lsr #6
     418:	2f453034 	svccs	0x00453034
     41c:	34317363 	ldrtcc	r7, [r1], #-867	; 0x363
     420:	322d6530 	eorcc	r6, sp, #48, 10	; 0xc000000
     424:	6e697730 	mcrvs	7, 3, r7, cr9, cr0, {1}
     428:	62696c2f 	rsbvs	r6, r9, #12032	; 0x2f00
     42c:	00006970 	andeq	r6, r0, r0, ror r9
     430:	6b747570 	blvs	1d1d9f8 <__bss_end__+0x1d136b8>
     434:	0100632e 	tsteq	r0, lr, lsr #6
     438:	70720000 	rsbsvc	r0, r2, r0
     43c:	00682e69 	rsbeq	r2, r8, r9, ror #28
     440:	00000002 	andeq	r0, r0, r2
     444:	84020500 	strhi	r0, [r2], #-1280	; 0x500
     448:	15000082 	strne	r0, [r0, #-130]	; 0x82
     44c:	02002d4c 	andeq	r2, r0, #76, 26	; 0x1300
     450:	002f0204 	eoreq	r0, pc, r4, lsl #4
     454:	49020402 	stmdbmi	r2, {r1, sl}
     458:	01040200 	mrseq	r0, R12_usr
     45c:	6b062e06 	blvs	18bc7c <__bss_end__+0x18193c>
     460:	01000602 	tsteq	r0, r2, lsl #12
     464:	0001de01 	andeq	sp, r1, r1, lsl #28
     468:	df000200 	svcle	0x00000200
     46c:	02000000 	andeq	r0, r0, #0
     470:	0d0efb01 	vstreq	d15, [lr, #-4]
     474:	01010100 	mrseq	r0, (UNDEF: 17)
     478:	00000001 	andeq	r0, r0, r1
     47c:	01000001 	tsteq	r0, r1
     480:	6362696c 	cmnvs	r2, #108, 18	; 0x1b0000
     484:	73752f00 	cmnvc	r5, #0, 30
     488:	6f6c2f72 	svcvs	0x006c2f72
     48c:	2f6c6163 	svccs	0x006c6163
     490:	6c6c6543 	cfstr64vs	mvdx6, [ip], #-268	; 0xfffffef4
     494:	612f7261 	teqvs	pc, r1, ror #4
     498:	6e2d6d72 	mcrvs	13, 1, r6, cr13, cr2, {3}
     49c:	2d656e6f 	stclcs	14, cr6, [r5, #-444]!	; 0xfffffe44
     4a0:	69626165 	stmdbvs	r2!, {r0, r2, r5, r6, r8, sp, lr}^
     4a4:	382e342f 	stmdacc	lr!, {r0, r1, r2, r3, r5, sl, ip, sp}
     4a8:	632d332e 	teqvs	sp, #-1207959552	; 0xb8000000
     4ac:	30373173 	eorscc	r3, r7, r3, ror r1
     4b0:	696c2f65 	stmdbvs	ip!, {r0, r2, r5, r6, r8, r9, sl, fp, sp}^
     4b4:	63672f62 	cmnvs	r7, #392	; 0x188
     4b8:	72612f63 	rsbvc	r2, r1, #396	; 0x18c
     4bc:	6f6e2d6d 	svcvs	0x006e2d6d
     4c0:	652d656e 	strvs	r6, [sp, #-1390]!	; 0x56e
     4c4:	2f696261 	svccs	0x00696261
     4c8:	2e382e34 	mrccs	14, 1, r2, cr8, cr4, {1}
     4cc:	6e692f33 	mcrvs	15, 3, r2, cr9, cr3, {1}
     4d0:	64756c63 	ldrbtvs	r6, [r5], #-3171	; 0xc63
     4d4:	552f0065 	strpl	r0, [pc, #-101]!	; 477 <_start-0x7b89>
     4d8:	73726573 	cmnvc	r2, #482344960	; 0x1cc00000
     4dc:	6972622f 	ldmdbvs	r2!, {r0, r1, r2, r3, r5, r9, sp, lr}^
     4e0:	756a6e61 	strbvc	r6, [sl, #-3681]!	; 0xe61
     4e4:	65442f6e 	strbvs	r2, [r4, #-3950]	; 0xf6e
     4e8:	6f746b73 	svcvs	0x00746b73
     4ec:	63732f70 	cmnvs	r3, #112, 30	; 0x1c0
     4f0:	6c6f6f68 	stclvs	15, cr6, [pc], #-416	; 358 <_start-0x7ca8>
     4f4:	6e69572f 	cdpvs	7, 6, cr5, cr9, cr15, {1}
     4f8:	31726574 	cmncc	r2, r4, ror r5
     4fc:	2f303239 	svccs	0x00303239
     500:	34315343 	ldrtcc	r5, [r1], #-835	; 0x343
     504:	632f4530 	teqvs	pc, #48, 10	; 0xc000000
     508:	30343173 	eorscc	r3, r4, r3, ror r1
     50c:	30322d65 	eorscc	r2, r2, r5, ror #26
     510:	2f6e6977 	svccs	0x006e6977
     514:	7062696c 	rsbvc	r6, r2, ip, ror #18
     518:	76000069 	strvc	r0, [r0], -r9, rrx
     51c:	72702d61 	rsbsvc	r2, r0, #6208	; 0x1840
     520:	6b746e69 	blvs	1d1becc <__bss_end__+0x1d11b8c>
     524:	0100632e 	tsteq	r0, lr, lsr #6
     528:	74730000 	ldrbtvc	r0, [r3], #-0
     52c:	67726164 	ldrbvs	r6, [r2, -r4, ror #2]!
     530:	0200682e 	andeq	r6, r0, #3014656	; 0x2e0000
     534:	70720000 	rsbsvc	r0, r2, r0
     538:	00682e69 	rsbeq	r2, r8, r9, ror #28
     53c:	3c000003 	stccc	0, cr0, [r0], {3}
     540:	6c697562 	cfstr64vs	mvdx7, [r9], #-392	; 0xfffffe78
     544:	6e692d74 	mcrvs	13, 3, r2, cr9, cr4, {3}
     548:	0000003e 	andeq	r0, r0, lr, lsr r0
     54c:	05000000 	streq	r0, [r0, #-0]
     550:	0082b802 	addeq	fp, r2, r2, lsl #16
     554:	01260300 	teqeq	r6, r0, lsl #6
     558:	3113a501 	tstcc	r3, r1, lsl #10
     55c:	0402002d 	streq	r0, [r2], #-45	; 0x2d
     560:	02002f02 	andeq	r2, r0, #2, 30
     564:	002d0204 	eoreq	r0, sp, r4, lsl #4
     568:	2f020402 	svccs	0x00020402
     56c:	01040200 	mrseq	r0, R12_usr
     570:	304c4c2d 	subcc	r4, ip, sp, lsr #24
     574:	4f2f4b14 	svcmi	0x002f4b14
     578:	02040200 	andeq	r0, r4, #0, 4
     57c:	04020067 	streq	r0, [r2], #-103	; 0x67
     580:	4d4c6501 	cfstr64mi	mvdx6, [ip, #-4]
     584:	312fa030 	teqcc	pc, r0, lsr r0	; <UNPREDICTABLE>
     588:	16260230 			; <UNDEFINED> instruction: 0x16260230
     58c:	002c2d84 	eoreq	r2, ip, r4, lsl #27
     590:	30010402 	andcc	r0, r1, r2, lsl #8
     594:	01040200 	mrseq	r0, R12_usr
     598:	00660633 	rsbeq	r0, r6, r3, lsr r6
     59c:	2e010402 	cdpcs	4, 0, cr0, cr1, cr2, {0}
     5a0:	01040200 	mrseq	r0, R12_usr
     5a4:	67210806 	strvs	r0, [r1, -r6, lsl #16]!
     5a8:	8273032f 	rsbshi	r0, r3, #-1140850688	; 0xbc000000
     5ac:	002e1303 	eoreq	r1, lr, r3, lsl #6
     5b0:	06010402 	streq	r0, [r1], -r2, lsl #8
     5b4:	0402002e 	streq	r0, [r2], #-46	; 0x2e
     5b8:	6a9f0601 	bvs	fe7c1dc4 <__bss_end__+0xfe7b7a84>
     5bc:	2e67034b 	cdpcs	3, 6, cr0, cr7, cr11, {2}
     5c0:	002e2103 	eoreq	r2, lr, r3, lsl #2
     5c4:	06010402 	streq	r0, [r1], -r2, lsl #8
     5c8:	0402002e 	streq	r0, [r2], #-46	; 0x2e
     5cc:	009f0601 	addseq	r0, pc, r1, lsl #12
     5d0:	6a010402 	bvs	415e0 <__bss_end__+0x372a0>
     5d4:	a603f3d9 			; <UNDEFINED> instruction: 0xa603f3d9
     5d8:	2f20087f 	svccs	0x0020087f
     5dc:	01040200 	mrseq	r0, R12_usr
     5e0:	d7064a06 	strle	r4, [r6, -r6, lsl #20]
     5e4:	da032f4b 	ble	cc318 <__bss_end__+0xc1fd8>
     5e8:	4c83f200 	sfmmi	f7, 1, [r3], {0}
     5ec:	2e0e0348 	cdpcs	3, 0, cr0, cr14, cr8, {2}
     5f0:	2f2e7503 	svccs	0x002e7503
     5f4:	2f4b842f 	svccs	0x004b842f
     5f8:	30314d2d 	eorscc	r4, r1, sp, lsr #26
     5fc:	0200832f 	andeq	r8, r0, #-1140850688	; 0xbc000000
     600:	a22c0104 	eorge	r0, ip, #4, 2
     604:	01040200 	mrseq	r0, R12_usr
     608:	d8064a06 	stmdale	r6, {r1, r2, r9, fp, lr}
     60c:	03163602 	tsteq	r6, #2097152	; 0x200000
     610:	2108d60e 	tstcs	r8, lr, lsl #12
     614:	f331f330 	vcge.u<illegal width 64>	d15, d1, d16
     618:	4b30f330 	blmi	c3d2e0 <__bss_end__+0xc32fa0>
     61c:	0830f330 	ldmdaeq	r0!, {r4, r5, r8, r9, ip, sp, lr, pc}
     620:	002f3123 	eoreq	r3, pc, r3, lsr #2
     624:	65010402 	strvs	r0, [r1, #-1026]	; 0x402
     628:	02040200 	andeq	r0, r4, #0, 4
     62c:	02004a06 	andeq	r4, r0, #24576	; 0x6000
     630:	03060104 	movweq	r0, #24836	; 0x6104
     634:	02006642 	andeq	r6, r0, #69206016	; 0x4200000
     638:	66060204 	strvs	r0, [r6], -r4, lsl #4
     63c:	00c20306 	sbceq	r0, r2, r6, lsl #6
     640:	1002684a 	andne	r6, r2, sl, asr #16
     644:	93010100 	movwls	r0, #4352	; 0x1100
     648:	02000000 	andeq	r0, r0, #0
     64c:	00007d00 	andeq	r7, r0, r0, lsl #26
     650:	fb010200 	blx	40e5a <__bss_end__+0x36b1a>
     654:	01000d0e 	tsteq	r0, lr, lsl #26
     658:	00010101 	andeq	r0, r1, r1, lsl #2
     65c:	00010000 	andeq	r0, r1, r0
     660:	73630100 	cmnvc	r3, #0, 2
     664:	65303431 	ldrvs	r3, [r0, #-1073]!	; 0x431
     668:	6372732d 	cmnvs	r2, #-1275068416	; 0xb4000000
     66c:	73552f00 	cmpvc	r5, #0, 30
     670:	2f737265 	svccs	0x00737265
     674:	61697262 	cmnvs	r9, r2, ror #4
     678:	6e756a6e 	vsubvs.f32	s13, s10, s29
     67c:	7365442f 	cmnvc	r5, #788529152	; 0x2f000000
     680:	706f746b 	rsbvc	r7, pc, fp, ror #8
     684:	6863732f 	stmdavs	r3!, {r0, r1, r2, r3, r5, r8, r9, ip, sp, lr}^
     688:	2f6c6f6f 	svccs	0x006c6f6f
     68c:	746e6957 	strbtvc	r6, [lr], #-2391	; 0x957
     690:	39317265 	ldmdbcc	r1!, {r0, r2, r5, r6, r9, ip, sp, lr}
     694:	432f3032 	teqmi	pc, #50	; 0x32
     698:	30343153 	eorscc	r3, r4, r3, asr r1
     69c:	73632f45 	cmnvc	r3, #276	; 0x114
     6a0:	65303431 	ldrvs	r3, [r0, #-1073]!	; 0x431
     6a4:	7730322d 	ldrvc	r3, [r0, -sp, lsr #4]!
     6a8:	6c2f6e69 	stcvs	14, cr6, [pc], #-420	; 50c <_start-0x7af4>
     6ac:	69706269 	ldmdbvs	r0!, {r0, r3, r5, r6, r9, sp, lr}^
     6b0:	6c630000 	stclvs	0, cr0, [r3], #-0
     6b4:	2d6e6165 	stfcse	f6, [lr, #-404]!	; 0xfffffe6c
     6b8:	6f626572 	svcvs	0x00626572
     6bc:	632e746f 	teqvs	lr, #1862270976	; 0x6f000000
     6c0:	00000100 	andeq	r0, r0, r0, lsl #2
     6c4:	2e697072 	mcrcs	0, 3, r7, cr9, cr2, {3}
     6c8:	00020068 	andeq	r0, r2, r8, rrx
     6cc:	05000000 	streq	r0, [r0, #-0]
     6d0:	0087b002 	addeq	fp, r7, r2
     6d4:	832f1500 	teqhi	pc, #0, 10
     6d8:	0006024b 	andeq	r0, r6, fp, asr #4
     6dc:	01210101 	teqeq	r1, r1, lsl #2
     6e0:	00020000 	andeq	r0, r2, r0
     6e4:	000000f8 	strdeq	r0, [r0], -r8
     6e8:	0efb0102 	cdpeq	1, 15, cr0, cr11, cr2, {0}
     6ec:	0101000d 	tsteq	r1, sp
     6f0:	00000101 	andeq	r0, r0, r1, lsl #2
     6f4:	00000100 	andeq	r0, r0, r0, lsl #2
     6f8:	31736301 	cmncc	r3, r1, lsl #6
     6fc:	2d653034 	stclcs	0, cr3, [r5, #-208]!	; 0xffffff30
     700:	00637273 	rsbeq	r7, r3, r3, ror r2
     704:	7273752f 	rsbsvc	r7, r3, #197132288	; 0xbc00000
     708:	636f6c2f 	cmnvs	pc, #12032	; 0x2f00
     70c:	432f6c61 	teqmi	pc, #24832	; 0x6100
     710:	616c6c65 	cmnvs	ip, r5, ror #24
     714:	72612f72 	rsbvc	r2, r1, #456	; 0x1c8
     718:	6f6e2d6d 	svcvs	0x006e2d6d
     71c:	652d656e 	strvs	r6, [sp, #-1390]!	; 0x56e
     720:	2f696261 	svccs	0x00696261
     724:	2e382e34 	mrccs	14, 1, r2, cr8, cr4, {1}
     728:	73632d33 	cmnvc	r3, #3264	; 0xcc0
     72c:	65303731 	ldrvs	r3, [r0, #-1841]!	; 0x731
     730:	62696c2f 	rsbvs	r6, r9, #12032	; 0x2f00
     734:	6363672f 	cmnvs	r3, #12320768	; 0xbc0000
     738:	6d72612f 	ldfvse	f6, [r2, #-188]!	; 0xffffff44
     73c:	6e6f6e2d 	cdpvs	14, 6, cr6, cr15, cr13, {1}
     740:	61652d65 	cmnvs	r5, r5, ror #26
     744:	342f6962 	strtcc	r6, [pc], #-2402	; 74c <_start-0x78b4>
     748:	332e382e 	teqcc	lr, #3014656	; 0x2e0000
     74c:	636e692f 	cmnvs	lr, #770048	; 0xbc000
     750:	6564756c 	strbvs	r7, [r4, #-1388]!	; 0x56c
     754:	73552f00 	cmpvc	r5, #0, 30
     758:	2f737265 	svccs	0x00737265
     75c:	61697262 	cmnvs	r9, r2, ror #4
     760:	6e756a6e 	vsubvs.f32	s13, s10, s29
     764:	7365442f 	cmnvc	r5, #788529152	; 0x2f000000
     768:	706f746b 	rsbvc	r7, pc, fp, ror #8
     76c:	6863732f 	stmdavs	r3!, {r0, r1, r2, r3, r5, r8, r9, ip, sp, lr}^
     770:	2f6c6f6f 	svccs	0x006c6f6f
     774:	746e6957 	strbtvc	r6, [lr], #-2391	; 0x957
     778:	39317265 	ldmdbcc	r1!, {r0, r2, r5, r6, r9, ip, sp, lr}
     77c:	432f3032 	teqmi	pc, #50	; 0x32
     780:	30343153 	eorscc	r3, r4, r3, asr r1
     784:	73632f45 	cmnvc	r3, #276	; 0x114
     788:	65303431 	ldrvs	r3, [r0, #-1073]!	; 0x431
     78c:	7730322d 	ldrvc	r3, [r0, -sp, lsr #4]!
     790:	6c2f6e69 	stcvs	14, cr6, [pc], #-420	; 5f4 <_start-0x7a0c>
     794:	69706269 	ldmdbvs	r0!, {r0, r3, r5, r6, r9, sp, lr}^
     798:	73630000 	cmnvc	r3, #0
     79c:	74726174 	ldrbtvc	r6, [r2], #-372	; 0x174
     7a0:	0100632e 	tsteq	r0, lr, lsr #6
     7a4:	74730000 	ldrbtvc	r0, [r3], #-0
     7a8:	746e6964 	strbtvc	r6, [lr], #-2404	; 0x964
     7ac:	6363672d 	cmnvs	r3, #11796480	; 0xb40000
     7b0:	0200682e 	andeq	r6, r0, #3014656	; 0x2e0000
     7b4:	77730000 	ldrbvc	r0, [r3, -r0]!
     7b8:	7261752d 	rsbvc	r7, r1, #188743680	; 0xb400000
     7bc:	00682e74 	rsbeq	r2, r8, r4, ror lr
     7c0:	63000001 	movwvs	r0, #1
     7c4:	72746e6f 	rsbsvc	r6, r4, #1776	; 0x6f0
     7c8:	622d6c6f 	eorvs	r6, sp, #28416	; 0x6f00
     7cc:	6b636f6c 	blvs	18dc584 <__bss_end__+0x18d2244>
     7d0:	0100682e 	tsteq	r0, lr, lsr #16
     7d4:	70720000 	rsbsvc	r0, r2, r0
     7d8:	00682e69 	rsbeq	r2, r8, r9, ror #28
     7dc:	00000003 	andeq	r0, r0, r3
     7e0:	d8020500 	stmdale	r2, {r8, sl}
     7e4:	17000087 	strne	r0, [r0, -r7, lsl #1]
     7e8:	3268684b 	rsbcc	r6, r8, #4915200	; 0x4b0000
     7ec:	2f2d2f31 	svccs	0x002d2f31
     7f0:	01040200 	mrseq	r0, R12_usr
     7f4:	4b2f4f49 	blmi	bd4520 <__bss_end__+0xbca1e0>
     7f8:	67836767 	strvs	r6, [r3, r7, ror #14]
     7fc:	10022f4e 	andne	r2, r2, lr, asr #30
     800:	99010100 	stmdbls	r1, {r8}
     804:	02000000 	andeq	r0, r0, #0
     808:	00007700 	andeq	r7, r0, r0, lsl #14
     80c:	fb010200 	blx	41016 <__bss_end__+0x36cd6>
     810:	01000d0e 	tsteq	r0, lr, lsl #26
     814:	00010101 	andeq	r0, r1, r1, lsl #2
     818:	00010000 	andeq	r0, r1, r0
     81c:	73630100 	cmnvc	r3, #0, 2
     820:	65303431 	ldrvs	r3, [r0, #-1073]!	; 0x431
     824:	6372732d 	cmnvs	r2, #-1275068416	; 0xb4000000
     828:	73552f00 	cmpvc	r5, #0, 30
     82c:	2f737265 	svccs	0x00737265
     830:	61697262 	cmnvs	r9, r2, ror #4
     834:	6e756a6e 	vsubvs.f32	s13, s10, s29
     838:	7365442f 	cmnvc	r5, #788529152	; 0x2f000000
     83c:	706f746b 	rsbvc	r7, pc, fp, ror #8
     840:	6863732f 	stmdavs	r3!, {r0, r1, r2, r3, r5, r8, r9, ip, sp, lr}^
     844:	2f6c6f6f 	svccs	0x006c6f6f
     848:	746e6957 	strbtvc	r6, [lr], #-2391	; 0x957
     84c:	39317265 	ldmdbcc	r1!, {r0, r2, r5, r6, r9, ip, sp, lr}
     850:	432f3032 	teqmi	pc, #50	; 0x32
     854:	30343153 	eorscc	r3, r4, r3, asr r1
     858:	73632f45 	cmnvc	r3, #276	; 0x114
     85c:	65303431 	ldrvs	r3, [r0, #-1073]!	; 0x431
     860:	7730322d 	ldrvc	r3, [r0, -sp, lsr #4]!
     864:	6c2f6e69 	stcvs	14, cr6, [pc], #-420	; 6c8 <_start-0x7938>
     868:	69706269 	ldmdbvs	r0!, {r0, r3, r5, r6, r9, sp, lr}^
     86c:	65720000 	ldrbvs	r0, [r2, #-0]!
     870:	746f6f62 	strbtvc	r6, [pc], #-3938	; 878 <_start-0x7788>
     874:	0100632e 	tsteq	r0, lr, lsr #6
     878:	70720000 	rsbsvc	r0, r2, r0
     87c:	00682e69 	rsbeq	r2, r8, r9, ror #28
     880:	00000002 	andeq	r0, r0, r2
     884:	88020500 	stmdahi	r2, {r8, sl}
     888:	03000088 	movweq	r0, #136	; 0x88
     88c:	3114010d 	tstcc	r4, sp, lsl #2
     890:	2f15852f 	svccs	0x0015852f
     894:	672f4d4b 	strvs	r4, [pc, -fp, asr #26]!
     898:	02675235 	rsbeq	r5, r7, #1342177283	; 0x50000003
     89c:	01010010 	tsteq	r1, r0, lsl r0
     8a0:	000000a3 	andeq	r0, r0, r3, lsr #1
     8a4:	00760002 	rsbseq	r0, r6, r2
     8a8:	01020000 	mrseq	r0, (UNDEF: 2)
     8ac:	000d0efb 	strdeq	r0, [sp], -fp
     8b0:	01010101 	tsteq	r1, r1, lsl #2
     8b4:	01000000 	mrseq	r0, (UNDEF: 0)
     8b8:	63010000 	movwvs	r0, #4096	; 0x1000
     8bc:	30343173 	eorscc	r3, r4, r3, ror r1
     8c0:	72732d65 	rsbsvc	r2, r3, #6464	; 0x1940
     8c4:	552f0063 	strpl	r0, [pc, #-99]!	; 869 <_start-0x7797>
     8c8:	73726573 	cmnvc	r2, #482344960	; 0x1cc00000
     8cc:	6972622f 	ldmdbvs	r2!, {r0, r1, r2, r3, r5, r9, sp, lr}^
     8d0:	756a6e61 	strbvc	r6, [sl, #-3681]!	; 0xe61
     8d4:	65442f6e 	strbvs	r2, [r4, #-3950]	; 0xf6e
     8d8:	6f746b73 	svcvs	0x00746b73
     8dc:	63732f70 	cmnvs	r3, #112, 30	; 0x1c0
     8e0:	6c6f6f68 	stclvs	15, cr6, [pc], #-416	; 748 <_start-0x78b8>
     8e4:	6e69572f 	cdpvs	7, 6, cr5, cr9, cr15, {1}
     8e8:	31726574 	cmncc	r2, r4, ror r5
     8ec:	2f303239 	svccs	0x00303239
     8f0:	34315343 	ldrtcc	r5, [r1], #-835	; 0x343
     8f4:	632f4530 	teqvs	pc, #48, 10	; 0xc000000
     8f8:	30343173 	eorscc	r3, r4, r3, ror r1
     8fc:	30322d65 	eorscc	r2, r2, r5, ror #26
     900:	2f6e6977 	svccs	0x006e6977
     904:	7062696c 	rsbvc	r6, r2, ip, ror #18
     908:	74000069 	strvc	r0, [r0], #-105	; 0x69
     90c:	72656d69 	rsbvc	r6, r5, #6720	; 0x1a40
     910:	0100632e 	tsteq	r0, lr, lsr #6
     914:	70720000 	rsbsvc	r0, r2, r0
     918:	00682e69 	rsbeq	r2, r8, r9, ror #28
     91c:	00000002 	andeq	r0, r0, r2
     920:	fc020500 	stc2	5, cr0, [r2], {-0}
     924:	16000088 	strne	r0, [r0], -r8, lsl #1
     928:	002d2f13 	eoreq	r2, sp, r3, lsl pc
     92c:	06010402 	streq	r0, [r1], -r2, lsl #8
     930:	3168062e 	cmncc	r8, lr, lsr #12
     934:	324d4b2f 	subcc	r4, sp, #48128	; 0xbc00
     938:	4c4b3031 	mcrrmi	0, 3, r3, fp, cr1
     93c:	2f2f6a2f 	svccs	0x002f6a2f
     940:	08022f84 	stmdaeq	r2, {r2, r7, r8, r9, sl, fp, sp}
     944:	45010100 	strmi	r0, [r1, #-256]	; 0x100
     948:	02000003 	andeq	r0, r0, #3
     94c:	0001bd00 	andeq	fp, r1, r0, lsl #26
     950:	fb010200 	blx	4115a <__bss_end__+0x36e1a>
     954:	01000d0e 	tsteq	r0, lr, lsl #26
     958:	00010101 	andeq	r0, r1, r1, lsl #2
     95c:	00010000 	andeq	r0, r1, r0
     960:	796d0100 	stmdbvc	sp!, {r8}^
     964:	6372732d 	cmnvs	r2, #-1275068416	; 0xb4000000
     968:	73552f00 	cmpvc	r5, #0, 30
     96c:	2f737265 	svccs	0x00737265
     970:	61697262 	cmnvs	r9, r2, ror #4
     974:	6e756a6e 	vsubvs.f32	s13, s10, s29
     978:	7365442f 	cmnvc	r5, #788529152	; 0x2f000000
     97c:	706f746b 	rsbvc	r7, pc, fp, ror #8
     980:	6863732f 	stmdavs	r3!, {r0, r1, r2, r3, r5, r8, r9, ip, sp, lr}^
     984:	2f6c6f6f 	svccs	0x006c6f6f
     988:	746e6957 	strbtvc	r6, [lr], #-2391	; 0x957
     98c:	39317265 	ldmdbcc	r1!, {r0, r2, r5, r6, r9, ip, sp, lr}
     990:	432f3032 	teqmi	pc, #50	; 0x32
     994:	30343153 	eorscc	r3, r4, r3, asr r1
     998:	73632f45 	cmnvc	r3, #276	; 0x114
     99c:	65303431 	ldrvs	r3, [r0, #-1073]!	; 0x431
     9a0:	7730322d 	ldrvc	r3, [r0, -sp, lsr #4]!
     9a4:	6c2f6e69 	stcvs	14, cr6, [pc], #-420	; 808 <_start-0x77f8>
     9a8:	69706269 	ldmdbvs	r0!, {r0, r3, r5, r6, r9, sp, lr}^
     9ac:	3173632f 	cmncc	r3, pc, lsr #6
     9b0:	2d653034 	stclcs	0, cr3, [r5, #-208]!	; 0xffffff30
     9b4:	00637273 	rsbeq	r7, r3, r3, ror r2
     9b8:	7273752f 	rsbsvc	r7, r3, #197132288	; 0xbc00000
     9bc:	636f6c2f 	cmnvs	pc, #12032	; 0x2f00
     9c0:	432f6c61 	teqmi	pc, #24832	; 0x6100
     9c4:	616c6c65 	cmnvs	ip, r5, ror #24
     9c8:	72612f72 	rsbvc	r2, r1, #456	; 0x1c8
     9cc:	6f6e2d6d 	svcvs	0x006e2d6d
     9d0:	652d656e 	strvs	r6, [sp, #-1390]!	; 0x56e
     9d4:	2f696261 	svccs	0x00696261
     9d8:	2e382e34 	mrccs	14, 1, r2, cr8, cr4, {1}
     9dc:	73632d33 	cmnvc	r3, #3264	; 0xcc0
     9e0:	65303731 	ldrvs	r3, [r0, #-1841]!	; 0x731
     9e4:	62696c2f 	rsbvs	r6, r9, #12032	; 0x2f00
     9e8:	6363672f 	cmnvs	r3, #12320768	; 0xbc0000
     9ec:	6d72612f 	ldfvse	f6, [r2, #-188]!	; 0xffffff44
     9f0:	6e6f6e2d 	cdpvs	14, 6, cr6, cr15, cr13, {1}
     9f4:	61652d65 	cmnvs	r5, r5, ror #26
     9f8:	342f6962 	strtcc	r6, [pc], #-2402	; a00 <_start-0x7600>
     9fc:	332e382e 	teqcc	lr, #3014656	; 0x2e0000
     a00:	636e692f 	cmnvs	lr, #770048	; 0xbc000
     a04:	6564756c 	strbvs	r7, [r4, #-1388]!	; 0x56c
     a08:	73552f00 	cmpvc	r5, #0, 30
     a0c:	2f737265 	svccs	0x00737265
     a10:	61697262 	cmnvs	r9, r2, ror #4
     a14:	6e756a6e 	vsubvs.f32	s13, s10, s29
     a18:	7365442f 	cmnvc	r5, #788529152	; 0x2f000000
     a1c:	706f746b 	rsbvc	r7, pc, fp, ror #8
     a20:	6863732f 	stmdavs	r3!, {r0, r1, r2, r3, r5, r8, r9, ip, sp, lr}^
     a24:	2f6c6f6f 	svccs	0x006c6f6f
     a28:	746e6957 	strbtvc	r6, [lr], #-2391	; 0x957
     a2c:	39317265 	ldmdbcc	r1!, {r0, r2, r5, r6, r9, ip, sp, lr}
     a30:	432f3032 	teqmi	pc, #50	; 0x32
     a34:	30343153 	eorscc	r3, r4, r3, asr r1
     a38:	73632f45 	cmnvc	r3, #276	; 0x114
     a3c:	65303431 	ldrvs	r3, [r0, #-1073]!	; 0x431
     a40:	7730322d 	ldrvc	r3, [r0, -sp, lsr #4]!
     a44:	6c2f6e69 	stcvs	14, cr6, [pc], #-420	; 8a8 <_start-0x7758>
     a48:	69706269 	ldmdbvs	r0!, {r0, r3, r5, r6, r9, sp, lr}^
     a4c:	73552f00 	cmpvc	r5, #0, 30
     a50:	2f737265 	svccs	0x00737265
     a54:	61697262 	cmnvs	r9, r2, ror #4
     a58:	6e756a6e 	vsubvs.f32	s13, s10, s29
     a5c:	7365442f 	cmnvc	r5, #788529152	; 0x2f000000
     a60:	706f746b 	rsbvc	r7, pc, fp, ror #8
     a64:	6863732f 	stmdavs	r3!, {r0, r1, r2, r3, r5, r8, r9, ip, sp, lr}^
     a68:	2f6c6f6f 	svccs	0x006c6f6f
     a6c:	746e6957 	strbtvc	r6, [lr], #-2391	; 0x957
     a70:	39317265 	ldmdbcc	r1!, {r0, r2, r5, r6, r9, ip, sp, lr}
     a74:	432f3032 	teqmi	pc, #50	; 0x32
     a78:	30343153 	eorscc	r3, r4, r3, asr r1
     a7c:	73632f45 	cmnvc	r3, #276	; 0x114
     a80:	65303431 	ldrvs	r3, [r0, #-1073]!	; 0x431
     a84:	7730322d 	ldrvc	r3, [r0, -sp, lsr #4]!
     a88:	6c2f6e69 	stcvs	14, cr6, [pc], #-420	; 8ec <_start-0x7714>
     a8c:	69706269 	ldmdbvs	r0!, {r0, r3, r5, r6, r9, sp, lr}^
     a90:	62696c2f 	rsbvs	r6, r9, #12032	; 0x2f00
     a94:	73000063 	movwvc	r0, #99	; 0x63
     a98:	61752d77 	cmnvs	r5, r7, ror sp
     a9c:	632e7472 	teqvs	lr, #1912602624	; 0x72000000
     aa0:	00000100 	andeq	r0, r0, r0, lsl #2
     aa4:	6c637963 	stclvs	9, cr7, [r3], #-396	; 0xfffffe74
     aa8:	74752d65 	ldrbtvc	r2, [r5], #-3429	; 0xd65
     aac:	682e6c69 	stmdavs	lr!, {r0, r3, r5, r6, sl, fp, sp, lr}
     ab0:	00000200 	andeq	r0, r0, r0, lsl #4
     ab4:	69647473 	stmdbvs	r4!, {r0, r1, r4, r5, r6, sl, ip, sp, lr}^
     ab8:	672d746e 	strvs	r7, [sp, -lr, ror #8]!
     abc:	682e6363 	stmdavs	lr!, {r0, r1, r5, r6, r8, r9, sp, lr}
     ac0:	00000300 	andeq	r0, r0, r0, lsl #6
     ac4:	752d7773 	strvc	r7, [sp, #-1907]!	; 0x773
     ac8:	2e747261 	cdpcs	2, 7, cr7, cr4, cr1, {3}
     acc:	00020068 	andeq	r0, r2, r8, rrx
     ad0:	64747300 	ldrbtvs	r7, [r4], #-768	; 0x300
     ad4:	2e677261 	cdpcs	2, 6, cr7, cr7, cr1, {3}
     ad8:	00030068 	andeq	r0, r3, r8, rrx
     adc:	69706700 	ldmdbvs	r0!, {r8, r9, sl, sp, lr}^
     ae0:	00682e6f 	rsbeq	r2, r8, pc, ror #28
     ae4:	72000002 	andvc	r0, r0, #2
     ae8:	682e6970 	stmdavs	lr!, {r4, r5, r6, r8, fp, sp, lr}
     aec:	00000400 	andeq	r0, r0, r0, lsl #8
     af0:	702d6176 	eorvc	r6, sp, r6, ror r1
     af4:	746e6972 	strbtvc	r6, [lr], #-2418	; 0x972
     af8:	00682e6b 	rsbeq	r2, r8, fp, ror #28
     afc:	3c000005 	stccc	0, cr0, [r0], {5}
     b00:	6c697562 	cfstr64vs	mvdx7, [r9], #-392	; 0xfffffe78
     b04:	6e692d74 	mcrvs	13, 3, r2, cr9, cr4, {3}
     b08:	0000003e 	andeq	r0, r0, lr, lsr r0
     b0c:	05000000 	streq	r0, [r0, #-0]
     b10:	00898402 	addeq	r8, r9, r2, lsl #8
     b14:	2f4c1a00 	svccs	0x004c1a00
     b18:	03020430 	movweq	r0, #9264	; 0x2430
     b1c:	73032e0b 	movwvc	r2, #15883	; 0x3e0b
     b20:	88010466 	stmdahi	r1, {r1, r2, r5, r6, sl}
     b24:	03350204 	teqeq	r5, #4, 4	; 0x40000000
     b28:	01046673 	tsteq	r4, r3, ror r6
     b2c:	3302048a 	movwcc	r0, #9354	; 0x248a
     b30:	04667303 	strbteq	r7, [r6], #-771	; 0x303
     b34:	820a0301 	andhi	r0, sl, #67108864	; 0x4000000
     b38:	03310204 	teqeq	r1, #4, 4	; 0x40000000
     b3c:	01046673 	tsteq	r4, r3, ror r6
     b40:	04820c03 	streq	r0, [r2], #3075	; 0xc03
     b44:	73032f02 	movwvc	r2, #16130	; 0x3f02
     b48:	03010466 	movweq	r0, #5222	; 0x1466
     b4c:	0204820e 	andeq	r8, r4, #-536870912	; 0xe0000000
     b50:	6673032d 	ldrbtvs	r0, [r3], -sp, lsr #6
     b54:	10030104 	andne	r0, r3, r4, lsl #2
     b58:	2b020482 	blcs	81d68 <__bss_end__+0x77a28>
     b5c:	04667303 	strbteq	r7, [r6], #-771	; 0x303
     b60:	82120301 	andshi	r0, r2, #67108864	; 0x4000000
     b64:	03290204 	teqeq	r9, #4, 4	; 0x40000000
     b68:	01046673 	tsteq	r4, r3, ror r6
     b6c:	04821403 	streq	r1, [r2], #1027	; 0x403
     b70:	2e790302 	cdpcs	3, 7, cr0, cr9, cr2, {0}
     b74:	04667303 	strbteq	r7, [r6], #-771	; 0x303
     b78:	82160301 	andshi	r0, r6, #67108864	; 0x4000000
     b7c:	77030204 	strvc	r0, [r3, -r4, lsl #4]
     b80:	6673032e 	ldrbtvs	r0, [r3], -lr, lsr #6
     b84:	18030104 	stmdane	r3, {r2, r8}
     b88:	2e100382 	cdpcs	3, 1, cr0, cr0, cr2, {4}
     b8c:	70034d4b 	andvc	r4, r3, fp, asr #26
     b90:	83844c2e 	orrhi	r4, r4, #11776	; 0x2e00
     b94:	2e0d0348 	cdpcs	3, 0, cr0, cr13, cr8, {2}
     b98:	0433314e 	ldrteq	r3, [r3], #-334	; 0x14e
     b9c:	2e480302 	cdpcs	3, 4, cr0, cr8, cr2, {0}
     ba0:	3a030104 	bcc	c0fb8 <__bss_end__+0xb6c78>
     ba4:	02042f82 	andeq	r2, r4, #520	; 0x208
     ba8:	04664503 	strbteq	r4, [r6], #-1283	; 0x503
     bac:	823d0301 	eorshi	r0, sp, #67108864	; 0x4000000
     bb0:	0302042f 	movweq	r0, #9263	; 0x242f
     bb4:	01048242 	tsteq	r4, r2, asr #4
     bb8:	8200c003 	andhi	ip, r0, #3
     bbc:	0302042f 	movweq	r0, #9263	; 0x242f
     bc0:	04827fbf 	streq	r7, [r2], #4031	; 0xfbf
     bc4:	00c30301 	sbceq	r0, r3, r1, lsl #6
     bc8:	02042f82 	andeq	r2, r4, #520	; 0x208
     bcc:	827fbc03 	rsbshi	fp, pc, #768	; 0x300
     bd0:	c6030104 	strgt	r0, [r3], -r4, lsl #2
     bd4:	042f8200 	strteq	r8, [pc], #-512	; bdc <_start-0x7424>
     bd8:	7fb90302 	svcvc	0x00b90302
     bdc:	03010482 	movweq	r0, #5250	; 0x1482
     be0:	2f8200c9 	svccs	0x008200c9
     be4:	b6030204 	strlt	r0, [r3], -r4, lsl #4
     be8:	0104827f 	tsteq	r4, pc, ror r2
     bec:	8200cc03 	andhi	ip, r0, #768	; 0x300
     bf0:	0302042f 	movweq	r0, #9263	; 0x242f
     bf4:	04827fb3 	streq	r7, [r2], #4019	; 0xfb3
     bf8:	00d00301 	sbcseq	r0, r0, r1, lsl #6
     bfc:	824c0382 	subhi	r0, ip, #134217730	; 0x8000002
     c00:	4883844c 	stmmi	r3, {r2, r3, r6, sl, pc}
     c04:	4e2e3603 	cfmadda32mi	mvax0, mvax3, mvfx14, mvfx3
     c08:	034a5403 	movteq	r5, #41987	; 0xa403
     c0c:	34324a29 	ldrtcc	r4, [r2], #-2601	; 0xa29
     c10:	0402009f 	streq	r0, [r2], #-159	; 0x9f
     c14:	064a0601 	strbeq	r0, [sl], -r1, lsl #12
     c18:	bb4b4ed7 	bllt	12d477c <__bss_end__+0x12ca43c>
     c1c:	0402002c 	streq	r0, [r2], #-44	; 0x2c
     c20:	062e0601 	strteq	r0, [lr], -r1, lsl #12
     c24:	84a44c6d 	strthi	r4, [r4], #3181	; 0xc6d
     c28:	01040200 	mrseq	r0, R12_usr
     c2c:	d7064a06 	strle	r4, [r6, -r6, lsl #20]
     c30:	0402004d 	streq	r0, [r2], #-77	; 0x4d
     c34:	02004b02 	andeq	r4, r0, #2048	; 0x800
     c38:	00810204 	addeq	r0, r1, r4, lsl #4
     c3c:	06010402 	streq	r0, [r1], -r2, lsl #8
     c40:	4c4d062e 	mcrrmi	6, 2, r0, sp, cr14
     c44:	4b4bbca5 	blmi	12efee0 <__bss_end__+0x12e5ba0>
     c48:	002f6a4b 	eoreq	r6, pc, fp, asr #20
     c4c:	06010402 	streq	r0, [r1], -r2, lsl #8
     c50:	02008282 	andeq	r8, r0, #536870920	; 0x20000008
     c54:	009e0404 	addseq	r0, lr, r4, lsl #8
     c58:	4a010402 	bmi	41c68 <__bss_end__+0x37928>
     c5c:	bd88d906 	stclt	9, cr13, [r8, #24]
     c60:	084b4b2f 	stmdaeq	fp, {r0, r1, r2, r3, r5, r8, r9, fp, lr}^
     c64:	02006740 	andeq	r6, r0, #64, 14	; 0x1000000
     c68:	002f0204 	eoreq	r0, pc, r4, lsl #4
     c6c:	49020402 	stmdbmi	r2, {r1, sl}
     c70:	01040200 	mrseq	r0, R12_usr
     c74:	68062e06 	stmdavs	r6, {r1, r2, r9, sl, fp, sp}
     c78:	a04b8634 	subge	r8, fp, r4, lsr r6
     c7c:	01040200 	mrseq	r0, R12_usr
     c80:	d7066606 	strle	r6, [r6, -r6, lsl #12]
     c84:	4b220868 	blmi	882e2c <__bss_end__+0x878aec>
     c88:	02d84b67 	sbcseq	r4, r8, #105472	; 0x19c00
     c8c:	0101000a 	tsteq	r1, sl
     c90:	00000101 	andeq	r0, r0, r1, lsl #2
     c94:	00ca0002 	sbceq	r0, sl, r2
     c98:	01020000 	mrseq	r0, (UNDEF: 2)
     c9c:	000d0efb 	strdeq	r0, [sp], -fp
     ca0:	01010101 	tsteq	r1, r1, lsl #2
     ca4:	01000000 	mrseq	r0, (UNDEF: 0)
     ca8:	6d010000 	stcvs	0, cr0, [r1, #-0]
     cac:	72732d79 	rsbsvc	r2, r3, #7744	; 0x1e40
     cb0:	552f0063 	strpl	r0, [pc, #-99]!	; c55 <_start-0x73ab>
     cb4:	73726573 	cmnvc	r2, #482344960	; 0x1cc00000
     cb8:	6972622f 	ldmdbvs	r2!, {r0, r1, r2, r3, r5, r9, sp, lr}^
     cbc:	756a6e61 	strbvc	r6, [sl, #-3681]!	; 0xe61
     cc0:	65442f6e 	strbvs	r2, [r4, #-3950]	; 0xf6e
     cc4:	6f746b73 	svcvs	0x00746b73
     cc8:	63732f70 	cmnvs	r3, #112, 30	; 0x1c0
     ccc:	6c6f6f68 	stclvs	15, cr6, [pc], #-416	; b34 <_start-0x74cc>
     cd0:	6e69572f 	cdpvs	7, 6, cr5, cr9, cr15, {1}
     cd4:	31726574 	cmncc	r2, r4, ror r5
     cd8:	2f303239 	svccs	0x00303239
     cdc:	34315343 	ldrtcc	r5, [r1], #-835	; 0x343
     ce0:	632f4530 	teqvs	pc, #48, 10	; 0xc000000
     ce4:	30343173 	eorscc	r3, r4, r3, ror r1
     ce8:	30322d65 	eorscc	r2, r2, r5, ror #26
     cec:	2f6e6977 	svccs	0x006e6977
     cf0:	7062696c 	rsbvc	r6, r2, ip, ror #18
     cf4:	73632f69 	cmnvc	r3, #420	; 0x1a4
     cf8:	65303431 	ldrvs	r3, [r0, #-1073]!	; 0x431
     cfc:	6372732d 	cmnvs	r2, #-1275068416	; 0xb4000000
     d00:	73552f00 	cmpvc	r5, #0, 30
     d04:	2f737265 	svccs	0x00737265
     d08:	61697262 	cmnvs	r9, r2, ror #4
     d0c:	6e756a6e 	vsubvs.f32	s13, s10, s29
     d10:	7365442f 	cmnvc	r5, #788529152	; 0x2f000000
     d14:	706f746b 	rsbvc	r7, pc, fp, ror #8
     d18:	6863732f 	stmdavs	r3!, {r0, r1, r2, r3, r5, r8, r9, ip, sp, lr}^
     d1c:	2f6c6f6f 	svccs	0x006c6f6f
     d20:	746e6957 	strbtvc	r6, [lr], #-2391	; 0x957
     d24:	39317265 	ldmdbcc	r1!, {r0, r2, r5, r6, r9, ip, sp, lr}
     d28:	432f3032 	teqmi	pc, #50	; 0x32
     d2c:	30343153 	eorscc	r3, r4, r3, asr r1
     d30:	73632f45 	cmnvc	r3, #276	; 0x114
     d34:	65303431 	ldrvs	r3, [r0, #-1073]!	; 0x431
     d38:	7730322d 	ldrvc	r3, [r0, -sp, lsr #4]!
     d3c:	6c2f6e69 	stcvs	14, cr6, [pc], #-420	; ba0 <_start-0x7460>
     d40:	69706269 	ldmdbvs	r0!, {r0, r3, r5, r6, r9, sp, lr}^
     d44:	61750000 	cmnvs	r5, r0
     d48:	632e7472 	teqvs	lr, #1912602624	; 0x72000000
     d4c:	00000100 	andeq	r0, r0, r0, lsl #2
     d50:	6f697067 	svcvs	0x00697067
     d54:	0200682e 	andeq	r6, r0, #3014656	; 0x2e0000
     d58:	70720000 	rsbsvc	r0, r2, r0
     d5c:	00682e69 	rsbeq	r2, r8, r9, ror #28
     d60:	00000003 	andeq	r0, r0, r3
     d64:	a4020500 	strge	r0, [r2], #-1280	; 0x500
     d68:	0300008f 	movweq	r0, #143	; 0x8f
     d6c:	33300136 	teqcc	r0, #-2147483635	; 0x8000000d
     d70:	d8306d67 	ldmdale	r0!, {r0, r1, r2, r5, r6, r8, sl, fp, sp, lr}
     d74:	67676730 			; <UNDEFINED> instruction: 0x67676730
     d78:	86686767 	strbthi	r6, [r8], -r7, ror #14
     d7c:	306a672f 	rsbcc	r6, sl, pc, lsr #14
     d80:	2f696767 	svccs	0x00696767
     d84:	674c6a67 	strbvs	r6, [ip, -r7, ror #20]
     d88:	302f2fc1 	eorcc	r2, pc, r1, asr #31
     d8c:	3049682f 	subcc	r6, r9, pc, lsr #16
     d90:	01000202 	tsteq	r0, r2, lsl #4
     d94:	00017801 	andeq	r7, r1, r1, lsl #16
     d98:	ca000200 	bgt	15a0 <_start-0x6a60>
     d9c:	02000000 	andeq	r0, r0, #0
     da0:	0d0efb01 	vstreq	d15, [lr, #-4]
     da4:	01010100 	mrseq	r0, (UNDEF: 17)
     da8:	00000001 	andeq	r0, r0, r1
     dac:	01000001 	tsteq	r0, r1
     db0:	732d796d 	teqvc	sp, #1785856	; 0x1b4000
     db4:	2f006372 	svccs	0x00006372
     db8:	72657355 	rsbvc	r7, r5, #1409286145	; 0x54000001
     dbc:	72622f73 	rsbvc	r2, r2, #460	; 0x1cc
     dc0:	6a6e6169 	bvs	1b9936c <__bss_end__+0x1b8f02c>
     dc4:	442f6e75 	strtmi	r6, [pc], #-3701	; dcc <_start-0x7234>
     dc8:	746b7365 	strbtvc	r7, [fp], #-869	; 0x365
     dcc:	732f706f 	teqvc	pc, #111	; 0x6f
     dd0:	6f6f6863 	svcvs	0x006f6863
     dd4:	69572f6c 	ldmdbvs	r7, {r2, r3, r5, r6, r8, r9, sl, fp, sp}^
     dd8:	7265746e 	rsbvc	r7, r5, #1845493760	; 0x6e000000
     ddc:	30323931 	eorscc	r3, r2, r1, lsr r9
     de0:	3153432f 	cmpcc	r3, pc, lsr #6
     de4:	2f453034 	svccs	0x00453034
     de8:	34317363 	ldrtcc	r7, [r1], #-867	; 0x363
     dec:	322d6530 	eorcc	r6, sp, #48, 10	; 0xc000000
     df0:	6e697730 	mcrvs	7, 3, r7, cr9, cr0, {1}
     df4:	62696c2f 	rsbvs	r6, r9, #12032	; 0x2f00
     df8:	632f6970 	teqvs	pc, #112, 18	; 0x1c0000
     dfc:	30343173 	eorscc	r3, r4, r3, ror r1
     e00:	72732d65 	rsbsvc	r2, r3, #6464	; 0x1940
     e04:	552f0063 	strpl	r0, [pc, #-99]!	; da9 <_start-0x7257>
     e08:	73726573 	cmnvc	r2, #482344960	; 0x1cc00000
     e0c:	6972622f 	ldmdbvs	r2!, {r0, r1, r2, r3, r5, r9, sp, lr}^
     e10:	756a6e61 	strbvc	r6, [sl, #-3681]!	; 0xe61
     e14:	65442f6e 	strbvs	r2, [r4, #-3950]	; 0xf6e
     e18:	6f746b73 	svcvs	0x00746b73
     e1c:	63732f70 	cmnvs	r3, #112, 30	; 0x1c0
     e20:	6c6f6f68 	stclvs	15, cr6, [pc], #-416	; c88 <_start-0x7378>
     e24:	6e69572f 	cdpvs	7, 6, cr5, cr9, cr15, {1}
     e28:	31726574 	cmncc	r2, r4, ror r5
     e2c:	2f303239 	svccs	0x00303239
     e30:	34315343 	ldrtcc	r5, [r1], #-835	; 0x343
     e34:	632f4530 	teqvs	pc, #48, 10	; 0xc000000
     e38:	30343173 	eorscc	r3, r4, r3, ror r1
     e3c:	30322d65 	eorscc	r2, r2, r5, ror #26
     e40:	2f6e6977 	svccs	0x006e6977
     e44:	7062696c 	rsbvc	r6, r2, ip, ror #18
     e48:	67000069 	strvs	r0, [r0, -r9, rrx]
     e4c:	2e6f6970 	mcrcs	9, 3, r6, cr15, cr0, {3}
     e50:	00010063 	andeq	r0, r1, r3, rrx
     e54:	69706700 	ldmdbvs	r0!, {r8, r9, sl, sp, lr}^
     e58:	00682e6f 	rsbeq	r2, r8, pc, ror #28
     e5c:	72000002 	andvc	r0, r0, #2
     e60:	682e6970 	stmdavs	lr!, {r4, r5, r6, r8, fp, sp, lr}
     e64:	00000300 	andeq	r0, r0, r0, lsl #6
     e68:	02050000 	andeq	r0, r5, #0
     e6c:	00009160 	andeq	r9, r0, r0, ror #2
     e70:	4e013e03 	cdpmi	14, 0, cr3, cr1, cr3, {0}
     e74:	21086950 	tstcs	r8, r0, asr r9
     e78:	67676767 	strbvs	r6, [r7, -r7, ror #14]!
     e7c:	4b326767 	blmi	c9ac20 <__bss_end__+0xc908e0>
     e80:	31dc2208 	bicscc	r2, ip, r8, lsl #4
     e84:	504e1351 	subpl	r1, lr, r1, asr r3
     e88:	5031be30 	eorspl	fp, r1, r0, lsr lr
     e8c:	304f4d13 	subcc	r4, pc, r3, lsl sp	; <UNPREDICTABLE>
     e90:	69504cc0 	ldmdbvs	r0, {r6, r7, sl, fp, lr}^
     e94:	67672108 	strbvs	r2, [r7, -r8, lsl #2]!
     e98:	67676767 	strbvs	r6, [r7, -r7, ror #14]!
     e9c:	21084b32 	tstcs	r8, r2, lsr fp
     ea0:	2f504ca4 	svccs	0x00504ca4
     ea4:	75036984 	strvc	r6, [r3, #-2436]	; 0x984
     ea8:	2e0c0382 	cdpcs	3, 0, cr0, cr12, cr2, {4}
     eac:	4b4e304d 	blmi	138cfe8 <__bss_end__+0x1382ca8>
     eb0:	6b6a4d4c 	blvs	1a943e8 <__bss_end__+0x1a8a0a8>
     eb4:	67210869 	strvs	r0, [r1, -r9, ror #16]!
     eb8:	67676767 	strbvs	r6, [r7, -r7, ror #14]!
     ebc:	084b3267 	stmdaeq	fp, {r0, r1, r2, r5, r6, r9, ip, sp}^
     ec0:	ba1a0322 	blt	681b50 <__bss_end__+0x677810>
     ec4:	2f4c9f31 	svccs	0x004c9f31
     ec8:	2f4e4d52 	svccs	0x004e4d52
     ecc:	684b674b 	stmdavs	fp, {r0, r1, r3, r6, r8, r9, sl, sp, lr}^
     ed0:	2f4c6767 	svccs	0x004c6767
     ed4:	6e4b2f67 	cdpvs	15, 4, cr2, cr11, cr7, {3}
     ed8:	4b2f4e4c 	blmi	bd4810 <__bss_end__+0xbca4d0>
     edc:	67684b67 	strbvs	r4, [r8, -r7, ror #22]!
     ee0:	672f4c67 	strvs	r4, [pc, -r7, ror #24]!
     ee4:	4b6d4b2f 	blmi	1b53ba8 <__bss_end__+0x1b49868>
     ee8:	674b2f4e 	strbvs	r2, [fp, -lr, asr #30]
     eec:	01040200 	mrseq	r0, R12_usr
     ef0:	68066606 	stmdavs	r6, {r1, r2, r9, sl, sp, lr}
     ef4:	02002f9f 	andeq	r2, r0, #636	; 0x27c
     ef8:	4a060104 	bmi	181310 <__bss_end__+0x176fd0>
     efc:	032f6806 	teqeq	pc, #393216	; 0x60000
     f00:	0e034a73 	mcreq	10, 0, r4, cr3, cr3, {3}
     f04:	4e4c4d2e 	cdpmi	13, 4, cr4, cr12, cr14, {1}
     f08:	bcbc4b2f 	fldmiaxlt	ip!, {d4-d26}	;@ Deprecated
     f0c:	01000602 	tsteq	r0, r2, lsl #12
     f10:	00012801 	andeq	r2, r1, r1, lsl #16
     f14:	0d000200 	sfmeq	f0, 4, [r0, #-0]
     f18:	02000001 	andeq	r0, r0, #1
     f1c:	0d0efb01 	vstreq	d15, [lr, #-4]
     f20:	01010100 	mrseq	r0, (UNDEF: 17)
     f24:	00000001 	andeq	r0, r0, r1
     f28:	01000001 	tsteq	r0, r1
     f2c:	34317363 	ldrtcc	r7, [r1], #-867	; 0x363
     f30:	732d6530 	teqvc	sp, #48, 10	; 0xc000000
     f34:	2f006372 	svccs	0x00006372
     f38:	2f727375 	svccs	0x00727375
     f3c:	61636f6c 	cmnvs	r3, ip, ror #30
     f40:	65432f6c 	strbvs	r2, [r3, #-3948]	; 0xf6c
     f44:	72616c6c 	rsbvc	r6, r1, #108, 24	; 0x6c00
     f48:	6d72612f 	ldfvse	f6, [r2, #-188]!	; 0xffffff44
     f4c:	6e6f6e2d 	cdpvs	14, 6, cr6, cr15, cr13, {1}
     f50:	61652d65 	cmnvs	r5, r5, ror #26
     f54:	342f6962 	strtcc	r6, [pc], #-2402	; f5c <_start-0x70a4>
     f58:	332e382e 	teqcc	lr, #3014656	; 0x2e0000
     f5c:	3173632d 	cmncc	r3, sp, lsr #6
     f60:	2f653037 	svccs	0x00653037
     f64:	2f62696c 	svccs	0x0062696c
     f68:	2f636367 	svccs	0x00636367
     f6c:	2d6d7261 	sfmcs	f7, 2, [sp, #-388]!	; 0xfffffe7c
     f70:	656e6f6e 	strbvs	r6, [lr, #-3950]!	; 0xf6e
     f74:	6261652d 	rsbvs	r6, r1, #188743680	; 0xb400000
     f78:	2e342f69 	cdpcs	15, 3, cr2, cr4, cr9, {3}
     f7c:	2f332e38 	svccs	0x00332e38
     f80:	6c636e69 	stclvs	14, cr6, [r3], #-420	; 0xfffffe5c
     f84:	00656475 	rsbeq	r6, r5, r5, ror r4
     f88:	7273752f 	rsbsvc	r7, r3, #197132288	; 0xbc00000
     f8c:	636f6c2f 	cmnvs	pc, #12032	; 0x2f00
     f90:	432f6c61 	teqmi	pc, #24832	; 0x6100
     f94:	616c6c65 	cmnvs	ip, r5, ror #24
     f98:	72612f72 	rsbvc	r2, r1, #456	; 0x1c8
     f9c:	6f6e2d6d 	svcvs	0x006e2d6d
     fa0:	652d656e 	strvs	r6, [sp, #-1390]!	; 0x56e
     fa4:	2f696261 	svccs	0x00696261
     fa8:	2e382e34 	mrccs	14, 1, r2, cr8, cr4, {1}
     fac:	73632d33 	cmnvc	r3, #3264	; 0xcc0
     fb0:	65303731 	ldrvs	r3, [r0, #-1841]!	; 0x731
     fb4:	6d72612f 	ldfvse	f6, [r2, #-188]!	; 0xffffff44
     fb8:	6e6f6e2d 	cdpvs	14, 6, cr6, cr15, cr13, {1}
     fbc:	61652d65 	cmnvs	r5, r5, ror #26
     fc0:	692f6962 	stmdbvs	pc!, {r1, r5, r6, r8, fp, sp, lr}	; <UNPREDICTABLE>
     fc4:	756c636e 	strbvc	r6, [ip, #-878]!	; 0x36e
     fc8:	00006564 	andeq	r6, r0, r4, ror #10
     fcc:	746e6f63 	strbtvc	r6, [lr], #-3939	; 0xf63
     fd0:	2d6c6f72 	stclcs	15, cr6, [ip, #-456]!	; 0xfffffe38
     fd4:	636f6c62 	cmnvs	pc, #25088	; 0x6200
     fd8:	00632e6b 	rsbeq	r2, r3, fp, ror #28
     fdc:	73000001 	movwvc	r0, #1
     fe0:	65646474 	strbvs	r6, [r4, #-1140]!	; 0x474
     fe4:	00682e66 	rsbeq	r2, r8, r6, ror #28
     fe8:	73000002 	movwvc	r0, #2
     fec:	6e696474 	mcrvs	4, 3, r6, cr9, cr4, {3}
     ff0:	63672d74 	cmnvs	r7, #116, 26	; 0x1d00
     ff4:	00682e63 	rsbeq	r2, r8, r3, ror #28
     ff8:	73000002 	movwvc	r0, #2
     ffc:	61752d77 	cmnvs	r5, r7, ror sp
    1000:	682e7472 	stmdavs	lr!, {r1, r4, r5, r6, sl, ip, sp, lr}
    1004:	00000100 	andeq	r0, r0, r0, lsl #2
    1008:	746e6f63 	strbtvc	r6, [lr], #-3939	; 0xf63
    100c:	2d6c6f72 	stclcs	15, cr6, [ip, #-456]!	; 0xfffffe38
    1010:	636f6c62 	cmnvs	pc, #25088	; 0x6200
    1014:	00682e6b 	rsbeq	r2, r8, fp, ror #28
    1018:	73000001 	movwvc	r0, #1
    101c:	6e697274 	mcrvs	2, 3, r7, cr9, cr4, {3}
    1020:	00682e67 	rsbeq	r2, r8, r7, ror #28
    1024:	00000003 	andeq	r0, r0, r3
    1028:	c8020500 	stmdagt	r2, {r8, sl}
    102c:	16000096 			; <UNDEFINED> instruction: 0x16000096
    1030:	4c688330 	stclmi	3, cr8, [r8], #-192	; 0xffffff40
    1034:	2f4b9f14 	svccs	0x004b9f14
    1038:	01000402 	tsteq	r0, r2, lsl #8
    103c:	0000ec01 	andeq	lr, r0, r1, lsl #24
    1040:	d0000200 	andle	r0, r0, r0, lsl #4
    1044:	02000000 	andeq	r0, r0, #0
    1048:	0d0efb01 	vstreq	d15, [lr, #-4]
    104c:	01010100 	mrseq	r0, (UNDEF: 17)
    1050:	00000001 	andeq	r0, r0, r1
    1054:	01000001 	tsteq	r0, r1
    1058:	6362696c 	cmnvs	r2, #108, 18	; 0x1b0000
    105c:	73752f00 	cmnvc	r5, #0, 30
    1060:	6f6c2f72 	svcvs	0x006c2f72
    1064:	2f6c6163 	svccs	0x006c6163
    1068:	6c6c6543 	cfstr64vs	mvdx6, [ip], #-268	; 0xfffffef4
    106c:	612f7261 	teqvs	pc, r1, ror #4
    1070:	6e2d6d72 	mcrvs	13, 1, r6, cr13, cr2, {3}
    1074:	2d656e6f 	stclcs	14, cr6, [r5, #-444]!	; 0xfffffe44
    1078:	69626165 	stmdbvs	r2!, {r0, r2, r5, r6, r8, sp, lr}^
    107c:	382e342f 	stmdacc	lr!, {r0, r1, r2, r3, r5, sl, ip, sp}
    1080:	632d332e 	teqvs	sp, #-1207959552	; 0xb8000000
    1084:	30373173 	eorscc	r3, r7, r3, ror r1
    1088:	696c2f65 	stmdbvs	ip!, {r0, r2, r5, r6, r8, r9, sl, fp, sp}^
    108c:	63672f62 	cmnvs	r7, #392	; 0x188
    1090:	72612f63 	rsbvc	r2, r1, #396	; 0x18c
    1094:	6f6e2d6d 	svcvs	0x006e2d6d
    1098:	652d656e 	strvs	r6, [sp, #-1390]!	; 0x56e
    109c:	2f696261 	svccs	0x00696261
    10a0:	2e382e34 	mrccs	14, 1, r2, cr8, cr4, {1}
    10a4:	6e692f33 	mcrvs	15, 3, r2, cr9, cr3, {1}
    10a8:	64756c63 	ldrbtvs	r6, [r5], #-3171	; 0xc63
    10ac:	752f0065 	strvc	r0, [pc, #-101]!	; 104f <_start-0x6fb1>
    10b0:	6c2f7273 	sfmvs	f7, 4, [pc], #-460	; eec <_start-0x7114>
    10b4:	6c61636f 	stclvs	3, cr6, [r1], #-444	; 0xfffffe44
    10b8:	6c65432f 	stclvs	3, cr4, [r5], #-188	; 0xffffff44
    10bc:	2f72616c 	svccs	0x0072616c
    10c0:	2d6d7261 	sfmcs	f7, 2, [sp, #-388]!	; 0xfffffe7c
    10c4:	656e6f6e 	strbvs	r6, [lr, #-3950]!	; 0xf6e
    10c8:	6261652d 	rsbvs	r6, r1, #188743680	; 0xb400000
    10cc:	2e342f69 	cdpcs	15, 3, cr2, cr4, cr9, {3}
    10d0:	2d332e38 	ldccs	14, cr2, [r3, #-224]!	; 0xffffff20
    10d4:	37317363 	ldrcc	r7, [r1, -r3, ror #6]!
    10d8:	612f6530 	teqvs	pc, r0, lsr r5	; <UNPREDICTABLE>
    10dc:	6e2d6d72 	mcrvs	13, 1, r6, cr13, cr2, {3}
    10e0:	2d656e6f 	stclcs	14, cr6, [r5, #-444]!	; 0xfffffe44
    10e4:	69626165 	stmdbvs	r2!, {r0, r2, r5, r6, r8, sp, lr}^
    10e8:	636e692f 	cmnvs	lr, #770048	; 0xbc000
    10ec:	6564756c 	strbvs	r7, [r4, #-1388]!	; 0x56c
    10f0:	656d0000 	strbvs	r0, [sp, #-0]!
    10f4:	7465736d 	strbtvc	r7, [r5], #-877	; 0x36d
    10f8:	0100632e 	tsteq	r0, lr, lsr #6
    10fc:	74730000 	ldrbtvc	r0, [r3], #-0
    1100:	66656464 	strbtvs	r6, [r5], -r4, ror #8
    1104:	0200682e 	andeq	r6, r0, #3014656	; 0x2e0000
    1108:	74730000 	ldrbtvc	r0, [r3], #-0
    110c:	676e6972 			; <UNDEFINED> instruction: 0x676e6972
    1110:	0300682e 	movweq	r6, #2094	; 0x82e
    1114:	00000000 	andeq	r0, r0, r0
    1118:	97180205 	ldrls	r0, [r8, -r5, lsl #4]
    111c:	13140000 	tstne	r4, #0
    1120:	02002f4c 	andeq	r2, r0, #76, 30	; 0x130
    1124:	4d490104 	stfmie	f0, [r9, #-16]
    1128:	01000202 	tsteq	r0, r2, lsl #4
    112c:	Address 0x000000000000112c is out of bounds.


Disassembly of section .debug_str:

00000000 <.debug_str>:
   0:	4e415242 	cdpmi	2, 4, cr5, cr1, cr2, {2}
   4:	4f544843 	svcmi	0x00544843
   8:	5f495000 	svcpl	0x00495000
   c:	44414552 	strbmi	r4, [r1], #-1362	; 0x552
  10:	49500059 	ldmdbmi	r0, {r0, r3, r4, r6}^
  14:	444e455f 	strbmi	r4, [lr], #-1375	; 0x55f
  18:	5f495000 	svcpl	0x00495000
  1c:	4f495047 	svcmi	0x00495047
  20:	4952575f 	ldmdbmi	r2, {r0, r1, r2, r3, r4, r6, r8, r9, sl, ip, lr}^
  24:	50004554 	andpl	r4, r0, r4, asr r5
  28:	55505f49 	ldrbpl	r5, [r0, #-3913]	; 0xf49
  2c:	4f435f54 	svcmi	0x00435f54
  30:	495f4544 	ldmdbmi	pc, {r2, r6, r8, sl, lr}^	; <UNPREDICTABLE>
  34:	004f464e 	subeq	r4, pc, lr, asr #12
  38:	2d746567 	cfldr64cs	mvdx6, [r4, #-412]!	; 0xfffffe64
  3c:	65646f63 	strbvs	r6, [r4, #-3939]!	; 0xf63
  40:	5000632e 	andpl	r6, r0, lr, lsr #6
  44:	50475f49 	subpl	r5, r7, r9, asr #30
  48:	535f4f49 	cmppl	pc, #292	; 0x124
  4c:	4f5f5445 	svcmi	0x005f5445
  50:	6873004e 	ldmdavs	r3!, {r1, r2, r3, r6}^
  54:	2074726f 	rsbscs	r7, r4, pc, ror #4
  58:	69736e75 	ldmdbvs	r3!, {r0, r2, r4, r5, r6, r9, sl, fp, sp, lr}^
  5c:	64656e67 	strbtvs	r6, [r5], #-3687	; 0xe67
  60:	746e6920 	strbtvc	r6, [lr], #-2336	; 0x920
  64:	61657200 	cmnvs	r5, r0, lsl #4
  68:	78655f64 	stmdavc	r5!, {r2, r5, r6, r8, r9, sl, fp, ip, lr}^
  6c:	00746361 	rsbseq	r6, r4, r1, ror #6
  70:	475f4950 			; <UNDEFINED> instruction: 0x475f4950
  74:	5f4f4950 	svcpl	0x004f4950
  78:	44414552 	strbmi	r4, [r1], #-1362	; 0x552
  7c:	554e4700 	strbpl	r4, [lr, #-1792]	; 0x700
  80:	34204320 	strtcc	r4, [r0], #-800	; 0x320
  84:	332e382e 	teqcc	lr, #3014656	; 0x2e0000
  88:	636d2d20 	cmnvs	sp, #32, 26	; 0x800
  8c:	613d7570 	teqvs	sp, r0, ror r5
  90:	31316d72 	teqcc	r1, r2, ror sp
  94:	7a6a3637 	bvc	1a8d978 <__bss_end__+0x1a83638>
  98:	20732d66 	rsbscs	r2, r3, r6, ror #26
  9c:	75746d2d 	ldrbvc	r6, [r4, #-3373]!	; 0xd2d
  a0:	613d656e 	teqvs	sp, lr, ror #10
  a4:	31316d72 	teqcc	r1, r2, ror sp
  a8:	7a6a3637 	bvc	1a8d98c <__bss_end__+0x1a8364c>
  ac:	20732d66 	rsbscs	r2, r3, r6, ror #26
  b0:	6467672d 	strbtvs	r6, [r7], #-1837	; 0x72d
  b4:	4f2d2062 	svcmi	0x002d2062
  b8:	732d2067 	teqvc	sp, #103	; 0x67
  bc:	673d6474 			; <UNDEFINED> instruction: 0x673d6474
  c0:	3939756e 	ldmdbcc	r9!, {r1, r2, r3, r5, r6, r8, sl, ip, sp, lr}
  c4:	66662d20 	strbtvs	r2, [r6], -r0, lsr #26
  c8:	73656572 	cmnvc	r5, #478150656	; 0x1c800000
  cc:	646e6174 	strbtvs	r6, [lr], #-372	; 0x174
  d0:	00676e69 	rsbeq	r6, r7, r9, ror #28
  d4:	6d746f6e 	ldclvs	15, cr6, [r4, #-440]!	; 0xfffffe48
  d8:	006e6961 	rsbeq	r6, lr, r1, ror #18
  dc:	4e5f4950 	mrcmi	9, 2, r4, cr15, cr0, {2}
  e0:	004c4c55 	subeq	r4, ip, r5, asr ip
  e4:	74726175 	ldrbtvc	r6, [r2], #-373	; 0x175
  e8:	696e695f 	stmdbvs	lr!, {r0, r1, r2, r3, r4, r6, r8, fp, sp, lr}^
  ec:	6e750074 	mrcvs	0, 3, r0, cr5, cr4, {3}
  f0:	6e676973 	mcrvs	9, 3, r6, cr7, cr3, {3}
  f4:	63206465 	teqvs	r0, #1694498816	; 0x65000000
  f8:	00726168 	rsbseq	r6, r2, r8, ror #2
  fc:	61656c63 	cmnvs	r5, r3, ror #24
 100:	65725f6e 	ldrbvs	r5, [r2, #-3950]!	; 0xf6e
 104:	746f6f62 	strbtvc	r6, [pc], #-3938	; 10c <_start-0x7ef4>
 108:	5f495000 	svcpl	0x00495000
 10c:	33544547 	cmpcc	r4, #297795584	; 0x11c00000
 110:	6f630032 	svcvs	0x00630032
 114:	65696b6f 	strbvs	r6, [r9, #-2927]!	; 0xb6f
 118:	64646100 	strbtvs	r6, [r4], #-256	; 0x100
 11c:	49500072 	ldmdbmi	r0, {r1, r4, r5, r6}^
 120:	4952505f 	ldmdbmi	r2, {r0, r1, r2, r3, r4, r6, ip, lr}^
 124:	435f544e 	cmpmi	pc, #1308622848	; 0x4e000000
 128:	00524148 	subseq	r4, r2, r8, asr #2
 12c:	475f4950 			; <UNDEFINED> instruction: 0x475f4950
 130:	32335445 	eorscc	r5, r3, #1157627904	; 0x45000000
 134:	5045525f 	subpl	r5, r5, pc, asr r2
 138:	6300594c 	movwvs	r5, #2380	; 0x94c
 13c:	5f727275 	svcpl	0x00727275
 140:	00637263 	rsbeq	r7, r3, r3, ror #4
 144:	505f4950 	subspl	r4, pc, r0, asr r9	; <UNPREDICTABLE>
 148:	435f5455 	cmpmi	pc, #1426063360	; 0x55000000
 14c:	0045444f 	subeq	r4, r5, pc, asr #8
 150:	5f697072 	svcpl	0x00697072
 154:	65736572 	ldrbvs	r6, [r3, #-1394]!	; 0x572
 158:	75705f74 	ldrbvc	r5, [r0, #-3956]!	; 0xf74
 15c:	50006374 	andpl	r6, r0, r4, ror r3
 160:	50475f49 	subpl	r5, r7, r9, asr #30
 164:	535f4f49 	cmppl	pc, #292	; 0x124
 168:	4f5f5445 	svcmi	0x005f5445
 16c:	50004646 	andpl	r4, r0, r6, asr #12
 170:	52505f49 	subspl	r5, r0, #292	; 0x124
 174:	5f544e49 	svcpl	0x00544e49
 178:	49525453 	ldmdbmi	r2, {r0, r1, r4, r6, sl, ip, lr}^
 17c:	5f00474e 	svcpl	0x0000474e
 180:	4e55465f 	mrcmi	6, 2, r4, cr5, cr15, {2}
 184:	4f495443 	svcmi	0x00495443
 188:	005f5f4e 	subseq	r5, pc, lr, asr #30
 18c:	505f4950 	subspl	r4, pc, r0, asr r9	; <UNPREDICTABLE>
 190:	32335455 	eorscc	r5, r3, #1426063360	; 0x55000000
 194:	6e6f6c00 	cdpvs	12, 6, cr6, cr15, cr0, {0}
 198:	6f6c2067 	svcvs	0x006c2067
 19c:	7520676e 	strvc	r6, [r0, #-1902]!	; 0x76e
 1a0:	6769736e 	strbvs	r7, [r9, -lr, ror #6]!
 1a4:	2064656e 	rsbcs	r6, r4, lr, ror #10
 1a8:	00746e69 	rsbseq	r6, r4, r9, ror #28
 1ac:	746e6975 	strbtvc	r6, [lr], #-2421	; 0x975
 1b0:	00745f38 	rsbseq	r5, r4, r8, lsr pc
 1b4:	625f6970 	subsvs	r6, pc, #112, 18	; 0x1c0000
 1b8:	685f6e69 	ldmdavs	pc, {r0, r3, r5, r6, r9, sl, fp, sp, lr}^	; <UNPREDICTABLE>
 1bc:	65646165 	strbvs	r6, [r4, #-357]!	; 0x165
 1c0:	49500072 	ldmdbmi	r0, {r1, r4, r5, r6}^
 1c4:	4950475f 	ldmdbmi	r0, {r0, r1, r2, r3, r4, r6, r8, r9, sl, lr}^
 1c8:	45525f4f 	ldrbmi	r5, [r2, #-3919]	; 0xf4f
 1cc:	525f4441 	subspl	r4, pc, #1090519040	; 0x41000000
 1d0:	594c5045 	stmdbpl	ip, {r0, r2, r6, ip, lr}^
 1d4:	5f495000 	svcpl	0x00495000
 1d8:	5f544547 	svcpl	0x00544547
 1dc:	45444f43 	strbmi	r4, [r4, #-3907]	; 0xf43
 1e0:	7a697300 	bvc	1a5cde8 <__bss_end__+0x1a52aa8>
 1e4:	70797465 	rsbsvc	r7, r9, r5, ror #8
 1e8:	6f6c0065 	svcvs	0x006c0065
 1ec:	6c20676e 	stcvs	7, cr6, [r0], #-440	; 0xfffffe48
 1f0:	20676e6f 	rsbcs	r6, r7, pc, ror #28
 1f4:	00746e69 	rsbseq	r6, r4, r9, ror #28
 1f8:	73726468 	cmnvc	r2, #104, 8	; 0x68000000
 1fc:	00657a69 	rsbeq	r7, r5, r9, ror #20
 200:	5f72756f 	svcpl	0x0072756f
 204:	33637263 	cmncc	r3, #805306374	; 0x30000006
 208:	756f0032 	strbvc	r0, [pc, #-50]!	; 1de <_start-0x7e22>
 20c:	72635f72 	rsbvc	r5, r3, #456	; 0x1c8
 210:	5f323363 	svcpl	0x00323363
 214:	00636e69 	rsbeq	r6, r3, r9, ror #28
 218:	475f4950 			; <UNDEFINED> instruction: 0x475f4950
 21c:	435f5445 	cmpmi	pc, #1157627904	; 0x45000000
 220:	5f45444f 	svcpl	0x0045444f
 224:	4f464e49 	svcmi	0x00464e49
 228:	6f687300 	svcvs	0x00687300
 22c:	69207472 	stmdbvs	r0!, {r1, r4, r5, r6, sl, ip, sp, lr}
 230:	5000746e 	andpl	r7, r0, lr, ror #8
 234:	454e5f49 	strbmi	r5, [lr, #-3913]	; 0xf49
 238:	415f4445 	cmpmi	pc, r5, asr #8
 23c:	50004b43 	andpl	r4, r0, r3, asr #22
 240:	45525f49 	ldrbmi	r5, [r2, #-3913]	; 0xf49
 244:	544f4f42 	strbpl	r4, [pc], #-3906	; 24c <_start-0x7db4>
 248:	73552f00 	cmpvc	r5, #0, 30
 24c:	2f737265 	svccs	0x00737265
 250:	61697262 	cmnvs	r9, r2, ror #4
 254:	6e756a6e 	vsubvs.f32	s13, s10, s29
 258:	7365442f 	cmnvc	r5, #788529152	; 0x2f000000
 25c:	706f746b 	rsbvc	r7, pc, fp, ror #8
 260:	6863732f 	stmdavs	r3!, {r0, r1, r2, r3, r5, r8, r9, ip, sp, lr}^
 264:	2f6c6f6f 	svccs	0x006c6f6f
 268:	746e6957 	strbtvc	r6, [lr], #-2391	; 0x957
 26c:	39317265 	ldmdbcc	r1!, {r0, r2, r5, r6, r9, ip, sp, lr}
 270:	432f3032 	teqmi	pc, #50	; 0x32
 274:	30343153 	eorscc	r3, r4, r3, asr r1
 278:	73632f45 	cmnvc	r3, #276	; 0x114
 27c:	65303431 	ldrvs	r3, [r0, #-1073]!	; 0x431
 280:	7730322d 	ldrvc	r3, [r0, -sp, lsr #4]!
 284:	6c2f6e69 	stcvs	14, cr6, [pc], #-420	; e8 <_start-0x7f18>
 288:	2f736261 	svccs	0x00736261
 28c:	662d3131 			; <UNDEFINED> instruction: 0x662d3131
 290:	2f657375 	svccs	0x00657375
 294:	65732d31 	ldrbvs	r2, [r3, #-3377]!	; 0xd31
 298:	632d646e 	teqvs	sp, #1845493760	; 0x6e000000
 29c:	2f65646f 	svccs	0x0065646f
 2a0:	732d6970 	teqvc	sp, #112, 18	; 0x1c0000
 2a4:	00656469 	rsbeq	r6, r5, r9, ror #8
 2a8:	475f4950 			; <UNDEFINED> instruction: 0x475f4950
 2ac:	5f4f4950 	svcpl	0x004f4950
 2b0:	5f544553 	svcpl	0x00544553
 2b4:	5054554f 	subspl	r5, r4, pc, asr #10
 2b8:	75005455 	strvc	r5, [r0, #-1109]	; 0x455
 2bc:	33746e69 	cmncc	r4, #1680	; 0x690
 2c0:	00745f32 	rsbseq	r5, r4, r2, lsr pc
 2c4:	7479626e 	ldrbtvc	r6, [r9], #-622	; 0x26e
 2c8:	50007365 	andpl	r7, r0, r5, ror #6
 2cc:	50475f49 	subpl	r5, r7, r9, asr #30
 2d0:	535f4f49 	cmppl	pc, #292	; 0x124
 2d4:	495f5445 	ldmdbmi	pc, {r0, r2, r6, sl, ip, lr}^	; <UNPREDICTABLE>
 2d8:	5455504e 	ldrbpl	r5, [r5], #-78	; 0x4e
 2dc:	63726300 	cmnvs	r2, #0, 6
 2e0:	745f3233 	ldrbvc	r3, [pc], #-563	; 2e8 <_start-0x7d18>
 2e4:	6c006261 	sfmvs	f6, 4, [r0], {97}	; 0x61
 2e8:	2f636269 	svccs	0x00636269
 2ec:	2e637263 	cdpcs	2, 6, cr7, cr3, cr3, {3}
 2f0:	552f0063 	strpl	r0, [pc, #-99]!	; 295 <_start-0x7d6b>
 2f4:	73726573 	cmnvc	r2, #482344960	; 0x1cc00000
 2f8:	6972622f 	ldmdbvs	r2!, {r0, r1, r2, r3, r5, r9, sp, lr}^
 2fc:	756a6e61 	strbvc	r6, [sl, #-3681]!	; 0xe61
 300:	65442f6e 	strbvs	r2, [r4, #-3950]	; 0xf6e
 304:	6f746b73 	svcvs	0x00746b73
 308:	63732f70 	cmnvs	r3, #112, 30	; 0x1c0
 30c:	6c6f6f68 	stclvs	15, cr6, [pc], #-416	; 174 <_start-0x7e8c>
 310:	6e69572f 	cdpvs	7, 6, cr5, cr9, cr15, {1}
 314:	31726574 	cmncc	r2, r4, ror r5
 318:	2f303239 	svccs	0x00303239
 31c:	34315343 	ldrtcc	r5, [r1], #-835	; 0x343
 320:	632f4530 	teqvs	pc, #48, 10	; 0xc000000
 324:	30343173 	eorscc	r3, r4, r3, ror r1
 328:	30322d65 	eorscc	r2, r2, r5, ror #26
 32c:	2f6e6977 	svccs	0x006e6977
 330:	7062696c 	rsbvc	r6, r2, ip, ror #18
 334:	5f5f0069 	svcpl	0x005f0069
 338:	63756e67 	cmnvs	r5, #1648	; 0x670
 33c:	5f61765f 	svcpl	0x0061765f
 340:	7473696c 	ldrbtvc	r6, [r3], #-2412	; 0x96c
 344:	62696c00 	rsbvs	r6, r9, #0, 24
 348:	72702f63 	rsbsvc	r2, r0, #396	; 0x18c
 34c:	6b746e69 	blvs	1d1bcf8 <__bss_end__+0x1d119b8>
 350:	7600632e 	strvc	r6, [r0], -lr, lsr #6
 354:	72705f61 	rsbsvc	r5, r0, #388	; 0x184
 358:	6b746e69 	blvs	1d1bd04 <__bss_end__+0x1d119c4>
 35c:	765f5f00 	ldrbvc	r5, [pc], -r0, lsl #30
 360:	696c5f61 	stmdbvs	ip!, {r0, r5, r6, r8, r9, sl, fp, ip, lr}^
 364:	61007473 	tstvs	r0, r3, ror r4
 368:	00736772 	rsbseq	r6, r3, r2, ror r7
 36c:	70615f5f 	rsbvc	r5, r1, pc, asr pc
 370:	746e6900 	strbtvc	r6, [lr], #-2304	; 0x900
 374:	616e7265 	cmnvs	lr, r5, ror #4
 378:	75705f6c 	ldrbvc	r5, [r0, #-3948]!	; 0xf6c
 37c:	61686374 	smcvs	34356	; 0x8634
 380:	70720072 	rsbsvc	r0, r2, r2, ror r0
 384:	75705f69 	ldrbvc	r5, [r0, #-3945]!	; 0xf69
 388:	61686374 	smcvs	34356	; 0x8634
 38c:	696c0072 	stmdbvs	ip!, {r1, r4, r5, r6}^
 390:	702f6362 	eorvc	r6, pc, r2, ror #6
 394:	68637475 	stmdavs	r3!, {r0, r2, r4, r5, r6, sl, ip, sp, lr}^
 398:	632e7261 	teqvs	lr, #268435462	; 0x10000006
 39c:	69707200 	ldmdbvs	r0!, {r9, ip, sp, lr}^
 3a0:	7465735f 	strbtvc	r7, [r5], #-863	; 0x35f
 3a4:	7475705f 	ldrbtvc	r7, [r5], #-95	; 0x5f
 3a8:	696c0063 	stmdbvs	ip!, {r0, r1, r5, r6}^
 3ac:	702f6362 	eorvc	r6, pc, r2, ror #6
 3b0:	2e6b7475 	mcrcs	4, 3, r7, cr11, cr5, {3}
 3b4:	6e690063 	cdpvs	0, 6, cr0, cr9, cr3, {3}
 3b8:	6e726574 	mrcvs	5, 3, r6, cr2, cr4, {3}
 3bc:	705f6c61 	subsvc	r6, pc, r1, ror #24
 3c0:	006b7475 	rsbeq	r7, fp, r5, ror r4
 3c4:	5f67656e 	svcpl	0x0067656e
 3c8:	65720070 	ldrbvs	r0, [r2, #-112]!	; 0x70
 3cc:	73726576 	cmnvc	r2, #494927872	; 0x1d800000
 3d0:	73690065 	cmnvc	r9, #101	; 0x65
 3d4:	69676964 	stmdbvs	r7!, {r2, r5, r6, r8, fp, sp, lr}^
 3d8:	75700074 	ldrbvc	r0, [r0, #-116]!	; 0x74
 3dc:	665f7374 			; <UNDEFINED> instruction: 0x665f7374
 3e0:	61620070 	smcvs	8192	; 0x2000
 3e4:	73006573 	movwvc	r6, #1395	; 0x573
 3e8:	656e6769 	strbvs	r6, [lr, #-1897]!	; 0x769
 3ec:	00705f64 	rsbseq	r5, r0, r4, ror #30
 3f0:	6362696c 	cmnvs	r2, #108, 18	; 0x1b0000
 3f4:	2d61762f 	stclcs	6, cr7, [r1, #-188]!	; 0xffffff44
 3f8:	6e697270 	mcrvs	2, 3, r7, cr9, cr0, {3}
 3fc:	632e6b74 	teqvs	lr, #116, 22	; 0x1d000
 400:	69707200 	ldmdbvs	r0!, {r9, ip, sp, lr}^
 404:	7465735f 	strbtvc	r7, [r5], #-863	; 0x35f
 408:	74756f5f 	ldrbtvc	r6, [r5], #-3935	; 0xf5f
 40c:	00747570 	rsbseq	r7, r4, r0, ror r5
 410:	74646977 	strbtvc	r6, [r4], #-2423	; 0x977
 414:	75700068 	ldrbvc	r0, [r0, #-104]!	; 0x68
 418:	665f6374 			; <UNDEFINED> instruction: 0x665f6374
 41c:	6d650070 	stclvs	0, cr0, [r5, #-448]!	; 0xfffffe40
 420:	72007469 	andvc	r7, r0, #1761607680	; 0x69000000
 424:	725f6970 	subsvc	r6, pc, #112, 18	; 0x1c0000
 428:	6f6f6265 	svcvs	0x006f6265
 42c:	73630074 	cmnvc	r3, #116	; 0x74
 430:	65303431 	ldrvs	r3, [r0, #-1073]!	; 0x431
 434:	6372732d 	cmnvs	r2, #-1275068416	; 0xb4000000
 438:	656c632f 	strbvs	r6, [ip, #-815]!	; 0x32f
 43c:	722d6e61 	eorvc	r6, sp, #1552	; 0x610
 440:	6f6f6265 	svcvs	0x006f6265
 444:	00632e74 	rsbeq	r2, r3, r4, ror lr
 448:	616c6564 	cmnvs	ip, r4, ror #10
 44c:	736d5f79 	cmnvc	sp, #484	; 0x1e4
 450:	746e6900 	strbtvc	r6, [lr], #-2304	; 0x900
 454:	616e7265 	cmnvs	lr, r5, ror #4
 458:	77735f6c 	ldrbvc	r5, [r3, -ip, ror #30]!
 45c:	7475705f 	ldrbtvc	r7, [r5], #-95	; 0x5f
 460:	72616863 	rsbvc	r6, r1, #6488064	; 0x630000
 464:	625f5f00 	subsvs	r5, pc, #0, 30
 468:	735f7373 	cmpvc	pc, #-872415231	; 0xcc000001
 46c:	74726174 	ldrbtvc	r6, [r2], #-372	; 0x174
 470:	62005f5f 	andvs	r5, r0, #380	; 0x17c
 474:	655f7373 	ldrbvs	r7, [pc, #-883]	; 109 <_start-0x7ef7>
 478:	6300646e 	movwvs	r6, #1134	; 0x46e
 47c:	656c6379 	strbvs	r6, [ip, #-889]!	; 0x379
 480:	7265705f 	rsbvc	r7, r5, #95	; 0x5f
 484:	7469625f 	strbtvc	r6, [r9], #-607	; 0x25f
 488:	6e6f6300 	cdpvs	3, 6, cr6, cr15, cr0, {0}
 48c:	656c6f73 	strbvs	r6, [ip, #-3955]!	; 0xf73
 490:	7261755f 	rsbvc	r7, r1, #398458880	; 0x17c00000
 494:	77730074 			; <UNDEFINED> instruction: 0x77730074
 498:	7261755f 	rsbvc	r7, r1, #398458880	; 0x17c00000
 49c:	72705f74 	rsbsvc	r5, r0, #116, 30	; 0x1d0
 4a0:	6b746e69 	blvs	1d1be4c <__bss_end__+0x1d11b0c>
 4a4:	54555000 	ldrbpl	r5, [r5], #-0
 4a8:	53455f43 	movtpl	r5, #24387	; 0x5f43
 4ac:	41555f50 	cmpmi	r5, r0, asr pc
 4b0:	73005452 	movwvc	r5, #1106	; 0x452
 4b4:	61755f77 	cmnvs	r5, r7, ror pc
 4b8:	745f7472 	ldrbvc	r7, [pc], #-1138	; 4c0 <_start-0x7b40>
 4bc:	54555000 	ldrbpl	r5, [r5], #-0
 4c0:	57535f43 	ldrbpl	r5, [r3, -r3, asr #30]
 4c4:	5241555f 	subpl	r5, r1, #398458880	; 0x17c00000
 4c8:	61620054 	qdsubvs	r0, r4, r2
 4cc:	50006475 	andpl	r6, r0, r5, ror r4
 4d0:	5f435455 	svcpl	0x00435455
 4d4:	555f5748 	ldrbpl	r5, [pc, #-1864]	; fffffd94 <__bss_end__+0xffff5a54>
 4d8:	00545241 	subseq	r5, r4, r1, asr #4
 4dc:	7473635f 	ldrbtvc	r6, [r3], #-863	; 0x35f
 4e0:	00747261 	rsbseq	r7, r4, r1, ror #4
 4e4:	74726175 	ldrbtvc	r6, [r2], #-373	; 0x175
 4e8:	7665645f 			; <UNDEFINED> instruction: 0x7665645f
 4ec:	7300745f 	movwvc	r7, #1119	; 0x45f
 4f0:	61755f77 	cmnvs	r5, r7, ror pc
 4f4:	705f7472 	subsvc	r7, pc, r2, ror r4	; <UNPREDICTABLE>
 4f8:	00637475 	rsbeq	r7, r3, r5, ror r4
 4fc:	746e6f63 	strbtvc	r6, [lr], #-3939	; 0xf63
 500:	5f6c6f72 	svcpl	0x006c6f72
 504:	5f6b6c62 	svcpl	0x006b6c62
 508:	77730074 			; <UNDEFINED> instruction: 0x77730074
 50c:	7261755f 	rsbvc	r7, r1, #398458880	; 0x17c00000
 510:	62630074 	rsbvs	r0, r3, #116	; 0x74
 514:	7465675f 	strbtvc	r6, [r5], #-1887	; 0x75f
 518:	6f6c625f 	svcvs	0x006c625f
 51c:	5f006b63 	svcpl	0x00006b63
 520:	7373625f 	cmnvc	r3, #-268435451	; 0xf0000005
 524:	646e655f 	strbtvs	r6, [lr], #-1375	; 0x55f
 528:	63005f5f 	movwvs	r5, #3935	; 0xf5f
 52c:	30343173 	eorscc	r3, r4, r3, ror r1
 530:	72732d65 	rsbsvc	r2, r3, #6464	; 0x1940
 534:	73632f63 	cmnvc	r3, #396	; 0x18c
 538:	74726174 	ldrbtvc	r6, [r2], #-372	; 0x174
 53c:	6300632e 	movwvs	r6, #814	; 0x32e
 540:	6f736e6f 	svcvs	0x00736e6f
 544:	645f656c 	ldrbvs	r6, [pc], #-1388	; 54c <_start-0x7ab4>
 548:	6d007665 	stcvs	6, cr7, [r0, #-404]	; 0xfffffe6c
 54c:	63696761 	cmnvs	r9, #25427968	; 0x1840000
 550:	5f746100 	svcpl	0x00746100
 554:	72657375 	rsbvc	r7, r5, #-738197503	; 0xd4000001
 558:	76656c5f 			; <UNDEFINED> instruction: 0x76656c5f
 55c:	50006c65 	andpl	r6, r0, r5, ror #24
 560:	41505f4d 	cmpmi	r0, sp, asr #30
 564:	4f575353 	svcmi	0x00575353
 568:	63004452 	movwvs	r4, #1106	; 0x452
 56c:	30343173 	eorscc	r3, r4, r3, ror r1
 570:	72732d65 	rsbsvc	r2, r3, #6464	; 0x1940
 574:	65722f63 	ldrbvs	r2, [r2, #-3939]!	; 0xf63
 578:	746f6f62 	strbtvc	r6, [pc], #-3938	; 580 <_start-0x7a80>
 57c:	5000632e 	andpl	r6, r0, lr, lsr #6
 580:	53525f4d 	cmppl	r2, #308	; 0x134
 584:	575f4354 			; <UNDEFINED> instruction: 0x575f4354
 588:	47464352 	smlsldmi	r4, r6, r2, r3
 58c:	4c55465f 	mrrcmi	6, 5, r4, r5, cr15
 590:	45525f4c 	ldrbmi	r5, [r2, #-3916]	; 0xf4c
 594:	00544553 	subseq	r4, r4, r3, asr r5
 598:	575f4d50 			; <UNDEFINED> instruction: 0x575f4d50
 59c:	00474f44 	subeq	r4, r7, r4, asr #30
 5a0:	5f746573 	svcpl	0x00746573
 5a4:	72657375 	rsbvc	r7, r5, #-738197503	; 0xd4000001
 5a8:	76656c5f 			; <UNDEFINED> instruction: 0x76656c5f
 5ac:	50006c65 	andpl	r6, r0, r5, ror #24
 5b0:	53525f4d 	cmppl	r2, #308	; 0x134
 5b4:	63004354 	movwvs	r4, #852	; 0x354
 5b8:	00727370 	rsbseq	r7, r2, r0, ror r3
 5bc:	656d6974 	strbvs	r6, [sp, #-2420]!	; 0x974
 5c0:	65675f72 	strbvs	r5, [r7, #-3954]!	; 0xf72
 5c4:	73755f74 	cmnvc	r5, #116, 30	; 0x1d0
 5c8:	725f6365 	subsvc	r6, pc, #-1811939327	; 0x94000001
 5cc:	64007761 	strvs	r7, [r0], #-1889	; 0x761
 5d0:	79616c65 	stmdbvc	r1!, {r0, r2, r5, r6, sl, fp, sp, lr}^
 5d4:	6365735f 	cmnvs	r5, #2080374785	; 0x7c000001
 5d8:	31736300 	cmncc	r3, r0, lsl #6
 5dc:	2d653034 	stclcs	0, cr3, [r5, #-208]!	; 0xffffff30
 5e0:	2f637273 	svccs	0x00637273
 5e4:	656d6974 	strbvs	r6, [sp, #-2420]!	; 0x974
 5e8:	00632e72 	rsbeq	r2, r3, r2, ror lr
 5ec:	6b636974 	blvs	18dabc4 <__bss_end__+0x18d0884>
 5f0:	65640073 	strbvs	r0, [r4, #-115]!	; 0x73
 5f4:	5f79616c 	svcpl	0x0079616c
 5f8:	6c637963 	stclvs	9, cr7, [r3], #-396	; 0xfffffe74
 5fc:	64007365 	strvs	r7, [r0], #-869	; 0x365
 600:	79616c65 	stmdbvc	r1!, {r0, r2, r5, r6, sl, fp, sp, lr}^
 604:	0073755f 	rsbseq	r7, r3, pc, asr r5
 608:	656d6974 	strbvs	r6, [sp, #-2420]!	; 0x974
 60c:	65675f72 	strbvs	r5, [r7, #-3954]!	; 0xf72
 610:	73755f74 	cmnvc	r5, #116, 30	; 0x1d0
 614:	63006365 	movwvs	r6, #869	; 0x365
 618:	705f6379 	subsvc	r6, pc, r9, ror r3	; <UNPREDICTABLE>
 61c:	625f7265 	subsvs	r7, pc, #1342177286	; 0x50000006
 620:	77007469 	strvc	r7, [r0, -r9, ror #8]
 624:	65746972 	ldrbvs	r6, [r4, #-2418]!	; 0x972
 628:	6379635f 	cmnvs	r9, #2080374785	; 0x7c000001
 62c:	746e755f 	strbtvc	r7, [lr], #-1375	; 0x55f
 630:	73006c69 	movwvc	r6, #3177	; 0xc69
 634:	61755f77 	cmnvs	r5, r7, ror pc
 638:	675f7472 			; <UNDEFINED> instruction: 0x675f7472
 63c:	5f637465 	svcpl	0x00637465
 640:	656d6974 	strbvs	r6, [sp, #-2420]!	; 0x974
 644:	0074756f 	rsbseq	r7, r4, pc, ror #10
 648:	755f7773 	ldrbvc	r7, [pc, #-1907]	; fffffedd <__bss_end__+0xffff5b9d>
 64c:	5f747261 	svcpl	0x00747261
 650:	73746567 	cmnvc	r4, #432013312	; 0x19c00000
 654:	746e755f 	strbtvc	r7, [lr], #-1375	; 0x55f
 658:	73006c69 	movwvc	r6, #3177	; 0xc69
 65c:	61755f77 	cmnvs	r5, r7, ror pc
 660:	675f7472 			; <UNDEFINED> instruction: 0x675f7472
 664:	00637465 	rsbeq	r7, r3, r5, ror #8
 668:	69726564 	ldmdbvs	r2!, {r2, r5, r6, r8, sl, sp, lr}^
 66c:	00646576 	rsbeq	r6, r4, r6, ror r5
 670:	616c6564 	cmnvs	ip, r4, ror #10
 674:	636e5f79 	cmnvs	lr, #484	; 0x1e4
 678:	656c6379 	strbvs	r6, [ip, #-889]!	; 0x379
 67c:	77730073 			; <UNDEFINED> instruction: 0x77730073
 680:	7261755f 	rsbvc	r7, r1, #398458880	; 0x17c00000
 684:	6e695f74 	mcrvs	15, 3, r5, cr9, cr4, {3}
 688:	685f7469 	ldmdavs	pc, {r0, r3, r5, r6, sl, ip, sp, lr}^	; <UNPREDICTABLE>
 68c:	65706c65 	ldrbvs	r6, [r0, #-3173]!	; 0xc65
 690:	69740072 	ldmdbvs	r4!, {r1, r4, r5, r6}^
 694:	756f656d 	strbvc	r6, [pc, #-1389]!	; 12f <_start-0x7ed1>
 698:	73755f74 	cmnvc	r5, #116, 30	; 0x1d0
 69c:	73006365 	movwvc	r6, #869	; 0x365
 6a0:	61755f77 	cmnvs	r5, r7, ror pc
 6a4:	705f7472 	subsvc	r7, pc, r2, ror r4	; <UNPREDICTABLE>
 6a8:	006b7475 	rsbeq	r7, fp, r5, ror r4
 6ac:	6f697067 	svcvs	0x00697067
 6b0:	6165725f 	cmnvs	r5, pc, asr r2
 6b4:	796d0064 	stmdbvc	sp!, {r2, r5, r6}^
 6b8:	6372732d 	cmnvs	r2, #-1275068416	; 0xb4000000
 6bc:	2d77732f 	ldclcs	3, cr7, [r7, #-188]!	; 0xffffff44
 6c0:	74726175 	ldrbtvc	r6, [r2], #-373	; 0x175
 6c4:	6300632e 	movwvs	r6, #814	; 0x32e
 6c8:	5f726168 	svcpl	0x00726168
 6cc:	73006e69 	movwvc	r6, #3689	; 0xe69
 6d0:	61755f77 	cmnvs	r5, r7, ror pc
 6d4:	675f7472 			; <UNDEFINED> instruction: 0x675f7472
 6d8:	5f737465 	svcpl	0x00737465
 6dc:	656d6974 	strbvs	r6, [sp, #-2420]!	; 0x974
 6e0:	0074756f 	rsbseq	r7, r4, pc, ror #10
 6e4:	74756f5f 	ldrbtvc	r6, [r5], #-3935	; 0xf5f
 6e8:	69706700 	ldmdbvs	r0!, {r8, r9, sl, sp, lr}^
 6ec:	72775f6f 	rsbsvc	r5, r7, #444	; 0x1bc
 6f0:	00657469 	rsbeq	r7, r5, r9, ror #8
 6f4:	63657375 	cmnvs	r5, #-738197503	; 0xd4000001
 6f8:	6d69745f 	cfstrdvs	mvd7, [r9, #-380]!	; 0xfffffe84
 6fc:	74756f65 	ldrbtvc	r6, [r5], #-3941	; 0xf65
 700:	69706700 	ldmdbvs	r0!, {r8, r9, sl, sp, lr}^
 704:	65735f6f 	ldrbvs	r5, [r3, #-3951]!	; 0xf6f
 708:	6e695f74 	mcrvs	15, 3, r5, cr9, cr4, {3}
 70c:	00747570 	rsbseq	r7, r4, r0, ror r5
 710:	755f7773 	ldrbvc	r7, [pc, #-1907]	; ffffffa5 <__bss_end__+0xffff5c65>
 714:	5f747261 	svcpl	0x00747261
 718:	73746567 	cmnvc	r4, #432013312	; 0x19c00000
 71c:	746e755f 	strbtvc	r7, [lr], #-1375	; 0x55f
 720:	625f6c69 	subsvs	r6, pc, #26880	; 0x6900
 724:	67006b6c 	strvs	r6, [r0, -ip, ror #22]
 728:	5f6f6970 	svcpl	0x006f6970
 72c:	5f746573 	svcpl	0x00746573
 730:	7074756f 	rsbsvc	r7, r4, pc, ror #10
 734:	77007475 	smlsdxvc	r0, r5, r4, r7
 738:	5f746961 	svcpl	0x00746961
 73c:	69746e75 	ldmdbvs	r4!, {r0, r2, r4, r5, r6, r9, sl, fp, sp, lr}^
 740:	73755f6c 	cmnvc	r5, #108, 30	; 0x1b0
 744:	41006365 	tstmi	r0, r5, ror #6
 748:	4d5f5855 	ldclmi	8, cr5, [pc, #-340]	; 5fc <_start-0x7a04>
 74c:	434d5f55 	movtmi	r5, #57173	; 0xdf55
 750:	45525f52 	ldrbmi	r5, [r2, #-3922]	; 0xf52
 754:	55410047 	strbpl	r0, [r1, #-71]	; 0x47
 758:	554d5f58 	strbpl	r5, [sp, #-3928]	; 0xf58
 75c:	5f4f495f 	svcpl	0x004f495f
 760:	00474552 	subeq	r4, r7, r2, asr r5
 764:	5f585541 	svcpl	0x00585541
 768:	4d5f554d 	cfldr64mi	mvdx5, [pc, #-308]	; 63c <_start-0x79c4>
 76c:	525f5253 	subspl	r5, pc, #805306373	; 0x30000005
 770:	47004745 	strmi	r4, [r0, -r5, asr #14]
 774:	5f4f4950 	svcpl	0x004f4950
 778:	434e5546 	movtmi	r5, #58694	; 0xe546
 77c:	544c415f 	strbpl	r4, [ip], #-351	; 0x15f
 780:	61750030 	cmnvs	r5, r0, lsr r0
 784:	635f7472 	cmpvs	pc, #1912602624	; 0x72000000
 788:	675f6e61 	ldrbvs	r6, [pc, -r1, ror #28]
 78c:	00637465 	rsbeq	r7, r3, r5, ror #8
 790:	5f585541 	svcpl	0x00585541
 794:	435f554d 	cmpmi	pc, #322961408	; 0x13400000
 798:	5f4c544e 	svcpl	0x004c544e
 79c:	00474552 	subeq	r4, r7, r2, asr r5
 7a0:	74726175 	ldrbtvc	r6, [r2], #-373	; 0x175
 7a4:	7361685f 	cmnvc	r1, #6225920	; 0x5f0000
 7a8:	7461645f 	strbtvc	r6, [r1], #-1119	; 0x45f
 7ac:	65640061 	strbvs	r0, [r4, #-97]!	; 0x61
 7b0:	61625f76 	smcvs	9718	; 0x25f6
 7b4:	65697272 	strbvs	r7, [r9, #-626]!	; 0x272
 7b8:	50470072 	subpl	r0, r7, r2, ror r0
 7bc:	465f4f49 	ldrbmi	r4, [pc], -r9, asr #30
 7c0:	5f434e55 	svcpl	0x00434e55
 7c4:	5054554f 	subspl	r5, r4, pc, asr #10
 7c8:	47005455 	smlsdmi	r0, r5, r4, r5
 7cc:	5f4f4950 	svcpl	0x004f4950
 7d0:	434e5546 	movtmi	r5, #58694	; 0xe546
 7d4:	544c415f 	strbpl	r4, [ip], #-351	; 0x15f
 7d8:	50470031 	subpl	r0, r7, r1, lsr r0
 7dc:	465f4f49 	ldrbmi	r4, [pc], -r9, asr #30
 7e0:	5f434e55 	svcpl	0x00434e55
 7e4:	32544c41 	subscc	r4, r4, #16640	; 0x4100
 7e8:	49504700 	ldmdbmi	r0, {r8, r9, sl, lr}^
 7ec:	55465f4f 	strbpl	r5, [r6, #-3919]	; 0xf4f
 7f0:	415f434e 	cmpmi	pc, lr, asr #6
 7f4:	0033544c 	eorseq	r5, r3, ip, asr #8
 7f8:	4f495047 	svcmi	0x00495047
 7fc:	4e55465f 	mrcmi	6, 2, r4, cr5, cr15, {2}
 800:	4c415f43 	mcrrmi	15, 4, r5, r1, cr3
 804:	41003554 	tstmi	r0, r4, asr r5
 808:	4d5f5855 	ldclmi	8, cr5, [pc, #-340]	; 6bc <_start-0x7944>
 80c:	45495f55 	strbmi	r5, [r9, #-3925]	; 0xf55
 810:	45525f52 	ldrbmi	r5, [r2, #-3922]	; 0xf52
 814:	75700047 	ldrbvc	r0, [r0, #-71]!	; 0x47
 818:	00323374 	eorseq	r3, r2, r4, ror r3
 81c:	5f585541 	svcpl	0x00585541
 820:	495f554d 	ldmdbmi	pc, {r0, r2, r3, r6, r8, sl, ip, lr}^	; <UNPREDICTABLE>
 824:	525f5249 	subspl	r5, pc, #-1879048188	; 0x90000004
 828:	67004745 	strvs	r4, [r0, -r5, asr #14]
 82c:	5f6f6970 	svcpl	0x006f6970
 830:	636e7566 	cmnvs	lr, #427819008	; 0x19800000
 834:	7500745f 	strvc	r7, [r0, #-1119]	; 0x45f
 838:	5f747261 	svcpl	0x00747261
 83c:	5f6e6163 	svcpl	0x006e6163
 840:	63747570 	cmnvs	r4, #112, 10	; 0x1c000000
 844:	58554100 	ldmdapl	r5, {r8, lr}^
 848:	414e455f 	cmpmi	lr, pc, asr r5
 84c:	53454c42 	movtpl	r4, #23618	; 0x5c42
 850:	58554100 	ldmdapl	r5, {r8, lr}^
 854:	5152495f 	cmppl	r2, pc, asr r9
 858:	58554100 	ldmdapl	r5, {r8, lr}^
 85c:	5f554d5f 	svcpl	0x00554d5f
 860:	44554142 	ldrbmi	r4, [r5], #-322	; 0x142
 864:	4745525f 	smlsldmi	r5, r5, pc, r2	; <UNPREDICTABLE>
 868:	58554100 	ldmdapl	r5, {r8, lr}^
 86c:	5f554d5f 	svcpl	0x00554d5f
 870:	54415453 	strbpl	r5, [r1], #-1107	; 0x453
 874:	4745525f 	smlsldmi	r5, r5, pc, r2	; <UNPREDICTABLE>
 878:	49504700 	ldmdbmi	r0, {r8, r9, sl, lr}^
 87c:	55465f4f 	strbpl	r5, [r6, #-3919]	; 0xf4f
 880:	415f434e 	cmpmi	pc, lr, asr #6
 884:	0034544c 	eorseq	r5, r4, ip, asr #8
 888:	6f697067 	svcvs	0x00697067
 88c:	7465735f 	strbtvc	r7, [r5], #-863	; 0x35f
 890:	6e75665f 	mrcvs	6, 3, r6, cr5, cr15, {2}
 894:	6f697463 	svcvs	0x00697463
 898:	5541006e 	strbpl	r0, [r1, #-110]	; 0x6e
 89c:	554d5f58 	strbpl	r5, [sp, #-3928]	; 0xf58
 8a0:	5243535f 	subpl	r5, r3, #2080374785	; 0x7c000001
 8a4:	48435441 	stmdami	r3, {r0, r6, sl, ip, lr}^
 8a8:	2d796d00 	ldclcs	13, cr6, [r9, #-0]
 8ac:	2f637273 	svccs	0x00637273
 8b0:	74726175 	ldrbtvc	r6, [r2], #-373	; 0x175
 8b4:	4100632e 	tstmi	r0, lr, lsr #6
 8b8:	4d5f5855 	ldclmi	8, cr5, [pc, #-340]	; 76c <_start-0x7894>
 8bc:	434c5f55 	movtmi	r5, #53077	; 0xcf55
 8c0:	45525f52 	ldrbmi	r5, [r2, #-3922]	; 0xf52
 8c4:	50470047 	subpl	r0, r7, r7, asr #32
 8c8:	465f4f49 	ldrbmi	r4, [pc], -r9, asr #30
 8cc:	5f434e55 	svcpl	0x00434e55
 8d0:	55504e49 	ldrbpl	r4, [r0, #-3657]	; 0xe49
 8d4:	55410054 	strbpl	r0, [r1, #-84]	; 0x54
 8d8:	554d5f58 	strbpl	r5, [sp, #-3928]	; 0xf58
 8dc:	52534c5f 	subspl	r4, r3, #24320	; 0x5f00
 8e0:	4745525f 	smlsldmi	r5, r5, pc, r2	; <UNPREDICTABLE>
 8e4:	72617500 	rsbvc	r7, r1, #0, 10
 8e8:	65675f74 	strbvs	r5, [r7, #-3956]!	; 0xf74
 8ec:	615f6374 	cmpvs	pc, r4, ror r3	; <UNPREDICTABLE>
 8f0:	636e7973 	cmnvs	lr, #1884160	; 0x1cc000
 8f4:	74656700 	strbtvc	r6, [r5], #-1792	; 0x700
 8f8:	67003233 	smladxvs	r0, r3, r2, r3
 8fc:	5f6f6970 	svcpl	0x006f6970
 900:	6e657665 	cdpvs	6, 6, cr7, cr5, cr5, {3}
 904:	65645f74 	strbvs	r5, [r4, #-3956]!	; 0xf74
 908:	74636574 	strbtvc	r6, [r3], #-1396	; 0x574
 90c:	47006465 	strmi	r6, [r0, -r5, ror #8]
 910:	45534650 	ldrbmi	r4, [r3, #-1616]	; 0x650
 914:	4700324c 	strmi	r3, [r0, -ip, asr #4]
 918:	524c4350 	subpl	r4, ip, #80, 6	; 0x40000001
 91c:	4e450030 	mcrmi	0, 2, r0, cr5, cr0, {1}
 920:	454c4241 	strbmi	r4, [ip, #-577]	; 0x241
 924:	5152495f 	cmppl	r2, pc, asr r9
 928:	00325f53 	eorseq	r5, r2, r3, asr pc
 92c:	675f7369 	ldrbvs	r7, [pc, -r9, ror #6]
 930:	5f6f6970 	svcpl	0x006f6970
 934:	00746e69 	rsbseq	r6, r4, r9, ror #28
 938:	6f697067 	svcvs	0x00697067
 93c:	7465735f 	strbtvc	r7, [r5], #-863	; 0x35f
 940:	66666f5f 	uqsaxvs	r6, r6, pc	; <UNPREDICTABLE>
 944:	2d796d00 	ldclcs	13, cr6, [r9, #-0]
 948:	2f637273 	svccs	0x00637273
 94c:	6f697067 	svcvs	0x00697067
 950:	6900632e 	stmdbvs	r0, {r1, r2, r3, r5, r8, r9, sp, lr}
 954:	6d5f746e 	cfldrdvs	mvd7, [pc, #-440]	; 7a4 <_start-0x785c>
 958:	006b7361 	rsbeq	r7, fp, r1, ror #6
 95c:	45535047 	ldrbmi	r5, [r3, #-71]	; 0x47
 960:	47003054 	smlsdmi	r0, r4, r0, r3
 964:	54455350 	strbpl	r5, [r5], #-848	; 0x350
 968:	65720031 	ldrbvs	r0, [r2, #-49]!	; 0x31
 96c:	74735f67 	ldrbtvc	r5, [r3], #-3943	; 0xf67
 970:	47007461 	strmi	r7, [r0, -r1, ror #8]
 974:	56454c50 			; <UNDEFINED> instruction: 0x56454c50
 978:	50470030 	subpl	r0, r7, r0, lsr r0
 97c:	3156454c 	cmpcc	r6, ip, asr #10
 980:	69706700 	ldmdbvs	r0!, {r8, r9, sl, sp, lr}^
 984:	65725f6f 	ldrbvs	r5, [r2, #-3951]!	; 0xf6f
 988:	50470067 	subpl	r0, r7, r7, rrx
 98c:	4c455346 	mcrrmi	3, 4, r5, r5, cr6
 990:	50470030 	subpl	r0, r7, r0, lsr r0
 994:	4c455346 	mcrrmi	3, 4, r5, r5, cr6
 998:	50470031 	subpl	r0, r7, r1, lsr r0
 99c:	4c455346 	mcrrmi	3, 4, r5, r5, cr6
 9a0:	50470033 	subpl	r0, r7, r3, lsr r0
 9a4:	4c455346 	mcrrmi	3, 4, r5, r5, cr6
 9a8:	50470034 	subpl	r0, r7, r4, lsr r0
 9ac:	4c455346 	mcrrmi	3, 4, r5, r5, cr6
 9b0:	70670035 	rsbvc	r0, r7, r5, lsr r0
 9b4:	665f6f69 	ldrbvs	r6, [pc], -r9, ror #30
 9b8:	306c6573 	rsbcc	r6, ip, r3, ror r5
 9bc:	43504700 	cmpmi	r0, #0, 14
 9c0:	0031524c 	eorseq	r5, r1, ip, asr #4
 9c4:	6f697067 	svcvs	0x00697067
 9c8:	746e695f 	strbtvc	r6, [lr], #-2399	; 0x95f
 9cc:	7369725f 	cmnvc	r9, #-268435451	; 0xf0000005
 9d0:	5f676e69 	svcpl	0x00676e69
 9d4:	65676465 	strbvs	r6, [r7, #-1125]!	; 0x465
 9d8:	52504700 	subspl	r4, r0, #0, 14
 9dc:	00304e45 	eorseq	r4, r0, r5, asr #28
 9e0:	45525047 	ldrbmi	r5, [r2, #-71]	; 0x47
 9e4:	6700314e 	strvs	r3, [r0, -lr, asr #2]
 9e8:	5f6f6970 	svcpl	0x006f6970
 9ec:	6e657665 	cdpvs	6, 6, cr7, cr5, cr5, {3}
 9f0:	6c635f74 	stclvs	15, cr5, [r3], #-464	; 0xfffffe30
 9f4:	00726165 	rsbseq	r6, r2, r5, ror #2
 9f8:	5f515249 	svcpl	0x00515249
 9fc:	444e4550 	strbmi	r4, [lr], #-1360	; 0x550
 a00:	5f474e49 	svcpl	0x00474e49
 a04:	52490031 	subpl	r0, r9, #49	; 0x31
 a08:	45505f51 	ldrbmi	r5, [r0, #-3921]	; 0xf51
 a0c:	4e49444e 	cdpmi	4, 4, cr4, cr9, cr14, {2}
 a10:	00325f47 	eorseq	r5, r2, r7, asr #30
 a14:	6d746962 	ldclvs	9, cr6, [r4, #-392]!	; 0xfffffe78
 a18:	006b7361 	rsbeq	r7, fp, r1, ror #6
 a1c:	6f697067 	svcvs	0x00697067
 a20:	7465735f 	strbtvc	r7, [r5], #-863	; 0x35f
 a24:	75660030 	strbvc	r0, [r6, #-48]!	; 0x30
 a28:	4700636e 	strmi	r6, [r0, -lr, ror #6]
 a2c:	53444550 	movtpl	r4, #17744	; 0x4550
 a30:	50470030 	subpl	r0, r7, r0, lsr r0
 a34:	31534445 	cmpcc	r3, r5, asr #8
 a38:	69706700 	ldmdbvs	r0!, {r8, r9, sl, sp, lr}^
 a3c:	65735f6f 	ldrbvs	r5, [r3, #-3951]!	; 0xf6f
 a40:	6e6f5f74 	mcrvs	15, 3, r5, cr15, cr4, {3}
 a44:	46504700 	ldrbmi	r4, [r0], -r0, lsl #14
 a48:	00304e45 	eorseq	r4, r0, r5, asr #28
 a4c:	45465047 	strbmi	r5, [r6, #-71]	; 0x47
 a50:	6700314e 	strvs	r3, [r0, -lr, asr #2]
 a54:	5f6f6970 	svcpl	0x006f6970
 a58:	5f746e69 	svcpl	0x00746e69
 a5c:	6c6c6166 	stfvse	f6, [ip], #-408	; 0xfffffe68
 a60:	5f676e69 	svcpl	0x00676e69
 a64:	65676465 	strbvs	r6, [r7, #-1125]!	; 0x465
 a68:	67657200 	strbvs	r7, [r5, -r0, lsl #4]!
 a6c:	6c65735f 	stclvs	3, cr7, [r5], #-380	; 0xfffffe84
 a70:	00746365 	rsbseq	r6, r4, r5, ror #6
 a74:	6f697067 	svcvs	0x00697067
 a78:	726c635f 	rsbvc	r6, ip, #2080374785	; 0x7c000001
 a7c:	69730030 	ldmdbvs	r3!, {r4, r5}^
 a80:	745f657a 	ldrbvc	r6, [pc], #-1402	; a88 <_start-0x7578>
 a84:	6d656d00 	stclvs	13, cr6, [r5, #-0]
 a88:	00746573 	rsbseq	r6, r4, r3, ror r5
 a8c:	6e5f6263 	cdpvs	2, 5, cr6, cr15, cr3, {3}
 a90:	63007765 	movwvs	r7, #1893	; 0x765
 a94:	30343173 	eorscc	r3, r4, r3, ror r1
 a98:	72732d65 	rsbsvc	r2, r3, #6464	; 0x1940
 a9c:	6f632f63 	svcvs	0x00632f63
 aa0:	6f72746e 	svcvs	0x0072746e
 aa4:	6c622d6c 	stclvs	13, cr2, [r2], #-432	; 0xfffffe50
 aa8:	2e6b636f 	cdpcs	3, 6, cr6, cr11, cr15, {3}
 aac:	696c0063 	stmdbvs	ip!, {r0, r1, r5, r6}^
 ab0:	6d2f6362 	stcvs	3, cr6, [pc, #-392]!	; 930 <_start-0x76d0>
 ab4:	65736d65 	ldrbvs	r6, [r3, #-3429]!	; 0xd65
 ab8:	00632e74 	rsbeq	r2, r3, r4, ror lr

Disassembly of section .debug_frame:

00000000 <.debug_frame>:
   0:	0000000c 	andeq	r0, r0, ip
   4:	ffffffff 			; <UNDEFINED> instruction: 0xffffffff
   8:	7c020001 	stcvc	0, cr0, [r2], {1}
   c:	000d0c0e 	andeq	r0, sp, lr, lsl #24
  10:	00000018 	andeq	r0, r0, r8, lsl r0
  14:	00000000 	andeq	r0, r0, r0
  18:	00008010 	andeq	r8, r0, r0, lsl r0
  1c:	0000002c 	andeq	r0, r0, ip, lsr #32
  20:	84100e42 	ldrhi	r0, [r0], #-3650	; 0xe42
  24:	86038504 	strhi	r8, [r3], -r4, lsl #10
  28:	00018e02 	andeq	r8, r1, r2, lsl #28
  2c:	00000020 	andeq	r0, r0, r0, lsr #32
  30:	00000000 	andeq	r0, r0, r0
  34:	0000803c 	andeq	r8, r0, ip, lsr r0
  38:	00000164 	andeq	r0, r0, r4, ror #2
  3c:	84180e42 	ldrhi	r0, [r8], #-3650	; 0xe42
  40:	86058506 	strhi	r8, [r5], -r6, lsl #10
  44:	88038704 	stmdahi	r3, {r2, r8, r9, sl, pc}
  48:	42018e02 	andmi	r8, r1, #2, 28
  4c:	0000380e 	andeq	r3, r0, lr, lsl #16
  50:	0000000c 	andeq	r0, r0, ip
  54:	ffffffff 			; <UNDEFINED> instruction: 0xffffffff
  58:	7c020001 	stcvc	0, cr0, [r2], {1}
  5c:	000d0c0e 	andeq	r0, sp, lr, lsl #24
  60:	0000000c 	andeq	r0, r0, ip
  64:	00000050 	andeq	r0, r0, r0, asr r0
  68:	000081a0 	andeq	r8, r0, r0, lsr #3
  6c:	00000040 	andeq	r0, r0, r0, asr #32
  70:	00000014 	andeq	r0, r0, r4, lsl r0
  74:	00000050 	andeq	r0, r0, r0, asr r0
  78:	000081e0 	andeq	r8, r0, r0, ror #3
  7c:	00000010 	andeq	r0, r0, r0, lsl r0
  80:	83080e42 	movwhi	r0, #36418	; 0x8e42
  84:	00018e02 	andeq	r8, r1, r2, lsl #28
  88:	0000000c 	andeq	r0, r0, ip
  8c:	ffffffff 			; <UNDEFINED> instruction: 0xffffffff
  90:	7c020001 	stcvc	0, cr0, [r2], {1}
  94:	000d0c0e 	andeq	r0, sp, lr, lsl #24
  98:	00000024 	andeq	r0, r0, r4, lsr #32
  9c:	00000088 	andeq	r0, r0, r8, lsl #1
  a0:	000081f0 	strdeq	r8, [r0], -r0
  a4:	00000058 	andeq	r0, r0, r8, asr r0
  a8:	80100e42 	andshi	r0, r0, r2, asr #28
  ac:	82038104 	andhi	r8, r3, #4, 2
  b0:	42018302 	andmi	r8, r1, #134217728	; 0x8000000
  b4:	07841c0e 	streq	r1, [r4, lr, lsl #24]
  b8:	058e0685 	streq	r0, [lr, #1669]	; 0x685
  bc:	00280e42 	eoreq	r0, r8, r2, asr #28
  c0:	0000000c 	andeq	r0, r0, ip
  c4:	ffffffff 			; <UNDEFINED> instruction: 0xffffffff
  c8:	7c020001 	stcvc	0, cr0, [r2], {1}
  cc:	000d0c0e 	andeq	r0, sp, lr, lsl #24
  d0:	00000014 	andeq	r0, r0, r4, lsl r0
  d4:	000000c0 	andeq	r0, r0, r0, asr #1
  d8:	00008248 	andeq	r8, r0, r8, asr #4
  dc:	00000014 	andeq	r0, r0, r4, lsl r0
  e0:	84080e42 	strhi	r0, [r8], #-3650	; 0xe42
  e4:	00018e02 	andeq	r8, r1, r2, lsl #28
  e8:	0000000c 	andeq	r0, r0, ip
  ec:	000000c0 	andeq	r0, r0, r0, asr #1
  f0:	0000825c 	andeq	r8, r0, ip, asr r2
  f4:	00000018 	andeq	r0, r0, r8, lsl r0
  f8:	0000000c 	andeq	r0, r0, ip
  fc:	000000c0 	andeq	r0, r0, r0, asr #1
 100:	00008274 	andeq	r8, r0, r4, ror r2
 104:	00000010 	andeq	r0, r0, r0, lsl r0
 108:	0000000c 	andeq	r0, r0, ip
 10c:	ffffffff 			; <UNDEFINED> instruction: 0xffffffff
 110:	7c020001 	stcvc	0, cr0, [r2], {1}
 114:	000d0c0e 	andeq	r0, sp, lr, lsl #24
 118:	00000018 	andeq	r0, r0, r8, lsl r0
 11c:	00000108 	andeq	r0, r0, r8, lsl #2
 120:	00008284 	andeq	r8, r0, r4, lsl #5
 124:	00000034 	andeq	r0, r0, r4, lsr r0
 128:	83100e42 	tsthi	r0, #1056	; 0x420
 12c:	85038404 	strhi	r8, [r3, #-1028]	; 0x404
 130:	00018e02 	andeq	r8, r1, r2, lsl #28
 134:	0000000c 	andeq	r0, r0, ip
 138:	ffffffff 			; <UNDEFINED> instruction: 0xffffffff
 13c:	7c020001 	stcvc	0, cr0, [r2], {1}
 140:	000d0c0e 	andeq	r0, sp, lr, lsl #24
 144:	0000000c 	andeq	r0, r0, ip
 148:	00000134 	andeq	r0, r0, r4, lsr r1
 14c:	000082b8 			; <UNDEFINED> instruction: 0x000082b8
 150:	00000014 	andeq	r0, r0, r4, lsl r0
 154:	0000000c 	andeq	r0, r0, ip
 158:	00000134 	andeq	r0, r0, r4, lsr r1
 15c:	000082cc 	andeq	r8, r0, ip, asr #5
 160:	0000002c 	andeq	r0, r0, ip, lsr #32
 164:	0000000c 	andeq	r0, r0, ip
 168:	00000134 	andeq	r0, r0, r4, lsr r1
 16c:	000082f8 	strdeq	r8, [r0], -r8	; <UNPREDICTABLE>
 170:	00000040 	andeq	r0, r0, r0, asr #32
 174:	00000020 	andeq	r0, r0, r0, lsr #32
 178:	00000134 	andeq	r0, r0, r4, lsr r1
 17c:	00008338 	andeq	r8, r0, r8, lsr r3
 180:	0000019c 	muleq	r0, ip, r1
 184:	84180e42 	ldrhi	r0, [r8], #-3650	; 0xe42
 188:	86058506 	strhi	r8, [r5], -r6, lsl #10
 18c:	88038704 	stmdahi	r3, {r2, r8, r9, sl, pc}
 190:	42018e02 	andmi	r8, r1, #2, 28
 194:	0000580e 	andeq	r5, r0, lr, lsl #16
 198:	00000014 	andeq	r0, r0, r4, lsl r0
 19c:	00000134 	andeq	r0, r0, r4, lsr r1
 1a0:	000084d4 	ldrdeq	r8, [r0], -r4
 1a4:	00000054 	andeq	r0, r0, r4, asr r0
 1a8:	83080e42 	movwhi	r0, #36418	; 0x8e42
 1ac:	00018e02 	andeq	r8, r1, r2, lsl #28
 1b0:	00000028 	andeq	r0, r0, r8, lsr #32
 1b4:	00000134 	andeq	r0, r0, r4, lsr r1
 1b8:	00008528 	andeq	r8, r0, r8, lsr #10
 1bc:	00000288 	andeq	r0, r0, r8, lsl #5
 1c0:	84240e42 	strthi	r0, [r4], #-3650	; 0xe42
 1c4:	86088509 	strhi	r8, [r8], -r9, lsl #10
 1c8:	88068707 	stmdahi	r6, {r0, r1, r2, r8, r9, sl, pc}
 1cc:	8a048905 	bhi	1225e8 <__bss_end__+0x1182a8>
 1d0:	8e028b03 	vmlahi.f64	d8, d2, d3
 1d4:	b00e4201 	andlt	r4, lr, r1, lsl #4
 1d8:	00000001 	andeq	r0, r0, r1
 1dc:	0000000c 	andeq	r0, r0, ip
 1e0:	ffffffff 			; <UNDEFINED> instruction: 0xffffffff
 1e4:	7c020001 	stcvc	0, cr0, [r2], {1}
 1e8:	000d0c0e 	andeq	r0, sp, lr, lsl #24
 1ec:	00000014 	andeq	r0, r0, r4, lsl r0
 1f0:	000001dc 	ldrdeq	r0, [r0], -ip
 1f4:	000087b0 			; <UNDEFINED> instruction: 0x000087b0
 1f8:	00000028 	andeq	r0, r0, r8, lsr #32
 1fc:	83080e42 	movwhi	r0, #36418	; 0x8e42
 200:	00018e02 	andeq	r8, r1, r2, lsl #28
 204:	0000000c 	andeq	r0, r0, ip
 208:	ffffffff 			; <UNDEFINED> instruction: 0xffffffff
 20c:	7c020001 	stcvc	0, cr0, [r2], {1}
 210:	000d0c0e 	andeq	r0, sp, lr, lsl #24
 214:	00000014 	andeq	r0, r0, r4, lsl r0
 218:	00000204 	andeq	r0, r0, r4, lsl #4
 21c:	000087d8 	ldrdeq	r8, [r0], -r8	; <UNPREDICTABLE>
 220:	00000020 	andeq	r0, r0, r0, lsr #32
 224:	84080e42 	strhi	r0, [r8], #-3650	; 0xe42
 228:	00018e02 	andeq	r8, r1, r2, lsl #28
 22c:	00000014 	andeq	r0, r0, r4, lsl r0
 230:	00000204 	andeq	r0, r0, r4, lsl #4
 234:	000087f8 	strdeq	r8, [r0], -r8	; <UNPREDICTABLE>
 238:	00000090 	muleq	r0, r0, r0
 23c:	83080e42 	movwhi	r0, #36418	; 0x8e42
 240:	00018e02 	andeq	r8, r1, r2, lsl #28
 244:	0000000c 	andeq	r0, r0, ip
 248:	ffffffff 			; <UNDEFINED> instruction: 0xffffffff
 24c:	7c020001 	stcvc	0, cr0, [r2], {1}
 250:	000d0c0e 	andeq	r0, sp, lr, lsl #24
 254:	0000000c 	andeq	r0, r0, ip
 258:	00000244 	andeq	r0, r0, r4, asr #4
 25c:	00008888 	andeq	r8, r0, r8, lsl #17
 260:	00000018 	andeq	r0, r0, r8, lsl r0
 264:	0000000c 	andeq	r0, r0, ip
 268:	00000244 	andeq	r0, r0, r4, asr #4
 26c:	000088a0 	andeq	r8, r0, r0, lsr #17
 270:	00000014 	andeq	r0, r0, r4, lsl r0
 274:	00000014 	andeq	r0, r0, r4, lsl r0
 278:	00000244 	andeq	r0, r0, r4, asr #4
 27c:	000088b4 			; <UNDEFINED> instruction: 0x000088b4
 280:	00000048 	andeq	r0, r0, r8, asr #32
 284:	83080e42 	movwhi	r0, #36418	; 0x8e42
 288:	00018e02 	andeq	r8, r1, r2, lsl #28
 28c:	0000000c 	andeq	r0, r0, ip
 290:	ffffffff 			; <UNDEFINED> instruction: 0xffffffff
 294:	7c020001 	stcvc	0, cr0, [r2], {1}
 298:	000d0c0e 	andeq	r0, sp, lr, lsl #24
 29c:	0000000c 	andeq	r0, r0, ip
 2a0:	0000028c 	andeq	r0, r0, ip, lsl #5
 2a4:	000088fc 	strdeq	r8, [r0], -ip
 2a8:	0000001c 	andeq	r0, r0, ip, lsl r0
 2ac:	00000014 	andeq	r0, r0, r4, lsl r0
 2b0:	0000028c 	andeq	r0, r0, ip, lsl #5
 2b4:	00008918 	andeq	r8, r0, r8, lsl r9
 2b8:	00000014 	andeq	r0, r0, r4, lsl r0
 2bc:	83080e42 	movwhi	r0, #36418	; 0x8e42
 2c0:	00018e02 	andeq	r8, r1, r2, lsl #28
 2c4:	00000014 	andeq	r0, r0, r4, lsl r0
 2c8:	0000028c 	andeq	r0, r0, ip, lsl #5
 2cc:	0000892c 	andeq	r8, r0, ip, lsr #18
 2d0:	0000000c 	andeq	r0, r0, ip
 2d4:	83080e42 	movwhi	r0, #36418	; 0x8e42
 2d8:	00018e02 	andeq	r8, r1, r2, lsl #28
 2dc:	00000018 	andeq	r0, r0, r8, lsl r0
 2e0:	0000028c 	andeq	r0, r0, ip, lsl #5
 2e4:	00008938 	andeq	r8, r0, r8, lsr r9
 2e8:	00000024 	andeq	r0, r0, r4, lsr #32
 2ec:	83100e42 	tsthi	r0, #1056	; 0x420
 2f0:	85038404 	strhi	r8, [r3, #-1028]	; 0x404
 2f4:	00018e02 	andeq	r8, r1, r2, lsl #28
 2f8:	00000014 	andeq	r0, r0, r4, lsl r0
 2fc:	0000028c 	andeq	r0, r0, ip, lsl #5
 300:	0000895c 	andeq	r8, r0, ip, asr r9
 304:	00000014 	andeq	r0, r0, r4, lsl r0
 308:	83080e42 	movwhi	r0, #36418	; 0x8e42
 30c:	00018e02 	andeq	r8, r1, r2, lsl #28
 310:	00000014 	andeq	r0, r0, r4, lsl r0
 314:	0000028c 	andeq	r0, r0, ip, lsl #5
 318:	00008970 	andeq	r8, r0, r0, ror r9
 31c:	00000014 	andeq	r0, r0, r4, lsl r0
 320:	83080e42 	movwhi	r0, #36418	; 0x8e42
 324:	00018e02 	andeq	r8, r1, r2, lsl #28
 328:	0000000c 	andeq	r0, r0, ip
 32c:	ffffffff 			; <UNDEFINED> instruction: 0xffffffff
 330:	7c020001 	stcvc	0, cr0, [r2], {1}
 334:	000d0c0e 	andeq	r0, sp, lr, lsl #24
 338:	0000001c 	andeq	r0, r0, ip, lsl r0
 33c:	00000328 	andeq	r0, r0, r8, lsr #6
 340:	00008984 	andeq	r8, r0, r4, lsl #19
 344:	00000154 	andeq	r0, r0, r4, asr r1
 348:	84180e42 	ldrhi	r0, [r8], #-3650	; 0xe42
 34c:	86058506 	strhi	r8, [r5], -r6, lsl #10
 350:	88038704 	stmdahi	r3, {r2, r8, r9, sl, pc}
 354:	00018e02 	andeq	r8, r1, r2, lsl #28
 358:	00000020 	andeq	r0, r0, r0, lsr #32
 35c:	00000328 	andeq	r0, r0, r8, lsr #6
 360:	00008ad8 	ldrdeq	r8, [r0], -r8	; <UNPREDICTABLE>
 364:	000001c8 	andeq	r0, r0, r8, asr #3
 368:	83200e42 	teqhi	r0, #1056	; 0x420
 36c:	85078408 	strhi	r8, [r7, #-1032]	; 0x408
 370:	87058606 	strhi	r8, [r5, -r6, lsl #12]
 374:	89038804 	stmdbhi	r3, {r2, fp, pc}
 378:	00018e02 	andeq	r8, r1, r2, lsl #28
 37c:	00000020 	andeq	r0, r0, r0, lsr #32
 380:	00000328 	andeq	r0, r0, r8, lsr #6
 384:	00008ca0 	andeq	r8, r0, r0, lsr #25
 388:	00000090 	muleq	r0, r0, r0
 38c:	84200e42 	strthi	r0, [r0], #-3650	; 0xe42
 390:	86078508 	strhi	r8, [r7], -r8, lsl #10
 394:	88058706 	stmdahi	r5, {r1, r2, r8, r9, sl, pc}
 398:	8a038904 	bhi	e27b0 <__bss_end__+0xd8470>
 39c:	00018e02 	andeq	r8, r1, r2, lsl #28
 3a0:	0000001c 	andeq	r0, r0, ip, lsl r0
 3a4:	00000328 	andeq	r0, r0, r8, lsr #6
 3a8:	00008d30 	andeq	r8, r0, r0, lsr sp
 3ac:	0000007c 	andeq	r0, r0, ip, ror r0
 3b0:	84180e42 	ldrhi	r0, [r8], #-3650	; 0xe42
 3b4:	86058506 	strhi	r8, [r5], -r6, lsl #10
 3b8:	88038704 	stmdahi	r3, {r2, r8, r9, sl, pc}
 3bc:	00018e02 	andeq	r8, r1, r2, lsl #28
 3c0:	0000001c 	andeq	r0, r0, ip, lsl r0
 3c4:	00000328 	andeq	r0, r0, r8, lsr #6
 3c8:	00008dac 	andeq	r8, r0, ip, lsr #27
 3cc:	000000c0 	andeq	r0, r0, r0, asr #1
 3d0:	84180e42 	ldrhi	r0, [r8], #-3650	; 0xe42
 3d4:	86058506 	strhi	r8, [r5], -r6, lsl #10
 3d8:	88038704 	stmdahi	r3, {r2, r8, r9, sl, pc}
 3dc:	00018e02 	andeq	r8, r1, r2, lsl #28
 3e0:	00000014 	andeq	r0, r0, r4, lsl r0
 3e4:	00000328 	andeq	r0, r0, r8, lsr #6
 3e8:	00008e6c 	andeq	r8, r0, ip, ror #28
 3ec:	0000003c 	andeq	r0, r0, ip, lsr r0
 3f0:	83080e42 	movwhi	r0, #36418	; 0x8e42
 3f4:	00018e02 	andeq	r8, r1, r2, lsl #28
 3f8:	00000018 	andeq	r0, r0, r8, lsl r0
 3fc:	00000328 	andeq	r0, r0, r8, lsr #6
 400:	00008ea8 	andeq	r8, r0, r8, lsr #29
 404:	0000002c 	andeq	r0, r0, ip, lsr #32
 408:	83100e42 	tsthi	r0, #1056	; 0x420
 40c:	85038404 	strhi	r8, [r3, #-1028]	; 0x404
 410:	00018e02 	andeq	r8, r1, r2, lsl #28
 414:	00000024 	andeq	r0, r0, r4, lsr #32
 418:	00000328 	andeq	r0, r0, r8, lsr #6
 41c:	00008ed4 	ldrdeq	r8, [r0], -r4
 420:	00000084 	andeq	r0, r0, r4, lsl #1
 424:	810c0e42 	tsthi	ip, r2, asr #28
 428:	83028203 	movwhi	r8, #8707	; 0x2203
 42c:	180e4201 	stmdane	lr, {r0, r9, lr}
 430:	05850684 	streq	r0, [r5, #1668]	; 0x684
 434:	0e42048e 	cdpeq	4, 4, cr0, cr2, cr14, {4}
 438:	000003e8 	andeq	r0, r0, r8, ror #7
 43c:	00000014 	andeq	r0, r0, r4, lsl r0
 440:	00000328 	andeq	r0, r0, r8, lsr #6
 444:	00008f58 	andeq	r8, r0, r8, asr pc
 448:	0000004c 	andeq	r0, r0, ip, asr #32
 44c:	8e040e42 	cdphi	14, 0, cr0, cr4, cr2, {2}
 450:	100e4201 	andne	r4, lr, r1, lsl #4
 454:	0000000c 	andeq	r0, r0, ip
 458:	ffffffff 			; <UNDEFINED> instruction: 0xffffffff
 45c:	7c020001 	stcvc	0, cr0, [r2], {1}
 460:	000d0c0e 	andeq	r0, sp, lr, lsl #24
 464:	00000018 	andeq	r0, r0, r8, lsl r0
 468:	00000454 	andeq	r0, r0, r4, asr r4
 46c:	00008fa4 	andeq	r8, r0, r4, lsr #31
 470:	0000009c 	muleq	r0, ip, r0
 474:	83100e42 	tsthi	r0, #1056	; 0x420
 478:	85038404 	strhi	r8, [r3, #-1028]	; 0x404
 47c:	00018e02 	andeq	r8, r1, r2, lsl #28
 480:	00000014 	andeq	r0, r0, r4, lsl r0
 484:	00000454 	andeq	r0, r0, r4, asr r4
 488:	00009040 	andeq	r9, r0, r0, asr #32
 48c:	0000001c 	andeq	r0, r0, ip, lsl r0
 490:	83080e42 	movwhi	r0, #36418	; 0x8e42
 494:	00018e02 	andeq	r8, r1, r2, lsl #28
 498:	00000014 	andeq	r0, r0, r4, lsl r0
 49c:	00000454 	andeq	r0, r0, r4, asr r4
 4a0:	0000905c 	andeq	r9, r0, ip, asr r0
 4a4:	00000028 	andeq	r0, r0, r8, lsr #32
 4a8:	83080e42 	movwhi	r0, #36418	; 0x8e42
 4ac:	00018e02 	andeq	r8, r1, r2, lsl #28
 4b0:	00000014 	andeq	r0, r0, r4, lsl r0
 4b4:	00000454 	andeq	r0, r0, r4, asr r4
 4b8:	00009084 	andeq	r9, r0, r4, lsl #1
 4bc:	0000001c 	andeq	r0, r0, ip, lsl r0
 4c0:	83080e42 	movwhi	r0, #36418	; 0x8e42
 4c4:	00018e02 	andeq	r8, r1, r2, lsl #28
 4c8:	00000014 	andeq	r0, r0, r4, lsl r0
 4cc:	00000454 	andeq	r0, r0, r4, asr r4
 4d0:	000090a0 	andeq	r9, r0, r0, lsr #1
 4d4:	0000002c 	andeq	r0, r0, ip, lsr #32
 4d8:	84080e42 	strhi	r0, [r8], #-3650	; 0xe42
 4dc:	00018e02 	andeq	r8, r1, r2, lsl #28
 4e0:	00000014 	andeq	r0, r0, r4, lsl r0
 4e4:	00000454 	andeq	r0, r0, r4, asr r4
 4e8:	000090cc 	andeq	r9, r0, ip, asr #1
 4ec:	0000000c 	andeq	r0, r0, ip
 4f0:	83080e42 	movwhi	r0, #36418	; 0x8e42
 4f4:	00018e02 	andeq	r8, r1, r2, lsl #28
 4f8:	00000014 	andeq	r0, r0, r4, lsl r0
 4fc:	00000454 	andeq	r0, r0, r4, asr r4
 500:	000090d8 	ldrdeq	r9, [r0], -r8
 504:	00000020 	andeq	r0, r0, r0, lsr #32
 508:	83080e42 	movwhi	r0, #36418	; 0x8e42
 50c:	00018e02 	andeq	r8, r1, r2, lsl #28
 510:	0000000c 	andeq	r0, r0, ip
 514:	ffffffff 			; <UNDEFINED> instruction: 0xffffffff
 518:	7c020001 	stcvc	0, cr0, [r2], {1}
 51c:	000d0c0e 	andeq	r0, sp, lr, lsl #24
 520:	00000018 	andeq	r0, r0, r8, lsl r0
 524:	00000510 	andeq	r0, r0, r0, lsl r5
 528:	00009160 	andeq	r9, r0, r0, ror #2
 52c:	000000d4 	ldrdeq	r0, [r0], -r4
 530:	83100e42 	tsthi	r0, #1056	; 0x420
 534:	85038404 	strhi	r8, [r3, #-1028]	; 0x404
 538:	00018e02 	andeq	r8, r1, r2, lsl #28
 53c:	00000014 	andeq	r0, r0, r4, lsl r0
 540:	00000510 	andeq	r0, r0, r0, lsl r5
 544:	00009234 	andeq	r9, r0, r4, lsr r2
 548:	00000038 	andeq	r0, r0, r8, lsr r0
 54c:	83080e42 	movwhi	r0, #36418	; 0x8e42
 550:	00018e02 	andeq	r8, r1, r2, lsl #28
 554:	00000014 	andeq	r0, r0, r4, lsl r0
 558:	00000510 	andeq	r0, r0, r0, lsl r5
 55c:	0000926c 	andeq	r9, r0, ip, ror #4
 560:	00000038 	andeq	r0, r0, r8, lsr r0
 564:	83080e42 	movwhi	r0, #36418	; 0x8e42
 568:	00018e02 	andeq	r8, r1, r2, lsl #28
 56c:	00000018 	andeq	r0, r0, r8, lsl r0
 570:	00000510 	andeq	r0, r0, r0, lsl r5
 574:	000092a4 	andeq	r9, r0, r4, lsr #5
 578:	000000cc 	andeq	r0, r0, ip, asr #1
 57c:	83100e42 	tsthi	r0, #1056	; 0x420
 580:	85038404 	strhi	r8, [r3, #-1028]	; 0x404
 584:	00018e02 	andeq	r8, r1, r2, lsl #28
 588:	00000014 	andeq	r0, r0, r4, lsl r0
 58c:	00000510 	andeq	r0, r0, r0, lsl r5
 590:	00009370 	andeq	r9, r0, r0, ror r3
 594:	0000004c 	andeq	r0, r0, ip, asr #32
 598:	84080e42 	strhi	r0, [r8], #-3650	; 0xe42
 59c:	00018e02 	andeq	r8, r1, r2, lsl #28
 5a0:	00000014 	andeq	r0, r0, r4, lsl r0
 5a4:	00000510 	andeq	r0, r0, r0, lsl r5
 5a8:	000093bc 			; <UNDEFINED> instruction: 0x000093bc
 5ac:	00000024 	andeq	r0, r0, r4, lsr #32
 5b0:	83080e42 	movwhi	r0, #36418	; 0x8e42
 5b4:	00018e02 	andeq	r8, r1, r2, lsl #28
 5b8:	00000018 	andeq	r0, r0, r8, lsl r0
 5bc:	00000510 	andeq	r0, r0, r0, lsl r5
 5c0:	000093e0 	andeq	r9, r0, r0, ror #7
 5c4:	000000d8 	ldrdeq	r0, [r0], -r8
 5c8:	84100e42 	ldrhi	r0, [r0], #-3650	; 0xe42
 5cc:	86038504 	strhi	r8, [r3], -r4, lsl #10
 5d0:	00018e02 	andeq	r8, r1, r2, lsl #28
 5d4:	00000014 	andeq	r0, r0, r4, lsl r0
 5d8:	00000510 	andeq	r0, r0, r0, lsl r5
 5dc:	000094b8 			; <UNDEFINED> instruction: 0x000094b8
 5e0:	0000002c 	andeq	r0, r0, ip, lsr #32
 5e4:	83080e42 	movwhi	r0, #36418	; 0x8e42
 5e8:	00018e02 	andeq	r8, r1, r2, lsl #28
 5ec:	00000018 	andeq	r0, r0, r8, lsl r0
 5f0:	00000510 	andeq	r0, r0, r0, lsl r5
 5f4:	000094e4 	andeq	r9, r0, r4, ror #9
 5f8:	00000084 	andeq	r0, r0, r4, lsl #1
 5fc:	83100e42 	tsthi	r0, #1056	; 0x420
 600:	85038404 	strhi	r8, [r3, #-1028]	; 0x404
 604:	00018e02 	andeq	r8, r1, r2, lsl #28
 608:	00000018 	andeq	r0, r0, r8, lsl r0
 60c:	00000510 	andeq	r0, r0, r0, lsl r5
 610:	00009568 	andeq	r9, r0, r8, ror #10
 614:	00000084 	andeq	r0, r0, r4, lsl #1
 618:	83100e42 	tsthi	r0, #1056	; 0x420
 61c:	85038404 	strhi	r8, [r3, #-1028]	; 0x404
 620:	00018e02 	andeq	r8, r1, r2, lsl #28
 624:	00000014 	andeq	r0, r0, r4, lsl r0
 628:	00000510 	andeq	r0, r0, r0, lsl r5
 62c:	000095ec 	andeq	r9, r0, ip, ror #11
 630:	00000084 	andeq	r0, r0, r4, lsl #1
 634:	84080e42 	strhi	r0, [r8], #-3650	; 0xe42
 638:	00018e02 	andeq	r8, r1, r2, lsl #28
 63c:	00000014 	andeq	r0, r0, r4, lsl r0
 640:	00000510 	andeq	r0, r0, r0, lsl r5
 644:	00009670 	andeq	r9, r0, r0, ror r6
 648:	00000058 	andeq	r0, r0, r8, asr r0
 64c:	84080e42 	strhi	r0, [r8], #-3650	; 0xe42
 650:	00018e02 	andeq	r8, r1, r2, lsl #28
 654:	0000000c 	andeq	r0, r0, ip
 658:	ffffffff 			; <UNDEFINED> instruction: 0xffffffff
 65c:	7c020001 	stcvc	0, cr0, [r2], {1}
 660:	000d0c0e 	andeq	r0, sp, lr, lsl #24
 664:	00000014 	andeq	r0, r0, r4, lsl r0
 668:	00000654 	andeq	r0, r0, r4, asr r6
 66c:	000096c8 	andeq	r9, r0, r8, asr #13
 670:	00000028 	andeq	r0, r0, r8, lsr #32
 674:	83080e42 	movwhi	r0, #36418	; 0x8e42
 678:	00018e02 	andeq	r8, r1, r2, lsl #28
 67c:	0000000c 	andeq	r0, r0, ip
 680:	00000654 	andeq	r0, r0, r4, asr r6
 684:	000096f0 	strdeq	r9, [r0], -r0
 688:	00000028 	andeq	r0, r0, r8, lsr #32
 68c:	0000000c 	andeq	r0, r0, ip
 690:	ffffffff 			; <UNDEFINED> instruction: 0xffffffff
 694:	7c020001 	stcvc	0, cr0, [r2], {1}
 698:	000d0c0e 	andeq	r0, sp, lr, lsl #24
 69c:	0000000c 	andeq	r0, r0, ip
 6a0:	0000068c 	andeq	r0, r0, ip, lsl #13
 6a4:	00009718 	andeq	r9, r0, r8, lsl r7
 6a8:	00000020 	andeq	r0, r0, r0, lsr #32
