
test-kmalloc.elf:     file format elf32-littlearm


Disassembly of section .text:

00008000 <_start>:
    8000:	e3a0d302 	mov	sp, #134217728	; 0x8000000
    8004:	e3a0b000 	mov	fp, #0
    8008:	eb000252 	bl	8958 <_cstart>
    800c:	eb000280 	bl	8a14 <rpi_reboot>

00008010 <notmain>:
    8010:	e92d40f0 	push	{r4, r5, r6, r7, lr}
    8014:	e24dd00c 	sub	sp, sp, #12
    8018:	eb000439 	bl	9104 <uart_init>
    801c:	e59f015c 	ldr	r0, [pc, #348]	; 8180 <notmain+0x170>
    8020:	eb0000ca 	bl	8350 <printk>
    8024:	eb0000a0 	bl	82ac <kmalloc_init>
    8028:	eb0000bc 	bl	8320 <kmalloc_heap_ptr>
    802c:	e1a01000 	mov	r1, r0
    8030:	e59f014c 	ldr	r0, [pc, #332]	; 8184 <notmain+0x174>
    8034:	eb0000c5 	bl	8350 <printk>
    8038:	eb0000b8 	bl	8320 <kmalloc_heap_ptr>
    803c:	e1a06000 	mov	r6, r0
    8040:	e3a00001 	mov	r0, #1
    8044:	eb000057 	bl	81a8 <kmalloc>
    8048:	e1a05000 	mov	r5, r0
    804c:	e59f0134 	ldr	r0, [pc, #308]	; 8188 <notmain+0x178>
    8050:	e1a01005 	mov	r1, r5
    8054:	eb0000bd 	bl	8350 <printk>
    8058:	e3a04000 	mov	r4, #0
    805c:	e3a07001 	mov	r7, #1
    8060:	ea000007 	b	8084 <notmain+0x74>
    8064:	e1a00007 	mov	r0, r7
    8068:	eb00004e 	bl	81a8 <kmalloc>
    806c:	e1a03804 	lsl	r3, r4, #16
    8070:	e1833c04 	orr	r3, r3, r4, lsl #24
    8074:	e1833404 	orr	r3, r3, r4, lsl #8
    8078:	e1833004 	orr	r3, r3, r4
    807c:	e5803000 	str	r3, [r0]
    8080:	e2844001 	add	r4, r4, #1
    8084:	e3540013 	cmp	r4, #19
    8088:	9afffff5 	bls	8064 <notmain+0x54>
    808c:	e2852004 	add	r2, r5, #4
    8090:	e3a03000 	mov	r3, #0
    8094:	ea000012 	b	80e4 <notmain+0xd4>
    8098:	e1a04803 	lsl	r4, r3, #16
    809c:	e1844c03 	orr	r4, r4, r3, lsl #24
    80a0:	e1844403 	orr	r4, r4, r3, lsl #8
    80a4:	e1844003 	orr	r4, r4, r3
    80a8:	e0827103 	add	r7, r2, r3, lsl #2
    80ac:	e7921103 	ldr	r1, [r2, r3, lsl #2]
    80b0:	e1510004 	cmp	r1, r4
    80b4:	0a000009 	beq	80e0 <notmain+0xd0>
    80b8:	eb0000bf 	bl	83bc <rpi_reset_putc>
    80bc:	e5973000 	ldr	r3, [r7]
    80c0:	e58d3000 	str	r3, [sp]
    80c4:	e58d4004 	str	r4, [sp, #4]
    80c8:	e59f00bc 	ldr	r0, [pc, #188]	; 818c <notmain+0x17c>
    80cc:	e59f10bc 	ldr	r1, [pc, #188]	; 8190 <notmain+0x180>
    80d0:	e59f20bc 	ldr	r2, [pc, #188]	; 8194 <notmain+0x184>
    80d4:	e3a0301a 	mov	r3, #26
    80d8:	eb00009c 	bl	8350 <printk>
    80dc:	eb00020b 	bl	8910 <clean_reboot>
    80e0:	e2833001 	add	r3, r3, #1
    80e4:	e3530013 	cmp	r3, #19
    80e8:	9affffea 	bls	8098 <notmain+0x88>
    80ec:	e3a00001 	mov	r0, #1
    80f0:	e3a01040 	mov	r1, #64	; 0x40
    80f4:	eb000045 	bl	8210 <kmalloc_aligned>
    80f8:	e310003f 	tst	r0, #63	; 0x3f
    80fc:	0a000006 	beq	811c <notmain+0x10c>
    8100:	eb0000ad 	bl	83bc <rpi_reset_putc>
    8104:	e59f008c 	ldr	r0, [pc, #140]	; 8198 <notmain+0x188>
    8108:	e59f1080 	ldr	r1, [pc, #128]	; 8190 <notmain+0x180>
    810c:	e59f2080 	ldr	r2, [pc, #128]	; 8194 <notmain+0x184>
    8110:	e3a0301e 	mov	r3, #30
    8114:	eb00008d 	bl	8350 <printk>
    8118:	eb0001fc 	bl	8910 <clean_reboot>
    811c:	eb000079 	bl	8308 <kfree_all>
    8120:	eb00007e 	bl	8320 <kmalloc_heap_ptr>
    8124:	e1560000 	cmp	r6, r0
    8128:	0a000006 	beq	8148 <notmain+0x138>
    812c:	eb0000a2 	bl	83bc <rpi_reset_putc>
    8130:	e59f0064 	ldr	r0, [pc, #100]	; 819c <notmain+0x18c>
    8134:	e59f1054 	ldr	r1, [pc, #84]	; 8190 <notmain+0x180>
    8138:	e59f2054 	ldr	r2, [pc, #84]	; 8194 <notmain+0x184>
    813c:	e3a03022 	mov	r3, #34	; 0x22
    8140:	eb000082 	bl	8350 <printk>
    8144:	eb0001f1 	bl	8910 <clean_reboot>
    8148:	e3a00001 	mov	r0, #1
    814c:	eb000015 	bl	81a8 <kmalloc>
    8150:	e1550000 	cmp	r5, r0
    8154:	0a000006 	beq	8174 <notmain+0x164>
    8158:	eb000097 	bl	83bc <rpi_reset_putc>
    815c:	e59f003c 	ldr	r0, [pc, #60]	; 81a0 <notmain+0x190>
    8160:	e59f1028 	ldr	r1, [pc, #40]	; 8190 <notmain+0x180>
    8164:	e59f2028 	ldr	r2, [pc, #40]	; 8194 <notmain+0x184>
    8168:	e3a03023 	mov	r3, #35	; 0x23
    816c:	eb000077 	bl	8350 <printk>
    8170:	eb0001e6 	bl	8910 <clean_reboot>
    8174:	e59f0028 	ldr	r0, [pc, #40]	; 81a4 <notmain+0x194>
    8178:	eb000074 	bl	8350 <printk>
    817c:	eb0001e3 	bl	8910 <clean_reboot>
    8180:	00009918 	andeq	r9, r0, r8, lsl r9
    8184:	00009928 	andeq	r9, r0, r8, lsr #18
    8188:	00009940 	andeq	r9, r0, r0, asr #18
    818c:	0000994c 	andeq	r9, r0, ip, asr #18
    8190:	0000999c 	muleq	r0, ip, r9
    8194:	00009910 	andeq	r9, r0, r0, lsl r9
    8198:	000099ac 	andeq	r9, r0, ip, lsr #19
    819c:	000099f4 	strdeq	r9, [r0], -r4
    81a0:	00009a40 	andeq	r9, r0, r0, asr #20
    81a4:	00009a94 	muleq	r0, r4, sl

000081a8 <kmalloc>:
    81a8:	e92d4010 	push	{r4, lr}
    81ac:	e59f304c 	ldr	r3, [pc, #76]	; 8200 <kmalloc+0x58>
    81b0:	e5933000 	ldr	r3, [r3]
    81b4:	e3530000 	cmp	r3, #0
    81b8:	1a000006 	bne	81d8 <kmalloc+0x30>
    81bc:	eb00007e 	bl	83bc <rpi_reset_putc>
    81c0:	e59f003c 	ldr	r0, [pc, #60]	; 8204 <kmalloc+0x5c>
    81c4:	e59f103c 	ldr	r1, [pc, #60]	; 8208 <kmalloc+0x60>
    81c8:	e59f203c 	ldr	r2, [pc, #60]	; 820c <kmalloc+0x64>
    81cc:	e3a0301a 	mov	r3, #26
    81d0:	eb00005e 	bl	8350 <printk>
    81d4:	eb0001cd 	bl	8910 <clean_reboot>
    81d8:	e59f3020 	ldr	r3, [pc, #32]	; 8200 <kmalloc+0x58>
    81dc:	e5934004 	ldr	r4, [r3, #4]
    81e0:	e2802003 	add	r2, r0, #3
    81e4:	e3c22003 	bic	r2, r2, #3
    81e8:	e0840002 	add	r0, r4, r2
    81ec:	e5830004 	str	r0, [r3, #4]
    81f0:	e3a01000 	mov	r1, #0
    81f4:	eb00004d 	bl	8330 <memset>
    81f8:	e1a00004 	mov	r0, r4
    81fc:	e8bd8010 	pop	{r4, pc}
    8200:	00009e3c 	andeq	r9, r0, ip, lsr lr
    8204:	00009ad0 	ldrdeq	r9, [r0], -r0
    8208:	00009b10 	andeq	r9, r0, r0, lsl fp
    820c:	00009aa8 	andeq	r9, r0, r8, lsr #21

00008210 <kmalloc_aligned>:
    8210:	e92d4008 	push	{r3, lr}
    8214:	e59f307c 	ldr	r3, [pc, #124]	; 8298 <kmalloc_aligned+0x88>
    8218:	e5933000 	ldr	r3, [r3]
    821c:	e3530000 	cmp	r3, #0
    8220:	1a000006 	bne	8240 <kmalloc_aligned+0x30>
    8224:	eb000064 	bl	83bc <rpi_reset_putc>
    8228:	e59f006c 	ldr	r0, [pc, #108]	; 829c <kmalloc_aligned+0x8c>
    822c:	e59f106c 	ldr	r1, [pc, #108]	; 82a0 <kmalloc_aligned+0x90>
    8230:	e59f206c 	ldr	r2, [pc, #108]	; 82a4 <kmalloc_aligned+0x94>
    8234:	e3a03027 	mov	r3, #39	; 0x27
    8238:	eb000044 	bl	8350 <printk>
    823c:	eb0001b3 	bl	8910 <clean_reboot>
    8240:	e3510004 	cmp	r1, #4
    8244:	8a000001 	bhi	8250 <kmalloc_aligned+0x40>
    8248:	ebffffd6 	bl	81a8 <kmalloc>
    824c:	e8bd8008 	pop	{r3, pc}
    8250:	e3110003 	tst	r1, #3
    8254:	0a000006 	beq	8274 <kmalloc_aligned+0x64>
    8258:	eb000057 	bl	83bc <rpi_reset_putc>
    825c:	e59f0044 	ldr	r0, [pc, #68]	; 82a8 <kmalloc_aligned+0x98>
    8260:	e59f1038 	ldr	r1, [pc, #56]	; 82a0 <kmalloc_aligned+0x90>
    8264:	e59f2038 	ldr	r2, [pc, #56]	; 82a4 <kmalloc_aligned+0x94>
    8268:	e3a0302b 	mov	r3, #43	; 0x2b
    826c:	eb000037 	bl	8350 <printk>
    8270:	eb0001a6 	bl	8910 <clean_reboot>
    8274:	e59f301c 	ldr	r3, [pc, #28]	; 8298 <kmalloc_aligned+0x88>
    8278:	e5932004 	ldr	r2, [r3, #4]
    827c:	e0812002 	add	r2, r1, r2
    8280:	e2422001 	sub	r2, r2, #1
    8284:	e2611000 	rsb	r1, r1, #0
    8288:	e0021001 	and	r1, r2, r1
    828c:	e5831004 	str	r1, [r3, #4]
    8290:	ebffffc4 	bl	81a8 <kmalloc>
    8294:	e8bd8008 	pop	{r3, pc}
    8298:	00009e3c 	andeq	r9, r0, ip, lsr lr
    829c:	00009ad0 	ldrdeq	r9, [r0], -r0
    82a0:	00009b10 	andeq	r9, r0, r0, lsl fp
    82a4:	00009ab0 			; <UNDEFINED> instruction: 0x00009ab0
    82a8:	00009b1c 	andeq	r9, r0, ip, lsl fp

000082ac <kmalloc_init>:
    82ac:	e92d4008 	push	{r3, lr}
    82b0:	e59f303c 	ldr	r3, [pc, #60]	; 82f4 <kmalloc_init+0x48>
    82b4:	e5933000 	ldr	r3, [r3]
    82b8:	e3530000 	cmp	r3, #0
    82bc:	0a000006 	beq	82dc <kmalloc_init+0x30>
    82c0:	eb00003d 	bl	83bc <rpi_reset_putc>
    82c4:	e59f002c 	ldr	r0, [pc, #44]	; 82f8 <kmalloc_init+0x4c>
    82c8:	e59f102c 	ldr	r1, [pc, #44]	; 82fc <kmalloc_init+0x50>
    82cc:	e59f202c 	ldr	r2, [pc, #44]	; 8300 <kmalloc_init+0x54>
    82d0:	e3a0303c 	mov	r3, #60	; 0x3c
    82d4:	eb00001d 	bl	8350 <printk>
    82d8:	eb00018c 	bl	8910 <clean_reboot>
    82dc:	e59f3010 	ldr	r3, [pc, #16]	; 82f4 <kmalloc_init+0x48>
    82e0:	e3a02001 	mov	r2, #1
    82e4:	e5832000 	str	r2, [r3]
    82e8:	e59f2014 	ldr	r2, [pc, #20]	; 8304 <kmalloc_init+0x58>
    82ec:	e5832004 	str	r2, [r3, #4]
    82f0:	e8bd8008 	pop	{r3, pc}
    82f4:	00009e3c 	andeq	r9, r0, ip, lsr lr
    82f8:	00009b74 	andeq	r9, r0, r4, ror fp
    82fc:	00009b10 	andeq	r9, r0, r0, lsl fp
    8300:	00009ac0 	andeq	r9, r0, r0, asr #21
    8304:	0000a250 	andeq	sl, r0, r0, asr r2

00008308 <kfree_all>:
    8308:	e59f2008 	ldr	r2, [pc, #8]	; 8318 <kfree_all+0x10>
    830c:	e59f3008 	ldr	r3, [pc, #8]	; 831c <kfree_all+0x14>
    8310:	e5832004 	str	r2, [r3, #4]
    8314:	e12fff1e 	bx	lr
    8318:	0000a250 	andeq	sl, r0, r0, asr r2
    831c:	00009e3c 	andeq	r9, r0, ip, lsr lr

00008320 <kmalloc_heap_ptr>:
    8320:	e59f3004 	ldr	r3, [pc, #4]	; 832c <kmalloc_heap_ptr+0xc>
    8324:	e5930004 	ldr	r0, [r3, #4]
    8328:	e12fff1e 	bx	lr
    832c:	00009e3c 	andeq	r9, r0, ip, lsr lr

00008330 <memset>:
    8330:	e0802002 	add	r2, r0, r2
    8334:	e1a03000 	mov	r3, r0
    8338:	ea000001 	b	8344 <memset+0x14>
    833c:	e5c31000 	strb	r1, [r3]
    8340:	e2833001 	add	r3, r3, #1
    8344:	e1530002 	cmp	r3, r2
    8348:	3afffffb 	bcc	833c <memset+0xc>
    834c:	e12fff1e 	bx	lr

00008350 <printk>:
    8350:	e92d000f 	push	{r0, r1, r2, r3}
    8354:	e92d4030 	push	{r4, r5, lr}
    8358:	e24dd00c 	sub	sp, sp, #12
    835c:	e28d301c 	add	r3, sp, #28
    8360:	e58d3004 	str	r3, [sp, #4]
    8364:	e59f4034 	ldr	r4, [pc, #52]	; 83a0 <printk+0x50>
    8368:	e1a00004 	mov	r0, r4
    836c:	e3a01b01 	mov	r1, #1024	; 0x400
    8370:	e59d2018 	ldr	r2, [sp, #24]
    8374:	eb0000c3 	bl	8688 <va_printk>
    8378:	e1a05000 	mov	r5, r0
    837c:	e59f3020 	ldr	r3, [pc, #32]	; 83a4 <printk+0x54>
    8380:	e5933000 	ldr	r3, [r3]
    8384:	e1a00004 	mov	r0, r4
    8388:	e12fff33 	blx	r3
    838c:	e1a00005 	mov	r0, r5
    8390:	e28dd00c 	add	sp, sp, #12
    8394:	e8bd4030 	pop	{r4, r5, lr}
    8398:	e28dd010 	add	sp, sp, #16
    839c:	e12fff1e 	bx	lr
    83a0:	00009e44 	andeq	r9, r0, r4, asr #28
    83a4:	00009878 	andeq	r9, r0, r8, ror r8

000083a8 <internal_putchar>:
    83a8:	e92d4010 	push	{r4, lr}
    83ac:	e1a04000 	mov	r4, r0
    83b0:	eb000392 	bl	9200 <uart_putc>
    83b4:	e1a00004 	mov	r0, r4
    83b8:	e8bd8010 	pop	{r4, pc}

000083bc <rpi_reset_putc>:
    83bc:	e59f2008 	ldr	r2, [pc, #8]	; 83cc <rpi_reset_putc+0x10>
    83c0:	e59f3008 	ldr	r3, [pc, #8]	; 83d0 <rpi_reset_putc+0x14>
    83c4:	e5832000 	str	r2, [r3]
    83c8:	e12fff1e 	bx	lr
    83cc:	000083a8 	andeq	r8, r0, r8, lsr #7
    83d0:	00009874 	andeq	r9, r0, r4, ror r8

000083d4 <rpi_set_putc>:
    83d4:	e59f3004 	ldr	r3, [pc, #4]	; 83e0 <rpi_set_putc+0xc>
    83d8:	e5830000 	str	r0, [r3]
    83dc:	e12fff1e 	bx	lr
    83e0:	00009874 	andeq	r9, r0, r4, ror r8

000083e4 <internal_putk>:
    83e4:	e92d4038 	push	{r3, r4, r5, lr}
    83e8:	e1a04000 	mov	r4, r0
    83ec:	e59f5020 	ldr	r5, [pc, #32]	; 8414 <internal_putk+0x30>
    83f0:	ea000002 	b	8400 <internal_putk+0x1c>
    83f4:	e5953000 	ldr	r3, [r5]
    83f8:	e12fff33 	blx	r3
    83fc:	e2844001 	add	r4, r4, #1
    8400:	e5d40000 	ldrb	r0, [r4]
    8404:	e3500000 	cmp	r0, #0
    8408:	1afffff9 	bne	83f4 <internal_putk+0x10>
    840c:	e3a00001 	mov	r0, #1
    8410:	e8bd8038 	pop	{r3, r4, r5, pc}
    8414:	00009874 	andeq	r9, r0, r4, ror r8

00008418 <isdigit>:
    8418:	e2400030 	sub	r0, r0, #48	; 0x30
    841c:	e3500009 	cmp	r0, #9
    8420:	83a00000 	movhi	r0, #0
    8424:	93a00001 	movls	r0, #1
    8428:	e12fff1e 	bx	lr

0000842c <pad>:
    842c:	e0611000 	rsb	r1, r1, r0
    8430:	e3a03020 	mov	r3, #32
    8434:	ea000002 	b	8444 <pad+0x18>
    8438:	e5c03000 	strb	r3, [r0]
    843c:	e2811001 	add	r1, r1, #1
    8440:	e2800001 	add	r0, r0, #1
    8444:	e1510002 	cmp	r1, r2
    8448:	bafffffa 	blt	8438 <pad+0xc>
    844c:	e3a03000 	mov	r3, #0
    8450:	e5c03000 	strb	r3, [r0]
    8454:	e12fff1e 	bx	lr

00008458 <reverse>:
    8458:	e063c002 	rsb	ip, r3, r2
    845c:	e28cc001 	add	ip, ip, #1
    8460:	e15c0001 	cmp	ip, r1
    8464:	c061100c 	rsbgt	r1, r1, ip
    8468:	c0833001 	addgt	r3, r3, r1
    846c:	e2422001 	sub	r2, r2, #1
    8470:	e1a01000 	mov	r1, r0
    8474:	ea000002 	b	8484 <reverse+0x2c>
    8478:	e452c001 	ldrb	ip, [r2], #-1
    847c:	e5c1c000 	strb	ip, [r1]
    8480:	e2811001 	add	r1, r1, #1
    8484:	e1520003 	cmp	r2, r3
    8488:	2afffffa 	bcs	8478 <reverse+0x20>
    848c:	e3a03000 	mov	r3, #0
    8490:	e5c13000 	strb	r3, [r1]
    8494:	e12fff1e 	bx	lr

00008498 <emit>:
    8498:	e92d41f0 	push	{r4, r5, r6, r7, r8, lr}
    849c:	e24dd040 	sub	sp, sp, #64	; 0x40
    84a0:	e1a05001 	mov	r5, r1
    84a4:	e1a04002 	mov	r4, r2
    84a8:	e59d2058 	ldr	r2, [sp, #88]	; 0x58
    84ac:	e1520004 	cmp	r2, r4
    84b0:	c2442001 	subgt	r2, r4, #1
    84b4:	e1a0c003 	mov	ip, r3
    84b8:	e2400002 	sub	r0, r0, #2
    84bc:	e350000e 	cmp	r0, #14
    84c0:	979ff100 	ldrls	pc, [pc, r0, lsl #2]
    84c4:	ea000042 	b	85d4 <emit+0x13c>
    84c8:	000085ac 	andeq	r8, r0, ip, lsr #11
    84cc:	000085d4 	ldrdeq	r8, [r0], -r4
    84d0:	000085d4 	ldrdeq	r8, [r0], -r4
    84d4:	000085d4 	ldrdeq	r8, [r0], -r4
    84d8:	000085d4 	ldrdeq	r8, [r0], -r4
    84dc:	000085d4 	ldrdeq	r8, [r0], -r4
    84e0:	000085a0 	andeq	r8, r0, r0, lsr #11
    84e4:	000085d4 	ldrdeq	r8, [r0], -r4
    84e8:	00008504 	andeq	r8, r0, r4, lsl #10
    84ec:	000085d4 	ldrdeq	r8, [r0], -r4
    84f0:	000085d4 	ldrdeq	r8, [r0], -r4
    84f4:	000085d4 	ldrdeq	r8, [r0], -r4
    84f8:	000085d4 	ldrdeq	r8, [r0], -r4
    84fc:	000085d4 	ldrdeq	r8, [r0], -r4
    8500:	00008578 	andeq	r8, r0, r8, ror r5
    8504:	e59d105c 	ldr	r1, [sp, #92]	; 0x5c
    8508:	e2911000 	adds	r1, r1, #0
    850c:	13a01001 	movne	r1, #1
    8510:	e0111fa3 	ands	r1, r1, r3, lsr #31
    8514:	1263c000 	rsbne	ip, r3, #0
    8518:	13a08001 	movne	r8, #1
    851c:	03a08000 	moveq	r8, #0
    8520:	e1a0100d 	mov	r1, sp
    8524:	e59f70ec 	ldr	r7, [pc, #236]	; 8618 <emit+0x180>
    8528:	e59f60ec 	ldr	r6, [pc, #236]	; 861c <emit+0x184>
    852c:	ea000000 	b	8534 <emit+0x9c>
    8530:	e1a01003 	mov	r1, r3
    8534:	e2813001 	add	r3, r1, #1
    8538:	e08e0c97 	umull	r0, lr, r7, ip
    853c:	e1a0e1ae 	lsr	lr, lr, #3
    8540:	e1a0000e 	mov	r0, lr
    8544:	e08ee10e 	add	lr, lr, lr, lsl #2
    8548:	e1a0e08e 	lsl	lr, lr, #1
    854c:	e06ee00c 	rsb	lr, lr, ip
    8550:	e7d6c00e 	ldrb	ip, [r6, lr]
    8554:	e5c1c000 	strb	ip, [r1]
    8558:	e1a0c000 	mov	ip, r0
    855c:	e3500000 	cmp	r0, #0
    8560:	1afffff2 	bne	8530 <emit+0x98>
    8564:	e3580000 	cmp	r8, #0
    8568:	12813002 	addne	r3, r1, #2
    856c:	13a0002d 	movne	r0, #45	; 0x2d
    8570:	15c10001 	strbne	r0, [r1, #1]
    8574:	ea00001d 	b	85f0 <emit+0x158>
    8578:	e1a0e00d 	mov	lr, sp
    857c:	e59f009c 	ldr	r0, [pc, #156]	; 8620 <emit+0x188>
    8580:	e28e3001 	add	r3, lr, #1
    8584:	e20c100f 	and	r1, ip, #15
    8588:	e7d01001 	ldrb	r1, [r0, r1]
    858c:	e5ce1000 	strb	r1, [lr]
    8590:	e1a0e003 	mov	lr, r3
    8594:	e1b0c22c 	lsrs	ip, ip, #4
    8598:	1afffff8 	bne	8580 <emit+0xe8>
    859c:	ea000013 	b	85f0 <emit+0x158>
    85a0:	e5cd3000 	strb	r3, [sp]
    85a4:	e28d3001 	add	r3, sp, #1
    85a8:	ea000010 	b	85f0 <emit+0x158>
    85ac:	e1a0e00d 	mov	lr, sp
    85b0:	e59f006c 	ldr	r0, [pc, #108]	; 8624 <emit+0x18c>
    85b4:	e28e3001 	add	r3, lr, #1
    85b8:	e20c1001 	and	r1, ip, #1
    85bc:	e7d01001 	ldrb	r1, [r0, r1]
    85c0:	e5ce1000 	strb	r1, [lr]
    85c4:	e1a0e003 	mov	lr, r3
    85c8:	e1b0c0ac 	lsrs	ip, ip, #1
    85cc:	1afffff8 	bne	85b4 <emit+0x11c>
    85d0:	ea000006 	b	85f0 <emit+0x158>
    85d4:	ebffff78 	bl	83bc <rpi_reset_putc>
    85d8:	e59f0048 	ldr	r0, [pc, #72]	; 8628 <emit+0x190>
    85dc:	e59f1048 	ldr	r1, [pc, #72]	; 862c <emit+0x194>
    85e0:	e59f2048 	ldr	r2, [pc, #72]	; 8630 <emit+0x198>
    85e4:	e3a03075 	mov	r3, #117	; 0x75
    85e8:	ebffff58 	bl	8350 <printk>
    85ec:	eb0000c7 	bl	8910 <clean_reboot>
    85f0:	e1a00003 	mov	r0, r3
    85f4:	e1a0100d 	mov	r1, sp
    85f8:	ebffff8b 	bl	842c <pad>
    85fc:	e1a02000 	mov	r2, r0
    8600:	e1a00005 	mov	r0, r5
    8604:	e1a01004 	mov	r1, r4
    8608:	e1a0300d 	mov	r3, sp
    860c:	ebffff91 	bl	8458 <reverse>
    8610:	e28dd040 	add	sp, sp, #64	; 0x40
    8614:	e8bd81f0 	pop	{r4, r5, r6, r7, r8, pc}
    8618:	cccccccd 	stclgt	12, cr12, [ip], {205}	; 0xcd
    861c:	00009c00 	andeq	r9, r0, r0, lsl #24
    8620:	00009c0c 	andeq	r9, r0, ip, lsl #24
    8624:	00009c20 	andeq	r9, r0, r0, lsr #24
    8628:	00009bd8 	ldrdeq	r9, [r0], -r8
    862c:	00009bec 	andeq	r9, r0, ip, ror #23
    8630:	00009bb4 			; <UNDEFINED> instruction: 0x00009bb4

00008634 <rpi_set_output>:
    8634:	e92d4008 	push	{r3, lr}
    8638:	e3500000 	cmp	r0, #0
    863c:	1a000006 	bne	865c <rpi_set_output+0x28>
    8640:	ebffff5d 	bl	83bc <rpi_reset_putc>
    8644:	e59f0028 	ldr	r0, [pc, #40]	; 8674 <rpi_set_output+0x40>
    8648:	e59f1028 	ldr	r1, [pc, #40]	; 8678 <rpi_set_output+0x44>
    864c:	e59f2028 	ldr	r2, [pc, #40]	; 867c <rpi_set_output+0x48>
    8650:	e3a03020 	mov	r3, #32
    8654:	ebffff3d 	bl	8350 <printk>
    8658:	eb0000ac 	bl	8910 <clean_reboot>
    865c:	e59f301c 	ldr	r3, [pc, #28]	; 8680 <rpi_set_output+0x4c>
    8660:	e5830000 	str	r0, [r3]
    8664:	e3510000 	cmp	r1, #0
    8668:	159f3014 	ldrne	r3, [pc, #20]	; 8684 <rpi_set_output+0x50>
    866c:	15831000 	strne	r1, [r3]
    8670:	e8bd8008 	pop	{r3, pc}
    8674:	00009c24 	andeq	r9, r0, r4, lsr #24
    8678:	00009bec 	andeq	r9, r0, ip, ror #23
    867c:	00009bbc 			; <UNDEFINED> instruction: 0x00009bbc
    8680:	00009874 	andeq	r9, r0, r4, ror r8
    8684:	00009878 	andeq	r9, r0, r8, ror r8

00008688 <va_printk>:
    8688:	e92d4ff0 	push	{r4, r5, r6, r7, r8, r9, sl, fp, lr}
    868c:	e24dd08c 	sub	sp, sp, #140	; 0x8c
    8690:	e1a0a000 	mov	sl, r0
    8694:	e1a09003 	mov	r9, r3
    8698:	e2411001 	sub	r1, r1, #1
    869c:	e0808001 	add	r8, r0, r1
    86a0:	e3a03000 	mov	r3, #0
    86a4:	e5c03000 	strb	r3, [r0]
    86a8:	e1a04000 	mov	r4, r0
    86ac:	e1a0b003 	mov	fp, r3
    86b0:	ea000086 	b	88d0 <va_printk+0x248>
    86b4:	e3530025 	cmp	r3, #37	; 0x25
    86b8:	12822001 	addne	r2, r2, #1
    86bc:	15c43000 	strbne	r3, [r4]
    86c0:	12844001 	addne	r4, r4, #1
    86c4:	1a000081 	bne	88d0 <va_printk+0x248>
    86c8:	e5d21001 	ldrb	r1, [r2, #1]
    86cc:	e3510025 	cmp	r1, #37	; 0x25
    86d0:	05c43000 	strbeq	r3, [r4]
    86d4:	02822002 	addeq	r2, r2, #2
    86d8:	02844001 	addeq	r4, r4, #1
    86dc:	0a00007b 	beq	88d0 <va_printk+0x248>
    86e0:	e2826001 	add	r6, r2, #1
    86e4:	e1a0700b 	mov	r7, fp
    86e8:	ea000004 	b	8700 <va_printk+0x78>
    86ec:	e0877107 	add	r7, r7, r7, lsl #2
    86f0:	e1a07087 	lsl	r7, r7, #1
    86f4:	e0877005 	add	r7, r7, r5
    86f8:	e2477030 	sub	r7, r7, #48	; 0x30
    86fc:	e2866001 	add	r6, r6, #1
    8700:	e5d65000 	ldrb	r5, [r6]
    8704:	e1a00005 	mov	r0, r5
    8708:	ebffff42 	bl	8418 <isdigit>
    870c:	e3500000 	cmp	r0, #0
    8710:	1afffff5 	bne	86ec <va_printk+0x64>
    8714:	e357001f 	cmp	r7, #31
    8718:	9a000006 	bls	8738 <va_printk+0xb0>
    871c:	ebffff26 	bl	83bc <rpi_reset_putc>
    8720:	e59f01d4 	ldr	r0, [pc, #468]	; 88fc <va_printk+0x274>
    8724:	e59f11d4 	ldr	r1, [pc, #468]	; 8900 <va_printk+0x278>
    8728:	e59f21d4 	ldr	r2, [pc, #468]	; 8904 <va_printk+0x27c>
    872c:	e3a03092 	mov	r3, #146	; 0x92
    8730:	ebffff06 	bl	8350 <printk>
    8734:	eb000075 	bl	8910 <clean_reboot>
    8738:	e2455062 	sub	r5, r5, #98	; 0x62
    873c:	e3550016 	cmp	r5, #22
    8740:	979ff105 	ldrls	pc, [pc, r5, lsl #2]
    8744:	ea00004e 	b	8884 <va_printk+0x1fc>
    8748:	00008830 	andeq	r8, r0, r0, lsr r8
    874c:	00008860 	andeq	r8, r0, r0, ror #16
    8750:	000087c0 	andeq	r8, r0, r0, asr #15
    8754:	00008884 	andeq	r8, r0, r4, lsl #17
    8758:	000087a4 	andeq	r8, r0, r4, lsr #15
    875c:	00008884 	andeq	r8, r0, r4, lsl #17
    8760:	00008884 	andeq	r8, r0, r4, lsl #17
    8764:	00008884 	andeq	r8, r0, r4, lsl #17
    8768:	00008884 	andeq	r8, r0, r4, lsl #17
    876c:	00008884 	andeq	r8, r0, r4, lsl #17
    8770:	00008884 	andeq	r8, r0, r4, lsl #17
    8774:	00008884 	andeq	r8, r0, r4, lsl #17
    8778:	00008884 	andeq	r8, r0, r4, lsl #17
    877c:	00008884 	andeq	r8, r0, r4, lsl #17
    8780:	0000880c 	andeq	r8, r0, ip, lsl #16
    8784:	00008884 	andeq	r8, r0, r4, lsl #17
    8788:	00008884 	andeq	r8, r0, r4, lsl #17
    878c:	00008854 	andeq	r8, r0, r4, asr r8
    8790:	00008884 	andeq	r8, r0, r4, lsl #17
    8794:	000087e8 	andeq	r8, r0, r8, ror #15
    8798:	00008884 	andeq	r8, r0, r4, lsl #17
    879c:	00008884 	andeq	r8, r0, r4, lsl #17
    87a0:	0000880c 	andeq	r8, r0, ip, lsl #16
    87a4:	ebffff04 	bl	83bc <rpi_reset_putc>
    87a8:	e59f0158 	ldr	r0, [pc, #344]	; 8908 <va_printk+0x280>
    87ac:	e59f114c 	ldr	r1, [pc, #332]	; 8900 <va_printk+0x278>
    87b0:	e59f214c 	ldr	r2, [pc, #332]	; 8904 <va_printk+0x27c>
    87b4:	e3a03098 	mov	r3, #152	; 0x98
    87b8:	ebfffee4 	bl	8350 <printk>
    87bc:	eb000053 	bl	8910 <clean_reboot>
    87c0:	e5993000 	ldr	r3, [r9]
    87c4:	e2899004 	add	r9, r9, #4
    87c8:	e58d7000 	str	r7, [sp]
    87cc:	e3a02001 	mov	r2, #1
    87d0:	e58d2004 	str	r2, [sp, #4]
    87d4:	e3a0000a 	mov	r0, #10
    87d8:	e28d1008 	add	r1, sp, #8
    87dc:	e3a02080 	mov	r2, #128	; 0x80
    87e0:	ebffff2c 	bl	8498 <emit>
    87e4:	ea00002f 	b	88a8 <va_printk+0x220>
    87e8:	e5993000 	ldr	r3, [r9]
    87ec:	e2899004 	add	r9, r9, #4
    87f0:	e58d7000 	str	r7, [sp]
    87f4:	e58db004 	str	fp, [sp, #4]
    87f8:	e3a0000a 	mov	r0, #10
    87fc:	e28d1008 	add	r1, sp, #8
    8800:	e3a02080 	mov	r2, #128	; 0x80
    8804:	ebffff23 	bl	8498 <emit>
    8808:	ea000026 	b	88a8 <va_printk+0x220>
    880c:	e5993000 	ldr	r3, [r9]
    8810:	e2899004 	add	r9, r9, #4
    8814:	e58d7000 	str	r7, [sp]
    8818:	e58db004 	str	fp, [sp, #4]
    881c:	e3a00010 	mov	r0, #16
    8820:	e28d1008 	add	r1, sp, #8
    8824:	e3a02080 	mov	r2, #128	; 0x80
    8828:	ebffff1a 	bl	8498 <emit>
    882c:	ea00001d 	b	88a8 <va_printk+0x220>
    8830:	e5993000 	ldr	r3, [r9]
    8834:	e2899004 	add	r9, r9, #4
    8838:	e58d7000 	str	r7, [sp]
    883c:	e58db004 	str	fp, [sp, #4]
    8840:	e3a00002 	mov	r0, #2
    8844:	e28d1008 	add	r1, sp, #8
    8848:	e3a02080 	mov	r2, #128	; 0x80
    884c:	ebffff11 	bl	8498 <emit>
    8850:	ea000014 	b	88a8 <va_printk+0x220>
    8854:	e5990000 	ldr	r0, [r9]
    8858:	e2899004 	add	r9, r9, #4
    885c:	ea000011 	b	88a8 <va_printk+0x220>
    8860:	e5993000 	ldr	r3, [r9]
    8864:	e2899004 	add	r9, r9, #4
    8868:	e58d7000 	str	r7, [sp]
    886c:	e58db004 	str	fp, [sp, #4]
    8870:	e3a00008 	mov	r0, #8
    8874:	e08d1000 	add	r1, sp, r0
    8878:	e3a02080 	mov	r2, #128	; 0x80
    887c:	ebffff05 	bl	8498 <emit>
    8880:	ea000008 	b	88a8 <va_printk+0x220>
    8884:	ebfffecc 	bl	83bc <rpi_reset_putc>
    8888:	e5d63000 	ldrb	r3, [r6]
    888c:	e58d3000 	str	r3, [sp]
    8890:	e59f0074 	ldr	r0, [pc, #116]	; 890c <va_printk+0x284>
    8894:	e59f1064 	ldr	r1, [pc, #100]	; 8900 <va_printk+0x278>
    8898:	e59f2064 	ldr	r2, [pc, #100]	; 8904 <va_printk+0x27c>
    889c:	e3a030b9 	mov	r3, #185	; 0xb9
    88a0:	ebfffeaa 	bl	8350 <printk>
    88a4:	eb000019 	bl	8910 <clean_reboot>
    88a8:	e2862001 	add	r2, r6, #1
    88ac:	ea000002 	b	88bc <va_printk+0x234>
    88b0:	e2800001 	add	r0, r0, #1
    88b4:	e5c43000 	strb	r3, [r4]
    88b8:	e2844001 	add	r4, r4, #1
    88bc:	e1540008 	cmp	r4, r8
    88c0:	2a000002 	bcs	88d0 <va_printk+0x248>
    88c4:	e5d03000 	ldrb	r3, [r0]
    88c8:	e3530000 	cmp	r3, #0
    88cc:	1afffff7 	bne	88b0 <va_printk+0x228>
    88d0:	e5d23000 	ldrb	r3, [r2]
    88d4:	e3530000 	cmp	r3, #0
    88d8:	0a000001 	beq	88e4 <va_printk+0x25c>
    88dc:	e1540008 	cmp	r4, r8
    88e0:	3affff73 	bcc	86b4 <va_printk+0x2c>
    88e4:	e2840001 	add	r0, r4, #1
    88e8:	e3a03000 	mov	r3, #0
    88ec:	e5c43000 	strb	r3, [r4]
    88f0:	e06a0000 	rsb	r0, sl, r0
    88f4:	e28dd08c 	add	sp, sp, #140	; 0x8c
    88f8:	e8bd8ff0 	pop	{r4, r5, r6, r7, r8, r9, sl, fp, pc}
    88fc:	00009c3c 	andeq	r9, r0, ip, lsr ip
    8900:	00009bec 	andeq	r9, r0, ip, ror #23
    8904:	00009bcc 	andeq	r9, r0, ip, asr #23
    8908:	00009c58 	andeq	r9, r0, r8, asr ip
    890c:	00009c80 	andeq	r9, r0, r0, lsl #25

00008910 <clean_reboot>:
    8910:	e92d4008 	push	{r3, lr}
    8914:	e59f3014 	ldr	r3, [pc, #20]	; 8930 <clean_reboot+0x20>
    8918:	e5933000 	ldr	r3, [r3]
    891c:	e59f0010 	ldr	r0, [pc, #16]	; 8934 <clean_reboot+0x24>
    8920:	e12fff33 	blx	r3
    8924:	e3a00064 	mov	r0, #100	; 0x64
    8928:	eb000063 	bl	8abc <delay_ms>
    892c:	eb000038 	bl	8a14 <rpi_reboot>
    8930:	00009878 	andeq	r9, r0, r8, ror r8
    8934:	00009cb8 			; <UNDEFINED> instruction: 0x00009cb8

00008938 <internal_sw_putchar>:
    8938:	e92d4010 	push	{r4, lr}
    893c:	e1a04000 	mov	r4, r0
    8940:	e59f000c 	ldr	r0, [pc, #12]	; 8954 <internal_sw_putchar+0x1c>
    8944:	e6ef1074 	uxtb	r1, r4
    8948:	eb000065 	bl	8ae4 <sw_uart_putc>
    894c:	e1a00004 	mov	r0, r4
    8950:	e8bd8010 	pop	{r4, pc}
    8954:	0000a244 	andeq	sl, r0, r4, asr #4

00008958 <_cstart>:
    8958:	e92d4008 	push	{r3, lr}
    895c:	e59f3068 	ldr	r3, [pc, #104]	; 89cc <_cstart+0x74>
    8960:	e59f2068 	ldr	r2, [pc, #104]	; 89d0 <_cstart+0x78>
    8964:	e3a01000 	mov	r1, #0
    8968:	ea000001 	b	8974 <_cstart+0x1c>
    896c:	e5831000 	str	r1, [r3]
    8970:	e2833004 	add	r3, r3, #4
    8974:	e1530002 	cmp	r3, r2
    8978:	3afffffb 	bcc	896c <_cstart+0x14>
    897c:	eb0003b2 	bl	984c <cb_get_block>
    8980:	e3500000 	cmp	r0, #0
    8984:	0a00000e 	beq	89c4 <_cstart+0x6c>
    8988:	e5d02004 	ldrb	r2, [r0, #4]
    898c:	e3520002 	cmp	r2, #2
    8990:	1a00000b 	bne	89c4 <_cstart+0x6c>
    8994:	e59f1038 	ldr	r1, [pc, #56]	; 89d4 <_cstart+0x7c>
    8998:	e59f2038 	ldr	r2, [pc, #56]	; 89d8 <_cstart+0x80>
    899c:	e5821000 	str	r1, [r2]
    89a0:	e59fc034 	ldr	ip, [pc, #52]	; 89dc <_cstart+0x84>
    89a4:	e2803008 	add	r3, r0, #8
    89a8:	e8930007 	ldm	r3, {r0, r1, r2}
    89ac:	e88c0007 	stm	ip, {r0, r1, r2}
    89b0:	e1a0000c 	mov	r0, ip
    89b4:	e59f1024 	ldr	r1, [pc, #36]	; 89e0 <_cstart+0x88>
    89b8:	eb00019d 	bl	9034 <sw_uart_printk>
    89bc:	e59f0020 	ldr	r0, [pc, #32]	; 89e4 <_cstart+0x8c>
    89c0:	ebfffe62 	bl	8350 <printk>
    89c4:	ebfffd91 	bl	8010 <notmain>
    89c8:	eb000011 	bl	8a14 <rpi_reboot>
    89cc:	00009e3c 	andeq	r9, r0, ip, lsr lr
    89d0:	0000a250 	andeq	sl, r0, r0, asr r2
    89d4:	00008938 	andeq	r8, r0, r8, lsr r9
    89d8:	00009874 	andeq	r9, r0, r4, ror r8
    89dc:	0000a244 	andeq	sl, r0, r4, asr #4
    89e0:	00009cc4 	andeq	r9, r0, r4, asr #25
    89e4:	00009ce8 	andeq	r9, r0, r8, ror #25

000089e8 <at_user_level>:
    89e8:	e10f0000 	mrs	r0, CPSR
    89ec:	e200001f 	and	r0, r0, #31
    89f0:	e3500010 	cmp	r0, #16
    89f4:	13a00000 	movne	r0, #0
    89f8:	03a00001 	moveq	r0, #1
    89fc:	e12fff1e 	bx	lr

00008a00 <set_user_level>:
    8a00:	e10f3000 	mrs	r3, CPSR
    8a04:	e3c3301f 	bic	r3, r3, #31
    8a08:	e3833010 	orr	r3, r3, #16
    8a0c:	e129f003 	msr	CPSR_fc, r3
    8a10:	e12fff1e 	bx	lr

00008a14 <rpi_reboot>:
    8a14:	e92d4008 	push	{r3, lr}
    8a18:	ebfffff2 	bl	89e8 <at_user_level>
    8a1c:	e3500000 	cmp	r0, #0
    8a20:	0a000000 	beq	8a28 <rpi_reboot+0x14>
    8a24:	ebfffff5 	bl	8a00 <set_user_level>
    8a28:	e3a0001e 	mov	r0, #30
    8a2c:	eb000022 	bl	8abc <delay_ms>
    8a30:	e59f0014 	ldr	r0, [pc, #20]	; 8a4c <rpi_reboot+0x38>
    8a34:	e59f1014 	ldr	r1, [pc, #20]	; 8a50 <rpi_reboot+0x3c>
    8a38:	eb00020e 	bl	9278 <PUT32>
    8a3c:	e59f0010 	ldr	r0, [pc, #16]	; 8a54 <rpi_reboot+0x40>
    8a40:	e59f1010 	ldr	r1, [pc, #16]	; 8a58 <rpi_reboot+0x44>
    8a44:	eb00020b 	bl	9278 <PUT32>
    8a48:	eafffffe 	b	8a48 <rpi_reboot+0x34>
    8a4c:	20100024 	andscs	r0, r0, r4, lsr #32
    8a50:	5a000001 	bpl	8a5c <delay_cycles>
    8a54:	2010001c 	andscs	r0, r0, ip, lsl r0
    8a58:	5a000020 	bpl	8ae0 <delay_sec+0x10>

00008a5c <delay_cycles>:
    8a5c:	ea000001 	b	8a68 <delay_cycles+0xc>
    8a60:	e2811000 	add	r1, r1, #0
    8a64:	e1a00003 	mov	r0, r3
    8a68:	e2403001 	sub	r3, r0, #1
    8a6c:	e3500000 	cmp	r0, #0
    8a70:	1afffffa 	bne	8a60 <delay_cycles+0x4>
    8a74:	e12fff1e 	bx	lr

00008a78 <timer_get_usec_raw>:
    8a78:	e92d4008 	push	{r3, lr}
    8a7c:	e59f0004 	ldr	r0, [pc, #4]	; 8a88 <timer_get_usec_raw+0x10>
    8a80:	eb000208 	bl	92a8 <GET32>
    8a84:	e8bd8008 	pop	{r3, pc}
    8a88:	20003004 	andcs	r3, r0, r4

00008a8c <timer_get_usec>:
    8a8c:	e92d4008 	push	{r3, lr}
    8a90:	ebfffff8 	bl	8a78 <timer_get_usec_raw>
    8a94:	e8bd8008 	pop	{r3, pc}

00008a98 <delay_us>:
    8a98:	e92d4038 	push	{r3, r4, r5, lr}
    8a9c:	e1a05000 	mov	r5, r0
    8aa0:	ebfffff9 	bl	8a8c <timer_get_usec>
    8aa4:	e1a04000 	mov	r4, r0
    8aa8:	ebfffff7 	bl	8a8c <timer_get_usec>
    8aac:	e0640000 	rsb	r0, r4, r0
    8ab0:	e1500005 	cmp	r0, r5
    8ab4:	3afffffb 	bcc	8aa8 <delay_us+0x10>
    8ab8:	e8bd8038 	pop	{r3, r4, r5, pc}

00008abc <delay_ms>:
    8abc:	e92d4008 	push	{r3, lr}
    8ac0:	e3a03ffa 	mov	r3, #1000	; 0x3e8
    8ac4:	e0000093 	mul	r0, r3, r0
    8ac8:	ebfffff2 	bl	8a98 <delay_us>
    8acc:	e8bd8008 	pop	{r3, pc}

00008ad0 <delay_sec>:
    8ad0:	e92d4008 	push	{r3, lr}
    8ad4:	e3a03ffa 	mov	r3, #1000	; 0x3e8
    8ad8:	e0000093 	mul	r0, r3, r0
    8adc:	ebfffff6 	bl	8abc <delay_ms>
    8ae0:	e8bd8008 	pop	{r3, pc}

00008ae4 <sw_uart_putc>:
    8ae4:	e92d41f0 	push	{r4, r5, r6, r7, r8, lr}
    8ae8:	e1a07001 	mov	r7, r1
    8aec:	e5d06000 	ldrb	r6, [r0]
    8af0:	e5905008 	ldr	r5, [r0, #8]
    8af4:	ee1f4f3c 	mrc	15, 0, r4, cr15, cr12, {1}
    8af8:	e1a00006 	mov	r0, r6
    8afc:	e3a01000 	mov	r1, #0
    8b00:	eb000284 	bl	9518 <gpio_write>
    8b04:	ee1f3f3c 	mrc	15, 0, r3, cr15, cr12, {1}
    8b08:	e0643003 	rsb	r3, r4, r3
    8b0c:	e1550003 	cmp	r5, r3
    8b10:	8afffffb 	bhi	8b04 <sw_uart_putc+0x20>
    8b14:	e1a08085 	lsl	r8, r5, #1
    8b18:	e1a00006 	mov	r0, r6
    8b1c:	e2071001 	and	r1, r7, #1
    8b20:	eb00027c 	bl	9518 <gpio_write>
    8b24:	ee1f3f3c 	mrc	15, 0, r3, cr15, cr12, {1}
    8b28:	e0643003 	rsb	r3, r4, r3
    8b2c:	e1580003 	cmp	r8, r3
    8b30:	8afffffb 	bhi	8b24 <sw_uart_putc+0x40>
    8b34:	e0888005 	add	r8, r8, r5
    8b38:	e1a00006 	mov	r0, r6
    8b3c:	e2071002 	and	r1, r7, #2
    8b40:	eb000274 	bl	9518 <gpio_write>
    8b44:	ee1f3f3c 	mrc	15, 0, r3, cr15, cr12, {1}
    8b48:	e0643003 	rsb	r3, r4, r3
    8b4c:	e1580003 	cmp	r8, r3
    8b50:	8afffffb 	bhi	8b44 <sw_uart_putc+0x60>
    8b54:	e0888005 	add	r8, r8, r5
    8b58:	e1a00006 	mov	r0, r6
    8b5c:	e2071004 	and	r1, r7, #4
    8b60:	eb00026c 	bl	9518 <gpio_write>
    8b64:	ee1f3f3c 	mrc	15, 0, r3, cr15, cr12, {1}
    8b68:	e0643003 	rsb	r3, r4, r3
    8b6c:	e1580003 	cmp	r8, r3
    8b70:	8afffffb 	bhi	8b64 <sw_uart_putc+0x80>
    8b74:	e0888005 	add	r8, r8, r5
    8b78:	e1a00006 	mov	r0, r6
    8b7c:	e2071008 	and	r1, r7, #8
    8b80:	eb000264 	bl	9518 <gpio_write>
    8b84:	ee1f3f3c 	mrc	15, 0, r3, cr15, cr12, {1}
    8b88:	e0643003 	rsb	r3, r4, r3
    8b8c:	e1580003 	cmp	r8, r3
    8b90:	8afffffb 	bhi	8b84 <sw_uart_putc+0xa0>
    8b94:	e0888005 	add	r8, r8, r5
    8b98:	e1a00006 	mov	r0, r6
    8b9c:	e2071010 	and	r1, r7, #16
    8ba0:	eb00025c 	bl	9518 <gpio_write>
    8ba4:	ee1f3f3c 	mrc	15, 0, r3, cr15, cr12, {1}
    8ba8:	e0643003 	rsb	r3, r4, r3
    8bac:	e1580003 	cmp	r8, r3
    8bb0:	8afffffb 	bhi	8ba4 <sw_uart_putc+0xc0>
    8bb4:	e0888005 	add	r8, r8, r5
    8bb8:	e1a00006 	mov	r0, r6
    8bbc:	e2071020 	and	r1, r7, #32
    8bc0:	eb000254 	bl	9518 <gpio_write>
    8bc4:	ee1f3f3c 	mrc	15, 0, r3, cr15, cr12, {1}
    8bc8:	e0643003 	rsb	r3, r4, r3
    8bcc:	e1580003 	cmp	r8, r3
    8bd0:	8afffffb 	bhi	8bc4 <sw_uart_putc+0xe0>
    8bd4:	e0888005 	add	r8, r8, r5
    8bd8:	e1a00006 	mov	r0, r6
    8bdc:	e2071040 	and	r1, r7, #64	; 0x40
    8be0:	eb00024c 	bl	9518 <gpio_write>
    8be4:	ee1f3f3c 	mrc	15, 0, r3, cr15, cr12, {1}
    8be8:	e0643003 	rsb	r3, r4, r3
    8bec:	e1580003 	cmp	r8, r3
    8bf0:	8afffffb 	bhi	8be4 <sw_uart_putc+0x100>
    8bf4:	e0888005 	add	r8, r8, r5
    8bf8:	e1a00006 	mov	r0, r6
    8bfc:	e2071080 	and	r1, r7, #128	; 0x80
    8c00:	eb000244 	bl	9518 <gpio_write>
    8c04:	ee1f3f3c 	mrc	15, 0, r3, cr15, cr12, {1}
    8c08:	e0643003 	rsb	r3, r4, r3
    8c0c:	e1580003 	cmp	r8, r3
    8c10:	8afffffb 	bhi	8c04 <sw_uart_putc+0x120>
    8c14:	e0885005 	add	r5, r8, r5
    8c18:	e1a00006 	mov	r0, r6
    8c1c:	e3a01001 	mov	r1, #1
    8c20:	eb00023c 	bl	9518 <gpio_write>
    8c24:	ee1f3f3c 	mrc	15, 0, r3, cr15, cr12, {1}
    8c28:	e0643003 	rsb	r3, r4, r3
    8c2c:	e1550003 	cmp	r5, r3
    8c30:	8afffffb 	bhi	8c24 <sw_uart_putc+0x140>
    8c34:	e8bd81f0 	pop	{r4, r5, r6, r7, r8, pc}

00008c38 <sw_uart_getc_timeout>:
    8c38:	e92d43f8 	push	{r3, r4, r5, r6, r7, r8, r9, lr}
    8c3c:	e1a09000 	mov	r9, r0
    8c40:	e5d07001 	ldrb	r7, [r0, #1]
    8c44:	e1a05007 	mov	r5, r7
    8c48:	e1a06001 	mov	r6, r1
    8c4c:	ebffff89 	bl	8a78 <timer_get_usec_raw>
    8c50:	e1a04000 	mov	r4, r0
    8c54:	e1a00005 	mov	r0, r5
    8c58:	eb00021b 	bl	94cc <gpio_read>
    8c5c:	e3500000 	cmp	r0, #0
    8c60:	0a000005 	beq	8c7c <sw_uart_getc_timeout+0x44>
    8c64:	ebffff83 	bl	8a78 <timer_get_usec_raw>
    8c68:	e0640000 	rsb	r0, r4, r0
    8c6c:	e1560000 	cmp	r6, r0
    8c70:	2afffff7 	bcs	8c54 <sw_uart_getc_timeout+0x1c>
    8c74:	e3a03000 	mov	r3, #0
    8c78:	ea000000 	b	8c80 <sw_uart_getc_timeout+0x48>
    8c7c:	e3a03001 	mov	r3, #1
    8c80:	e3530000 	cmp	r3, #0
    8c84:	0a000059 	beq	8df0 <sw_uart_getc_timeout+0x1b8>
    8c88:	ee1f8f3c 	mrc	15, 0, r8, cr15, cr12, {1}
    8c8c:	e5994008 	ldr	r4, [r9, #8]
    8c90:	e08420a4 	add	r2, r4, r4, lsr #1
    8c94:	ee1f3f3c 	mrc	15, 0, r3, cr15, cr12, {1}
    8c98:	e0683003 	rsb	r3, r8, r3
    8c9c:	e1520003 	cmp	r2, r3
    8ca0:	8afffffb 	bhi	8c94 <sw_uart_getc_timeout+0x5c>
    8ca4:	e0888004 	add	r8, r8, r4
    8ca8:	e1a00007 	mov	r0, r7
    8cac:	eb000206 	bl	94cc <gpio_read>
    8cb0:	e1a09750 	asr	r9, r0, r7
    8cb4:	ee1f3f3c 	mrc	15, 0, r3, cr15, cr12, {1}
    8cb8:	e0683003 	rsb	r3, r8, r3
    8cbc:	e1540003 	cmp	r4, r3
    8cc0:	8afffffb 	bhi	8cb4 <sw_uart_getc_timeout+0x7c>
    8cc4:	e0888004 	add	r8, r8, r4
    8cc8:	e1a00007 	mov	r0, r7
    8ccc:	eb0001fe 	bl	94cc <gpio_read>
    8cd0:	e1a00750 	asr	r0, r0, r7
    8cd4:	e1899080 	orr	r9, r9, r0, lsl #1
    8cd8:	ee1f3f3c 	mrc	15, 0, r3, cr15, cr12, {1}
    8cdc:	e0683003 	rsb	r3, r8, r3
    8ce0:	e1540003 	cmp	r4, r3
    8ce4:	8afffffb 	bhi	8cd8 <sw_uart_getc_timeout+0xa0>
    8ce8:	e0888004 	add	r8, r8, r4
    8cec:	e1a00007 	mov	r0, r7
    8cf0:	eb0001f5 	bl	94cc <gpio_read>
    8cf4:	e1a00750 	asr	r0, r0, r7
    8cf8:	e1899100 	orr	r9, r9, r0, lsl #2
    8cfc:	ee1f3f3c 	mrc	15, 0, r3, cr15, cr12, {1}
    8d00:	e0683003 	rsb	r3, r8, r3
    8d04:	e1540003 	cmp	r4, r3
    8d08:	8afffffb 	bhi	8cfc <sw_uart_getc_timeout+0xc4>
    8d0c:	e0888004 	add	r8, r8, r4
    8d10:	e1a00007 	mov	r0, r7
    8d14:	eb0001ec 	bl	94cc <gpio_read>
    8d18:	e1a00750 	asr	r0, r0, r7
    8d1c:	e1899180 	orr	r9, r9, r0, lsl #3
    8d20:	ee1f3f3c 	mrc	15, 0, r3, cr15, cr12, {1}
    8d24:	e0683003 	rsb	r3, r8, r3
    8d28:	e1540003 	cmp	r4, r3
    8d2c:	8afffffb 	bhi	8d20 <sw_uart_getc_timeout+0xe8>
    8d30:	e0888004 	add	r8, r8, r4
    8d34:	e1a00007 	mov	r0, r7
    8d38:	eb0001e3 	bl	94cc <gpio_read>
    8d3c:	e1a00750 	asr	r0, r0, r7
    8d40:	e1899200 	orr	r9, r9, r0, lsl #4
    8d44:	ee1f3f3c 	mrc	15, 0, r3, cr15, cr12, {1}
    8d48:	e0683003 	rsb	r3, r8, r3
    8d4c:	e1540003 	cmp	r4, r3
    8d50:	8afffffb 	bhi	8d44 <sw_uart_getc_timeout+0x10c>
    8d54:	e0888004 	add	r8, r8, r4
    8d58:	e1a00007 	mov	r0, r7
    8d5c:	eb0001da 	bl	94cc <gpio_read>
    8d60:	e1a00750 	asr	r0, r0, r7
    8d64:	e1899280 	orr	r9, r9, r0, lsl #5
    8d68:	ee1f3f3c 	mrc	15, 0, r3, cr15, cr12, {1}
    8d6c:	e0683003 	rsb	r3, r8, r3
    8d70:	e1540003 	cmp	r4, r3
    8d74:	8afffffb 	bhi	8d68 <sw_uart_getc_timeout+0x130>
    8d78:	e0888004 	add	r8, r8, r4
    8d7c:	e1a00007 	mov	r0, r7
    8d80:	eb0001d1 	bl	94cc <gpio_read>
    8d84:	e1a00750 	asr	r0, r0, r7
    8d88:	e1899300 	orr	r9, r9, r0, lsl #6
    8d8c:	ee1f3f3c 	mrc	15, 0, r3, cr15, cr12, {1}
    8d90:	e0683003 	rsb	r3, r8, r3
    8d94:	e1540003 	cmp	r4, r3
    8d98:	8afffffb 	bhi	8d8c <sw_uart_getc_timeout+0x154>
    8d9c:	e1a00007 	mov	r0, r7
    8da0:	eb0001c9 	bl	94cc <gpio_read>
    8da4:	e1a00750 	asr	r0, r0, r7
    8da8:	e1899380 	orr	r9, r9, r0, lsl #7
    8dac:	ebffff31 	bl	8a78 <timer_get_usec_raw>
    8db0:	e1a04000 	mov	r4, r0
    8db4:	e1a00005 	mov	r0, r5
    8db8:	eb0001c3 	bl	94cc <gpio_read>
    8dbc:	e3500000 	cmp	r0, #0
    8dc0:	0a000005 	beq	8ddc <sw_uart_getc_timeout+0x1a4>
    8dc4:	ebffff2b 	bl	8a78 <timer_get_usec_raw>
    8dc8:	e0640000 	rsb	r0, r4, r0
    8dcc:	e1560000 	cmp	r6, r0
    8dd0:	2afffff7 	bcs	8db4 <sw_uart_getc_timeout+0x17c>
    8dd4:	e3a03000 	mov	r3, #0
    8dd8:	ea000000 	b	8de0 <sw_uart_getc_timeout+0x1a8>
    8ddc:	e3a03001 	mov	r3, #1
    8de0:	e3530000 	cmp	r3, #0
    8de4:	0a000003 	beq	8df8 <sw_uart_getc_timeout+0x1c0>
    8de8:	e1a00009 	mov	r0, r9
    8dec:	e8bd83f8 	pop	{r3, r4, r5, r6, r7, r8, r9, pc}
    8df0:	e3e00000 	mvn	r0, #0
    8df4:	e8bd83f8 	pop	{r3, r4, r5, r6, r7, r8, r9, pc}
    8df8:	e3e00000 	mvn	r0, #0
    8dfc:	e8bd83f8 	pop	{r3, r4, r5, r6, r7, r8, r9, pc}

00008e00 <sw_uart_gets_until>:
    8e00:	e92d47f0 	push	{r4, r5, r6, r7, r8, r9, sl, lr}
    8e04:	e1a08000 	mov	r8, r0
    8e08:	e1a06001 	mov	r6, r1
    8e0c:	e1a09003 	mov	r9, r3
    8e10:	e59da020 	ldr	sl, [sp, #32]
    8e14:	e3520000 	cmp	r2, #0
    8e18:	1a000006 	bne	8e38 <sw_uart_gets_until+0x38>
    8e1c:	ebfffd66 	bl	83bc <rpi_reset_putc>
    8e20:	e59f005c 	ldr	r0, [pc, #92]	; 8e84 <sw_uart_gets_until+0x84>
    8e24:	e59f105c 	ldr	r1, [pc, #92]	; 8e88 <sw_uart_gets_until+0x88>
    8e28:	e59f205c 	ldr	r2, [pc, #92]	; 8e8c <sw_uart_gets_until+0x8c>
    8e2c:	e3a0306d 	mov	r3, #109	; 0x6d
    8e30:	ebfffd46 	bl	8350 <printk>
    8e34:	ebfffeb5 	bl	8910 <clean_reboot>
    8e38:	e3a04000 	mov	r4, #0
    8e3c:	e5c14000 	strb	r4, [r1]
    8e40:	e2427001 	sub	r7, r2, #1
    8e44:	ea000007 	b	8e68 <sw_uart_gets_until+0x68>
    8e48:	e1a00008 	mov	r0, r8
    8e4c:	e1a0100a 	mov	r1, sl
    8e50:	ebffff78 	bl	8c38 <sw_uart_getc_timeout>
    8e54:	e6ef0070 	uxtb	r0, r0
    8e58:	e1500009 	cmp	r0, r9
    8e5c:	0a000004 	beq	8e74 <sw_uart_gets_until+0x74>
    8e60:	e7c60005 	strb	r0, [r6, r5]
    8e64:	e2844001 	add	r4, r4, #1
    8e68:	e1a05004 	mov	r5, r4
    8e6c:	e1540007 	cmp	r4, r7
    8e70:	3afffff4 	bcc	8e48 <sw_uart_gets_until+0x48>
    8e74:	e3a03000 	mov	r3, #0
    8e78:	e7c63005 	strb	r3, [r6, r5]
    8e7c:	e1a00004 	mov	r0, r4
    8e80:	e8bd87f0 	pop	{r4, r5, r6, r7, r8, r9, sl, pc}
    8e84:	00009d6c 	andeq	r9, r0, ip, ror #26
    8e88:	00009d88 	andeq	r9, r0, r8, lsl #27
    8e8c:	00009cf4 	strdeq	r9, [r0], -r4

00008e90 <sw_uart_gets_timeout>:
    8e90:	e92d41f0 	push	{r4, r5, r6, r7, r8, lr}
    8e94:	e1a07000 	mov	r7, r0
    8e98:	e1a05001 	mov	r5, r1
    8e9c:	e1a08003 	mov	r8, r3
    8ea0:	e3520000 	cmp	r2, #0
    8ea4:	1a000006 	bne	8ec4 <sw_uart_gets_timeout+0x34>
    8ea8:	ebfffd43 	bl	83bc <rpi_reset_putc>
    8eac:	e59f004c 	ldr	r0, [pc, #76]	; 8f00 <sw_uart_gets_timeout+0x70>
    8eb0:	e59f104c 	ldr	r1, [pc, #76]	; 8f04 <sw_uart_gets_timeout+0x74>
    8eb4:	e59f204c 	ldr	r2, [pc, #76]	; 8f08 <sw_uart_gets_timeout+0x78>
    8eb8:	e3a03083 	mov	r3, #131	; 0x83
    8ebc:	ebfffd23 	bl	8350 <printk>
    8ec0:	ebfffe92 	bl	8910 <clean_reboot>
    8ec4:	e3a04000 	mov	r4, #0
    8ec8:	e5c14000 	strb	r4, [r1]
    8ecc:	e2426001 	sub	r6, r2, #1
    8ed0:	ea000004 	b	8ee8 <sw_uart_gets_timeout+0x58>
    8ed4:	e1a00007 	mov	r0, r7
    8ed8:	e1a01008 	mov	r1, r8
    8edc:	ebffff55 	bl	8c38 <sw_uart_getc_timeout>
    8ee0:	e7c50004 	strb	r0, [r5, r4]
    8ee4:	e2844001 	add	r4, r4, #1
    8ee8:	e1540006 	cmp	r4, r6
    8eec:	3afffff8 	bcc	8ed4 <sw_uart_gets_timeout+0x44>
    8ef0:	e3a03000 	mov	r3, #0
    8ef4:	e7c53004 	strb	r3, [r5, r4]
    8ef8:	e1a00004 	mov	r0, r4
    8efc:	e8bd81f0 	pop	{r4, r5, r6, r7, r8, pc}
    8f00:	00009d6c 	andeq	r9, r0, ip, ror #26
    8f04:	00009d88 	andeq	r9, r0, r8, lsl #27
    8f08:	00009d08 	andeq	r9, r0, r8, lsl #26

00008f0c <sw_uart_init_helper>:
    8f0c:	e92d41f0 	push	{r4, r5, r6, r7, r8, lr}
    8f10:	e1a04000 	mov	r4, r0
    8f14:	e1a06001 	mov	r6, r1
    8f18:	e1a08002 	mov	r8, r2
    8f1c:	e1a05003 	mov	r5, r3
    8f20:	e59d7018 	ldr	r7, [sp, #24]
    8f24:	e1a00001 	mov	r0, r1
    8f28:	eb0000e3 	bl	92bc <gpio_set_output>
    8f2c:	e1a00008 	mov	r0, r8
    8f30:	eb000132 	bl	9400 <gpio_set_input>
    8f34:	e3a03001 	mov	r3, #1
    8f38:	ee0f3f1c 	mcr	15, 0, r3, cr15, cr12, {0}
    8f3c:	e1a00006 	mov	r0, r6
    8f40:	e3a01001 	mov	r1, #1
    8f44:	eb000173 	bl	9518 <gpio_write>
    8f48:	e0020795 	mul	r2, r5, r7
    8f4c:	e59f3068 	ldr	r3, [pc, #104]	; 8fbc <sw_uart_init_helper+0xb0>
    8f50:	e0653003 	rsb	r3, r5, r3
    8f54:	e1530002 	cmp	r3, r2
    8f58:	8a000005 	bhi	8f74 <sw_uart_init_helper+0x68>
    8f5c:	e59f3058 	ldr	r3, [pc, #88]	; 8fbc <sw_uart_init_helper+0xb0>
    8f60:	e0853003 	add	r3, r5, r3
    8f64:	e1530002 	cmp	r3, r2
    8f68:	2a000003 	bcs	8f7c <sw_uart_init_helper+0x70>
    8f6c:	e3a03000 	mov	r3, #0
    8f70:	ea000002 	b	8f80 <sw_uart_init_helper+0x74>
    8f74:	e3a03000 	mov	r3, #0
    8f78:	ea000000 	b	8f80 <sw_uart_init_helper+0x74>
    8f7c:	e3a03001 	mov	r3, #1
    8f80:	e3530000 	cmp	r3, #0
    8f84:	1a000006 	bne	8fa4 <sw_uart_init_helper+0x98>
    8f88:	ebfffd0b 	bl	83bc <rpi_reset_putc>
    8f8c:	e59f002c 	ldr	r0, [pc, #44]	; 8fc0 <sw_uart_init_helper+0xb4>
    8f90:	e59f102c 	ldr	r1, [pc, #44]	; 8fc4 <sw_uart_init_helper+0xb8>
    8f94:	e59f202c 	ldr	r2, [pc, #44]	; 8fc8 <sw_uart_init_helper+0xbc>
    8f98:	e3a0309d 	mov	r3, #157	; 0x9d
    8f9c:	ebfffceb 	bl	8350 <printk>
    8fa0:	ebfffe5a 	bl	8910 <clean_reboot>
    8fa4:	e5c46000 	strb	r6, [r4]
    8fa8:	e5c48001 	strb	r8, [r4, #1]
    8fac:	e5845004 	str	r5, [r4, #4]
    8fb0:	e5847008 	str	r7, [r4, #8]
    8fb4:	e1a00004 	mov	r0, r4
    8fb8:	e8bd81f0 	pop	{r4, r5, r6, r7, r8, pc}
    8fbc:	29b92700 	ldmibcs	r9!, {r8, r9, sl, sp}
    8fc0:	00009d9c 	muleq	r0, ip, sp
    8fc4:	00009d88 	andeq	r9, r0, r8, lsl #27
    8fc8:	00009d20 	andeq	r9, r0, r0, lsr #26

00008fcc <sw_uart_getc>:
    8fcc:	e92d4008 	push	{r3, lr}
    8fd0:	e3e01000 	mvn	r1, #0
    8fd4:	ebffff17 	bl	8c38 <sw_uart_getc_timeout>
    8fd8:	e3500000 	cmp	r0, #0
    8fdc:	a8bd8008 	popge	{r3, pc}
    8fe0:	ebfffcf5 	bl	83bc <rpi_reset_putc>
    8fe4:	e59f0010 	ldr	r0, [pc, #16]	; 8ffc <sw_uart_getc+0x30>
    8fe8:	e59f1010 	ldr	r1, [pc, #16]	; 9000 <sw_uart_getc+0x34>
    8fec:	e59f2010 	ldr	r2, [pc, #16]	; 9004 <sw_uart_getc+0x38>
    8ff0:	e3a030ac 	mov	r3, #172	; 0xac
    8ff4:	ebfffcd5 	bl	8350 <printk>
    8ff8:	ebfffe44 	bl	8910 <clean_reboot>
    8ffc:	00009de0 	andeq	r9, r0, r0, ror #27
    9000:	00009d88 	andeq	r9, r0, r8, lsl #27
    9004:	00009d34 	andeq	r9, r0, r4, lsr sp

00009008 <sw_uart_putk>:
    9008:	e92d4038 	push	{r3, r4, r5, lr}
    900c:	e1a05000 	mov	r5, r0
    9010:	e1a04001 	mov	r4, r1
    9014:	ea000002 	b	9024 <sw_uart_putk+0x1c>
    9018:	e1a00005 	mov	r0, r5
    901c:	ebfffeb0 	bl	8ae4 <sw_uart_putc>
    9020:	e2844001 	add	r4, r4, #1
    9024:	e5d41000 	ldrb	r1, [r4]
    9028:	e3510000 	cmp	r1, #0
    902c:	1afffff9 	bne	9018 <sw_uart_putk+0x10>
    9030:	e8bd8038 	pop	{r3, r4, r5, pc}

00009034 <sw_uart_printk>:
    9034:	e92d000e 	push	{r1, r2, r3}
    9038:	e92d4030 	push	{r4, r5, lr}
    903c:	e24dde1d 	sub	sp, sp, #464	; 0x1d0
    9040:	e1a05000 	mov	r5, r0
    9044:	e28d3e1e 	add	r3, sp, #480	; 0x1e0
    9048:	e58d3000 	str	r3, [sp]
    904c:	e28d0004 	add	r0, sp, #4
    9050:	e3a01f73 	mov	r1, #460	; 0x1cc
    9054:	e59d21dc 	ldr	r2, [sp, #476]	; 0x1dc
    9058:	ebfffd8a 	bl	8688 <va_printk>
    905c:	e1a04000 	mov	r4, r0
    9060:	e59f3040 	ldr	r3, [pc, #64]	; 90a8 <sw_uart_printk+0x74>
    9064:	e1500003 	cmp	r0, r3
    9068:	9a000006 	bls	9088 <sw_uart_printk+0x54>
    906c:	ebfffcd2 	bl	83bc <rpi_reset_putc>
    9070:	e59f0034 	ldr	r0, [pc, #52]	; 90ac <sw_uart_printk+0x78>
    9074:	e59f1034 	ldr	r1, [pc, #52]	; 90b0 <sw_uart_printk+0x7c>
    9078:	e59f2034 	ldr	r2, [pc, #52]	; 90b4 <sw_uart_printk+0x80>
    907c:	e3a030c0 	mov	r3, #192	; 0xc0
    9080:	ebfffcb2 	bl	8350 <printk>
    9084:	ebfffe21 	bl	8910 <clean_reboot>
    9088:	e1a00005 	mov	r0, r5
    908c:	e28d1004 	add	r1, sp, #4
    9090:	ebffffdc 	bl	9008 <sw_uart_putk>
    9094:	e1a00004 	mov	r0, r4
    9098:	e28dde1d 	add	sp, sp, #464	; 0x1d0
    909c:	e8bd4030 	pop	{r4, r5, lr}
    90a0:	e28dd00c 	add	sp, sp, #12
    90a4:	e12fff1e 	bx	lr
    90a8:	000001ca 	andeq	r0, r0, sl, asr #3
    90ac:	00009e18 	andeq	r9, r0, r8, lsl lr
    90b0:	00009d88 	andeq	r9, r0, r8, lsl #27
    90b4:	00009d44 	andeq	r9, r0, r4, asr #26

000090b8 <sw_uart_gets_until_blk>:
    90b8:	e52de004 	push	{lr}		; (str lr, [sp, #-4]!)
    90bc:	e24dd00c 	sub	sp, sp, #12
    90c0:	e3e0c000 	mvn	ip, #0
    90c4:	e58dc000 	str	ip, [sp]
    90c8:	ebffff4c 	bl	8e00 <sw_uart_gets_until>
    90cc:	e3500000 	cmp	r0, #0
    90d0:	aa000006 	bge	90f0 <sw_uart_gets_until_blk+0x38>
    90d4:	ebfffcb8 	bl	83bc <rpi_reset_putc>
    90d8:	e59f0018 	ldr	r0, [pc, #24]	; 90f8 <sw_uart_gets_until_blk+0x40>
    90dc:	e59f1018 	ldr	r1, [pc, #24]	; 90fc <sw_uart_gets_until_blk+0x44>
    90e0:	e59f2018 	ldr	r2, [pc, #24]	; 9100 <sw_uart_gets_until_blk+0x48>
    90e4:	e3a030c8 	mov	r3, #200	; 0xc8
    90e8:	ebfffc98 	bl	8350 <printk>
    90ec:	ebfffe07 	bl	8910 <clean_reboot>
    90f0:	e28dd00c 	add	sp, sp, #12
    90f4:	e49df004 	pop	{pc}		; (ldr pc, [sp], #4)
    90f8:	00009de0 	andeq	r9, r0, r0, ror #27
    90fc:	00009d88 	andeq	r9, r0, r8, lsl #27
    9100:	00009d54 	andeq	r9, r0, r4, asr sp

00009104 <uart_init>:
    9104:	e92d4038 	push	{r3, r4, r5, lr}
    9108:	eb000052 	bl	9258 <dev_barrier>
    910c:	e3a0000e 	mov	r0, #14
    9110:	e3a01002 	mov	r1, #2
    9114:	eb000108 	bl	953c <gpio_set_function>
    9118:	e3a0000f 	mov	r0, #15
    911c:	e3a01002 	mov	r1, #2
    9120:	eb000105 	bl	953c <gpio_set_function>
    9124:	eb00004b 	bl	9258 <dev_barrier>
    9128:	e59f4068 	ldr	r4, [pc, #104]	; 9198 <uart_init+0x94>
    912c:	e5945000 	ldr	r5, [r4]
    9130:	e1a00005 	mov	r0, r5
    9134:	eb000059 	bl	92a0 <get32>
    9138:	e3801001 	orr	r1, r0, #1
    913c:	e1a00005 	mov	r0, r5
    9140:	eb00004a 	bl	9270 <put32>
    9144:	eb000043 	bl	9258 <dev_barrier>
    9148:	e5940004 	ldr	r0, [r4, #4]
    914c:	e3a01000 	mov	r1, #0
    9150:	eb000046 	bl	9270 <put32>
    9154:	e5940008 	ldr	r0, [r4, #8]
    9158:	e3a01000 	mov	r1, #0
    915c:	eb000043 	bl	9270 <put32>
    9160:	e594000c 	ldr	r0, [r4, #12]
    9164:	e3a01006 	mov	r1, #6
    9168:	eb000040 	bl	9270 <put32>
    916c:	e5940010 	ldr	r0, [r4, #16]
    9170:	e3a01003 	mov	r1, #3
    9174:	eb00003d 	bl	9270 <put32>
    9178:	e5940014 	ldr	r0, [r4, #20]
    917c:	e59f1018 	ldr	r1, [pc, #24]	; 919c <uart_init+0x98>
    9180:	eb00003a 	bl	9270 <put32>
    9184:	e5940004 	ldr	r0, [r4, #4]
    9188:	e3a01003 	mov	r1, #3
    918c:	eb000037 	bl	9270 <put32>
    9190:	eb000030 	bl	9258 <dev_barrier>
    9194:	e8bd8038 	pop	{r3, r4, r5, pc}
    9198:	0000987c 	andeq	r9, r0, ip, ror r8
    919c:	0000010e 	andeq	r0, r0, lr, lsl #2

000091a0 <uart_can_getc>:
    91a0:	e92d4008 	push	{r3, lr}
    91a4:	e59f300c 	ldr	r3, [pc, #12]	; 91b8 <uart_can_getc+0x18>
    91a8:	e5930018 	ldr	r0, [r3, #24]
    91ac:	eb00003b 	bl	92a0 <get32>
    91b0:	e2000001 	and	r0, r0, #1
    91b4:	e8bd8008 	pop	{r3, pc}
    91b8:	0000987c 	andeq	r9, r0, ip, ror r8

000091bc <uart_getc>:
    91bc:	e92d4008 	push	{r3, lr}
    91c0:	ebfffff6 	bl	91a0 <uart_can_getc>
    91c4:	e3500000 	cmp	r0, #0
    91c8:	0afffffc 	beq	91c0 <uart_getc+0x4>
    91cc:	e59f300c 	ldr	r3, [pc, #12]	; 91e0 <uart_getc+0x24>
    91d0:	e593001c 	ldr	r0, [r3, #28]
    91d4:	eb000031 	bl	92a0 <get32>
    91d8:	e6ef0070 	uxtb	r0, r0
    91dc:	e8bd8008 	pop	{r3, pc}
    91e0:	0000987c 	andeq	r9, r0, ip, ror r8

000091e4 <uart_can_putc>:
    91e4:	e92d4008 	push	{r3, lr}
    91e8:	e59f300c 	ldr	r3, [pc, #12]	; 91fc <uart_can_putc+0x18>
    91ec:	e5930018 	ldr	r0, [r3, #24]
    91f0:	eb00002a 	bl	92a0 <get32>
    91f4:	e2000020 	and	r0, r0, #32
    91f8:	e8bd8008 	pop	{r3, pc}
    91fc:	0000987c 	andeq	r9, r0, ip, ror r8

00009200 <uart_putc>:
    9200:	e92d4010 	push	{r4, lr}
    9204:	e1a04000 	mov	r4, r0
    9208:	ebfffff5 	bl	91e4 <uart_can_putc>
    920c:	e3500000 	cmp	r0, #0
    9210:	0afffffc 	beq	9208 <uart_putc+0x8>
    9214:	e59f300c 	ldr	r3, [pc, #12]	; 9228 <uart_putc+0x28>
    9218:	e593001c 	ldr	r0, [r3, #28]
    921c:	e1a01004 	mov	r1, r4
    9220:	eb000012 	bl	9270 <put32>
    9224:	e8bd8010 	pop	{r4, pc}
    9228:	0000987c 	andeq	r9, r0, ip, ror r8

0000922c <uart_has_data>:
    922c:	e92d4008 	push	{r3, lr}
    9230:	ebffffda 	bl	91a0 <uart_can_getc>
    9234:	e8bd8008 	pop	{r3, pc}

00009238 <uart_getc_async>:
    9238:	e92d4008 	push	{r3, lr}
    923c:	ebfffffa 	bl	922c <uart_has_data>
    9240:	e3500000 	cmp	r0, #0
    9244:	0a000001 	beq	9250 <uart_getc_async+0x18>
    9248:	ebffffdb 	bl	91bc <uart_getc>
    924c:	e8bd8008 	pop	{r3, pc}
    9250:	e3e00000 	mvn	r0, #0
    9254:	e8bd8008 	pop	{r3, pc}

00009258 <dev_barrier>:
    9258:	ea000002 	b	9268 <dsb>

0000925c <dmb>:
    925c:	e3a00000 	mov	r0, #0
    9260:	ee070fba 	mcr	15, 0, r0, cr7, cr10, {5}
    9264:	e12fff1e 	bx	lr

00009268 <dsb>:
    9268:	ee070f9a 	mcr	15, 0, r0, cr7, cr10, {4}
    926c:	e12fff1e 	bx	lr

00009270 <put32>:
    9270:	e5801000 	str	r1, [r0]
    9274:	e12fff1e 	bx	lr

00009278 <PUT32>:
    9278:	e5801000 	str	r1, [r0]
    927c:	e12fff1e 	bx	lr

00009280 <put16>:
    9280:	e1c010b0 	strh	r1, [r0]
    9284:	e12fff1e 	bx	lr

00009288 <PUT16>:
    9288:	e1c010b0 	strh	r1, [r0]
    928c:	e12fff1e 	bx	lr

00009290 <put8>:
    9290:	e5c01000 	strb	r1, [r0]
    9294:	e12fff1e 	bx	lr

00009298 <PUT8>:
    9298:	e5c01000 	strb	r1, [r0]
    929c:	e12fff1e 	bx	lr

000092a0 <get32>:
    92a0:	e5900000 	ldr	r0, [r0]
    92a4:	e12fff1e 	bx	lr

000092a8 <GET32>:
    92a8:	e5900000 	ldr	r0, [r0]
    92ac:	e12fff1e 	bx	lr

000092b0 <GETPC>:
    92b0:	e1a0000e 	mov	r0, lr
    92b4:	e12fff1e 	bx	lr

000092b8 <dummy>:
    92b8:	e12fff1e 	bx	lr

000092bc <gpio_set_output>:
    92bc:	e92d4038 	push	{r3, r4, r5, lr}
    92c0:	e1a04000 	mov	r4, r0
    92c4:	e350001f 	cmp	r0, #31
    92c8:	88bd8038 	pophi	{r3, r4, r5, pc}
    92cc:	e59f30b4 	ldr	r3, [pc, #180]	; 9388 <gpio_set_output+0xcc>
    92d0:	e0832093 	umull	r2, r3, r3, r0
    92d4:	e1a031a3 	lsr	r3, r3, #3
    92d8:	e3530005 	cmp	r3, #5
    92dc:	979ff103 	ldrls	pc, [pc, r3, lsl #2]
    92e0:	ea000017 	b	9344 <gpio_set_output+0x88>
    92e4:	000092fc 	strdeq	r9, [r0], -ip
    92e8:	00009308 	andeq	r9, r0, r8, lsl #6
    92ec:	00009314 	andeq	r9, r0, r4, lsl r3
    92f0:	00009320 	andeq	r9, r0, r0, lsr #6
    92f4:	0000932c 	andeq	r9, r0, ip, lsr #6
    92f8:	00009338 	andeq	r9, r0, r8, lsr r3
    92fc:	e59f3088 	ldr	r3, [pc, #136]	; 938c <gpio_set_output+0xd0>
    9300:	e5935000 	ldr	r5, [r3]
    9304:	ea00000f 	b	9348 <gpio_set_output+0x8c>
    9308:	e59f307c 	ldr	r3, [pc, #124]	; 938c <gpio_set_output+0xd0>
    930c:	e5935004 	ldr	r5, [r3, #4]
    9310:	ea00000c 	b	9348 <gpio_set_output+0x8c>
    9314:	e59f3070 	ldr	r3, [pc, #112]	; 938c <gpio_set_output+0xd0>
    9318:	e5935008 	ldr	r5, [r3, #8]
    931c:	ea000009 	b	9348 <gpio_set_output+0x8c>
    9320:	e59f3064 	ldr	r3, [pc, #100]	; 938c <gpio_set_output+0xd0>
    9324:	e593500c 	ldr	r5, [r3, #12]
    9328:	ea000006 	b	9348 <gpio_set_output+0x8c>
    932c:	e59f3058 	ldr	r3, [pc, #88]	; 938c <gpio_set_output+0xd0>
    9330:	e5935010 	ldr	r5, [r3, #16]
    9334:	ea000003 	b	9348 <gpio_set_output+0x8c>
    9338:	e59f304c 	ldr	r3, [pc, #76]	; 938c <gpio_set_output+0xd0>
    933c:	e5935014 	ldr	r5, [r3, #20]
    9340:	ea000000 	b	9348 <gpio_set_output+0x8c>
    9344:	e3a05000 	mov	r5, #0
    9348:	e1a00005 	mov	r0, r5
    934c:	ebffffd3 	bl	92a0 <get32>
    9350:	e59f1030 	ldr	r1, [pc, #48]	; 9388 <gpio_set_output+0xcc>
    9354:	e0813491 	umull	r3, r1, r1, r4
    9358:	e1a011a1 	lsr	r1, r1, #3
    935c:	e0811101 	add	r1, r1, r1, lsl #2
    9360:	e1a01081 	lsl	r1, r1, #1
    9364:	e0611004 	rsb	r1, r1, r4
    9368:	e0811081 	add	r1, r1, r1, lsl #1
    936c:	e3a03007 	mov	r3, #7
    9370:	e1c03113 	bic	r3, r0, r3, lsl r1
    9374:	e1a00005 	mov	r0, r5
    9378:	e3a02001 	mov	r2, #1
    937c:	e1831112 	orr	r1, r3, r2, lsl r1
    9380:	ebffffba 	bl	9270 <put32>
    9384:	e8bd8038 	pop	{r3, r4, r5, pc}
    9388:	cccccccd 	stclgt	12, cr12, [ip], {205}	; 0xcd
    938c:	000098b0 			; <UNDEFINED> instruction: 0x000098b0

00009390 <gpio_set_on>:
    9390:	e92d4008 	push	{r3, lr}
    9394:	e350001f 	cmp	r0, #31
    9398:	88bd8008 	pophi	{r3, pc}
    939c:	959f3020 	ldrls	r3, [pc, #32]	; 93c4 <gpio_set_on+0x34>
    93a0:	95932018 	ldrls	r2, [r3, #24]
    93a4:	859f3018 	ldrhi	r3, [pc, #24]	; 93c4 <gpio_set_on+0x34>
    93a8:	8593201c 	ldrhi	r2, [r3, #28]
    93ac:	e200301f 	and	r3, r0, #31
    93b0:	e1a00002 	mov	r0, r2
    93b4:	e3a01001 	mov	r1, #1
    93b8:	e1a01311 	lsl	r1, r1, r3
    93bc:	ebffffab 	bl	9270 <put32>
    93c0:	e8bd8008 	pop	{r3, pc}
    93c4:	000098b0 			; <UNDEFINED> instruction: 0x000098b0

000093c8 <gpio_set_off>:
    93c8:	e92d4008 	push	{r3, lr}
    93cc:	e350001f 	cmp	r0, #31
    93d0:	88bd8008 	pophi	{r3, pc}
    93d4:	959f3020 	ldrls	r3, [pc, #32]	; 93fc <gpio_set_off+0x34>
    93d8:	95932020 	ldrls	r2, [r3, #32]
    93dc:	859f3018 	ldrhi	r3, [pc, #24]	; 93fc <gpio_set_off+0x34>
    93e0:	85932024 	ldrhi	r2, [r3, #36]	; 0x24
    93e4:	e200301f 	and	r3, r0, #31
    93e8:	e1a00002 	mov	r0, r2
    93ec:	e3a01001 	mov	r1, #1
    93f0:	e1a01311 	lsl	r1, r1, r3
    93f4:	ebffff9d 	bl	9270 <put32>
    93f8:	e8bd8008 	pop	{r3, pc}
    93fc:	000098b0 			; <UNDEFINED> instruction: 0x000098b0

00009400 <gpio_set_input>:
    9400:	e92d4038 	push	{r3, r4, r5, lr}
    9404:	e1a04000 	mov	r4, r0
    9408:	e350001f 	cmp	r0, #31
    940c:	88bd8038 	pophi	{r3, r4, r5, pc}
    9410:	e59f30ac 	ldr	r3, [pc, #172]	; 94c4 <gpio_set_input+0xc4>
    9414:	e0832093 	umull	r2, r3, r3, r0
    9418:	e1a031a3 	lsr	r3, r3, #3
    941c:	e3530005 	cmp	r3, #5
    9420:	979ff103 	ldrls	pc, [pc, r3, lsl #2]
    9424:	ea000017 	b	9488 <gpio_set_input+0x88>
    9428:	00009440 	andeq	r9, r0, r0, asr #8
    942c:	0000944c 	andeq	r9, r0, ip, asr #8
    9430:	00009458 	andeq	r9, r0, r8, asr r4
    9434:	00009464 	andeq	r9, r0, r4, ror #8
    9438:	00009470 	andeq	r9, r0, r0, ror r4
    943c:	0000947c 	andeq	r9, r0, ip, ror r4
    9440:	e59f3080 	ldr	r3, [pc, #128]	; 94c8 <gpio_set_input+0xc8>
    9444:	e5935000 	ldr	r5, [r3]
    9448:	ea00000f 	b	948c <gpio_set_input+0x8c>
    944c:	e59f3074 	ldr	r3, [pc, #116]	; 94c8 <gpio_set_input+0xc8>
    9450:	e5935004 	ldr	r5, [r3, #4]
    9454:	ea00000c 	b	948c <gpio_set_input+0x8c>
    9458:	e59f3068 	ldr	r3, [pc, #104]	; 94c8 <gpio_set_input+0xc8>
    945c:	e5935008 	ldr	r5, [r3, #8]
    9460:	ea000009 	b	948c <gpio_set_input+0x8c>
    9464:	e59f305c 	ldr	r3, [pc, #92]	; 94c8 <gpio_set_input+0xc8>
    9468:	e593500c 	ldr	r5, [r3, #12]
    946c:	ea000006 	b	948c <gpio_set_input+0x8c>
    9470:	e59f3050 	ldr	r3, [pc, #80]	; 94c8 <gpio_set_input+0xc8>
    9474:	e5935010 	ldr	r5, [r3, #16]
    9478:	ea000003 	b	948c <gpio_set_input+0x8c>
    947c:	e59f3044 	ldr	r3, [pc, #68]	; 94c8 <gpio_set_input+0xc8>
    9480:	e5935014 	ldr	r5, [r3, #20]
    9484:	ea000000 	b	948c <gpio_set_input+0x8c>
    9488:	e3a05000 	mov	r5, #0
    948c:	e1a00005 	mov	r0, r5
    9490:	ebffff82 	bl	92a0 <get32>
    9494:	e59f1028 	ldr	r1, [pc, #40]	; 94c4 <gpio_set_input+0xc4>
    9498:	e0813491 	umull	r3, r1, r1, r4
    949c:	e1a011a1 	lsr	r1, r1, #3
    94a0:	e0811101 	add	r1, r1, r1, lsl #2
    94a4:	e1a01081 	lsl	r1, r1, #1
    94a8:	e0611004 	rsb	r1, r1, r4
    94ac:	e0811081 	add	r1, r1, r1, lsl #1
    94b0:	e3a03007 	mov	r3, #7
    94b4:	e1c01113 	bic	r1, r0, r3, lsl r1
    94b8:	e1a00005 	mov	r0, r5
    94bc:	ebffff6b 	bl	9270 <put32>
    94c0:	e8bd8038 	pop	{r3, r4, r5, pc}
    94c4:	cccccccd 	stclgt	12, cr12, [ip], {205}	; 0xcd
    94c8:	000098b0 			; <UNDEFINED> instruction: 0x000098b0

000094cc <gpio_read>:
    94cc:	e92d4010 	push	{r4, lr}
    94d0:	e1a04000 	mov	r4, r0
    94d4:	e350001f 	cmp	r0, #31
    94d8:	8a00000b 	bhi	950c <gpio_read+0x40>
    94dc:	8a000003 	bhi	94f0 <gpio_read+0x24>
    94e0:	e59f302c 	ldr	r3, [pc, #44]	; 9514 <gpio_read+0x48>
    94e4:	e5930028 	ldr	r0, [r3, #40]	; 0x28
    94e8:	ebffff6c 	bl	92a0 <get32>
    94ec:	ea000002 	b	94fc <gpio_read+0x30>
    94f0:	e59f301c 	ldr	r3, [pc, #28]	; 9514 <gpio_read+0x48>
    94f4:	e593002c 	ldr	r0, [r3, #44]	; 0x2c
    94f8:	ebffff68 	bl	92a0 <get32>
    94fc:	e204401f 	and	r4, r4, #31
    9500:	e3a03001 	mov	r3, #1
    9504:	e0000413 	and	r0, r0, r3, lsl r4
    9508:	e8bd8010 	pop	{r4, pc}
    950c:	e3e00000 	mvn	r0, #0
    9510:	e8bd8010 	pop	{r4, pc}
    9514:	000098b0 			; <UNDEFINED> instruction: 0x000098b0

00009518 <gpio_write>:
    9518:	e92d4008 	push	{r3, lr}
    951c:	e350001f 	cmp	r0, #31
    9520:	88bd8008 	pophi	{r3, pc}
    9524:	e3510000 	cmp	r1, #0
    9528:	0a000001 	beq	9534 <gpio_write+0x1c>
    952c:	ebffff97 	bl	9390 <gpio_set_on>
    9530:	e8bd8008 	pop	{r3, pc}
    9534:	ebffffa3 	bl	93c8 <gpio_set_off>
    9538:	e8bd8008 	pop	{r3, pc}

0000953c <gpio_set_function>:
    953c:	e92d4070 	push	{r4, r5, r6, lr}
    9540:	e1a04000 	mov	r4, r0
    9544:	e1a05001 	mov	r5, r1
    9548:	e3510007 	cmp	r1, #7
    954c:	9350001f 	cmpls	r0, #31
    9550:	88bd8070 	pophi	{r4, r5, r6, pc}
    9554:	e59f30b0 	ldr	r3, [pc, #176]	; 960c <gpio_set_function+0xd0>
    9558:	e0832093 	umull	r2, r3, r3, r0
    955c:	e1a031a3 	lsr	r3, r3, #3
    9560:	e3530005 	cmp	r3, #5
    9564:	979ff103 	ldrls	pc, [pc, r3, lsl #2]
    9568:	ea000017 	b	95cc <gpio_set_function+0x90>
    956c:	00009584 	andeq	r9, r0, r4, lsl #11
    9570:	00009590 	muleq	r0, r0, r5
    9574:	0000959c 	muleq	r0, ip, r5
    9578:	000095a8 	andeq	r9, r0, r8, lsr #11
    957c:	000095b4 			; <UNDEFINED> instruction: 0x000095b4
    9580:	000095c0 	andeq	r9, r0, r0, asr #11
    9584:	e59f3084 	ldr	r3, [pc, #132]	; 9610 <gpio_set_function+0xd4>
    9588:	e5936000 	ldr	r6, [r3]
    958c:	ea00000f 	b	95d0 <gpio_set_function+0x94>
    9590:	e59f3078 	ldr	r3, [pc, #120]	; 9610 <gpio_set_function+0xd4>
    9594:	e5936004 	ldr	r6, [r3, #4]
    9598:	ea00000c 	b	95d0 <gpio_set_function+0x94>
    959c:	e59f306c 	ldr	r3, [pc, #108]	; 9610 <gpio_set_function+0xd4>
    95a0:	e5936008 	ldr	r6, [r3, #8]
    95a4:	ea000009 	b	95d0 <gpio_set_function+0x94>
    95a8:	e59f3060 	ldr	r3, [pc, #96]	; 9610 <gpio_set_function+0xd4>
    95ac:	e593600c 	ldr	r6, [r3, #12]
    95b0:	ea000006 	b	95d0 <gpio_set_function+0x94>
    95b4:	e59f3054 	ldr	r3, [pc, #84]	; 9610 <gpio_set_function+0xd4>
    95b8:	e5936010 	ldr	r6, [r3, #16]
    95bc:	ea000003 	b	95d0 <gpio_set_function+0x94>
    95c0:	e59f3048 	ldr	r3, [pc, #72]	; 9610 <gpio_set_function+0xd4>
    95c4:	e5936014 	ldr	r6, [r3, #20]
    95c8:	ea000000 	b	95d0 <gpio_set_function+0x94>
    95cc:	e3a06000 	mov	r6, #0
    95d0:	e1a00006 	mov	r0, r6
    95d4:	ebffff31 	bl	92a0 <get32>
    95d8:	e59f302c 	ldr	r3, [pc, #44]	; 960c <gpio_set_function+0xd0>
    95dc:	e0832493 	umull	r2, r3, r3, r4
    95e0:	e1a031a3 	lsr	r3, r3, #3
    95e4:	e0833103 	add	r3, r3, r3, lsl #2
    95e8:	e1a03083 	lsl	r3, r3, #1
    95ec:	e0633004 	rsb	r3, r3, r4
    95f0:	e0833083 	add	r3, r3, r3, lsl #1
    95f4:	e3a01007 	mov	r1, #7
    95f8:	e1c01311 	bic	r1, r0, r1, lsl r3
    95fc:	e1a00006 	mov	r0, r6
    9600:	e1811315 	orr	r1, r1, r5, lsl r3
    9604:	ebffff19 	bl	9270 <put32>
    9608:	e8bd8070 	pop	{r4, r5, r6, pc}
    960c:	cccccccd 	stclgt	12, cr12, [ip], {205}	; 0xcd
    9610:	000098b0 			; <UNDEFINED> instruction: 0x000098b0

00009614 <is_gpio_int>:
    9614:	e92d4008 	push	{r3, lr}
    9618:	e59f301c 	ldr	r3, [pc, #28]	; 963c <is_gpio_int+0x28>
    961c:	e5930030 	ldr	r0, [r3, #48]	; 0x30
    9620:	ebffff1e 	bl	92a0 <get32>
    9624:	e3500000 	cmp	r0, #0
    9628:	0a000001 	beq	9634 <is_gpio_int+0x20>
    962c:	e3a00001 	mov	r0, #1
    9630:	e8bd8008 	pop	{r3, pc}
    9634:	e3a00000 	mov	r0, #0
    9638:	e8bd8008 	pop	{r3, pc}
    963c:	000098b0 			; <UNDEFINED> instruction: 0x000098b0

00009640 <gpio_int_rising_edge>:
    9640:	e92d4038 	push	{r3, r4, r5, lr}
    9644:	e1a04000 	mov	r4, r0
    9648:	e350001f 	cmp	r0, #31
    964c:	88bd8038 	pophi	{r3, r4, r5, pc}
    9650:	ebffff00 	bl	9258 <dev_barrier>
    9654:	e354001f 	cmp	r4, #31
    9658:	8a000007 	bhi	967c <gpio_int_rising_edge+0x3c>
    965c:	e59f505c 	ldr	r5, [pc, #92]	; 96c0 <gpio_int_rising_edge+0x80>
    9660:	e5950034 	ldr	r0, [r5, #52]	; 0x34
    9664:	ebffff0d 	bl	92a0 <get32>
    9668:	e3a01001 	mov	r1, #1
    966c:	e1801411 	orr	r1, r0, r1, lsl r4
    9670:	e5950034 	ldr	r0, [r5, #52]	; 0x34
    9674:	ebfffefd 	bl	9270 <put32>
    9678:	ea000007 	b	969c <gpio_int_rising_edge+0x5c>
    967c:	e59f503c 	ldr	r5, [pc, #60]	; 96c0 <gpio_int_rising_edge+0x80>
    9680:	e5950038 	ldr	r0, [r5, #56]	; 0x38
    9684:	ebffff05 	bl	92a0 <get32>
    9688:	e204401f 	and	r4, r4, #31
    968c:	e3a01001 	mov	r1, #1
    9690:	e1801411 	orr	r1, r0, r1, lsl r4
    9694:	e5950038 	ldr	r0, [r5, #56]	; 0x38
    9698:	ebfffef4 	bl	9270 <put32>
    969c:	ebfffeed 	bl	9258 <dev_barrier>
    96a0:	e59f4018 	ldr	r4, [pc, #24]	; 96c0 <gpio_int_rising_edge+0x80>
    96a4:	e594003c 	ldr	r0, [r4, #60]	; 0x3c
    96a8:	ebfffefc 	bl	92a0 <get32>
    96ac:	e3801802 	orr	r1, r0, #131072	; 0x20000
    96b0:	e594003c 	ldr	r0, [r4, #60]	; 0x3c
    96b4:	ebfffeed 	bl	9270 <put32>
    96b8:	ebfffee6 	bl	9258 <dev_barrier>
    96bc:	e8bd8038 	pop	{r3, r4, r5, pc}
    96c0:	000098b0 			; <UNDEFINED> instruction: 0x000098b0

000096c4 <gpio_int_falling_edge>:
    96c4:	e92d4038 	push	{r3, r4, r5, lr}
    96c8:	e1a04000 	mov	r4, r0
    96cc:	e350001f 	cmp	r0, #31
    96d0:	88bd8038 	pophi	{r3, r4, r5, pc}
    96d4:	ebfffedf 	bl	9258 <dev_barrier>
    96d8:	e354001f 	cmp	r4, #31
    96dc:	8a000007 	bhi	9700 <gpio_int_falling_edge+0x3c>
    96e0:	e59f505c 	ldr	r5, [pc, #92]	; 9744 <gpio_int_falling_edge+0x80>
    96e4:	e5950040 	ldr	r0, [r5, #64]	; 0x40
    96e8:	ebfffeec 	bl	92a0 <get32>
    96ec:	e3a01001 	mov	r1, #1
    96f0:	e1801411 	orr	r1, r0, r1, lsl r4
    96f4:	e5950040 	ldr	r0, [r5, #64]	; 0x40
    96f8:	ebfffedc 	bl	9270 <put32>
    96fc:	ea000007 	b	9720 <gpio_int_falling_edge+0x5c>
    9700:	e59f503c 	ldr	r5, [pc, #60]	; 9744 <gpio_int_falling_edge+0x80>
    9704:	e5950044 	ldr	r0, [r5, #68]	; 0x44
    9708:	ebfffee4 	bl	92a0 <get32>
    970c:	e204401f 	and	r4, r4, #31
    9710:	e3a01001 	mov	r1, #1
    9714:	e1801411 	orr	r1, r0, r1, lsl r4
    9718:	e5950044 	ldr	r0, [r5, #68]	; 0x44
    971c:	ebfffed3 	bl	9270 <put32>
    9720:	ebfffecc 	bl	9258 <dev_barrier>
    9724:	e59f4018 	ldr	r4, [pc, #24]	; 9744 <gpio_int_falling_edge+0x80>
    9728:	e594003c 	ldr	r0, [r4, #60]	; 0x3c
    972c:	ebfffedb 	bl	92a0 <get32>
    9730:	e3801601 	orr	r1, r0, #1048576	; 0x100000
    9734:	e594003c 	ldr	r0, [r4, #60]	; 0x3c
    9738:	ebfffecc 	bl	9270 <put32>
    973c:	ebfffec5 	bl	9258 <dev_barrier>
    9740:	e8bd8038 	pop	{r3, r4, r5, pc}
    9744:	000098b0 			; <UNDEFINED> instruction: 0x000098b0

00009748 <gpio_event_detected>:
    9748:	e92d4010 	push	{r4, lr}
    974c:	e1a04000 	mov	r4, r0
    9750:	e350001f 	cmp	r0, #31
    9754:	8a000019 	bhi	97c0 <gpio_event_detected+0x78>
    9758:	ebfffebe 	bl	9258 <dev_barrier>
    975c:	e354001f 	cmp	r4, #31
    9760:	8a000008 	bhi	9788 <gpio_event_detected+0x40>
    9764:	e59f305c 	ldr	r3, [pc, #92]	; 97c8 <gpio_event_detected+0x80>
    9768:	e5930048 	ldr	r0, [r3, #72]	; 0x48
    976c:	ebfffecb 	bl	92a0 <get32>
    9770:	e3a03001 	mov	r3, #1
    9774:	e0103413 	ands	r3, r0, r3, lsl r4
    9778:	0a00000d 	beq	97b4 <gpio_event_detected+0x6c>
    977c:	ebfffeb5 	bl	9258 <dev_barrier>
    9780:	e3a00001 	mov	r0, #1
    9784:	e8bd8010 	pop	{r4, pc}
    9788:	e59f3038 	ldr	r3, [pc, #56]	; 97c8 <gpio_event_detected+0x80>
    978c:	e593004c 	ldr	r0, [r3, #76]	; 0x4c
    9790:	ebfffec2 	bl	92a0 <get32>
    9794:	e3a03001 	mov	r3, #1
    9798:	e0004413 	and	r4, r0, r3, lsl r4
    979c:	ebfffead 	bl	9258 <dev_barrier>
    97a0:	e3540000 	cmp	r4, #0
    97a4:	0a000002 	beq	97b4 <gpio_event_detected+0x6c>
    97a8:	ebfffeaa 	bl	9258 <dev_barrier>
    97ac:	e3a00001 	mov	r0, #1
    97b0:	e8bd8010 	pop	{r4, pc}
    97b4:	ebfffea7 	bl	9258 <dev_barrier>
    97b8:	e3a00000 	mov	r0, #0
    97bc:	e8bd8010 	pop	{r4, pc}
    97c0:	e3e00000 	mvn	r0, #0
    97c4:	e8bd8010 	pop	{r4, pc}
    97c8:	000098b0 			; <UNDEFINED> instruction: 0x000098b0

000097cc <gpio_event_clear>:
    97cc:	e92d4010 	push	{r4, lr}
    97d0:	e1a04000 	mov	r4, r0
    97d4:	e350001f 	cmp	r0, #31
    97d8:	88bd8010 	pophi	{r4, pc}
    97dc:	ebfffe9d 	bl	9258 <dev_barrier>
    97e0:	e354001f 	cmp	r4, #31
    97e4:	8a000005 	bhi	9800 <gpio_event_clear+0x34>
    97e8:	e59f3030 	ldr	r3, [pc, #48]	; 9820 <gpio_event_clear+0x54>
    97ec:	e5930048 	ldr	r0, [r3, #72]	; 0x48
    97f0:	e3a01001 	mov	r1, #1
    97f4:	e1a01411 	lsl	r1, r1, r4
    97f8:	ebfffe9c 	bl	9270 <put32>
    97fc:	ea000005 	b	9818 <gpio_event_clear+0x4c>
    9800:	e204401f 	and	r4, r4, #31
    9804:	e59f3014 	ldr	r3, [pc, #20]	; 9820 <gpio_event_clear+0x54>
    9808:	e593004c 	ldr	r0, [r3, #76]	; 0x4c
    980c:	e3a01001 	mov	r1, #1
    9810:	e1a01411 	lsl	r1, r1, r4
    9814:	ebfffe95 	bl	9270 <put32>
    9818:	ebfffe8e 	bl	9258 <dev_barrier>
    981c:	e8bd8010 	pop	{r4, pc}
    9820:	000098b0 			; <UNDEFINED> instruction: 0x000098b0

00009824 <cb_new>:
    9824:	e92d4008 	push	{r3, lr}
    9828:	e3a00409 	mov	r0, #150994944	; 0x9000000
    982c:	e3a01000 	mov	r1, #0
    9830:	e3a02004 	mov	r2, #4
    9834:	ebfffabd 	bl	8330 <memset>
    9838:	e3a00409 	mov	r0, #150994944	; 0x9000000
    983c:	e59f3004 	ldr	r3, [pc, #4]	; 9848 <cb_new+0x24>
    9840:	e5803000 	str	r3, [r0]
    9844:	e8bd8008 	pop	{r3, pc}
    9848:	12345678 	eorsne	r5, r4, #120, 12	; 0x7800000

0000984c <cb_get_block>:
    984c:	e3a03409 	mov	r3, #150994944	; 0x9000000
    9850:	e5932000 	ldr	r2, [r3]
    9854:	e59f3014 	ldr	r3, [pc, #20]	; 9870 <cb_get_block+0x24>
    9858:	e1520003 	cmp	r2, r3
    985c:	0a000001 	beq	9868 <cb_get_block+0x1c>
    9860:	e3a00000 	mov	r0, #0
    9864:	e12fff1e 	bx	lr
    9868:	e3a00409 	mov	r0, #150994944	; 0x9000000
    986c:	e12fff1e 	bx	lr
    9870:	12345678 	eorsne	r5, r4, #120, 12	; 0x7800000

Disassembly of section .data:

00009874 <rpi_putchar>:
    9874:	000083a8 	andeq	r8, r0, r8, lsr #7

00009878 <putk>:
    9878:	000083e4 	andeq	r8, r0, r4, ror #7

0000987c <AUX_ENABLES>:
    987c:	20215004 	eorcs	r5, r1, r4

00009880 <AUX_MU_CNTL_REG>:
    9880:	20215060 	eorcs	r5, r1, r0, rrx

00009884 <AUX_MU_IER_REG>:
    9884:	20215044 	eorcs	r5, r1, r4, asr #32

00009888 <AUX_MU_IIR_REG>:
    9888:	20215048 	eorcs	r5, r1, r8, asr #32

0000988c <AUX_MU_LCR_REG>:
    988c:	2021504c 	eorcs	r5, r1, ip, asr #32

00009890 <AUX_MU_BAUD_REG>:
    9890:	20215068 	eorcs	r5, r1, r8, rrx

00009894 <AUX_MU_LSR_REG>:
    9894:	20215054 	eorcs	r5, r1, r4, asr r0

00009898 <AUX_MU_IO_REG>:
    9898:	20215040 	eorcs	r5, r1, r0, asr #32

0000989c <AUX_MU_STAT_REG>:
    989c:	20215064 	eorcs	r5, r1, r4, rrx

000098a0 <AUX_MU_SCRATCH>:
    98a0:	2021505c 	eorcs	r5, r1, ip, asr r0

000098a4 <AUX_MU_MSR_REG>:
    98a4:	20215058 	eorcs	r5, r1, r8, asr r0

000098a8 <AUX_MU_MCR_REG>:
    98a8:	20215050 	eorcs	r5, r1, r0, asr r0

000098ac <AUX_IRQ>:
    98ac:	20215000 	eorcs	r5, r1, r0

000098b0 <GPFSEL0>:
    98b0:	20200000 	eorcs	r0, r0, r0

000098b4 <GPFSEL1>:
    98b4:	20200004 	eorcs	r0, r0, r4

000098b8 <GPFSEL2>:
    98b8:	20200008 	eorcs	r0, r0, r8

000098bc <GPFSEL3>:
    98bc:	2020000c 	eorcs	r0, r0, ip

000098c0 <GPFSEL4>:
    98c0:	20200010 	eorcs	r0, r0, r0, lsl r0

000098c4 <GPFSEL5>:
    98c4:	20200014 	eorcs	r0, r0, r4, lsl r0

000098c8 <GPSET0>:
    98c8:	2020001c 	eorcs	r0, r0, ip, lsl r0

000098cc <GPSET1>:
    98cc:	20200020 	eorcs	r0, r0, r0, lsr #32

000098d0 <GPCLR0>:
    98d0:	20200028 	eorcs	r0, r0, r8, lsr #32

000098d4 <GPCLR1>:
    98d4:	2020002c 	eorcs	r0, r0, ip, lsr #32

000098d8 <GPLEV0>:
    98d8:	20200034 	eorcs	r0, r0, r4, lsr r0

000098dc <GPLEV1>:
    98dc:	20200038 	eorcs	r0, r0, r8, lsr r0

000098e0 <IRQ_PENDING_2>:
    98e0:	2000b208 	andcs	fp, r0, r8, lsl #4

000098e4 <GPREN0>:
    98e4:	2020004c 	eorcs	r0, r0, ip, asr #32

000098e8 <GPREN1>:
    98e8:	20200050 	eorcs	r0, r0, r0, asr r0

000098ec <ENABLE_IRQS_2>:
    98ec:	2000b214 	andcs	fp, r0, r4, lsl r2

000098f0 <GPFEN0>:
    98f0:	20200058 	eorcs	r0, r0, r8, asr r0

000098f4 <GPFEN1>:
    98f4:	2020005c 	eorcs	r0, r0, ip, asr r0

000098f8 <GPEDS0>:
    98f8:	20200040 	eorcs	r0, r0, r0, asr #32

000098fc <GPEDS1>:
    98fc:	20200044 	eorcs	r0, r0, r4, asr #32

00009900 <IRQ_PENDING_1>:
    9900:	2000b204 	andcs	fp, r0, r4, lsl #4

00009904 <gpio_clr0>:
    9904:	20200028 	eorcs	r0, r0, r8, lsr #32

00009908 <gpio_set0>:
    9908:	2020001c 	eorcs	r0, r0, ip, lsl r0

0000990c <gpio_fsel0>:
    990c:	20200000 	eorcs	r0, r0, r0

Disassembly of section .rodata:

00009910 <__FUNCTION__.4182>:
    9910:	6d746f6e 	ldclvs	15, cr6, [r4, #-440]!	; 0xfffffe48
    9914:	006e6961 	rsbeq	r6, lr, r1, ror #18
    9918:	72617473 	rsbvc	r7, r1, #1929379840	; 0x73000000
    991c:	676e6974 			; <UNDEFINED> instruction: 0x676e6974
    9920:	73657420 	cmnvc	r5, #32, 8	; 0x20000000
    9924:	00000a74 	andeq	r0, r0, r4, ror sl
    9928:	70616568 	rsbvc	r6, r1, r8, ror #10
    992c:	61747320 	cmnvs	r4, r0, lsr #6
    9930:	20737472 	rsbscs	r7, r3, r2, ror r4
    9934:	30207461 	eorcc	r7, r0, r1, ror #8
    9938:	0a782578 	beq	1e12f20 <__bss_end__+0x1e08cd0>
    993c:	00000000 	andeq	r0, r0, r0
    9940:	72617473 	rsbvc	r7, r1, #1929379840	; 0x73000000
    9944:	78303d74 	ldmdavc	r0!, {r2, r4, r5, r6, r8, sl, fp, ip, sp}
    9948:	000a7825 	andeq	r7, sl, r5, lsr #16
    994c:	4f525245 	svcmi	0x00525245
    9950:	73253a52 	teqvc	r5, #335872	; 0x52000
    9954:	3a73253a 	bcc	1cd2e44 <__bss_end__+0x1cc8bf4>
    9958:	203a6425 	eorscs	r6, sl, r5, lsr #8
    995c:	534c4146 	movtpl	r4, #49478	; 0xc146
    9960:	753c2845 	ldrvc	r2, [ip, #-2117]!	; 0x845
    9964:	205d695b 	subscs	r6, sp, fp, asr r9
    9968:	76203d3d 			; <UNDEFINED> instruction: 0x76203d3d
    996c:	203a293e 	eorscs	r2, sl, lr, lsr r9
    9970:	766e6922 	strbtvc	r6, [lr], -r2, lsr #18
    9974:	64696c61 	strbtvs	r6, [r9], #-3169	; 0xc61
    9978:	61747320 	cmnvs	r4, r0, lsr #6
    997c:	255b7472 	ldrbcs	r7, [fp, #-1138]	; 0x472
    9980:	3d205d64 	stccc	13, cr5, [r0, #-400]!	; 0xfffffe70
    9984:	202c7825 	eorcs	r7, ip, r5, lsr #16
    9988:	756f6873 	strbvc	r6, [pc, #-2163]!	; 911d <uart_init+0x19>
    998c:	6220646c 	eorvs	r6, r0, #108, 8	; 0x6c000000
    9990:	78252065 	stmdavc	r5!, {r0, r2, r5, r6, sp}
    9994:	0a226e5c 	beq	8a530c <__bss_end__+0x89b0bc>
    9998:	00000000 	andeq	r0, r0, r0
    999c:	74736574 	ldrbtvc	r6, [r3], #-1396	; 0x574
    99a0:	616d6b2d 	cmnvs	sp, sp, lsr #22
    99a4:	636f6c6c 	cmnvs	pc, #108, 24	; 0x6c00
    99a8:	0000632e 	andeq	r6, r0, lr, lsr #6
    99ac:	4f525245 	svcmi	0x00525245
    99b0:	73253a52 	teqvc	r5, #335872	; 0x52000
    99b4:	3a73253a 	bcc	1cd2ea4 <__bss_end__+0x1cc8c54>
    99b8:	203a6425 	eorscs	r6, sl, r5, lsr #8
    99bc:	534c4146 	movtpl	r4, #49478	; 0xc146
    99c0:	283c2845 	ldmdacs	ip!, {r0, r2, r6, fp, sp}
    99c4:	69736e75 	ldmdbvs	r3!, {r0, r2, r4, r5, r6, r9, sl, fp, sp, lr}^
    99c8:	64656e67 	strbtvs	r6, [r5], #-3687	; 0xe67
    99cc:	25207029 	strcs	r7, [r0, #-41]!	; 0x29
    99d0:	20343620 	eorscs	r3, r4, r0, lsr #12
    99d4:	30203d3d 	eorcc	r3, r0, sp, lsr sp
    99d8:	203a293e 	eorscs	r2, sl, lr, lsr r9
    99dc:	20677562 	rsbcs	r7, r7, r2, ror #10
    99e0:	6b206e69 	blvs	82538c <__bss_end__+0x81b13c>
    99e4:	6c6c616d 	stfvse	f6, [ip], #-436	; 0xfffffe4c
    99e8:	615f636f 	cmpvs	pc, pc, ror #6
    99ec:	6e67696c 	cdpvs	9, 6, cr6, cr7, cr12, {3}
    99f0:	000a6465 	andeq	r6, sl, r5, ror #8
    99f4:	4f525245 	svcmi	0x00525245
    99f8:	73253a52 	teqvc	r5, #335872	; 0x52000
    99fc:	3a73253a 	bcc	1cd2eec <__bss_end__+0x1cc8c9c>
    9a00:	203a6425 	eorscs	r6, sl, r5, lsr #8
    9a04:	534c4146 	movtpl	r4, #49478	; 0xc146
    9a08:	683c2845 	ldmdavs	ip!, {r0, r2, r6, fp, sp}
    9a0c:	30706165 	rsbscc	r6, r0, r5, ror #2
    9a10:	203d3d20 	eorscs	r3, sp, r0, lsr #26
    9a14:	70616568 	rsbvc	r6, r1, r8, ror #10
    9a18:	3a293e31 	bcc	a592e4 <__bss_end__+0xa4f094>
    9a1c:	64696420 	strbtvs	r6, [r9], #-1056	; 0x420
    9a20:	746f6e20 	strbtvc	r6, [pc], #-3616	; 9a28 <__FUNCTION__.4182+0x118>
    9a24:	73657220 	cmnvc	r5, #32, 4
    9a28:	74207465 	strtvc	r7, [r0], #-1125	; 0x465
    9a2c:	68206568 	stmdavs	r0!, {r3, r5, r6, r8, sl, sp, lr}
    9a30:	20706165 	rsbscs	r6, r0, r5, ror #2
    9a34:	72726f63 	rsbsvc	r6, r2, #396	; 0x18c
    9a38:	6c746365 	ldclvs	3, cr6, [r4], #-404	; 0xfffffe6c
    9a3c:	000a2179 	andeq	r2, sl, r9, ror r1
    9a40:	4f525245 	svcmi	0x00525245
    9a44:	73253a52 	teqvc	r5, #335872	; 0x52000
    9a48:	3a73253a 	bcc	1cd2f38 <__bss_end__+0x1cc8ce8>
    9a4c:	203a6425 	eorscs	r6, sl, r5, lsr #8
    9a50:	534c4146 	movtpl	r4, #49478	; 0xc146
    9a54:	733c2845 	teqvc	ip, #4521984	; 0x450000
    9a58:	74726174 	ldrbtvc	r6, [r2], #-372	; 0x174
    9a5c:	203d3d20 	eorscs	r3, sp, r0, lsr #26
    9a60:	6c616d6b 	stclvs	13, cr6, [r1], #-428	; 0xfffffe54
    9a64:	28636f6c 	stmdacs	r3!, {r2, r3, r5, r6, r8, r9, sl, fp, sp, lr}^
    9a68:	293e2931 	ldmdbcs	lr!, {r0, r4, r5, r8, fp, sp}
    9a6c:	6964203a 	stmdbvs	r4!, {r1, r3, r4, r5, sp}^
    9a70:	6f6e2064 	svcvs	0x006e2064
    9a74:	65722074 	ldrbvs	r2, [r2, #-116]!	; 0x74
    9a78:	20746573 	rsbscs	r6, r4, r3, ror r5
    9a7c:	20656874 	rsbcs	r6, r5, r4, ror r8
    9a80:	70616568 	rsbvc	r6, r1, r8, ror #10
    9a84:	726f6320 	rsbvc	r6, pc, #32, 6	; 0x80000000
    9a88:	74636572 	strbtvc	r6, [r3], #-1394	; 0x572
    9a8c:	0a21796c 	beq	868044 <__bss_end__+0x85ddf4>
    9a90:	00000000 	andeq	r0, r0, r0
    9a94:	63637573 	cmnvs	r3, #482344960	; 0x1cc00000
    9a98:	66737365 	ldrbtvs	r7, [r3], -r5, ror #6
    9a9c:	74206c75 	strtvc	r6, [r0], #-3189	; 0xc75
    9aa0:	0a747365 	beq	1d2683c <__bss_end__+0x1d1c5ec>
    9aa4:	00000000 	andeq	r0, r0, r0

00009aa8 <__FUNCTION__.4175>:
    9aa8:	6c616d6b 	stclvs	13, cr6, [r1], #-428	; 0xfffffe54
    9aac:	00636f6c 	rsbeq	r6, r3, ip, ror #30

00009ab0 <__FUNCTION__.4182>:
    9ab0:	6c616d6b 	stclvs	13, cr6, [r1], #-428	; 0xfffffe54
    9ab4:	5f636f6c 	svcpl	0x00636f6c
    9ab8:	67696c61 	strbvs	r6, [r9, -r1, ror #24]!
    9abc:	0064656e 	rsbeq	r6, r4, lr, ror #10

00009ac0 <__FUNCTION__.4187>:
    9ac0:	6c616d6b 	stclvs	13, cr6, [r1], #-428	; 0xfffffe54
    9ac4:	5f636f6c 	svcpl	0x00636f6c
    9ac8:	74696e69 	strbtvc	r6, [r9], #-3689	; 0xe69
    9acc:	00000000 	andeq	r0, r0, r0
    9ad0:	4f525245 	svcmi	0x00525245
    9ad4:	73253a52 	teqvc	r5, #335872	; 0x52000
    9ad8:	3a73253a 	bcc	1cd2fc8 <__bss_end__+0x1cc8d78>
    9adc:	203a6425 	eorscs	r6, sl, r5, lsr #8
    9ae0:	534c4146 	movtpl	r4, #49478	; 0xc146
    9ae4:	693c2845 	ldmdbvs	ip!, {r0, r2, r6, fp, sp}
    9ae8:	5f74696e 	svcpl	0x0074696e
    9aec:	3a293e70 	bcc	a594b4 <__bss_end__+0xa4f264>
    9af0:	6c616320 	stclvs	3, cr6, [r1], #-128	; 0xffffff80
    9af4:	676e696c 	strbvs	r6, [lr, -ip, ror #18]!
    9af8:	66656220 	strbtvs	r6, [r5], -r0, lsr #4
    9afc:	2065726f 	rsbcs	r7, r5, pc, ror #4
    9b00:	74696e69 	strbtvc	r6, [r9], #-3689	; 0xe69
    9b04:	696c6169 	stmdbvs	ip!, {r0, r3, r5, r6, r8, sp, lr}^
    9b08:	0a64657a 	beq	19230f8 <__bss_end__+0x1918ea8>
    9b0c:	00000000 	andeq	r0, r0, r0
    9b10:	6c616d6b 	stclvs	13, cr6, [r1], #-428	; 0xfffffe54
    9b14:	2e636f6c 	cdpcs	15, 6, cr6, cr3, cr12, {3}
    9b18:	00000063 	andeq	r0, r0, r3, rrx
    9b1c:	4f525245 	svcmi	0x00525245
    9b20:	73253a52 	teqvc	r5, #335872	; 0x52000
    9b24:	3a73253a 	bcc	1cd3014 <__bss_end__+0x1cc8dc4>
    9b28:	203a6425 	eorscs	r6, sl, r5, lsr #8
    9b2c:	534c4146 	movtpl	r4, #49478	; 0xc146
    9b30:	613c2845 	teqvs	ip, r5, asr #16
    9b34:	6e67696c 	cdpvs	9, 6, cr6, cr7, cr12, {3}
    9b38:	746e656d 	strbtvc	r6, [lr], #-1389	; 0x56d
    9b3c:	34202520 	strtcc	r2, [r0], #-1312	; 0x520
    9b40:	203d3d20 	eorscs	r3, sp, r0, lsr #26
    9b44:	3a293e30 	bcc	a5940c <__bss_end__+0xa4f1bc>
    9b48:	65772220 	ldrbvs	r2, [r7, #-544]!	; 0x220
    9b4c:	20647269 	rsbcs	r7, r4, r9, ror #4
    9b50:	67696c61 	strbvs	r6, [r9, -r1, ror #24]!
    9b54:	6e656d6e 	cdpvs	13, 6, cr6, cr5, cr14, {3}
    9b58:	6e203a74 	mcrvs	10, 1, r3, cr0, cr4, {3}
    9b5c:	6120746f 	teqvs	r0, pc, ror #8
    9b60:	6c756d20 	ldclvs	13, cr6, [r5], #-128	; 0xffffff80
    9b64:	6c706974 	ldclvs	9, cr6, [r0], #-464	; 0xfffffe30
    9b68:	666f2065 	strbtvs	r2, [pc], -r5, rrx
    9b6c:	22213420 	eorcs	r3, r1, #32, 8	; 0x20000000
    9b70:	0000000a 	andeq	r0, r0, sl
    9b74:	4f525245 	svcmi	0x00525245
    9b78:	73253a52 	teqvc	r5, #335872	; 0x52000
    9b7c:	3a73253a 	bcc	1cd306c <__bss_end__+0x1cc8e1c>
    9b80:	203a6425 	eorscs	r6, sl, r5, lsr #8
    9b84:	534c4146 	movtpl	r4, #49478	; 0xc146
    9b88:	213c2845 	teqcs	ip, r5, asr #16
    9b8c:	74696e69 	strbtvc	r6, [r9], #-3689	; 0xe69
    9b90:	293e705f 	ldmdbcs	lr!, {r0, r1, r2, r3, r4, r6, ip, sp, lr}
    9b94:	6163203a 	cmnvs	r3, sl, lsr r0
    9b98:	746f6e6e 	strbtvc	r6, [pc], #-3694	; 9ba0 <__FUNCTION__.4187+0xe0>
    9b9c:	696e6920 	stmdbvs	lr!, {r5, r8, fp, sp, lr}^
    9ba0:	6c616974 	stclvs	9, cr6, [r1], #-464	; 0xfffffe30
    9ba4:	20657a69 	rsbcs	r7, r5, r9, ror #20
    9ba8:	63697774 	cmnvs	r9, #116, 14	; 0x1d00000
    9bac:	0a0a2165 	beq	292148 <__bss_end__+0x287ef8>
    9bb0:	00000000 	andeq	r0, r0, r0

00009bb4 <__FUNCTION__.4231>:
    9bb4:	74696d65 	strbtvc	r6, [r9], #-3429	; 0xd65
    9bb8:	00000000 	andeq	r0, r0, r0

00009bbc <__FUNCTION__.4179>:
    9bbc:	5f697072 	svcpl	0x00697072
    9bc0:	5f746573 	svcpl	0x00746573
    9bc4:	7074756f 	rsbsvc	r7, r4, pc, ror #10
    9bc8:	00007475 	andeq	r7, r0, r5, ror r4

00009bcc <__FUNCTION__.4253>:
    9bcc:	705f6176 	subsvc	r6, pc, r6, ror r1	; <UNPREDICTABLE>
    9bd0:	746e6972 	strbtvc	r6, [lr], #-2418	; 0x972
    9bd4:	0000006b 	andeq	r0, r0, fp, rrx
    9bd8:	494e4150 	stmdbmi	lr, {r4, r6, r8, lr}^
    9bdc:	73253a43 	teqvc	r5, #274432	; 0x43000
    9be0:	3a73253a 	bcc	1cd30d0 <__bss_end__+0x1cc8e80>
    9be4:	303a6425 	eorscc	r6, sl, r5, lsr #8
    9be8:	0000000a 	andeq	r0, r0, sl
    9bec:	6362696c 	cmnvs	r2, #108, 18	; 0x1b0000
    9bf0:	2d61762f 	stclcs	6, cr7, [r1, #-188]!	; 0xffffff44
    9bf4:	6e697270 	mcrvs	2, 3, r7, cr9, cr0, {3}
    9bf8:	632e6b74 	teqvs	lr, #116, 22	; 0x1d000
    9bfc:	00000000 	andeq	r0, r0, r0
    9c00:	33323130 	teqcc	r2, #48, 2
    9c04:	37363534 			; <UNDEFINED> instruction: 0x37363534
    9c08:	00003938 	andeq	r3, r0, r8, lsr r9
    9c0c:	33323130 	teqcc	r2, #48, 2
    9c10:	37363534 			; <UNDEFINED> instruction: 0x37363534
    9c14:	62613938 	rsbvs	r3, r1, #56, 18	; 0xe0000
    9c18:	66656463 	strbtvs	r6, [r5], -r3, ror #8
    9c1c:	00000000 	andeq	r0, r0, r0
    9c20:	00003130 	andeq	r3, r0, r0, lsr r1
    9c24:	494e4150 	stmdbmi	lr, {r4, r6, r8, lr}^
    9c28:	73253a43 	teqvc	r5, #274432	; 0x43000
    9c2c:	3a73253a 	bcc	1cd311c <__bss_end__+0x1cc8ecc>
    9c30:	703a6425 	eorsvc	r6, sl, r5, lsr #8
    9c34:	5f637475 	svcpl	0x00637475
    9c38:	000a7066 	andeq	r7, sl, r6, rrx
    9c3c:	494e4150 	stmdbmi	lr, {r4, r6, r8, lr}^
    9c40:	73253a43 	teqvc	r5, #274432	; 0x43000
    9c44:	3a73253a 	bcc	1cd3134 <__bss_end__+0x1cc8ee4>
    9c48:	773a6425 	ldrvc	r6, [sl, -r5, lsr #8]!
    9c4c:	68746469 	ldmdavs	r4!, {r0, r3, r5, r6, sl, sp, lr}^
    9c50:	33203c20 	teqcc	r0, #32, 24	; 0x2000
    9c54:	00000a32 	andeq	r0, r0, r2, lsr sl
    9c58:	494e4150 	stmdbmi	lr, {r4, r6, r8, lr}^
    9c5c:	73253a43 	teqvc	r5, #274432	; 0x43000
    9c60:	3a73253a 	bcc	1cd3150 <__bss_end__+0x1cc8f00>
    9c64:	663a6425 	ldrtvs	r6, [sl], -r5, lsr #8
    9c68:	74616f6c 	strbtvc	r6, [r1], #-3948	; 0xf6c
    9c6c:	746f6e20 	strbtvc	r6, [pc], #-3616	; 9c74 <__FUNCTION__.4253+0xa8>
    9c70:	616e6520 	cmnvs	lr, r0, lsr #10
    9c74:	64656c62 	strbtvs	r6, [r5], #-3170	; 0xc62
    9c78:	0a212121 	beq	852104 <__bss_end__+0x847eb4>
    9c7c:	00000000 	andeq	r0, r0, r0
    9c80:	494e4150 	stmdbmi	lr, {r4, r6, r8, lr}^
    9c84:	73253a43 	teqvc	r5, #274432	; 0x43000
    9c88:	3a73253a 	bcc	1cd3178 <__bss_end__+0x1cc8f28>
    9c8c:	703a6425 	eorsvc	r6, sl, r5, lsr #8
    9c90:	746e6972 	strbtvc	r6, [lr], #-2418	; 0x972
    9c94:	6e203a6b 	vnmulvs.f32	s6, s0, s23
    9c98:	6820746f 	stmdavs	r0!, {r0, r1, r2, r3, r5, r6, sl, ip, sp, lr}
    9c9c:	6c646e61 	stclvs	14, cr6, [r4], #-388	; 0xfffffe7c
    9ca0:	20676e69 	rsbcs	r6, r7, r9, ror #28
    9ca4:	63657073 	cmnvs	r5, #115	; 0x73
    9ca8:	65696669 	strbvs	r6, [r9, #-1641]!	; 0x669
    9cac:	25272072 	strcs	r2, [r7, #-114]!	; 0x72
    9cb0:	0a0a2763 	beq	293a44 <__bss_end__+0x2897f4>
    9cb4:	00000000 	andeq	r0, r0, r0
    9cb8:	454e4f44 	strbmi	r4, [lr, #-3908]	; 0xf44
    9cbc:	0a212121 	beq	852148 <__bss_end__+0x847ef8>
    9cc0:	00000000 	andeq	r0, r0, r0
    9cc4:	756f6261 	strbvc	r6, [pc, #-609]!	; 9a6b <__FUNCTION__.4182+0x15b>
    9cc8:	6f742074 	svcvs	0x00742074
    9ccc:	69727020 	ldmdbvs	r2!, {r5, ip, sp, lr}^
    9cd0:	6f20746e 	svcvs	0x0020746e
    9cd4:	6572206e 	ldrbvs	r2, [r2, #-110]!	; 0x6e
    9cd8:	616c7567 	cmnvs	ip, r7, ror #10
    9cdc:	72702072 	rsbsvc	r2, r0, #114	; 0x72
    9ce0:	66746e69 	ldrbtvs	r6, [r4], -r9, ror #28
    9ce4:	0000000a 	andeq	r0, r0, sl
    9ce8:	63637573 	cmnvs	r3, #482344960	; 0x1cc00000
    9cec:	21737365 	cmncs	r3, r5, ror #6
    9cf0:	0000000a 	andeq	r0, r0, sl

00009cf4 <__FUNCTION__.4280>:
    9cf4:	755f7773 	ldrbvc	r7, [pc, #-1907]	; 9589 <gpio_set_function+0x4d>
    9cf8:	5f747261 	svcpl	0x00747261
    9cfc:	73746567 	cmnvc	r4, #432013312	; 0x19c00000
    9d00:	746e755f 	strbtvc	r7, [lr], #-1375	; 0x55f
    9d04:	00006c69 	andeq	r6, r0, r9, ror #24

00009d08 <__FUNCTION__.4292>:
    9d08:	755f7773 	ldrbvc	r7, [pc, #-1907]	; 959d <gpio_set_function+0x61>
    9d0c:	5f747261 	svcpl	0x00747261
    9d10:	73746567 	cmnvc	r4, #432013312	; 0x19c00000
    9d14:	6d69745f 	cfstrdvs	mvd7, [r9, #-380]!	; 0xfffffe84
    9d18:	74756f65 	ldrbtvc	r6, [r5], #-3941	; 0xf65
    9d1c:	00000000 	andeq	r0, r0, r0

00009d20 <__FUNCTION__.4306>:
    9d20:	755f7773 	ldrbvc	r7, [pc, #-1907]	; 95b5 <gpio_set_function+0x79>
    9d24:	5f747261 	svcpl	0x00747261
    9d28:	74696e69 	strbtvc	r6, [r9], #-3689	; 0xe69
    9d2c:	6c65685f 	stclvs	8, cr6, [r5], #-380	; 0xfffffe84
    9d30:	00726570 	rsbseq	r6, r2, r0, ror r5

00009d34 <__FUNCTION__.4312>:
    9d34:	755f7773 	ldrbvc	r7, [pc, #-1907]	; 95c9 <gpio_set_function+0x8d>
    9d38:	5f747261 	svcpl	0x00747261
    9d3c:	63746567 	cmnvs	r4, #432013312	; 0x19c00000
    9d40:	00000000 	andeq	r0, r0, r0

00009d44 <__FUNCTION__.4334>:
    9d44:	755f7773 	ldrbvc	r7, [pc, #-1907]	; 95d9 <gpio_set_function+0x9d>
    9d48:	5f747261 	svcpl	0x00747261
    9d4c:	6e697270 	mcrvs	2, 3, r7, cr9, cr0, {3}
    9d50:	00006b74 	andeq	r6, r0, r4, ror fp

00009d54 <__FUNCTION__.4342>:
    9d54:	755f7773 	ldrbvc	r7, [pc, #-1907]	; 95e9 <gpio_set_function+0xad>
    9d58:	5f747261 	svcpl	0x00747261
    9d5c:	73746567 	cmnvc	r4, #432013312	; 0x19c00000
    9d60:	746e755f 	strbtvc	r7, [lr], #-1375	; 0x55f
    9d64:	625f6c69 	subsvs	r6, pc, #26880	; 0x6900
    9d68:	00006b6c 	andeq	r6, r0, ip, ror #22
    9d6c:	494e4150 	stmdbmi	lr, {r4, r6, r8, lr}^
    9d70:	73253a43 	teqvc	r5, #274432	; 0x43000
    9d74:	3a73253a 	bcc	1cd3264 <__bss_end__+0x1cc9014>
    9d78:	6e3a6425 	cdpvs	4, 3, cr6, cr10, cr5, {1}
    9d7c:	65747962 	ldrbvs	r7, [r4, #-2402]!	; 0x962
    9d80:	0a303e73 	beq	c19754 <__bss_end__+0xc0f504>
    9d84:	00000000 	andeq	r0, r0, r0
    9d88:	732d796d 	teqvc	sp, #1785856	; 0x1b4000
    9d8c:	732f6372 	teqvc	pc, #-939524095	; 0xc8000001
    9d90:	61752d77 	cmnvs	r5, r7, ror sp
    9d94:	632e7472 	teqvs	lr, #1912602624	; 0x72000000
    9d98:	00000000 	andeq	r0, r0, r0
    9d9c:	494e4150 	stmdbmi	lr, {r4, r6, r8, lr}^
    9da0:	73253a43 	teqvc	r5, #274432	; 0x43000
    9da4:	3a73253a 	bcc	1cd3294 <__bss_end__+0x1cc9044>
    9da8:	283a6425 	ldmdacs	sl!, {r0, r2, r5, sl, sp, lr}
    9dac:	207a686d 	rsbscs	r6, sl, sp, ror #16
    9db0:	6162202d 	cmnvs	r2, sp, lsr #32
    9db4:	20296475 	eorcs	r6, r9, r5, ror r4
    9db8:	64203d3c 	strtvs	r3, [r0], #-3388	; 0xd3c
    9dbc:	76697265 	strbtvc	r7, [r9], -r5, ror #4
    9dc0:	26206465 	strtcs	r6, [r0], -r5, ror #8
    9dc4:	65642026 	strbvs	r2, [r4, #-38]!	; 0x26
    9dc8:	65766972 	ldrbvs	r6, [r6, #-2418]!	; 0x972
    9dcc:	3d3c2064 	ldccc	0, cr2, [ip, #-400]!	; 0xfffffe70
    9dd0:	686d2820 	stmdavs	sp!, {r5, fp, sp}^
    9dd4:	202b207a 	eorcs	r2, fp, sl, ror r0
    9dd8:	64756162 	ldrbtvs	r6, [r5], #-354	; 0x162
    9ddc:	00000a29 	andeq	r0, r0, r9, lsr #20
    9de0:	494e4150 	stmdbmi	lr, {r4, r6, r8, lr}^
    9de4:	73253a43 	teqvc	r5, #274432	; 0x43000
    9de8:	3a73253a 	bcc	1cd32d8 <__bss_end__+0x1cc9088>
    9dec:	693a6425 	ldmdbvs	sl!, {r0, r2, r5, sl, sp, lr}
    9df0:	736f706d 	cmnvc	pc, #109	; 0x6d
    9df4:	6c626973 	stclvs	9, cr6, [r2], #-460	; 0xfffffe34
    9df8:	68203a65 	stmdavs	r0!, {r0, r2, r5, r6, r9, fp, ip, sp}
    9dfc:	20657661 	rsbcs	r7, r5, r1, ror #12
    9e00:	69206e61 	stmdbvs	r0!, {r0, r5, r6, r9, sl, fp, sp, lr}
    9e04:	6e69666e 	cdpvs	6, 6, cr6, cr9, cr14, {3}
    9e08:	20657469 	rsbcs	r7, r5, r9, ror #8
    9e0c:	656d6974 	strbvs	r6, [sp, #-2420]!	; 0x974
    9e10:	2174756f 	cmncs	r4, pc, ror #10
    9e14:	00000a0a 	andeq	r0, r0, sl, lsl #20
    9e18:	494e4150 	stmdbmi	lr, {r4, r6, r8, lr}^
    9e1c:	73253a43 	teqvc	r5, #274432	; 0x43000
    9e20:	3a73253a 	bcc	1cd3310 <__bss_end__+0x1cc90c0>
    9e24:	733a6425 	teqvc	sl, #620756992	; 0x25000000
    9e28:	203c207a 	eorscs	r2, ip, sl, ror r0
    9e2c:	657a6973 	ldrbvs	r6, [sl, #-2419]!	; 0x973
    9e30:	6220666f 	eorvs	r6, r0, #116391936	; 0x6f00000
    9e34:	312d6675 	teqcc	sp, r5, ror r6
    9e38:	0000000a 	andeq	r0, r0, sl

Disassembly of section .bss:

00009e3c <__bss_start__>:
    9e3c:	00000000 	andeq	r0, r0, r0

00009e40 <heap_ptr>:
    9e40:	00000000 	andeq	r0, r0, r0

00009e44 <buf.4179>:
	...

0000a244 <console_uart>:
	...

Disassembly of section .ARM.attributes:

00000000 <.ARM.attributes>:
   0:	00002a41 	andeq	r2, r0, r1, asr #20
   4:	61656100 	cmnvs	r5, r0, lsl #2
   8:	01006962 	tsteq	r0, r2, ror #18
   c:	00000020 	andeq	r0, r0, r0, lsr #32
  10:	4b5a3605 	blmi	168d82c <__bss_end__+0x16835dc>
  14:	08070600 	stmdaeq	r7, {r9, sl}
  18:	12010901 	andne	r0, r1, #16384	; 0x4000
  1c:	15011404 	strne	r1, [r1, #-1028]	; 0x404
  20:	18031701 	stmdane	r3, {r0, r8, r9, sl, ip}
  24:	22011a01 	andcs	r1, r1, #4096	; 0x1000
  28:	Address 0x0000000000000028 is out of bounds.


Disassembly of section .comment:

00000000 <.comment>:
   0:	3a434347 	bcc	10d0d24 <__bss_end__+0x10c6ad4>
   4:	4e472820 	cdpmi	8, 4, cr2, cr7, cr0, {1}
   8:	34202955 	strtcc	r2, [r0], #-2389	; 0x955
   c:	332e382e 	teqcc	lr, #3014656	; 0x2e0000
	...

Disassembly of section .debug_info:

00000000 <.debug_info>:
       0:	000003e3 	andeq	r0, r0, r3, ror #7
       4:	00000004 	andeq	r0, r0, r4
       8:	01040000 	mrseq	r0, (UNDEF: 4)
       c:	00000010 	andeq	r0, r0, r0, lsl r0
      10:	00010e01 	andeq	r0, r1, r1, lsl #28
      14:	00007900 	andeq	r7, r0, r0, lsl #18
      18:	00801000 	addeq	r1, r0, r0
      1c:	00019800 	andeq	r9, r1, r0, lsl #16
      20:	00000000 	andeq	r0, r0, r0
      24:	05040200 	streq	r0, [r4, #-512]	; 0x200
      28:	00746e69 	rsbseq	r6, r4, r9, ror #28
      2c:	3a070403 	bcc	1c1040 <__bss_end__+0x1b6df0>
      30:	03000001 	movweq	r0, #1
      34:	00dc0601 	sbcseq	r0, ip, r1, lsl #12
      38:	02030000 	andeq	r0, r3, #0
      3c:	00015e05 	andeq	r5, r1, r5, lsl #28
      40:	05040300 	streq	r0, [r4, #-768]	; 0x300
      44:	00000155 	andeq	r0, r0, r5, asr r1
      48:	50050803 	andpl	r0, r5, r3, lsl #16
      4c:	03000001 	movweq	r0, #1
      50:	00da0801 	sbcseq	r0, sl, r1, lsl #16
      54:	02030000 	andeq	r0, r3, #0
      58:	0000fb07 	andeq	pc, r0, r7, lsl #22
      5c:	07040300 	streq	r0, [r4, -r0, lsl #6]
      60:	00000135 	andeq	r0, r0, r5, lsr r1
      64:	30070803 	andcc	r0, r7, r3, lsl #16
      68:	03000001 	movweq	r0, #1
      6c:	01470704 	cmpeq	r7, r4, lsl #14
      70:	04040000 	streq	r0, [r4], #-0
      74:	e3080103 	movw	r0, #33027	; 0x8103
      78:	05000000 	streq	r0, [r0, #-0]
      7c:	00008104 	andeq	r8, r0, r4, lsl #2
      80:	00740600 	rsbseq	r0, r4, r0, lsl #12
      84:	74070000 	strvc	r0, [r7], #-0
      88:	96000000 	strls	r0, [r0], -r0
      8c:	08000000 	stmdaeq	r0, {}	; <UNPREDICTABLE>
      90:	0000006b 	andeq	r0, r0, fp, rrx
      94:	71090007 	tstvc	r9, r7
      98:	01000000 	mrseq	r0, (UNDEF: 0)
      9c:	00801004 	addeq	r1, r0, r4
      a0:	00019800 	andeq	r9, r1, r0, lsl #16
      a4:	689c0100 	ldmvs	ip, {r8}
      a8:	0a000003 	beq	bc <_start-0x7f44>
      ac:	0000012a 	andeq	r0, r0, sl, lsr #2
      b0:	00720c01 	rsbseq	r0, r2, r1, lsl #24
      b4:	00000000 	andeq	r0, r0, r0
      b8:	e90a0000 	stmdb	sl, {}	; <UNPREDICTABLE>
      bc:	01000003 	tsteq	r0, r3
      c0:	0003680e 	andeq	r6, r3, lr, lsl #16
      c4:	00001e00 	andeq	r1, r0, r0, lsl #28
      c8:	00750b00 	rsbseq	r0, r5, r0, lsl #22
      cc:	03681601 	cmneq	r8, #1048576	; 0x100000
      d0:	003c0000 	eorseq	r0, ip, r0
      d4:	1d0c0000 	stcne	0, cr0, [ip, #-0]
      d8:	6e000001 	cdpvs	0, 0, cr0, cr0, cr1, {0}
      dc:	05000003 	streq	r0, [r0, #-3]
      e0:	00991003 	addseq	r1, r9, r3
      e4:	00700b00 	rsbseq	r0, r0, r0, lsl #22
      e8:	00721d01 	rsbseq	r1, r2, r1, lsl #26
      ec:	00740000 	rsbseq	r0, r4, r0
      f0:	f50a0000 			; <UNDEFINED> instruction: 0xf50a0000
      f4:	01000000 	mrseq	r0, (UNDEF: 0)
      f8:	00007221 	andeq	r7, r0, r1, lsr #4
      fc:	00009200 	andeq	r9, r0, r0, lsl #4
     100:	80580d00 	subshi	r0, r8, r0, lsl #26
     104:	00340000 	eorseq	r0, r4, r0
     108:	014c0000 	mrseq	r0, (UNDEF: 76)
     10c:	690b0000 	stmdbvs	fp, {}	; <UNPREDICTABLE>
     110:	2c100100 	ldfcss	f0, [r0], {-0}
     114:	b0000000 	andlt	r0, r0, r0
     118:	0e000000 	cdpeq	0, 0, cr0, cr0, cr0, {0}
     11c:	00000000 	andeq	r0, r0, r0
     120:	0100750b 	tsteq	r0, fp, lsl #10
     124:	00036811 	andeq	r6, r3, r1, lsl r8
     128:	0000cf00 	andeq	ip, r0, r0, lsl #30
     12c:	00760b00 	rsbseq	r0, r6, r0, lsl #22
     130:	002c1201 	eoreq	r1, ip, r1, lsl #4
     134:	00e20000 	rsceq	r0, r2, r0
     138:	6c0f0000 	stcvs	0, cr0, [pc], {-0}
     13c:	73000080 	movwvc	r0, #128	; 0x80
     140:	10000003 	andne	r0, r0, r3
     144:	77025001 	strvc	r5, [r2, -r1]
     148:	00000000 	andeq	r0, r0, r0
     14c:	0080900d 	addeq	r9, r0, sp
     150:	00005c00 	andeq	r5, r0, r0, lsl #24
     154:	0001c500 	andeq	ip, r1, r0, lsl #10
     158:	00690b00 	rsbeq	r0, r9, r0, lsl #22
     15c:	002c1701 	eoreq	r1, ip, r1, lsl #14
     160:	00f50000 	rscseq	r0, r5, r0
     164:	98110000 	ldmdals	r1, {}	; <UNPREDICTABLE>
     168:	48000080 	stmdami	r0, {r7}
     16c:	0b000000 	bleq	174 <_start-0x7e8c>
     170:	18010076 	stmdane	r1, {r1, r2, r4, r5, r6}
     174:	0000002c 	andeq	r0, r0, ip, lsr #32
     178:	0000011f 	andeq	r0, r0, pc, lsl r1
     17c:	0080bc12 	addeq	fp, r0, r2, lsl ip
     180:	00038800 	andeq	r8, r3, r0, lsl #16
     184:	80dc1300 	sbcshi	r1, ip, r0, lsl #6
     188:	038f0000 	orreq	r0, pc, #0
     18c:	01ba0000 			; <UNDEFINED> instruction: 0x01ba0000
     190:	01100000 	tsteq	r0, r0
     194:	104a0153 	subne	r0, sl, r3, asr r1
     198:	03055201 	movweq	r5, #20993	; 0x5201
     19c:	00009910 	andeq	r9, r0, r0, lsl r9
     1a0:	05510110 	ldrbeq	r0, [r1, #-272]	; 0x110
     1a4:	00999c03 	addseq	r9, r9, r3, lsl #24
     1a8:	50011000 	andpl	r1, r1, r0
     1ac:	994c0305 	stmdbls	ip, {r0, r2, r8, r9}^
     1b0:	02100000 	andseq	r0, r0, #0
     1b4:	7402047d 	strvc	r0, [r2], #-1149	; 0x47d
     1b8:	e0120000 	ands	r0, r2, r0
     1bc:	a5000080 	strge	r0, [r0, #-128]	; 0x80
     1c0:	00000003 	andeq	r0, r0, r3
     1c4:	801c1200 	andshi	r1, ip, r0, lsl #4
     1c8:	03ac0000 			; <UNDEFINED> instruction: 0x03ac0000
     1cc:	24130000 	ldrcs	r0, [r3], #-0
     1d0:	8f000080 	svchi	0x00000080
     1d4:	e5000003 	str	r0, [r0, #-3]
     1d8:	10000001 	andne	r0, r0, r1
     1dc:	03055001 	movweq	r5, #20481	; 0x5001
     1e0:	00009918 	andeq	r9, r0, r8, lsl r9
     1e4:	80281200 	eorhi	r1, r8, r0, lsl #4
     1e8:	03b30000 			; <UNDEFINED> instruction: 0x03b30000
     1ec:	2c120000 	ldccs	0, cr0, [r2], {-0}
     1f0:	ba000080 	blt	3f8 <_start-0x7c08>
     1f4:	13000003 	movwne	r0, #3
     1f8:	00008038 	andeq	r8, r0, r8, lsr r0
     1fc:	0000038f 	andeq	r0, r0, pc, lsl #7
     200:	0000020e 	andeq	r0, r0, lr, lsl #4
     204:	05500110 	ldrbeq	r0, [r0, #-272]	; 0x110
     208:	00992803 	addseq	r2, r9, r3, lsl #16
     20c:	3c120000 	ldccc	0, cr0, [r2], {-0}
     210:	ba000080 	blt	418 <_start-0x7be8>
     214:	13000003 	movwne	r0, #3
     218:	00008048 	andeq	r8, r0, r8, asr #32
     21c:	00000373 	andeq	r0, r0, r3, ror r3
     220:	0000022a 	andeq	r0, r0, sl, lsr #4
     224:	01500110 	cmpeq	r0, r0, lsl r1
     228:	58130031 	ldmdapl	r3, {r0, r4, r5}
     22c:	8f000080 	svchi	0x00000080
     230:	47000003 	strmi	r0, [r0, -r3]
     234:	10000002 	andne	r0, r0, r2
     238:	75025101 	strvc	r5, [r2, #-257]	; 0x101
     23c:	50011000 	andpl	r1, r1, r0
     240:	99400305 	stmdbls	r0, {r0, r2, r8, r9}^
     244:	13000000 	movwne	r0, #0
     248:	000080f8 	strdeq	r8, [r0], -r8	; <UNPREDICTABLE>
     24c:	000003c5 	andeq	r0, r0, r5, asr #7
     250:	00000260 	andeq	r0, r0, r0, ror #4
     254:	02510110 	subseq	r0, r1, #16, 2
     258:	01104008 	tsteq	r0, r8
     25c:	00310150 	eorseq	r0, r1, r0, asr r1
     260:	00810412 	addeq	r0, r1, r2, lsl r4
     264:	00038800 	andeq	r8, r3, r0, lsl #16
     268:	81181300 	tsthi	r8, r0, lsl #6
     26c:	038f0000 	orreq	r0, pc, #0
     270:	02970000 	addseq	r0, r7, #0
     274:	01100000 	tsteq	r0, r0
     278:	104e0153 	subne	r0, lr, r3, asr r1
     27c:	03055201 	movweq	r5, #20993	; 0x5201
     280:	00009910 	andeq	r9, r0, r0, lsl r9
     284:	05510110 	ldrbeq	r0, [r1, #-272]	; 0x110
     288:	00999c03 	addseq	r9, r9, r3, lsl #24
     28c:	50011000 	andpl	r1, r1, r0
     290:	99ac0305 	stmibls	ip!, {r0, r2, r8, r9}
     294:	12000000 	andne	r0, r0, #0
     298:	0000811c 	andeq	r8, r0, ip, lsl r1
     29c:	000003a5 	andeq	r0, r0, r5, lsr #7
     2a0:	00812012 	addeq	r2, r1, r2, lsl r0
     2a4:	0003df00 	andeq	sp, r3, r0, lsl #30
     2a8:	81241200 	teqhi	r4, r0, lsl #4
     2ac:	03ba0000 			; <UNDEFINED> instruction: 0x03ba0000
     2b0:	30120000 	andscc	r0, r2, r0
     2b4:	88000081 	stmdahi	r0, {r0, r7}
     2b8:	13000003 	movwne	r0, #3
     2bc:	00008144 	andeq	r8, r0, r4, asr #2
     2c0:	0000038f 	andeq	r0, r0, pc, lsl #7
     2c4:	000002ea 	andeq	r0, r0, sl, ror #5
     2c8:	02530110 	subseq	r0, r3, #16, 2
     2cc:	01102208 	tsteq	r0, r8, lsl #4
     2d0:	10030552 	andne	r0, r3, r2, asr r5
     2d4:	10000099 	mulne	r0, r9, r0
     2d8:	03055101 	movweq	r5, #20737	; 0x5101
     2dc:	0000999c 	muleq	r0, ip, r9
     2e0:	05500110 	ldrbeq	r0, [r0, #-272]	; 0x110
     2e4:	0099f403 	addseq	pc, r9, r3, lsl #8
     2e8:	48120000 	ldmdami	r2, {}	; <UNPREDICTABLE>
     2ec:	a5000081 	strge	r0, [r0, #-129]	; 0x81
     2f0:	13000003 	movwne	r0, #3
     2f4:	00008150 	andeq	r8, r0, r0, asr r1
     2f8:	00000373 	andeq	r0, r0, r3, ror r3
     2fc:	00000306 	andeq	r0, r0, r6, lsl #6
     300:	01500110 	cmpeq	r0, r0, lsl r1
     304:	5c120031 	ldcpl	0, cr0, [r2], {49}	; 0x31
     308:	88000081 	stmdahi	r0, {r0, r7}
     30c:	13000003 	movwne	r0, #3
     310:	00008170 	andeq	r8, r0, r0, ror r1
     314:	0000038f 	andeq	r0, r0, pc, lsl #7
     318:	0000033e 	andeq	r0, r0, lr, lsr r3
     31c:	02530110 	subseq	r0, r3, #16, 2
     320:	01102308 	tsteq	r0, r8, lsl #6
     324:	10030552 	andne	r0, r3, r2, asr r5
     328:	10000099 	mulne	r0, r9, r0
     32c:	03055101 	movweq	r5, #20737	; 0x5101
     330:	0000999c 	muleq	r0, ip, r9
     334:	05500110 	ldrbeq	r0, [r0, #-272]	; 0x110
     338:	009a4003 	addseq	r4, sl, r3
     33c:	74120000 	ldrvc	r0, [r2], #-0
     340:	a5000081 	strge	r0, [r0, #-129]	; 0x81
     344:	13000003 	movwne	r0, #3
     348:	0000817c 	andeq	r8, r0, ip, ror r1
     34c:	0000038f 	andeq	r0, r0, pc, lsl #7
     350:	0000035e 	andeq	r0, r0, lr, asr r3
     354:	05500110 	ldrbeq	r0, [r0, #-272]	; 0x110
     358:	009a9403 	addseq	r9, sl, r3, lsl #8
     35c:	80120000 	andshi	r0, r2, r0
     360:	a5000081 	strge	r0, [r0, #-129]	; 0x81
     364:	00000003 	andeq	r0, r0, r3
     368:	002c0405 	eoreq	r0, ip, r5, lsl #8
     36c:	86060000 	strhi	r0, [r6], -r0
     370:	14000000 	strne	r0, [r0], #-0
     374:	000000c8 	andeq	r0, r0, r8, asr #1
     378:	00726d02 	rsbseq	r6, r2, r2, lsl #26
     37c:	03880000 	orreq	r0, r8, #0
     380:	2c150000 	ldccs	0, cr0, [r5], {-0}
     384:	00000000 	andeq	r0, r0, r0
     388:	00018616 	andeq	r8, r1, r6, lsl r6
     38c:	141e0200 	ldrne	r0, [lr], #-512	; 0x200
     390:	00000261 	andeq	r0, r0, r1, ror #4
     394:	00252902 	eoreq	r2, r5, r2, lsl #18
     398:	03a50000 			; <UNDEFINED> instruction: 0x03a50000
     39c:	7b150000 	blvc	5403a4 <__bss_end__+0x536154>
     3a0:	17000000 	strne	r0, [r0, -r0]
     3a4:	00e81600 	rsceq	r1, r8, r0, lsl #12
     3a8:	66020000 	strvs	r0, [r2], -r0
     3ac:	0000d016 	andeq	sp, r0, r6, lsl r0
     3b0:	163a0200 	ldrtne	r0, [sl], -r0, lsl #4
     3b4:	00000179 	andeq	r0, r0, r9, ror r1
     3b8:	68187102 	ldmdavs	r8, {r1, r8, ip, sp, lr}
     3bc:	02000001 	andeq	r0, r0, #1
     3c0:	00007277 	andeq	r7, r0, r7, ror r2
     3c4:	00001400 	andeq	r1, r0, r0, lsl #8
     3c8:	6e020000 	cdpvs	0, 0, cr0, cr2, cr0, {0}
     3cc:	00000072 	andeq	r0, r0, r2, ror r0
     3d0:	000003df 	ldrdeq	r0, [r0], -pc	; <UNPREDICTABLE>
     3d4:	00002c15 	andeq	r2, r0, r5, lsl ip
     3d8:	002c1500 	eoreq	r1, ip, r0, lsl #10
     3dc:	16000000 	strne	r0, [r0], -r0
     3e0:	00000067 	andeq	r0, r0, r7, rrx
     3e4:	73007b02 	movwvc	r7, #2818	; 0xb02
     3e8:	04000003 	streq	r0, [r0], #-3
     3ec:	00012700 	andeq	r2, r1, r0, lsl #14
     3f0:	10010400 	andne	r0, r1, r0, lsl #8
     3f4:	01000000 	mrseq	r0, (UNDEF: 0)
     3f8:	00000113 	andeq	r0, r0, r3, lsl r1
     3fc:	00000079 	andeq	r0, r0, r9, ror r0
     400:	000081a8 	andeq	r8, r0, r8, lsr #3
     404:	00000188 	andeq	r0, r0, r8, lsl #3
     408:	000000df 	ldrdeq	r0, [r0], -pc	; <UNPREDICTABLE>
     40c:	69050402 	stmdbvs	r5, {r1, sl}
     410:	0300746e 	movweq	r7, #1134	; 0x46e
     414:	00000195 	muleq	r0, r5, r1
     418:	0037d403 	eorseq	sp, r7, r3, lsl #8
     41c:	04040000 	streq	r0, [r4], #-0
     420:	00013a07 	andeq	r3, r1, r7, lsl #20
     424:	06010400 	streq	r0, [r1], -r0, lsl #8
     428:	000000dc 	ldrdeq	r0, [r0], -ip
     42c:	5e050204 	cdppl	2, 0, cr0, cr5, cr4, {0}
     430:	04000001 	streq	r0, [r0], #-1
     434:	01550504 	cmpeq	r5, r4, lsl #10
     438:	08040000 	stmdaeq	r4, {}	; <UNPREDICTABLE>
     43c:	00015005 	andeq	r5, r1, r5
     440:	08010400 	stmdaeq	r1, {sl}
     444:	000000da 	ldrdeq	r0, [r0], -sl
     448:	fb070204 	blx	1c0c62 <__bss_end__+0x1b6a12>
     44c:	04000000 	streq	r0, [r0], #-0
     450:	01350704 	teqeq	r5, r4, lsl #14
     454:	08040000 	stmdaeq	r4, {}	; <UNPREDICTABLE>
     458:	00013007 	andeq	r3, r1, r7
     45c:	07040400 	streq	r0, [r4, -r0, lsl #8]
     460:	00000147 	andeq	r0, r0, r7, asr #2
     464:	04060405 	streq	r0, [r6], #-1029	; 0x405
     468:	00000085 	andeq	r0, r0, r5, lsl #1
     46c:	e3080104 	movw	r0, #33028	; 0x8104
     470:	06000000 	streq	r0, [r0], -r0
     474:	00009204 	andeq	r9, r0, r4, lsl #4
     478:	00850700 	addeq	r0, r5, r0, lsl #14
     47c:	85080000 	strhi	r0, [r8, #-0]
     480:	a7000000 	strge	r0, [r0, -r0]
     484:	09000000 	stmdbeq	r0, {}	; <UNPREDICTABLE>
     488:	00000076 	andeq	r0, r0, r6, ror r0
     48c:	c80a0007 	stmdagt	sl, {r0, r1, r2}
     490:	01000000 	mrseq	r0, (UNDEF: 0)
     494:	00007d19 	andeq	r7, r0, r9, lsl sp
     498:	0081a800 	addeq	sl, r1, r0, lsl #16
     49c:	00006800 	andeq	r6, r0, r0, lsl #16
     4a0:	659c0100 	ldrvs	r0, [ip, #256]	; 0x100
     4a4:	0b000001 	bleq	4b0 <_start-0x7b50>
     4a8:	000001cd 	andeq	r0, r0, sp, asr #3
     4ac:	00371901 	eorseq	r1, r7, r1, lsl #18
     4b0:	01320000 	teqeq	r2, r0
     4b4:	1d0c0000 	stcne	0, cr0, [ip, #-0]
     4b8:	65000001 	strvs	r0, [r0, #-1]
     4bc:	05000001 	streq	r0, [r0, #-1]
     4c0:	009aa803 	addseq	sl, sl, r3, lsl #16
     4c4:	01e30d00 	mvneq	r0, r0, lsl #26
     4c8:	1c010000 	stcne	0, cr0, [r1], {-0}
     4cc:	0000007d 	andeq	r0, r0, sp, ror r0
     4d0:	c50e5401 	strgt	r5, [lr, #-1025]	; 0x401
     4d4:	01000001 	tsteq	r0, r1
     4d8:	0000371d 	andeq	r3, r0, sp, lsl r7
     4dc:	00016c00 	andeq	r6, r1, r0, lsl #24
     4e0:	81c00f00 	bichi	r0, r0, r0, lsl #30
     4e4:	03370000 	teqeq	r7, #0
     4e8:	d4100000 	ldrle	r0, [r0], #-0
     4ec:	3e000081 	cdpcc	0, 0, cr0, cr0, cr1, {4}
     4f0:	31000003 	tstcc	r0, r3
     4f4:	11000001 	tstne	r0, r1
     4f8:	4a015301 	bmi	55104 <__bss_end__+0x4aeb4>
     4fc:	05520111 	ldrbeq	r0, [r2, #-273]	; 0x111
     500:	009aa803 	addseq	sl, sl, r3, lsl #16
     504:	51011100 	mrspl	r1, (UNDEF: 17)
     508:	9b100305 	blls	401124 <__bss_end__+0x3f6ed4>
     50c:	01110000 	tsteq	r1, r0
     510:	d0030550 	andle	r0, r3, r0, asr r5
     514:	0000009a 	muleq	r0, sl, r0
     518:	0081d80f 	addeq	sp, r1, pc, lsl #16
     51c:	00035400 	andeq	r5, r3, r0, lsl #8
     520:	81f81200 	mvnshi	r1, r0, lsl #4
     524:	035b0000 	cmpeq	fp, #0
     528:	01110000 	tsteq	r1, r0
     52c:	01f30852 	mvnseq	r0, r2, asr r8
     530:	09032350 	stmdbeq	r3, {r4, r6, r8, r9, sp}
     534:	01111afc 			; <UNDEFINED> instruction: 0x01111afc
     538:	11300151 	teqne	r0, r1, asr r1
     53c:	f30b5001 	vhadd.u8	d5, d11, d1
     540:	03235001 	teqeq	r3, #1
     544:	741afc09 	ldrvc	pc, [sl], #-3081	; 0xc09
     548:	00002200 	andeq	r2, r0, r0, lsl #4
     54c:	00009707 	andeq	r9, r0, r7, lsl #14
     550:	00000a00 	andeq	r0, r0, r0, lsl #20
     554:	26010000 	strcs	r0, [r1], -r0
     558:	0000007d 	andeq	r0, r0, sp, ror r0
     55c:	00008210 	andeq	r8, r0, r0, lsl r2
     560:	0000009c 	muleq	r0, ip, r0
     564:	02549c01 	subseq	r9, r4, #256	; 0x100
     568:	cd0b0000 	stcgt	0, cr0, [fp, #-0]
     56c:	01000001 	tsteq	r0, r1
     570:	00003726 	andeq	r3, r0, r6, lsr #14
     574:	00019200 	andeq	r9, r1, r0, lsl #4
     578:	01bb0b00 			; <UNDEFINED> instruction: 0x01bb0b00
     57c:	26010000 	strcs	r0, [r1], -r0
     580:	00000037 	andeq	r0, r0, r7, lsr r0
     584:	000001fe 	strdeq	r0, [r0], -lr
     588:	00011d0c 	andeq	r1, r1, ip, lsl #26
     58c:	00026400 	andeq	r6, r2, r0, lsl #8
     590:	b0030500 	andlt	r0, r3, r0, lsl #10
     594:	0e00009a 	mcreq	0, 0, r0, cr0, cr10, {4}
     598:	000001a3 	andeq	r0, r0, r3, lsr #3
     59c:	00372c01 	eorseq	r2, r7, r1, lsl #24
     5a0:	02780000 	rsbseq	r0, r8, #0
     5a4:	280f0000 	stmdacs	pc, {}	; <UNPREDICTABLE>
     5a8:	37000082 	strcc	r0, [r0, -r2, lsl #1]
     5ac:	10000003 	andne	r0, r0, r3
     5b0:	0000823c 	andeq	r8, r0, ip, lsr r2
     5b4:	0000033e 	andeq	r0, r0, lr, lsr r3
     5b8:	000001f7 	strdeq	r0, [r0], -r7
     5bc:	02530111 	subseq	r0, r3, #1073741828	; 0x40000004
     5c0:	01112708 	tsteq	r1, r8, lsl #14
     5c4:	b0030552 	andlt	r0, r3, r2, asr r5
     5c8:	1100009a 	swpne	r0, sl, [r0]	; <UNPREDICTABLE>
     5cc:	03055101 	movweq	r5, #20737	; 0x5101
     5d0:	00009b10 	andeq	r9, r0, r0, lsl fp
     5d4:	05500111 	ldrbeq	r0, [r0, #-273]	; 0x111
     5d8:	009ad003 	addseq	sp, sl, r3
     5dc:	400f0000 	andmi	r0, pc, r0
     5e0:	54000082 	strpl	r0, [r0], #-130	; 0x82
     5e4:	0f000003 	svceq	0x00000003
     5e8:	0000824c 	andeq	r8, r0, ip, asr #4
     5ec:	000000a7 	andeq	r0, r0, r7, lsr #1
     5f0:	00825c0f 	addeq	r5, r2, pc, lsl #24
     5f4:	00033700 	andeq	r3, r3, r0, lsl #14
     5f8:	82701000 	rsbshi	r1, r0, #0
     5fc:	033e0000 	teqeq	lr, #0
     600:	02410000 	subeq	r0, r1, #0
     604:	01110000 	tsteq	r1, r0
     608:	2b080253 	blcs	200f5c <__bss_end__+0x1f6d0c>
     60c:	05520111 	ldrbeq	r0, [r2, #-273]	; 0x111
     610:	009ab003 	addseq	fp, sl, r3
     614:	51011100 	mrspl	r1, (UNDEF: 17)
     618:	9b100305 	blls	401234 <__bss_end__+0x3f6fe4>
     61c:	01110000 	tsteq	r1, r0
     620:	1c030550 	cfstr32ne	mvfx0, [r3], {80}	; 0x50
     624:	0000009b 	muleq	r0, fp, r0
     628:	0082740f 	addeq	r7, r2, pc, lsl #8
     62c:	00035400 	andeq	r5, r3, r0, lsl #8
     630:	82940f00 	addshi	r0, r4, #0, 30
     634:	00a70000 	adceq	r0, r7, r0
     638:	08000000 	stmdaeq	r0, {}	; <UNPREDICTABLE>
     63c:	00000085 	andeq	r0, r0, r5, lsl #1
     640:	00000264 	andeq	r0, r0, r4, ror #4
     644:	00007609 	andeq	r7, r0, r9, lsl #12
     648:	07000f00 	streq	r0, [r0, -r0, lsl #30]
     64c:	00000254 	andeq	r0, r0, r4, asr r2
     650:	00017913 	andeq	r7, r1, r3, lsl r9
     654:	ac3b0100 	ldfges	f0, [fp], #-0
     658:	5c000082 	stcpl	0, cr0, [r0], {130}	; 0x82
     65c:	01000000 	mrseq	r0, (UNDEF: 0)
     660:	0002cf9c 	muleq	r2, ip, pc	; <UNPREDICTABLE>
     664:	011d0c00 	tsteq	sp, r0, lsl #24
     668:	02df0000 	sbcseq	r0, pc, #0
     66c:	03050000 	movweq	r0, #20480	; 0x5000
     670:	00009ac0 	andeq	r9, r0, r0, asr #21
     674:	0082c40f 	addeq	ip, r2, pc, lsl #8
     678:	00033700 	andeq	r3, r3, r0, lsl #14
     67c:	82d81000 	sbcshi	r1, r8, #0
     680:	033e0000 	teqeq	lr, #0
     684:	02c50000 	sbceq	r0, r5, #0
     688:	01110000 	tsteq	r1, r0
     68c:	3c080253 	sfmcc	f0, 4, [r8], {83}	; 0x53
     690:	05520111 	ldrbeq	r0, [r2, #-273]	; 0x111
     694:	009ac003 	addseq	ip, sl, r3
     698:	51011100 	mrspl	r1, (UNDEF: 17)
     69c:	9b100305 	blls	4012b8 <__bss_end__+0x3f7068>
     6a0:	01110000 	tsteq	r1, r0
     6a4:	74030550 	strvc	r0, [r3], #-1360	; 0x550
     6a8:	0000009b 	muleq	r0, fp, r0
     6ac:	0082dc0f 	addeq	sp, r2, pc, lsl #24
     6b0:	00035400 	andeq	r5, r3, r0, lsl #8
     6b4:	85080000 	strhi	r0, [r8, #-0]
     6b8:	df000000 	svcle	0x00000000
     6bc:	09000002 	stmdbeq	r0, {r1}
     6c0:	00000076 	andeq	r0, r0, r6, ror r0
     6c4:	cf07000c 	svcgt	0x0007000c
     6c8:	14000002 	strne	r0, [r0], #-2
     6cc:	00000067 	andeq	r0, r0, r7, rrx
     6d0:	83084501 	movwhi	r4, #34049	; 0x8501
     6d4:	00180000 	andseq	r0, r8, r0
     6d8:	9c010000 	stcls	0, cr0, [r1], {-0}
     6dc:	00016815 	andeq	r6, r1, r5, lsl r8
     6e0:	7d4e0100 	stfvce	f0, [lr, #-0]
     6e4:	20000000 	andcs	r0, r0, r0
     6e8:	10000083 	andne	r0, r0, r3, lsl #1
     6ec:	01000000 	mrseq	r0, (UNDEF: 0)
     6f0:	019c0d9c 			; <UNDEFINED> instruction: 0x019c0d9c
     6f4:	08010000 	stmdaeq	r1, {}	; <UNPREDICTABLE>
     6f8:	00000025 	andeq	r0, r0, r5, lsr #32
     6fc:	9e3c0305 	cdpls	3, 3, cr0, cr12, cr5, {0}
     700:	700d0000 	andvc	r0, sp, r0
     704:	01000001 	tsteq	r0, r1
     708:	00007f0b 	andeq	r7, r0, fp, lsl #30
     70c:	40030500 	andmi	r0, r3, r0, lsl #10
     710:	1600009e 			; <UNDEFINED> instruction: 0x1600009e
     714:	000001d4 	ldrdeq	r0, [r0], -r4
     718:	00850501 	addeq	r0, r5, r1, lsl #10
     71c:	86170000 	ldrhi	r0, [r7], -r0
     720:	02000001 	andeq	r0, r0, #1
     724:	0261181e 	rsbeq	r1, r1, #1966080	; 0x1e0000
     728:	29020000 	stmdbcs	r2, {}	; <UNPREDICTABLE>
     72c:	00000025 	andeq	r0, r0, r5, lsr #32
     730:	00000354 	andeq	r0, r0, r4, asr r3
     734:	00008c19 	andeq	r8, r0, r9, lsl ip
     738:	17001a00 	strne	r1, [r0, -r0, lsl #20]
     73c:	000000e8 	andeq	r0, r0, r8, ror #1
     740:	b41b6602 	ldrlt	r6, [fp], #-1538	; 0x602
     744:	04000001 	streq	r0, [r0], #-1
     748:	00007d1b 	andeq	r7, r0, fp, lsl sp
     74c:	007d1900 	rsbseq	r1, sp, r0, lsl #18
     750:	25190000 	ldrcs	r0, [r9, #-0]
     754:	19000000 	stmdbne	r0, {}	; <UNPREDICTABLE>
     758:	0000002c 	andeq	r0, r0, ip, lsr #32
     75c:	00db0000 	sbcseq	r0, fp, r0
     760:	00040000 	andeq	r0, r4, r0
     764:	000002ae 	andeq	r0, r0, lr, lsr #5
     768:	00100104 	andseq	r0, r0, r4, lsl #2
     76c:	ef010000 	svc	0x00010000
     770:	fd000001 	stc2	0, cr0, [r0, #-4]
     774:	30000001 	andcc	r0, r0, r1
     778:	20000083 	andcs	r0, r0, r3, lsl #1
     77c:	47000000 	strmi	r0, [r0, -r0]
     780:	02000002 	andeq	r0, r0, #2
     784:	00dc0601 	sbcseq	r0, ip, r1, lsl #12
     788:	01020000 	mrseq	r0, (UNDEF: 2)
     78c:	0000da08 	andeq	sp, r0, r8, lsl #20
     790:	05020200 	streq	r0, [r2, #-512]	; 0x200
     794:	0000015e 	andeq	r0, r0, lr, asr r1
     798:	fb070202 	blx	1c0faa <__bss_end__+0x1b6d5a>
     79c:	03000000 	movweq	r0, #0
     7a0:	6e690504 	cdpvs	5, 6, cr0, cr9, cr4, {0}
     7a4:	04020074 	streq	r0, [r2], #-116	; 0x74
     7a8:	00013a07 	andeq	r3, r1, r7, lsl #20
     7ac:	05080200 	streq	r0, [r8, #-512]	; 0x200
     7b0:	00000150 	andeq	r0, r0, r0, asr r1
     7b4:	30070802 	andcc	r0, r7, r2, lsl #16
     7b8:	02000001 	andeq	r0, r0, #1
     7bc:	01550504 	cmpeq	r5, r4, lsl #10
     7c0:	04020000 	streq	r0, [r2], #-0
     7c4:	00014707 	andeq	r4, r1, r7, lsl #14
     7c8:	02040400 	andeq	r0, r4, #0, 8
     7cc:	01350704 	teqeq	r5, r4, lsl #14
     7d0:	04050000 	streq	r0, [r5], #-0
     7d4:	0000007a 	andeq	r0, r0, sl, ror r0
     7d8:	e3080102 	movw	r0, #33026	; 0x8102
     7dc:	06000000 	streq	r0, [r0], -r0
     7e0:	00000195 	muleq	r0, r5, r1
     7e4:	0048d402 	subeq	sp, r8, r2, lsl #8
     7e8:	b4070000 	strlt	r0, [r7], #-0
     7ec:	03000001 	movweq	r0, #1
     7f0:	00006b1b 	andeq	r6, r0, fp, lsl fp
     7f4:	00833000 	addeq	r3, r3, r0
     7f8:	00002000 	andeq	r2, r0, r0
     7fc:	089c0100 	ldmeq	ip, {r8}
     800:	0100705f 	qaddeq	r7, pc, r0	; <UNPREDICTABLE>
     804:	00006b03 	andeq	r6, r0, r3, lsl #22
     808:	08500100 	ldmdaeq	r0, {r8}^
     80c:	03010063 	movweq	r0, #4195	; 0x1063
     810:	00000041 	andeq	r0, r0, r1, asr #32
     814:	6e095101 	adfvse	f5, f1, f1
     818:	81030100 	mrshi	r0, (UNDEF: 19)
     81c:	a5000000 	strge	r0, [r0, #-0]
     820:	0a000002 	beq	830 <_start-0x77d0>
     824:	04010070 	streq	r0, [r1], #-112	; 0x70
     828:	00000074 	andeq	r0, r0, r4, ror r0
     82c:	000002c6 	andeq	r0, r0, r6, asr #5
     830:	0100650b 	tsteq	r0, fp, lsl #10
     834:	00007404 	andeq	r7, r0, r4, lsl #8
     838:	00520100 	subseq	r0, r2, r0, lsl #2
     83c:	00019100 	andeq	r9, r1, r0, lsl #2
     840:	4b000400 	blmi	1848 <_start-0x67b8>
     844:	04000003 	streq	r0, [r0], #-3
     848:	00001001 	andeq	r1, r0, r1
     84c:	02500100 	subseq	r0, r0, #0, 2
     850:	01fd0000 	mvnseq	r0, r0
     854:	83500000 	cmphi	r0, #0
     858:	00580000 	subseq	r0, r8, r0
     85c:	03370000 	teqeq	r7, #0
     860:	41020000 	mrsmi	r0, (UNDEF: 2)
     864:	02000002 	andeq	r0, r0, #2
     868:	00003028 	andeq	r3, r0, r8, lsr #32
     86c:	02680300 	rsbeq	r0, r8, #0, 6
     870:	03040000 	movweq	r0, #16384	; 0x4000
     874:	00004700 	andeq	r4, r0, r0, lsl #14
     878:	02770400 	rsbseq	r0, r7, #0, 8
     87c:	00470000 	subeq	r0, r7, r0
     880:	00000000 	andeq	r0, r0, r0
     884:	6a020405 	bvs	818a0 <__bss_end__+0x77650>
     888:	02000002 	andeq	r0, r0, #2
     88c:	00002562 	andeq	r2, r0, r2, ror #10
     890:	05040600 	streq	r0, [r4, #-1536]	; 0x600
     894:	00746e69 	rsbseq	r6, r4, r9, ror #28
     898:	3a070407 	bcc	1c18bc <__bss_end__+0x1b766c>
     89c:	07000001 	streq	r0, [r0, -r1]
     8a0:	00dc0601 	sbcseq	r0, ip, r1, lsl #12
     8a4:	02070000 	andeq	r0, r7, #0
     8a8:	00015e05 	andeq	r5, r1, r5, lsl #28
     8ac:	05040700 	streq	r0, [r4, #-1792]	; 0x700
     8b0:	00000155 	andeq	r0, r0, r5, asr r1
     8b4:	50050807 	andpl	r0, r5, r7, lsl #16
     8b8:	07000001 	streq	r0, [r0, -r1]
     8bc:	00da0801 	sbcseq	r0, sl, r1, lsl #16
     8c0:	02070000 	andeq	r0, r7, #0
     8c4:	0000fb07 	andeq	pc, r0, r7, lsl #22
     8c8:	07040700 	streq	r0, [r4, -r0, lsl #14]
     8cc:	00000135 	andeq	r0, r0, r5, lsr r1
     8d0:	30070807 	andcc	r0, r7, r7, lsl #16
     8d4:	07000001 	streq	r0, [r0, -r1]
     8d8:	01470704 	cmpeq	r7, r4, lsl #14
     8dc:	04080000 	streq	r0, [r8], #-0
     8e0:	000000a7 	andeq	r0, r0, r7, lsr #1
     8e4:	e3080107 	movw	r0, #33031	; 0x8107
     8e8:	08000000 	stmdaeq	r0, {}	; <UNPREDICTABLE>
     8ec:	0000b404 	andeq	fp, r0, r4, lsl #8
     8f0:	00a70900 	adceq	r0, r7, r0, lsl #18
     8f4:	610a0000 	mrsvs	r0, (UNDEF: 10)
     8f8:	01000002 	tsteq	r0, r2
     8fc:	00005406 	andeq	r5, r0, r6, lsl #8
     900:	00835000 	addeq	r5, r3, r0
     904:	00005800 	andeq	r5, r0, r0, lsl #16
     908:	439c0100 	orrsmi	r0, ip, #0, 2
     90c:	0b000001 	bleq	918 <_start-0x76e8>
     910:	00746d66 	rsbseq	r6, r4, r6, ror #26
     914:	00ae0601 	adceq	r0, lr, r1, lsl #12
     918:	91020000 	mrsls	r0, (UNDEF: 2)
     91c:	620d0c70 	andvs	r0, sp, #112, 24	; 0x7000
     920:	01006675 	tsteq	r0, r5, ror r6
     924:	00014308 	andeq	r4, r1, r8, lsl #6
     928:	44030500 	strmi	r0, [r3], #-1280	; 0x500
     92c:	0e00009e 	mcreq	0, 0, r0, cr0, cr14, {4}
     930:	00000272 	andeq	r0, r0, r2, ror r2
     934:	00490901 	subeq	r0, r9, r1, lsl #18
     938:	91020000 	mrsls	r0, (UNDEF: 2)
     93c:	7a730f5c 	bvc	1cc46b4 <__bss_end__+0x1cba464>
     940:	540c0100 	strpl	r0, [ip], #-256	; 0x100
     944:	f1000000 	cps	#0
     948:	10000002 	andne	r0, r0, r2
     94c:	00008378 	andeq	r8, r0, r8, ror r3
     950:	00000174 	andeq	r0, r0, r4, ror r1
     954:	00000136 	andeq	r0, r0, r6, lsr r1
     958:	02530111 	subseq	r0, r3, #1073741828	; 0x40000004
     95c:	01114c91 			; <UNDEFINED> instruction: 0x01114c91
     960:	48910352 	ldmmi	r1, {r1, r4, r6, r8, r9}
     964:	51011106 	tstpl	r1, r6, lsl #2
     968:	04000a03 	streq	r0, [r0], #-2563	; 0xa03
     96c:	02500111 	subseq	r0, r0, #1073741828	; 0x40000004
     970:	12000074 	andne	r0, r0, #116	; 0x74
     974:	0000838c 	andeq	r8, r0, ip, lsl #7
     978:	02500111 	subseq	r0, r0, #1073741828	; 0x40000004
     97c:	00000074 	andeq	r0, r0, r4, ror r0
     980:	0000a713 	andeq	sl, r0, r3, lsl r7
     984:	00015400 	andeq	r5, r1, r0, lsl #8
     988:	009a1400 	addseq	r1, sl, r0, lsl #8
     98c:	03ff0000 	mvnseq	r0, #0
     990:	00541500 	subseq	r1, r4, r0, lsl #10
     994:	01630000 	cmneq	r3, r0
     998:	ae160000 	cdpge	0, 1, cr0, cr6, cr0, {0}
     99c:	00000000 	andeq	r0, r0, r0
     9a0:	0002ca17 	andeq	ip, r2, r7, lsl sl
     9a4:	6e220400 	cdpvs	4, 2, cr0, cr2, cr0, {0}
     9a8:	08000001 	stmdaeq	r0, {r0}
     9ac:	00015404 	andeq	r5, r1, r4, lsl #8
     9b0:	025e1800 	subseq	r1, lr, #0, 16
     9b4:	02050000 	andeq	r0, r5, #0
     9b8:	00000054 	andeq	r0, r0, r4, asr r0
     9bc:	0000a116 	andeq	sl, r0, r6, lsl r1
     9c0:	00541600 	subseq	r1, r4, r0, lsl #12
     9c4:	ae160000 	cdpge	0, 1, cr0, cr6, cr0, {0}
     9c8:	16000000 	strne	r0, [r0], -r0
     9cc:	00000049 	andeq	r0, r0, r9, asr #32
     9d0:	01130000 	tsteq	r3, r0
     9d4:	00040000 	andeq	r0, r4, r0
     9d8:	0000047c 	andeq	r0, r0, ip, ror r4
     9dc:	00100104 	andseq	r0, r0, r4, lsl #2
     9e0:	99010000 	stmdbls	r1, {}	; <UNPREDICTABLE>
     9e4:	fd000002 	stc2	0, cr0, [r0, #-8]
     9e8:	a8000001 	stmdage	r0, {r0}
     9ec:	3c000083 	stccc	0, cr0, [r0], {131}	; 0x83
     9f0:	3d000000 	stccc	0, cr0, [r0, #-0]
     9f4:	02000004 	andeq	r0, r0, #4
     9f8:	6e690504 	cdpvs	5, 6, cr0, cr9, cr4, {0}
     9fc:	04030074 	streq	r0, [r3], #-116	; 0x74
     a00:	00013a07 	andeq	r3, r1, r7, lsl #20
     a04:	06010300 	streq	r0, [r1], -r0, lsl #6
     a08:	000000dc 	ldrdeq	r0, [r0], -ip
     a0c:	5e050203 	cdppl	2, 0, cr0, cr5, cr3, {0}
     a10:	03000001 	movweq	r0, #1
     a14:	01550504 	cmpeq	r5, r4, lsl #10
     a18:	08030000 	stmdaeq	r3, {}	; <UNPREDICTABLE>
     a1c:	00015005 	andeq	r5, r1, r5
     a20:	08010300 	stmdaeq	r1, {r8, r9}
     a24:	000000da 	ldrdeq	r0, [r0], -sl
     a28:	fb070203 	blx	1c123e <__bss_end__+0x1b6fee>
     a2c:	03000000 	movweq	r0, #0
     a30:	01350704 	teqeq	r5, r4, lsl #14
     a34:	08030000 	stmdaeq	r3, {}	; <UNPREDICTABLE>
     a38:	00013007 	andeq	r3, r1, r7
     a3c:	07040300 	streq	r0, [r4, -r0, lsl #6]
     a40:	00000147 	andeq	r0, r0, r7, asr #2
     a44:	e3080103 	movw	r0, #33027	; 0x8103
     a48:	04000000 	streq	r0, [r0], #-0
     a4c:	0000027c 	andeq	r0, r0, ip, ror r2
     a50:	00250301 	eoreq	r0, r5, r1, lsl #6
     a54:	83a80000 			; <UNDEFINED> instruction: 0x83a80000
     a58:	00140000 	andseq	r0, r4, r0
     a5c:	9c010000 	stcls	0, cr0, [r1], {-0}
     a60:	000000b0 	strheq	r0, [r0], -r0	; <UNPREDICTABLE>
     a64:	01006305 	tsteq	r0, r5, lsl #6
     a68:	00002503 	andeq	r2, r0, r3, lsl #10
     a6c:	00031a00 	andeq	r1, r3, r0, lsl #20
     a70:	83b40600 			; <UNDEFINED> instruction: 0x83b40600
     a74:	01090000 	mrseq	r0, (UNDEF: 9)
     a78:	01070000 	mrseq	r0, (UNDEF: 7)
     a7c:	00740250 	rsbseq	r0, r4, r0, asr r2
     a80:	86080000 	strhi	r0, [r8], -r0
     a84:	01000001 	tsteq	r0, r1
     a88:	0083bc08 	addeq	fp, r3, r8, lsl #24
     a8c:	00001800 	andeq	r1, r0, r0, lsl #16
     a90:	099c0100 	ldmibeq	ip, {r8}
     a94:	000002a8 	andeq	r0, r0, r8, lsr #5
     a98:	83d40b01 	bicshi	r0, r4, #1024	; 0x400
     a9c:	00100000 	andseq	r0, r0, r0
     aa0:	9c010000 	stcls	0, cr0, [r1], {-0}
     aa4:	000000e3 	andeq	r0, r0, r3, ror #1
     aa8:	0070660a 	rsbseq	r6, r0, sl, lsl #12
     aac:	00f20b01 	rscseq	r0, r2, r1, lsl #22
     ab0:	50010000 	andpl	r0, r1, r0
     ab4:	00250b00 	eoreq	r0, r5, r0, lsl #22
     ab8:	00f20000 	rscseq	r0, r2, r0
     abc:	250c0000 	strcs	r0, [ip, #-0]
     ac0:	00000000 	andeq	r0, r0, r0
     ac4:	00e3040d 	rsceq	r0, r3, sp, lsl #8
     ac8:	8d0e0000 	stchi	0, cr0, [lr, #-0]
     acc:	01000002 	tsteq	r0, r2
     ad0:	0000f206 	andeq	pc, r0, r6, lsl #4
     ad4:	74030500 	strvc	r0, [r3], #-1280	; 0x500
     ad8:	0f000098 	svceq	0x00000098
     adc:	000003fd 	strdeq	r0, [r0], -sp
     ae0:	2c0c3c02 	stccs	12, cr3, [ip], {2}
     ae4:	00000000 	andeq	r0, r0, r0
     ae8:	0000ee00 	andeq	lr, r0, r0, lsl #28
     aec:	64000400 	strvs	r0, [r0], #-1024	; 0x400
     af0:	04000005 	streq	r0, [r0], #-5
     af4:	00001001 	andeq	r1, r0, r1
     af8:	02b50100 	adcseq	r0, r5, #0, 2
     afc:	01fd0000 	mvnseq	r0, r0
     b00:	83e40000 	mvnhi	r0, #0
     b04:	00340000 	eorseq	r0, r4, r0
     b08:	04cb0000 	strbeq	r0, [fp], #0
     b0c:	04020000 	streq	r0, [r2], #-0
     b10:	746e6905 	strbtvc	r6, [lr], #-2309	; 0x905
     b14:	07040300 	streq	r0, [r4, -r0, lsl #6]
     b18:	0000013a 	andeq	r0, r0, sl, lsr r1
     b1c:	dc060103 	stfles	f0, [r6], {3}
     b20:	03000000 	movweq	r0, #0
     b24:	015e0502 	cmpeq	lr, r2, lsl #10
     b28:	04030000 	streq	r0, [r3], #-0
     b2c:	00015505 	andeq	r5, r1, r5, lsl #10
     b30:	05080300 	streq	r0, [r8, #-768]	; 0x300
     b34:	00000150 	andeq	r0, r0, r0, asr r1
     b38:	da080103 	ble	200f4c <__bss_end__+0x1f6cfc>
     b3c:	03000000 	movweq	r0, #0
     b40:	00fb0702 	rscseq	r0, fp, r2, lsl #14
     b44:	04030000 	streq	r0, [r3], #-0
     b48:	00013507 	andeq	r3, r1, r7, lsl #10
     b4c:	07080300 	streq	r0, [r8, -r0, lsl #6]
     b50:	00000130 	andeq	r0, r0, r0, lsr r1
     b54:	47070403 	strmi	r0, [r7, -r3, lsl #8]
     b58:	03000001 	movweq	r0, #1
     b5c:	00e30801 	rsceq	r0, r3, r1, lsl #16
     b60:	04040000 	streq	r0, [r4], #-0
     b64:	0000007f 	andeq	r0, r0, pc, ror r0
     b68:	00007205 	andeq	r7, r0, r5, lsl #4
     b6c:	02c10600 	sbceq	r0, r1, #0, 12
     b70:	04010000 	streq	r0, [r1], #-0
     b74:	00000025 	andeq	r0, r0, r5, lsr #32
     b78:	000083e4 	andeq	r8, r0, r4, ror #7
     b7c:	00000034 	andeq	r0, r0, r4, lsr r0
     b80:	00ab9c01 	adceq	r9, fp, r1, lsl #24
     b84:	70070000 	andvc	r0, r7, r0
     b88:	79040100 	stmdbvc	r4, {r8}
     b8c:	38000000 	stmdacc	r0, {}	; <UNPREDICTABLE>
     b90:	00000003 	andeq	r0, r0, r3
     b94:	00002508 	andeq	r2, r0, r8, lsl #10
     b98:	0000ba00 	andeq	fp, r0, r0, lsl #20
     b9c:	00250900 	eoreq	r0, r5, r0, lsl #18
     ba0:	0a000000 	beq	ba8 <_start-0x7458>
     ba4:	0000028d 	andeq	r0, r0, sp, lsl #5
     ba8:	00c51d02 	sbceq	r1, r5, r2, lsl #26
     bac:	04040000 	streq	r0, [r4], #-0
     bb0:	000000ab 	andeq	r0, r0, fp, lsr #1
     bb4:	00002508 	andeq	r2, r0, r8, lsl #10
     bb8:	0000da00 	andeq	sp, r0, r0, lsl #20
     bbc:	00790900 	rsbseq	r0, r9, r0, lsl #18
     bc0:	0b000000 	bleq	bc8 <_start-0x7438>
     bc4:	000002ca 	andeq	r0, r0, sl, asr #5
     bc8:	00eb0c01 	rsceq	r0, fp, r1, lsl #24
     bcc:	03050000 	movweq	r0, #20480	; 0x5000
     bd0:	00009878 	andeq	r9, r0, r8, ror r8
     bd4:	00cb0404 	sbceq	r0, fp, r4, lsl #8
     bd8:	81000000 	mrshi	r0, (UNDEF: 0)
     bdc:	04000006 	streq	r0, [r0], #-6
     be0:	0005fd00 	andeq	pc, r5, r0, lsl #26
     be4:	10010400 	andne	r0, r1, r0, lsl #8
     be8:	01000000 	mrseq	r0, (UNDEF: 0)
     bec:	000002fb 	strdeq	r0, [r0], -fp
     bf0:	000001fd 	strdeq	r0, [r0], -sp
     bf4:	00008418 	andeq	r8, r0, r8, lsl r4
     bf8:	000004f8 	strdeq	r0, [r0], -r8
     bfc:	00000565 	andeq	r0, r0, r5, ror #10
     c00:	69050402 	stmdbvs	r5, {r1, sl}
     c04:	0300746e 	movweq	r7, #1134	; 0x46e
     c08:	013a0704 	teqeq	sl, r4, lsl #14
     c0c:	01030000 	mrseq	r0, (UNDEF: 3)
     c10:	0000dc06 	andeq	sp, r0, r6, lsl #24
     c14:	05020300 	streq	r0, [r2, #-768]	; 0x300
     c18:	0000015e 	andeq	r0, r0, lr, asr r1
     c1c:	55050403 	strpl	r0, [r5, #-1027]	; 0x403
     c20:	03000001 	movweq	r0, #1
     c24:	01500508 	cmpeq	r0, r8, lsl #10
     c28:	01030000 	mrseq	r0, (UNDEF: 3)
     c2c:	0000da08 	andeq	sp, r0, r8, lsl #20
     c30:	07020300 	streq	r0, [r2, -r0, lsl #6]
     c34:	000000fb 	strdeq	r0, [r0], -fp
     c38:	35070403 	strcc	r0, [r7, #-1027]	; 0x403
     c3c:	03000001 	movweq	r0, #1
     c40:	01300708 	teqeq	r0, r8, lsl #14
     c44:	04030000 	streq	r0, [r3], #-0
     c48:	00014707 	andeq	r4, r1, r7, lsl #14
     c4c:	05040400 	streq	r0, [r4, #-1024]	; 0x400
     c50:	00007a04 	andeq	r7, r0, r4, lsl #20
     c54:	08010300 	stmdaeq	r1, {r8, r9}
     c58:	000000e3 	andeq	r0, r0, r3, ror #1
     c5c:	00870405 	addeq	r0, r7, r5, lsl #8
     c60:	7a060000 	bvc	180c68 <__bss_end__+0x176a18>
     c64:	07000000 	streq	r0, [r0, -r0]
     c68:	00000241 	andeq	r0, r0, r1, asr #4
     c6c:	00972802 	addseq	r2, r7, r2, lsl #16
     c70:	68080000 	stmdavs	r8, {}	; <UNPREDICTABLE>
     c74:	04000002 	streq	r0, [r0], #-2
     c78:	00ae0004 	adceq	r0, lr, r4
     c7c:	77090000 	strvc	r0, [r9, -r0]
     c80:	72000002 	andvc	r0, r0, #2
     c84:	00000000 	andeq	r0, r0, r0
     c88:	026a0700 	rsbeq	r0, sl, #0, 14
     c8c:	62020000 	andvs	r0, r2, #0
     c90:	0000008c 	andeq	r0, r0, ip, lsl #1
     c94:	0002dd0a 	andeq	sp, r2, sl, lsl #26
     c98:	25270100 	strcs	r0, [r7, #-256]!	; 0x100
     c9c:	18000000 	stmdane	r0, {}	; <UNPREDICTABLE>
     ca0:	14000084 	strne	r0, [r0], #-132	; 0x84
     ca4:	01000000 	mrseq	r0, (UNDEF: 0)
     ca8:	0000e09c 	muleq	r0, ip, r0
     cac:	00630b00 	rsbeq	r0, r3, r0, lsl #22
     cb0:	00252701 	eoreq	r2, r5, r1, lsl #14
     cb4:	03560000 	cmpeq	r6, #0
     cb8:	0c000000 	stceq	0, cr0, [r0], {-0}
     cbc:	00646170 	rsbeq	r6, r4, r0, ror r1
     cc0:	00742e01 	rsbseq	r2, r4, r1, lsl #28
     cc4:	842c0000 	strthi	r0, [ip], #-0
     cc8:	002c0000 	eoreq	r0, ip, r0
     ccc:	9c010000 	stcls	0, cr0, [r1], {-0}
     cd0:	00000130 	andeq	r0, r0, r0, lsr r1
     cd4:	0100700b 	tsteq	r0, fp
     cd8:	0000742e 	andeq	r7, r0, lr, lsr #8
     cdc:	00038400 	andeq	r8, r3, r0, lsl #8
     ce0:	02ed0d00 	rsceq	r0, sp, #0, 26
     ce4:	2e010000 	cdpcs	0, 0, cr0, cr1, cr0, {0}
     ce8:	00000074 	andeq	r0, r0, r4, ror r0
     cec:	000003af 	andeq	r0, r0, pc, lsr #7
     cf0:	00031b0e 	andeq	r1, r3, lr, lsl #22
     cf4:	252e0100 	strcs	r0, [lr, #-256]!	; 0x100
     cf8:	01000000 	mrseq	r0, (UNDEF: 0)
     cfc:	656c0f52 	strbvs	r0, [ip, #-3922]!	; 0xf52
     d00:	2f01006e 	svccs	0x0001006e
     d04:	00000025 	andeq	r0, r0, r5, lsr #32
     d08:	0a005101 	beq	15114 <__bss_end__+0xaec4>
     d0c:	000002d5 	ldrdeq	r0, [r0], -r5
     d10:	00743701 	rsbseq	r3, r4, r1, lsl #14
     d14:	84580000 	ldrbhi	r0, [r8], #-0
     d18:	00400000 	subeq	r0, r0, r0
     d1c:	9c010000 	stcls	0, cr0, [r1], {-0}
     d20:	0000019c 	muleq	r0, ip, r1
     d24:	7473640b 	ldrbtvc	r6, [r3], #-1035	; 0x40b
     d28:	74370100 	ldrtvc	r0, [r7], #-256	; 0x100
     d2c:	d0000000 	andle	r0, r0, r0
     d30:	0b000003 	bleq	d44 <_start-0x72bc>
     d34:	3701006e 	strcc	r0, [r1, -lr, rrx]
     d38:	00000025 	andeq	r0, r0, r5, lsr #32
     d3c:	00000408 	andeq	r0, r0, r8, lsl #8
     d40:	0100700b 	tsteq	r0, fp
     d44:	00007437 	andeq	r7, r0, r7, lsr r4
     d48:	00042900 	andeq	r2, r4, r0, lsl #18
     d4c:	03e90d00 	mvneq	r0, #0, 26
     d50:	37010000 	strcc	r0, [r1, -r0]
     d54:	00000074 	andeq	r0, r0, r4, ror r0
     d58:	0000045f 	andeq	r0, r0, pc, asr r4
     d5c:	6e656c10 	mcrvs	12, 3, r6, cr5, cr0, {0}
     d60:	25390100 	ldrcs	r0, [r9, #-256]!	; 0x100
     d64:	7d000000 	stcvc	0, cr0, [r0, #-0]
     d68:	0f000004 	svceq	0x00000004
     d6c:	3d010073 	stccc	0, cr0, [r1, #-460]	; 0xfffffe34
     d70:	00000074 	andeq	r0, r0, r4, ror r0
     d74:	0a005001 	beq	14d80 <__bss_end__+0xab30>
     d78:	00000329 	andeq	r0, r0, r9, lsr #6
     d7c:	00744701 	rsbseq	r4, r4, r1, lsl #14
     d80:	84980000 	ldrhi	r0, [r8], #0
     d84:	019c0000 	orrseq	r0, ip, r0
     d88:	9c010000 	stcls	0, cr0, [r1], {-0}
     d8c:	000002d3 	ldrdeq	r0, [r0], -r3
     d90:	0002ed0d 	andeq	lr, r2, sp, lsl #26
     d94:	2c470100 	stfcse	f0, [r7], {-0}
     d98:	a4000000 	strge	r0, [r0], #-0
     d9c:	0b000004 	bleq	db4 <_start-0x724c>
     da0:	00747364 	rsbseq	r7, r4, r4, ror #6
     da4:	00744701 	rsbseq	r4, r4, r1, lsl #14
     da8:	04d20000 	ldrbeq	r0, [r2], #0
     dac:	6e0b0000 	cdpvs	0, 0, cr0, cr11, cr0, {0}
     db0:	25470100 	strbcs	r0, [r7, #-256]	; 0x100
     db4:	40000000 	andmi	r0, r0, r0
     db8:	0b000005 	bleq	dd4 <_start-0x722c>
     dbc:	006c6176 	rsbeq	r6, ip, r6, ror r1
     dc0:	00254701 	eoreq	r4, r5, r1, lsl #14
     dc4:	056c0000 	strbeq	r0, [ip, #-0]!
     dc8:	1b0d0000 	blne	340dd0 <__bss_end__+0x336b80>
     dcc:	01000003 	tsteq	r0, r3
     dd0:	00002547 	andeq	r2, r0, r7, asr #10
     dd4:	0005eb00 	andeq	lr, r5, r0, lsl #22
     dd8:	02f20e00 	rscseq	r0, r2, #0, 28
     ddc:	47010000 	strmi	r0, [r1, -r0]
     de0:	00000025 	andeq	r0, r0, r5, lsr #32
     de4:	0f049102 	svceq	0x00049102
     de8:	00667562 	rsbeq	r7, r6, r2, ror #10
     dec:	02d34c01 	sbcseq	r4, r3, #256	; 0x100
     df0:	91030000 	mrsls	r0, (UNDEF: 3)
     df4:	70107fa8 	andsvc	r7, r0, r8, lsr #31
     df8:	744c0100 	strbvc	r0, [ip], #-256	; 0x100
     dfc:	15000000 	strne	r0, [r0, #-0]
     e00:	10000006 	andne	r0, r0, r6
     e04:	4d010075 	stcmi	0, cr0, [r1, #-468]	; 0xfffffe2c
     e08:	0000002c 	andeq	r0, r0, ip, lsr #32
     e0c:	000006ba 			; <UNDEFINED> instruction: 0x000006ba
     e10:	00011d11 	andeq	r1, r1, r1, lsl sp
     e14:	0002f300 	andeq	pc, r2, r0, lsl #6
     e18:	b4030500 	strlt	r0, [r3], #-1280	; 0x500
     e1c:	1200009b 	andne	r0, r0, #155	; 0x9b
     e20:	00008504 	andeq	r8, r0, r4, lsl #10
     e24:	00000074 	andeq	r0, r0, r4, ror r0
     e28:	00000261 	andeq	r0, r0, r1, ror #4
     e2c:	0002cf13 	andeq	ip, r2, r3, lsl pc
     e30:	2c520100 	ldfcse	f0, [r2], {-0}
     e34:	bf000000 	svclt	0x00000000
     e38:	00000007 	andeq	r0, r0, r7
     e3c:	0085d814 	addeq	sp, r5, r4, lsl r8
     e40:	00066000 	andeq	r6, r6, r0
     e44:	85ec1500 	strbhi	r1, [ip, #1280]!	; 0x500
     e48:	06670000 	strbteq	r0, [r7], -r0
     e4c:	02990000 	addseq	r0, r9, #0
     e50:	01160000 	tsteq	r6, r0
     e54:	75080253 	strvc	r0, [r8, #-595]	; 0x253
     e58:	05520116 	ldrbeq	r0, [r2, #-278]	; 0x116
     e5c:	009bb403 	addseq	fp, fp, r3, lsl #8
     e60:	51011600 	tstpl	r1, r0, lsl #12
     e64:	9bec0305 	blls	ffb01a80 <__bss_end__+0xffaf7830>
     e68:	01160000 	tsteq	r6, r0
     e6c:	d8030550 	stmdale	r3, {r4, r6, r8, sl}
     e70:	0000009b 	muleq	r0, fp, r0
     e74:	0085f014 	addeq	pc, r5, r4, lsl r0	; <UNPREDICTABLE>
     e78:	00067d00 	andeq	r7, r6, r0, lsl #26
     e7c:	85fc1500 	ldrbhi	r1, [ip, #1280]!	; 0x500
     e80:	00e00000 	rsceq	r0, r0, r0
     e84:	02b60000 	adcseq	r0, r6, #0
     e88:	01160000 	tsteq	r6, r0
     e8c:	007d0251 	rsbseq	r0, sp, r1, asr r2
     e90:	86101700 	ldrhi	r1, [r0], -r0, lsl #14
     e94:	01300000 	teqeq	r0, r0
     e98:	01160000 	tsteq	r6, r0
     e9c:	007d0253 	rsbseq	r0, sp, r3, asr r2
     ea0:	02510116 	subseq	r0, r1, #-2147483643	; 0x80000005
     ea4:	01160074 	tsteq	r6, r4, ror r0
     ea8:	00750250 	rsbseq	r0, r5, r0, asr r2
     eac:	7a180000 	bvc	600eb4 <__bss_end__+0x5f6c64>
     eb0:	e3000000 	movw	r0, #0
     eb4:	19000002 	stmdbne	r0, {r1}
     eb8:	0000006b 	andeq	r0, r0, fp, rrx
     ebc:	7a18003f 	bvc	600fc0 <__bss_end__+0x5f6d70>
     ec0:	f3000000 	vhadd.u8	d0, d0, d0
     ec4:	19000002 	stmdbne	r0, {r1}
     ec8:	0000006b 	andeq	r0, r0, fp, rrx
     ecc:	e3060004 	movw	r0, #24580	; 0x6004
     ed0:	1a000002 	bne	ee0 <_start-0x7120>
     ed4:	0000030c 	andeq	r0, r0, ip, lsl #6
     ed8:	86341f01 	ldrthi	r1, [r4], -r1, lsl #30
     edc:	00540000 	subseq	r0, r4, r0
     ee0:	9c010000 	stcls	0, cr0, [r1], {-0}
     ee4:	0000037c 	andeq	r0, r0, ip, ror r3
     ee8:	0003210d 	andeq	r2, r3, sp, lsl #2
     eec:	8b1f0100 	blhi	7c12f4 <__bss_end__+0x7b70a4>
     ef0:	eb000003 	bl	f04 <_start-0x70fc>
     ef4:	0d000007 	stceq	0, cr0, [r0, #-28]	; 0xffffffe4
     ef8:	000002e5 	andeq	r0, r0, r5, ror #5
     efc:	03a01f01 	moveq	r1, #1, 30
     f00:	08170000 	ldmdaeq	r7, {}	; <UNPREDICTABLE>
     f04:	1d110000 	ldcne	0, cr0, [r1, #-0]
     f08:	b6000001 	strlt	r0, [r0], -r1
     f0c:	05000003 	streq	r0, [r0, #-3]
     f10:	009bbc03 	addseq	fp, fp, r3, lsl #24
     f14:	86441400 	strbhi	r1, [r4], -r0, lsl #8
     f18:	06600000 	strbteq	r0, [r0], -r0
     f1c:	58150000 	ldmdapl	r5, {}	; <UNPREDICTABLE>
     f20:	67000086 	strvs	r0, [r0, -r6, lsl #1]
     f24:	72000006 	andvc	r0, r0, #6
     f28:	16000003 	strne	r0, [r0], -r3
     f2c:	08025301 	stmdaeq	r2, {r0, r8, r9, ip, lr}
     f30:	52011620 	andpl	r1, r1, #32, 12	; 0x2000000
     f34:	9bbc0305 	blls	fef01b50 <__bss_end__+0xfeef7900>
     f38:	01160000 	tsteq	r6, r0
     f3c:	ec030551 	cfstr32	mvfx0, [r3], {81}	; 0x51
     f40:	1600009b 			; <UNDEFINED> instruction: 0x1600009b
     f44:	03055001 	movweq	r5, #20481	; 0x5001
     f48:	00009c24 	andeq	r9, r0, r4, lsr #24
     f4c:	865c1400 	ldrbhi	r1, [ip], -r0, lsl #8
     f50:	067d0000 	ldrbteq	r0, [sp], -r0
     f54:	1b000000 	blne	f5c <_start-0x70a4>
     f58:	00000025 	andeq	r0, r0, r5, lsr #32
     f5c:	0000038b 	andeq	r0, r0, fp, lsl #7
     f60:	0000251c 	andeq	r2, r0, ip, lsl r5
     f64:	04050000 	streq	r0, [r5], #-0
     f68:	0000037c 	andeq	r0, r0, ip, ror r3
     f6c:	0000251b 	andeq	r2, r0, fp, lsl r5
     f70:	0003a000 	andeq	sl, r3, r0
     f74:	00811c00 	addeq	r1, r1, r0, lsl #24
     f78:	05000000 	streq	r0, [r0, #-0]
     f7c:	00039104 	andeq	r9, r3, r4, lsl #2
     f80:	007a1800 	rsbseq	r1, sl, r0, lsl #16
     f84:	03b60000 			; <UNDEFINED> instruction: 0x03b60000
     f88:	6b190000 	blvs	640f90 <__bss_end__+0x636d40>
     f8c:	0e000000 	cdpeq	0, 0, cr0, cr0, cr0, {0}
     f90:	03a60600 			; <UNDEFINED> instruction: 0x03a60600
     f94:	5e1d0000 	cdppl	0, 1, cr0, cr13, cr0, {0}
     f98:	01000002 	tsteq	r0, r2
     f9c:	0000257d 	andeq	r2, r0, sp, ror r5
     fa0:	00868800 	addeq	r8, r6, r0, lsl #16
     fa4:	00028800 	andeq	r8, r2, r0, lsl #16
     fa8:	259c0100 	ldrcs	r0, [ip, #256]	; 0x100
     fac:	0b000006 	bleq	fcc <_start-0x7034>
     fb0:	00667562 	rsbeq	r7, r6, r2, ror #10
     fb4:	00747d01 	rsbseq	r7, r4, r1, lsl #26
     fb8:	08430000 	stmdaeq	r3, {}^	; <UNPREDICTABLE>
     fbc:	6e0b0000 	cdpvs	0, 0, cr0, cr11, cr0, {0}
     fc0:	257d0100 	ldrbcs	r0, [sp, #-256]!	; 0x100
     fc4:	6f000000 	svcvs	0x00000000
     fc8:	0b000008 	bleq	ff0 <_start-0x7010>
     fcc:	00746d66 	rsbseq	r6, r4, r6, ror #26
     fd0:	00817d01 	addeq	r7, r1, r1, lsl #26
     fd4:	089d0000 	ldmeq	sp, {}	; <UNPREDICTABLE>
     fd8:	720d0000 	andvc	r0, sp, #0
     fdc:	01000002 	tsteq	r0, r2
     fe0:	0000ae7d 	andeq	sl, r0, sp, ror lr
     fe4:	0008d100 	andeq	sp, r8, r0, lsl #2
     fe8:	00701000 	rsbseq	r1, r0, r0
     fec:	00747e01 	rsbseq	r7, r4, r1, lsl #28
     ff0:	08e40000 	stmiaeq	r4!, {}^	; <UNPREDICTABLE>
     ff4:	65100000 	ldrvs	r0, [r0, #-0]
     ff8:	747e0100 	ldrbtvc	r0, [lr], #-256	; 0x100
     ffc:	62000000 	andvs	r0, r0, #0
    1000:	11000009 	tstne	r0, r9
    1004:	0000011d 	andeq	r0, r0, sp, lsl r1
    1008:	00000635 	andeq	r0, r0, r5, lsr r6
    100c:	9bcc0305 	blls	ff301c28 <__bss_end__+0xff2f79d8>
    1010:	181e0000 	ldmdane	lr, {}	; <UNPREDICTABLE>
    1014:	10000000 	andne	r0, r0, r0
    1018:	8b010073 	blhi	411ec <__bss_end__+0x36f9c>
    101c:	00000074 	andeq	r0, r0, r4, ror r0
    1020:	00000989 	andeq	r0, r0, r9, lsl #19
    1024:	6d756e0f 	ldclvs	14, cr6, [r5, #-60]!	; 0xffffffc4
    1028:	3a8b0100 	bcc	fe2c1430 <__bss_end__+0xfe2b71e0>
    102c:	03000006 	movweq	r0, #6
    1030:	137ed891 	cmnne	lr, #9502720	; 0x910000
    1034:	0000031b 	andeq	r0, r0, fp, lsl r3
    1038:	002c8c01 	eoreq	r8, ip, r1, lsl #24
    103c:	09de0000 	ldmibeq	lr, {}^	; <UNPREDICTABLE>
    1040:	0c150000 	ldceq	0, cr0, [r5], {-0}
    1044:	b9000087 	stmdblt	r0, {r0, r1, r2, r7}
    1048:	7b000000 	blvc	1050 <_start-0x6fb0>
    104c:	16000004 	strne	r0, [r0], -r4
    1050:	75025001 	strvc	r5, [r2, #-1]
    1054:	20140000 	andscs	r0, r4, r0
    1058:	60000087 	andvs	r0, r0, r7, lsl #1
    105c:	15000006 	strne	r0, [r0, #-6]
    1060:	00008734 	andeq	r8, r0, r4, lsr r7
    1064:	00000667 	andeq	r0, r0, r7, ror #12
    1068:	000004b3 			; <UNDEFINED> instruction: 0x000004b3
    106c:	02530116 	subseq	r0, r3, #-2147483643	; 0x80000005
    1070:	01169208 	tsteq	r6, r8, lsl #4
    1074:	cc030552 	cfstr32gt	mvfx0, [r3], {82}	; 0x52
    1078:	1600009b 			; <UNDEFINED> instruction: 0x1600009b
    107c:	03055101 	movweq	r5, #20737	; 0x5101
    1080:	00009bec 	andeq	r9, r0, ip, ror #23
    1084:	05500116 	ldrbeq	r0, [r0, #-278]	; 0x116
    1088:	009c3c03 	addseq	r3, ip, r3, lsl #24
    108c:	38140000 	ldmdacc	r4, {}	; <UNPREDICTABLE>
    1090:	7d000087 	stcvc	0, cr0, [r0, #-540]	; 0xfffffde4
    1094:	14000006 	strne	r0, [r0], #-6
    1098:	000087a8 	andeq	r8, r0, r8, lsr #15
    109c:	00000660 	andeq	r0, r0, r0, ror #12
    10a0:	0087bc15 	addeq	fp, r7, r5, lsl ip
    10a4:	00066700 	andeq	r6, r6, r0, lsl #14
    10a8:	0004f400 	andeq	pc, r4, r0, lsl #8
    10ac:	53011600 	movwpl	r1, #5632	; 0x1600
    10b0:	16980802 	ldrne	r0, [r8], r2, lsl #16
    10b4:	03055201 	movweq	r5, #20993	; 0x5201
    10b8:	00009bcc 	andeq	r9, r0, ip, asr #23
    10bc:	05510116 	ldrbeq	r0, [r1, #-278]	; 0x116
    10c0:	009bec03 	addseq	lr, fp, r3, lsl #24
    10c4:	50011600 	andpl	r1, r1, r0, lsl #12
    10c8:	9c580305 	mrrcls	3, 0, r0, r8, cr5
    10cc:	14000000 	strne	r0, [r0], #-0
    10d0:	000087c0 	andeq	r8, r0, r0, asr #15
    10d4:	0000067d 	andeq	r0, r0, sp, ror r6
    10d8:	0087e415 	addeq	lr, r7, r5, lsl r4
    10dc:	00019c00 	andeq	r9, r1, r0, lsl #24
    10e0:	00052a00 	andeq	r2, r5, r0, lsl #20
    10e4:	52011600 	andpl	r1, r1, #0, 12
    10e8:	16800802 	strne	r0, [r0], r2, lsl #16
    10ec:	91035101 	tstls	r3, r1, lsl #2
    10f0:	01167ed0 			; <UNDEFINED> instruction: 0x01167ed0
    10f4:	163a0150 			; <UNDEFINED> instruction: 0x163a0150
    10f8:	01047d02 	tsteq	r4, r2, lsl #26
    10fc:	7d021631 	stcvc	6, cr1, [r2, #-196]	; 0xffffff3c
    1100:	00770200 	rsbseq	r0, r7, r0, lsl #4
    1104:	88081500 	stmdahi	r8, {r8, sl, ip}
    1108:	019c0000 	orrseq	r0, ip, r0
    110c:	05580000 	ldrbeq	r0, [r8, #-0]
    1110:	01160000 	tsteq	r6, r0
    1114:	80080252 	andhi	r0, r8, r2, asr r2
    1118:	03510116 	cmpeq	r1, #-2147483643	; 0x80000005
    111c:	167ed091 			; <UNDEFINED> instruction: 0x167ed091
    1120:	3a015001 	bcc	5512c <__bss_end__+0x4aedc>
    1124:	047d0216 	ldrbteq	r0, [sp], #-534	; 0x216
    1128:	16007b02 	strne	r7, [r0], -r2, lsl #22
    112c:	02007d02 	andeq	r7, r0, #2, 26	; 0x80
    1130:	15000077 	strne	r0, [r0, #-119]	; 0x77
    1134:	0000882c 	andeq	r8, r0, ip, lsr #16
    1138:	0000019c 	muleq	r0, ip, r1
    113c:	00000586 	andeq	r0, r0, r6, lsl #11
    1140:	02520116 	subseq	r0, r2, #-2147483643	; 0x80000005
    1144:	01168008 	tsteq	r6, r8
    1148:	d0910351 	addsle	r0, r1, r1, asr r3
    114c:	5001167e 	andpl	r1, r1, lr, ror r6
    1150:	02164001 	andseq	r4, r6, #1
    1154:	7b02047d 	blvc	82350 <__bss_end__+0x78100>
    1158:	7d021600 	stcvc	6, cr1, [r2, #-0]
    115c:	00770200 	rsbseq	r0, r7, r0, lsl #4
    1160:	88501500 	ldmdahi	r0, {r8, sl, ip}^
    1164:	019c0000 	orrseq	r0, ip, r0
    1168:	05b40000 	ldreq	r0, [r4, #0]!
    116c:	01160000 	tsteq	r6, r0
    1170:	80080252 	andhi	r0, r8, r2, asr r2
    1174:	03510116 	cmpeq	r1, #-2147483643	; 0x80000005
    1178:	167ed091 			; <UNDEFINED> instruction: 0x167ed091
    117c:	32015001 	andcc	r5, r1, #1
    1180:	047d0216 	ldrbteq	r0, [sp], #-534	; 0x216
    1184:	16007b02 	strne	r7, [r0], -r2, lsl #22
    1188:	02007d02 	andeq	r7, r0, #2, 26	; 0x80
    118c:	15000077 	strne	r0, [r0, #-119]	; 0x77
    1190:	00008880 	andeq	r8, r0, r0, lsl #17
    1194:	0000019c 	muleq	r0, ip, r1
    1198:	000005e2 	andeq	r0, r0, r2, ror #11
    119c:	02520116 	subseq	r0, r2, #-2147483643	; 0x80000005
    11a0:	01168008 	tsteq	r6, r8
    11a4:	d0910351 	addsle	r0, r1, r1, asr r3
    11a8:	5001167e 	andpl	r1, r1, lr, ror r6
    11ac:	02163801 	andseq	r3, r6, #65536	; 0x10000
    11b0:	7b02047d 	blvc	823ac <__bss_end__+0x7815c>
    11b4:	7d021600 	stcvc	6, cr1, [r2, #-0]
    11b8:	00770200 	rsbseq	r0, r7, r0, lsl #4
    11bc:	88881400 	stmhi	r8, {sl, ip}
    11c0:	06600000 	strbteq	r0, [r0], -r0
    11c4:	a4150000 	ldrge	r0, [r5], #-0
    11c8:	67000088 	strvs	r0, [r0, -r8, lsl #1]
    11cc:	1a000006 	bne	11ec <_start-0x6e14>
    11d0:	16000006 	strne	r0, [r0], -r6
    11d4:	08025301 	stmdaeq	r2, {r0, r8, r9, ip, lr}
    11d8:	520116b9 	andpl	r1, r1, #193986560	; 0xb900000
    11dc:	9bcc0305 	blls	ff301df8 <__bss_end__+0xff2f7ba8>
    11e0:	01160000 	tsteq	r6, r0
    11e4:	ec030551 	cfstr32	mvfx0, [r3], {81}	; 0x51
    11e8:	1600009b 			; <UNDEFINED> instruction: 0x1600009b
    11ec:	03055001 	movweq	r5, #20481	; 0x5001
    11f0:	00009c80 	andeq	r9, r0, r0, lsl #25
    11f4:	88a81400 	stmiahi	r8!, {sl, ip}
    11f8:	067d0000 	ldrbteq	r0, [sp], -r0
    11fc:	00000000 	andeq	r0, r0, r0
    1200:	00007a18 	andeq	r7, r0, r8, lsl sl
    1204:	00063500 	andeq	r3, r6, r0, lsl #10
    1208:	006b1900 	rsbeq	r1, fp, r0, lsl #18
    120c:	00090000 	andeq	r0, r9, r0
    1210:	00062506 	andeq	r2, r6, r6, lsl #10
    1214:	007a1800 	rsbseq	r1, sl, r0, lsl #16
    1218:	064a0000 	strbeq	r0, [sl], -r0
    121c:	6b190000 	blvs	641224 <__bss_end__+0x636fd4>
    1220:	7f000000 	svcvc	0x00000000
    1224:	028d1f00 	addeq	r1, sp, #0, 30
    1228:	1d030000 	stcne	0, cr0, [r3, #-0]
    122c:	0000038b 	andeq	r0, r0, fp, lsl #7
    1230:	0002ca1f 	andeq	ip, r2, pc, lsl sl
    1234:	a0220300 	eorge	r0, r2, r0, lsl #6
    1238:	20000003 	andcs	r0, r0, r3
    123c:	00000186 	andeq	r0, r0, r6, lsl #3
    1240:	61211e03 	teqvs	r1, r3, lsl #28
    1244:	03000002 	movweq	r0, #2
    1248:	00002529 	andeq	r2, r0, r9, lsr #10
    124c:	00067d00 	andeq	r7, r6, r0, lsl #26
    1250:	00811c00 	addeq	r1, r1, r0, lsl #24
    1254:	00220000 	eoreq	r0, r2, r0
    1258:	0000e820 	andeq	lr, r0, r0, lsr #16
    125c:	00660300 	rsbeq	r0, r6, r0, lsl #6
    1260:	000000ff 	strdeq	r0, [r0], -pc	; <UNPREDICTABLE>
    1264:	07d90004 	ldrbeq	r0, [r9, r4]
    1268:	01040000 	mrseq	r0, (UNDEF: 4)
    126c:	00000010 	andeq	r0, r0, r0, lsl r0
    1270:	00033901 	andeq	r3, r3, r1, lsl #18
    1274:	0001fd00 	andeq	pc, r1, r0, lsl #26
    1278:	00891000 	addeq	r1, r9, r0
    127c:	00002800 	andeq	r2, r0, r0, lsl #16
    1280:	00074700 	andeq	r4, r7, r0, lsl #14
    1284:	05040200 	streq	r0, [r4, #-512]	; 0x200
    1288:	00746e69 	rsbseq	r6, r4, r9, ror #28
    128c:	3a070403 	bcc	1c22a0 <__bss_end__+0x1b8050>
    1290:	03000001 	movweq	r0, #1
    1294:	00dc0601 	sbcseq	r0, ip, r1, lsl #12
    1298:	02030000 	andeq	r0, r3, #0
    129c:	00015e05 	andeq	r5, r1, r5, lsl #28
    12a0:	05040300 	streq	r0, [r4, #-768]	; 0x300
    12a4:	00000155 	andeq	r0, r0, r5, asr r1
    12a8:	50050803 	andpl	r0, r5, r3, lsl #16
    12ac:	03000001 	movweq	r0, #1
    12b0:	00da0801 	sbcseq	r0, sl, r1, lsl #16
    12b4:	02030000 	andeq	r0, r3, #0
    12b8:	0000fb07 	andeq	pc, r0, r7, lsl #22
    12bc:	07040300 	streq	r0, [r4, -r0, lsl #6]
    12c0:	00000135 	andeq	r0, r0, r5, lsr r1
    12c4:	30070803 	andcc	r0, r7, r3, lsl #16
    12c8:	03000001 	movweq	r0, #1
    12cc:	01470704 	cmpeq	r7, r4, lsl #14
    12d0:	01030000 	mrseq	r0, (UNDEF: 3)
    12d4:	0000e308 	andeq	lr, r0, r8, lsl #6
    12d8:	7f040400 	svcvc	0x00040400
    12dc:	05000000 	streq	r0, [r0, #-0]
    12e0:	00000072 	andeq	r0, r0, r2, ror r0
    12e4:	0000e806 	andeq	lr, r0, r6, lsl #16
    12e8:	10040100 	andne	r0, r4, r0, lsl #2
    12ec:	28000089 	stmdacs	r0, {r0, r3, r7}
    12f0:	01000000 	mrseq	r0, (UNDEF: 0)
    12f4:	0000ca9c 	muleq	r0, ip, sl
    12f8:	89240700 	stmdbhi	r4!, {r8, r9, sl}
    12fc:	00ac0000 	adceq	r0, ip, r0
    1300:	01080000 	mrseq	r0, (UNDEF: 8)
    1304:	b8030550 	stmdalt	r3, {r4, r6, r8, sl}
    1308:	0000009c 	muleq	r0, ip, r0
    130c:	00892c09 	addeq	r2, r9, r9, lsl #24
    1310:	0000ea00 	andeq	lr, r0, r0, lsl #20
    1314:	0000c000 	andeq	ip, r0, r0
    1318:	50010800 	andpl	r0, r1, r0, lsl #16
    131c:	00640802 	rsbeq	r0, r4, r2, lsl #16
    1320:	0089300a 	addeq	r3, r9, sl
    1324:	0000fb00 	andeq	pc, r0, r0, lsl #22
    1328:	250b0000 	strcs	r0, [fp, #-0]
    132c:	d9000000 	stmdble	r0, {}	; <UNPREDICTABLE>
    1330:	0c000000 	stceq	0, cr0, [r0], {-0}
    1334:	00000079 	andeq	r0, r0, r9, ror r0
    1338:	02ca0d00 	sbceq	r0, sl, #0, 26
    133c:	22020000 	andcs	r0, r2, #0
    1340:	000000e4 	andeq	r0, r0, r4, ror #1
    1344:	00ca0404 	sbceq	r0, sl, r4, lsl #8
    1348:	530e0000 	movwpl	r0, #57344	; 0xe000
    134c:	02000003 	andeq	r0, r0, #3
    1350:	0000fb50 	andeq	pc, r0, r0, asr fp	; <UNPREDICTABLE>
    1354:	002c0c00 	eoreq	r0, ip, r0, lsl #24
    1358:	0f000000 	svceq	0x00000000
    135c:	0000032e 	andeq	r0, r0, lr, lsr #6
    1360:	dd006302 	stcle	3, cr6, [r0, #-8]
    1364:	04000002 	streq	r0, [r0], #-2
    1368:	0008a300 	andeq	sl, r8, r0, lsl #6
    136c:	10010400 	andne	r0, r1, r0, lsl #8
    1370:	01000000 	mrseq	r0, (UNDEF: 0)
    1374:	0000043e 	andeq	r0, r0, lr, lsr r4
    1378:	000001fd 	strdeq	r0, [r0], -sp
    137c:	00008938 	andeq	r8, r0, r8, lsr r9
    1380:	000000b0 	strheq	r0, [r0], -r0	; <UNPREDICTABLE>
    1384:	000007de 	ldrdeq	r0, [r0], -lr
    1388:	69050402 	stmdbvs	r5, {r1, sl}
    138c:	0300746e 	movweq	r7, #1134	; 0x46e
    1390:	013a0704 	teqeq	sl, r4, lsl #14
    1394:	01030000 	mrseq	r0, (UNDEF: 3)
    1398:	0000dc06 	andeq	sp, r0, r6, lsl #24
    139c:	05020300 	streq	r0, [r2, #-768]	; 0x300
    13a0:	0000015e 	andeq	r0, r0, lr, asr r1
    13a4:	55050403 	strpl	r0, [r5, #-1027]	; 0x403
    13a8:	03000001 	movweq	r0, #1
    13ac:	01500508 	cmpeq	r0, r8, lsl #10
    13b0:	07040000 	streq	r0, [r4, -r0]
    13b4:	02000004 	andeq	r0, r0, #4
    13b8:	00005a2e 	andeq	r5, r0, lr, lsr #20
    13bc:	08010300 	stmdaeq	r1, {r8, r9}
    13c0:	000000da 	ldrdeq	r0, [r0], -sl
    13c4:	fb070203 	blx	1c1bda <__bss_end__+0x1b798a>
    13c8:	04000000 	streq	r0, [r0], #-0
    13cc:	0000045e 	andeq	r0, r0, lr, asr r4
    13d0:	00733402 	rsbseq	r3, r3, r2, lsl #8
    13d4:	04030000 	streq	r0, [r3], #-0
    13d8:	00013507 	andeq	r3, r1, r7, lsl #10
    13dc:	07080300 	streq	r0, [r8, -r0, lsl #6]
    13e0:	00000130 	andeq	r0, r0, r0, lsr r1
    13e4:	47070403 	strmi	r0, [r7, -r3, lsl #8]
    13e8:	03000001 	movweq	r0, #1
    13ec:	00e30801 	rsceq	r0, r3, r1, lsl #16
    13f0:	04050000 	streq	r0, [r5], #-0
    13f4:	00000095 	muleq	r0, r5, r0
    13f8:	00008806 	andeq	r8, r0, r6, lsl #16
    13fc:	030c0700 	movweq	r0, #50944	; 0xc700
    1400:	0000d10e 	andeq	sp, r0, lr, lsl #2
    1404:	78740800 	ldmdavc	r4!, {fp}^
    1408:	4f0f0300 	svcmi	0x000f0300
    140c:	00000000 	andeq	r0, r0, r0
    1410:	00787208 	rsbseq	r7, r8, r8, lsl #4
    1414:	004f0f03 	subeq	r0, pc, r3, lsl #30
    1418:	09010000 	stmdbeq	r1, {}	; <UNPREDICTABLE>
    141c:	000003d5 	ldrdeq	r0, [r0], -r5
    1420:	00681003 	rsbeq	r1, r8, r3
    1424:	09040000 	stmdbeq	r4, {}	; <UNPREDICTABLE>
    1428:	00000386 	andeq	r0, r0, r6, lsl #7
    142c:	00681103 	rsbeq	r1, r8, r3, lsl #2
    1430:	00080000 	andeq	r0, r8, r0
    1434:	0003be04 	andeq	fp, r3, r4, lsl #28
    1438:	9a120300 	bls	482040 <__bss_end__+0x477df0>
    143c:	0a000000 	beq	1444 <_start-0x6bbc>
    1440:	f7100401 			; <UNDEFINED> instruction: 0xf7100401
    1444:	0b000000 	bleq	144c <_start-0x6bb4>
    1448:	000003da 	ldrdeq	r0, [r0], -sl
    144c:	03c80b01 	biceq	r0, r8, #1024	; 0x400
    1450:	0b020000 	bleq	81458 <__bss_end__+0x77208>
    1454:	000003b0 			; <UNDEFINED> instruction: 0x000003b0
    1458:	ef040003 	svc	0x00040003
    145c:	04000003 	streq	r0, [r0], #-3
    1460:	0000dc10 	andeq	sp, r0, r0, lsl ip
    1464:	04140700 	ldreq	r0, [r4], #-1792	; 0x700
    1468:	00012f14 	andeq	r2, r1, r4, lsl pc
    146c:	04670900 	strbteq	r0, [r7], #-2304	; 0x900
    1470:	15040000 	strne	r0, [r4, #-0]
    1474:	0000002c 	andeq	r0, r0, ip, lsr #32
    1478:	04520900 	ldrbeq	r0, [r2], #-2304	; 0x900
    147c:	18040000 	stmdane	r4, {}	; <UNPREDICTABLE>
    1480:	000000f7 	strdeq	r0, [r0], -r7
    1484:	041d0904 	ldreq	r0, [sp], #-2308	; 0x904
    1488:	1b040000 	blne	101490 <__bss_end__+0xf7240>
    148c:	000000d1 	ldrdeq	r0, [r0], -r1
    1490:	0f040008 	svceq	0x00040008
    1494:	04000004 	streq	r0, [r0], #-4
    1498:	00010220 	andeq	r0, r1, r0, lsr #4
    149c:	035c0c00 	cmpeq	ip, #0, 24
    14a0:	06010000 	streq	r0, [r1], -r0
    14a4:	00000025 	andeq	r0, r0, r5, lsr #32
    14a8:	00008938 	andeq	r8, r0, r8, lsr r9
    14ac:	00000020 	andeq	r0, r0, r0, lsr #32
    14b0:	017a9c01 	cmneq	sl, r1, lsl #24
    14b4:	630d0000 	movwvs	r0, #53248	; 0xd000
    14b8:	25060100 	strcs	r0, [r6, #-256]	; 0x100
    14bc:	08000000 	stmdaeq	r0, {}	; <UNPREDICTABLE>
    14c0:	0e00000a 	cdpeq	0, 0, cr0, cr0, cr10, {0}
    14c4:	0000894c 	andeq	r8, r0, ip, asr #18
    14c8:	0000027a 	andeq	r0, r0, sl, ror r2
    14cc:	0251010f 	subseq	r0, r1, #-1073741821	; 0xc0000003
    14d0:	010f0074 	tsteq	pc, r4, ror r0	; <UNPREDICTABLE>
    14d4:	44030550 	strmi	r0, [r3], #-1360	; 0x550
    14d8:	000000a2 	andeq	r0, r0, r2, lsr #1
    14dc:	03e71000 	mvneq	r1, #0
    14e0:	0b010000 	bleq	414e8 <__bss_end__+0x37298>
    14e4:	00008958 	andeq	r8, r0, r8, asr r9
    14e8:	00000090 	muleq	r0, r0, r0
    14ec:	02279c01 	eoreq	r9, r7, #256	; 0x100
    14f0:	70110000 	andsvc	r0, r1, r0
    14f4:	01000003 	tsteq	r0, r3
    14f8:	0000250c 	andeq	r2, r0, ip, lsl #10
    14fc:	04321100 	ldrteq	r1, [r2], #-256	; 0x100
    1500:	0c010000 	stceq	0, cr0, [r1], {-0}
    1504:	00000025 	andeq	r0, r0, r5, lsr #32
    1508:	00007112 	andeq	r7, r0, r2, lsl r1
    150c:	130d0100 	movwne	r0, #53504	; 0xd100
    1510:	00737362 	rsbseq	r7, r3, r2, ror #6
    1514:	02270f01 	eoreq	r0, r7, #1, 30
    1518:	0a260000 	beq	981520 <__bss_end__+0x9772d0>
    151c:	7e140000 	cdpvc	0, 1, cr0, cr4, cr0, {0}
    1520:	01000003 	tsteq	r0, r3
    1524:	00022710 	andeq	r2, r2, r0, lsl r7
    1528:	62631300 	rsbvs	r1, r3, #0, 6
    152c:	2d170100 	ldfcss	f0, [r7, #-0]
    1530:	46000002 	strmi	r0, [r0], -r2
    1534:	1500000a 	strne	r0, [r0, #-10]
    1538:	00008980 	andeq	r8, r0, r0, lsl #19
    153c:	00000296 	muleq	r0, r6, r2
    1540:	0089bc16 	addeq	fp, r9, r6, lsl ip
    1544:	0002a100 	andeq	sl, r2, r0, lsl #2
    1548:	0001fd00 	andeq	pc, r1, r0, lsl #26
    154c:	51010f00 	tstpl	r1, r0, lsl #30
    1550:	9cc40305 	stclls	3, cr0, [r4], {5}
    1554:	010f0000 	mrseq	r0, CPSR
    1558:	44030550 	strmi	r0, [r3], #-1360	; 0x550
    155c:	000000a2 	andeq	r0, r0, r2, lsr #1
    1560:	0089c416 	addeq	ip, r9, r6, lsl r4
    1564:	0002bc00 	andeq	fp, r2, r0, lsl #24
    1568:	00021400 	andeq	r1, r2, r0, lsl #8
    156c:	50010f00 	andpl	r0, r1, r0, lsl #30
    1570:	9ce80305 	stclls	3, cr0, [r8], #20
    1574:	15000000 	strne	r0, [r0, #-0]
    1578:	000089c8 	andeq	r8, r0, r8, asr #19
    157c:	000002d2 	ldrdeq	r0, [r0], -r2
    1580:	0089cc15 	addeq	ip, r9, r5, lsl ip
    1584:	0002d900 	andeq	sp, r2, r0, lsl #18
    1588:	04050000 	streq	r0, [r5], #-0
    158c:	00000025 	andeq	r0, r0, r5, lsr #32
    1590:	012f0405 	teqeq	pc, r5, lsl #8
    1594:	94170000 	ldrls	r0, [r7], #-0
    1598:	01000003 	tsteq	r0, r3
    159c:	0000d105 	andeq	sp, r0, r5, lsl #2
    15a0:	44030500 	strmi	r0, [r3], #-1280	; 0x500
    15a4:	180000a2 	stmdane	r0, {r1, r5, r7}
    15a8:	00000025 	andeq	r0, r0, r5, lsr #32
    15ac:	00000253 	andeq	r0, r0, r3, asr r2
    15b0:	00002519 	andeq	r2, r0, r9, lsl r5
    15b4:	8d110000 	ldchi	0, cr0, [r1, #-0]
    15b8:	05000002 	streq	r0, [r0, #-2]
    15bc:	00025e1d 	andeq	r5, r2, sp, lsl lr
    15c0:	44040500 	strmi	r0, [r4], #-1280	; 0x500
    15c4:	11000002 	tstne	r0, r2
    15c8:	00000370 	andeq	r0, r0, r0, ror r3
    15cc:	00250c01 	eoreq	r0, r5, r1, lsl #24
    15d0:	32110000 	andscc	r0, r1, #0
    15d4:	01000004 	tsteq	r0, r4
    15d8:	0000250c 	andeq	r2, r0, ip, lsl #10
    15dc:	03fa1a00 	mvnseq	r1, #0, 20
    15e0:	44030000 	strmi	r0, [r3], #-0
    15e4:	00000290 	muleq	r0, r0, r2
    15e8:	00029019 	andeq	r9, r2, r9, lsl r0
    15ec:	005a1900 	subseq	r1, sl, r0, lsl #18
    15f0:	05000000 	streq	r0, [r0, #-0]
    15f4:	0000d104 	andeq	sp, r0, r4, lsl #2
    15f8:	04251b00 	strteq	r1, [r5], #-2816	; 0xb00
    15fc:	2a040000 	bcs	101604 <__bss_end__+0xf73b4>
    1600:	0000022d 	andeq	r0, r0, sp, lsr #4
    1604:	0003a11c 	andeq	sl, r3, ip, lsl r1
    1608:	25150300 	ldrcs	r0, [r5, #-768]	; 0x300
    160c:	bc000000 	stclt	0, cr0, [r0], {-0}
    1610:	19000002 	stmdbne	r0, {r1}
    1614:	00000290 	muleq	r0, r0, r2
    1618:	00008f19 	andeq	r8, r0, r9, lsl pc
    161c:	1c001d00 	stcne	13, cr1, [r0], {-0}
    1620:	00000261 	andeq	r0, r0, r1, ror #4
    1624:	00252905 	eoreq	r2, r5, r5, lsl #18
    1628:	02d20000 	sbcseq	r0, r2, #0
    162c:	8f190000 	svchi	0x00190000
    1630:	1d000000 	stcne	0, cr0, [r0, #-0]
    1634:	00711200 	rsbseq	r1, r1, r0, lsl #4
    1638:	d1050000 	mrsle	r0, (UNDEF: 5)
    163c:	00032e12 	andeq	r2, r3, r2, lsl lr
    1640:	00630500 	rsbeq	r0, r3, r0, lsl #10
    1644:	000001ad 	andeq	r0, r0, sp, lsr #3
    1648:	0a3a0004 	beq	e81660 <__bss_end__+0xe77410>
    164c:	01040000 	mrseq	r0, (UNDEF: 4)
    1650:	00000010 	andeq	r0, r0, r0, lsl r0
    1654:	00048701 	andeq	r8, r4, r1, lsl #14
    1658:	0001fd00 	andeq	pc, r1, r0, lsl #26
    165c:	00003000 	andeq	r3, r0, r0
    1660:	00000000 	andeq	r0, r0, r0
    1664:	00090300 	andeq	r0, r9, r0, lsl #6
    1668:	05040200 	streq	r0, [r4, #-512]	; 0x200
    166c:	00746e69 	rsbseq	r6, r4, r9, ror #28
    1670:	3a070403 	bcc	1c2684 <__bss_end__+0x1b8434>
    1674:	03000001 	movweq	r0, #1
    1678:	00dc0601 	sbcseq	r0, ip, r1, lsl #12
    167c:	02030000 	andeq	r0, r3, #0
    1680:	00015e05 	andeq	r5, r1, r5, lsl #28
    1684:	05040300 	streq	r0, [r4, #-768]	; 0x300
    1688:	00000155 	andeq	r0, r0, r5, asr r1
    168c:	50050803 	andpl	r0, r5, r3, lsl #16
    1690:	03000001 	movweq	r0, #1
    1694:	00da0801 	sbcseq	r0, sl, r1, lsl #16
    1698:	02030000 	andeq	r0, r3, #0
    169c:	0000fb07 	andeq	pc, r0, r7, lsl #22
    16a0:	07040300 	streq	r0, [r4, -r0, lsl #6]
    16a4:	00000135 	andeq	r0, r0, r5, lsr r1
    16a8:	30070803 	andcc	r0, r7, r3, lsl #16
    16ac:	03000001 	movweq	r0, #1
    16b0:	01470704 	cmpeq	r7, r4, lsl #14
    16b4:	01030000 	mrseq	r0, (UNDEF: 3)
    16b8:	0000e308 	andeq	lr, r0, r8, lsl #6
    16bc:	046d0400 	strbteq	r0, [sp], #-1024	; 0x400
    16c0:	0e010000 	cdpeq	0, 0, cr0, cr1, cr0, {0}
    16c4:	00000025 	andeq	r0, r0, r5, lsr #32
    16c8:	000089e8 	andeq	r8, r0, r8, ror #19
    16cc:	00000018 	andeq	r0, r0, r8, lsl r0
    16d0:	00a29c01 	adceq	r9, r2, r1, lsl #24
    16d4:	d9050000 	stmdble	r5, {}	; <UNPREDICTABLE>
    16d8:	01000004 	tsteq	r0, r4
    16dc:	00002c0f 	andeq	r2, r0, pc, lsl #24
    16e0:	000a6600 	andeq	r6, sl, r0, lsl #12
    16e4:	bc060000 	stclt	0, cr0, [r6], {-0}
    16e8:	01000004 	tsteq	r0, r4
    16ec:	008a0017 	addeq	r0, sl, r7, lsl r0
    16f0:	00001400 	andeq	r1, r0, r0, lsl #8
    16f4:	c79c0100 	ldrgt	r0, [ip, r0, lsl #2]
    16f8:	05000000 	streq	r0, [r0, #-0]
    16fc:	000004d9 	ldrdeq	r0, [r0], -r9
    1700:	002c1801 	eoreq	r1, ip, r1, lsl #16
    1704:	0a850000 	beq	fe14170c <__bss_end__+0xfe1374bc>
    1708:	06000000 	streq	r0, [r0], -r0
    170c:	0000032e 	andeq	r0, r0, lr, lsr #6
    1710:	8a141f01 	bhi	50931c <__bss_end__+0x4ff0cc>
    1714:	00480000 	subeq	r0, r8, r0
    1718:	9c010000 	stcls	0, cr0, [r1], {-0}
    171c:	00000177 	andeq	r0, r0, r7, ror r1
    1720:	0004d107 	andeq	sp, r4, r7, lsl #2
    1724:	772a0100 	strvc	r0, [sl, -r0, lsl #2]!
    1728:	1c000001 	stcne	0, cr0, [r0], {1}
    172c:	07201000 	streq	r1, [r0, -r0]!
    1730:	000004b4 			; <UNDEFINED> instruction: 0x000004b4
    1734:	01772b01 	cmneq	r7, r1, lsl #22
    1738:	00240000 	eoreq	r0, r4, r0
    173c:	7b072010 	blvc	1c9784 <__bss_end__+0x1bf534>
    1740:	01000004 	tsteq	r0, r4
    1744:	0001772c 	andeq	r7, r1, ip, lsr #14
    1748:	00000000 	andeq	r0, r0, r0
    174c:	049b085a 	ldreq	r0, [fp], #2138	; 0x85a
    1750:	2d010000 	stccs	0, cr0, [r1, #-0]
    1754:	00000177 	andeq	r0, r0, r7, ror r1
    1758:	8a1c0920 	bhi	703be0 <__bss_end__+0x6f9990>
    175c:	00790000 	rsbseq	r0, r9, r0
    1760:	28090000 	stmdacs	r9, {}	; <UNPREDICTABLE>
    1764:	a200008a 	andge	r0, r0, #138	; 0x8a
    1768:	0a000000 	beq	1770 <_start-0x6890>
    176c:	00008a30 	andeq	r8, r0, r0, lsr sl
    1770:	0000018d 	andeq	r0, r0, sp, lsl #3
    1774:	0000013a 	andeq	r0, r0, sl, lsr r1
    1778:	0150010b 	cmpeq	r0, fp, lsl #2
    177c:	3c0a004e 	stccc	0, cr0, [sl], {78}	; 0x4e
    1780:	9e00008a 	cdpls	0, 0, cr0, cr0, cr10, {4}
    1784:	5a000001 	bpl	1790 <_start-0x6870>
    1788:	0b000001 	bleq	1794 <_start-0x686c>
    178c:	0c055101 	stfeqs	f5, [r5], {1}
    1790:	5a000001 	bpl	179c <_start-0x6864>
    1794:	0550010b 	ldrbeq	r0, [r0, #-267]	; 0x10b
    1798:	1000240c 	andne	r2, r0, ip, lsl #8
    179c:	480c0020 	stmdami	ip, {r5}
    17a0:	9e00008a 	cdpls	0, 0, cr0, cr0, cr10, {4}
    17a4:	0b000001 	bleq	17b0 <_start-0x6850>
    17a8:	0c055101 	stfeqs	f5, [r5], {1}
    17ac:	5a000020 	bpl	1834 <_start-0x67cc>
    17b0:	0550010b 	ldrbeq	r0, [r0, #-267]	; 0x10b
    17b4:	10001c0c 	andne	r1, r0, ip, lsl #24
    17b8:	0d000020 	stceq	0, cr0, [r0, #-128]	; 0xffffff80
    17bc:	00000025 	andeq	r0, r0, r5, lsr #32
    17c0:	00047008 	andeq	r7, r4, r8
    17c4:	880d0100 	stmdahi	sp, {r8}
    17c8:	10000001 	andne	r0, r0, r1
    17cc:	00002c0d 	andeq	r2, r0, sp, lsl #24
    17d0:	03530e00 	cmpeq	r3, #0, 28
    17d4:	50020000 	andpl	r0, r2, r0
    17d8:	0000019e 	muleq	r0, lr, r1
    17dc:	00002c0f 	andeq	r2, r0, pc, lsl #24
    17e0:	cb100000 	blgt	4017e8 <__bss_end__+0x3f7598>
    17e4:	02000004 	andeq	r0, r0, #4
    17e8:	002c0f9c 	mlaeq	ip, ip, pc, r0	; <UNPREDICTABLE>
    17ec:	2c0f0000 	stccs	0, cr0, [pc], {-0}
    17f0:	00000000 	andeq	r0, r0, r0
    17f4:	0001d800 	andeq	sp, r1, r0, lsl #16
    17f8:	28000400 	stmdacs	r0, {sl}
    17fc:	0400000b 	streq	r0, [r0], #-11
    1800:	00001001 	andeq	r1, r0, r1
    1804:	04fb0100 	ldrbteq	r0, [fp], #256	; 0x100
    1808:	01fd0000 	mvnseq	r0, r0
    180c:	8a5c0000 	bhi	1701814 <__bss_end__+0x16f75c4>
    1810:	00880000 	addeq	r0, r8, r0
    1814:	09a00000 	stmibeq	r0!, {}	; <UNPREDICTABLE>
    1818:	04020000 	streq	r0, [r2], #-0
    181c:	746e6905 	strbtvc	r6, [lr], #-2309	; 0x905
    1820:	07040300 	streq	r0, [r4, -r0, lsl #6]
    1824:	0000013a 	andeq	r0, r0, sl, lsr r1
    1828:	dc060103 	stfles	f0, [r6], {3}
    182c:	03000000 	movweq	r0, #0
    1830:	015e0502 	cmpeq	lr, r2, lsl #10
    1834:	04030000 	streq	r0, [r3], #-0
    1838:	00015505 	andeq	r5, r1, r5, lsl #10
    183c:	05080300 	streq	r0, [r8, #-768]	; 0x300
    1840:	00000150 	andeq	r0, r0, r0, asr r1
    1844:	da080103 	ble	201c58 <__bss_end__+0x1f7a08>
    1848:	03000000 	movweq	r0, #0
    184c:	00fb0702 	rscseq	r0, fp, r2, lsl #14
    1850:	04030000 	streq	r0, [r3], #-0
    1854:	00013507 	andeq	r3, r1, r7, lsl #10
    1858:	07080300 	streq	r0, [r8, -r0, lsl #6]
    185c:	00000130 	andeq	r0, r0, r0, lsr r1
    1860:	47070403 	strmi	r0, [r7, -r3, lsl #8]
    1864:	03000001 	movweq	r0, #1
    1868:	00e30801 	rsceq	r0, r3, r1, lsl #16
    186c:	1a040000 	bne	101874 <__bss_end__+0xf7624>
    1870:	01000005 	tsteq	r0, r5
    1874:	008a5c05 	addeq	r5, sl, r5, lsl #24
    1878:	00001c00 	andeq	r1, r0, r0, lsl #24
    187c:	9e9c0100 	fmllse	f0, f4, f0
    1880:	05000000 	streq	r0, [r0, #-0]
    1884:	00000514 	andeq	r0, r0, r4, lsl r5
    1888:	002c0501 	eoreq	r0, ip, r1, lsl #10
    188c:	0aaf0000 	beq	febc1894 <__bss_end__+0xfebb7644>
    1890:	06000000 	streq	r0, [r0], -r0
    1894:	000004de 	ldrdeq	r0, [r0], -lr
    1898:	002c0b01 	eoreq	r0, ip, r1, lsl #22
    189c:	8a780000 	bhi	1e018a4 <__bss_end__+0x1df7654>
    18a0:	00140000 	andseq	r0, r4, r0
    18a4:	9c010000 	stcls	0, cr0, [r1], {-0}
    18a8:	000000cb 	andeq	r0, r0, fp, asr #1
    18ac:	008a8407 	addeq	r8, sl, r7, lsl #8
    18b0:	0001ca00 	andeq	ip, r1, r0, lsl #20
    18b4:	50010800 	andpl	r0, r1, r0, lsl #16
    18b8:	30040c05 	andcc	r0, r4, r5, lsl #24
    18bc:	00002000 	andeq	r2, r0, r0
    18c0:	00053006 	andeq	r3, r5, r6
    18c4:	2c100100 	ldfcss	f0, [r0], {-0}
    18c8:	8c000000 	stchi	0, cr0, [r0], {-0}
    18cc:	0c00008a 	stceq	0, cr0, [r0], {138}	; 0x8a
    18d0:	01000000 	mrseq	r0, (UNDEF: 0)
    18d4:	0000f99c 	muleq	r0, ip, r9
    18d8:	00750900 	rsbseq	r0, r5, r0, lsl #18
    18dc:	002c1401 	eoreq	r1, ip, r1, lsl #8
    18e0:	50010000 	andpl	r0, r1, r0
    18e4:	008a940a 	addeq	r9, sl, sl, lsl #8
    18e8:	00009e00 	andeq	r9, r0, r0, lsl #28
    18ec:	27040000 	strcs	r0, [r4, -r0]
    18f0:	01000005 	tsteq	r0, r5
    18f4:	008a9819 	addeq	r9, sl, r9, lsl r8
    18f8:	00002400 	andeq	r2, r0, r0, lsl #8
    18fc:	579c0100 	ldrpl	r0, [ip, r0, lsl #2]
    1900:	0b000001 	bleq	190c <_start-0x66f4>
    1904:	01007375 	tsteq	r0, r5, ror r3
    1908:	00002c19 	andeq	r2, r0, r9, lsl ip
    190c:	000ae300 	andeq	lr, sl, r0, lsl #6
    1910:	62720900 	rsbsvs	r0, r2, #0, 18
    1914:	2c1a0100 	ldfcss	f0, [sl], {-0}
    1918:	01000000 	mrseq	r0, (UNDEF: 0)
    191c:	8aa80c54 	bhi	fea04a74 <__bss_end__+0xfe9fa824>
    1920:	00100000 	andseq	r0, r0, r0
    1924:	014d0000 	mrseq	r0, (UNDEF: 77)
    1928:	720d0000 	andvc	r0, sp, #0
    192c:	1c010061 	stcne	0, cr0, [r1], {97}	; 0x61
    1930:	0000002c 	andeq	r0, r0, ip, lsr #32
    1934:	00000b01 	andeq	r0, r0, r1, lsl #22
    1938:	008aac0a 	addeq	sl, sl, sl, lsl #24
    193c:	0000cb00 	andeq	ip, r0, r0, lsl #22
    1940:	a40a0000 	strge	r0, [sl], #-0
    1944:	cb00008a 	blgt	1b74 <_start-0x648c>
    1948:	00000000 	andeq	r0, r0, r0
    194c:	00035304 	andeq	r5, r3, r4, lsl #6
    1950:	bc220100 	stflts	f0, [r2], #-0
    1954:	1400008a 	strne	r0, [r0], #-138	; 0x8a
    1958:	01000000 	mrseq	r0, (UNDEF: 0)
    195c:	0001909c 	muleq	r1, ip, r0
    1960:	736d0b00 	cmnvc	sp, #0, 22
    1964:	2c220100 	stfcss	f0, [r2], #-0
    1968:	14000000 	strne	r0, [r0], #-0
    196c:	0700000b 	streq	r0, [r0, -fp]
    1970:	00008acc 	andeq	r8, r0, ip, asr #21
    1974:	000000f9 	strdeq	r0, [r0], -r9
    1978:	07500108 	ldrbeq	r0, [r0, -r8, lsl #2]
    197c:	0a5001f3 	beq	1402150 <__bss_end__+0x13f7f00>
    1980:	001e03e8 	andseq	r0, lr, r8, ror #7
    1984:	04f10400 	ldrbteq	r0, [r1], #1024	; 0x400
    1988:	25010000 	strcs	r0, [r1, #-0]
    198c:	00008ad0 	ldrdeq	r8, [r0], -r0
    1990:	00000014 	andeq	r0, r0, r4, lsl r0
    1994:	01ca9c01 	biceq	r9, sl, r1, lsl #24
    1998:	730b0000 	movwvc	r0, #45056	; 0xb000
    199c:	01006365 	tsteq	r0, r5, ror #6
    19a0:	00002c25 	andeq	r2, r0, r5, lsr #24
    19a4:	000b3500 	andeq	r3, fp, r0, lsl #10
    19a8:	8ae00700 	bhi	ff8035b0 <__bss_end__+0xff7f9360>
    19ac:	01570000 	cmpeq	r7, r0
    19b0:	01080000 	mrseq	r0, (UNDEF: 8)
    19b4:	01f30750 	mvnseq	r0, r0, asr r7
    19b8:	03e80a50 	mvneq	r0, #80, 20	; 0x50000
    19bc:	0e00001e 	mcreq	0, 0, r0, cr0, cr14, {0}
    19c0:	0000050e 	andeq	r0, r0, lr, lsl #10
    19c4:	002ca802 	eoreq	sl, ip, r2, lsl #16
    19c8:	2c0f0000 	stccs	0, cr0, [pc], {-0}
    19cc:	00000000 	andeq	r0, r0, r0
    19d0:	0011ca00 	andseq	ip, r1, r0, lsl #20
    19d4:	0b000400 	bleq	29dc <_start-0x5624>
    19d8:	0400000c 	streq	r0, [r0], #-12
    19dc:	00001001 	andeq	r1, r0, r1
    19e0:	05de0100 	ldrbeq	r0, [lr, #256]	; 0x100
    19e4:	01fd0000 	mvnseq	r0, r0
    19e8:	8ae40000 	bhi	ff9019f0 <__bss_end__+0xff8f77a0>
    19ec:	06200000 	strteq	r0, [r0], -r0
    19f0:	0a470000 	beq	11c19f8 <__bss_end__+0x11b77a8>
    19f4:	04020000 	streq	r0, [r2], #-0
    19f8:	746e6905 	strbtvc	r6, [lr], #-2309	; 0x905
    19fc:	07040300 	streq	r0, [r4, -r0, lsl #6]
    1a00:	0000013a 	andeq	r0, r0, sl, lsr r1
    1a04:	dc060103 	stfles	f0, [r6], {3}
    1a08:	03000000 	movweq	r0, #0
    1a0c:	015e0502 	cmpeq	lr, r2, lsl #10
    1a10:	04030000 	streq	r0, [r3], #-0
    1a14:	00015505 	andeq	r5, r1, r5, lsl #10
    1a18:	05080300 	streq	r0, [r8, #-768]	; 0x300
    1a1c:	00000150 	andeq	r0, r0, r0, asr r1
    1a20:	00040704 	andeq	r0, r4, r4, lsl #14
    1a24:	5a2e0300 	bpl	b8262c <__bss_end__+0xb783dc>
    1a28:	03000000 	movweq	r0, #0
    1a2c:	00da0801 	sbcseq	r0, sl, r1, lsl #16
    1a30:	02030000 	andeq	r0, r3, #0
    1a34:	0000fb07 	andeq	pc, r0, r7, lsl #22
    1a38:	045e0400 	ldrbeq	r0, [lr], #-1024	; 0x400
    1a3c:	34030000 	strcc	r0, [r3], #-0
    1a40:	00000073 	andeq	r0, r0, r3, ror r0
    1a44:	35070403 	strcc	r0, [r7, #-1027]	; 0x403
    1a48:	03000001 	movweq	r0, #1
    1a4c:	01300708 	teqeq	r0, r8, lsl #14
    1a50:	04030000 	streq	r0, [r3], #-0
    1a54:	00014707 	andeq	r4, r1, r7, lsl #14
    1a58:	06040500 	streq	r0, [r4], -r0, lsl #10
    1a5c:	00009004 	andeq	r9, r0, r4
    1a60:	08010300 	stmdaeq	r1, {r8, r9}
    1a64:	000000e3 	andeq	r0, r0, r3, ror #1
    1a68:	009d0406 	addseq	r0, sp, r6, lsl #8
    1a6c:	90070000 	andls	r0, r7, r0
    1a70:	08000000 	stmdaeq	r0, {}	; <UNPREDICTABLE>
    1a74:	d90e040c 	stmdble	lr, {r2, r3, sl}
    1a78:	09000000 	stmdbeq	r0, {}	; <UNPREDICTABLE>
    1a7c:	04007874 	streq	r7, [r0], #-2164	; 0x874
    1a80:	00004f0f 	andeq	r4, r0, pc, lsl #30
    1a84:	72090000 	andvc	r0, r9, #0
    1a88:	0f040078 	svceq	0x00040078
    1a8c:	0000004f 	andeq	r0, r0, pc, asr #32
    1a90:	03d50a01 	bicseq	r0, r5, #4096	; 0x1000
    1a94:	10040000 	andne	r0, r4, r0
    1a98:	00000068 	andeq	r0, r0, r8, rrx
    1a9c:	03860a04 	orreq	r0, r6, #4, 20	; 0x4000
    1aa0:	11040000 	mrsne	r0, (UNDEF: 4)
    1aa4:	00000068 	andeq	r0, r0, r8, rrx
    1aa8:	be040008 	cdplt	0, 0, cr0, cr4, cr8, {0}
    1aac:	04000003 	streq	r0, [r0], #-3
    1ab0:	0000a212 	andeq	sl, r0, r2, lsl r2
    1ab4:	02410400 	subeq	r0, r1, #0, 8
    1ab8:	28050000 	stmdacs	r5, {}	; <UNPREDICTABLE>
    1abc:	000000ef 	andeq	r0, r0, pc, ror #1
    1ac0:	0002680b 	andeq	r6, r2, fp, lsl #16
    1ac4:	00090400 	andeq	r0, r9, r0, lsl #8
    1ac8:	00000106 	andeq	r0, r0, r6, lsl #2
    1acc:	0002770c 	andeq	r7, r2, ip, lsl #14
    1ad0:	00008800 	andeq	r8, r0, r0, lsl #16
    1ad4:	04000000 	streq	r0, [r0], #-0
    1ad8:	0000026a 	andeq	r0, r0, sl, ror #4
    1adc:	00e46205 	rsceq	r6, r4, r5, lsl #4
    1ae0:	980d0000 	stmdals	sp, {}	; <UNPREDICTABLE>
    1ae4:	02000005 	andeq	r0, r0, #5
    1ae8:	013f0309 	teqeq	pc, r9, lsl #6
    1aec:	e90e0000 	stmdb	lr, {}	; <UNPREDICTABLE>
    1af0:	02000003 	andeq	r0, r0, #3
    1af4:	00002c09 	andeq	r2, r0, r9, lsl #24
    1af8:	006e0f00 	rsbeq	r0, lr, r0, lsl #30
    1afc:	002c0902 	eoreq	r0, ip, r2, lsl #18
    1b00:	11100000 	tstne	r0, r0
    1b04:	0000060c 	andeq	r0, r0, ip, lsl #12
    1b08:	002c0c02 	eoreq	r0, ip, r2, lsl #24
    1b0c:	00000000 	andeq	r0, r0, r0
    1b10:	00054b0d 	andeq	r4, r5, sp, lsl #22
    1b14:	03170200 	tsteq	r7, #0, 4
    1b18:	00000176 	andeq	r0, r0, r6, ror r1
    1b1c:	6e69700f 	cdpvs	0, 6, cr7, cr9, cr15, {0}
    1b20:	2c170200 	lfmcs	f0, 4, [r7], {-0}
    1b24:	0f000000 	svceq	0x00000000
    1b28:	17020076 	smlsdxne	r2, r6, r0, r0
    1b2c:	0000002c 	andeq	r0, r0, ip, lsr #32
    1b30:	0003e90e 	andeq	lr, r3, lr, lsl #18
    1b34:	2c170200 	lfmcs	f0, 4, [r7], {-0}
    1b38:	0e000000 	cdpeq	0, 0, cr0, cr0, cr0, {0}
    1b3c:	0000059e 	muleq	r0, lr, r5
    1b40:	002c1702 	eoreq	r1, ip, r2, lsl #14
    1b44:	12000000 	andne	r0, r0, #0
    1b48:	000003fa 	strdeq	r0, [r0], -sl
    1b4c:	8ae40901 	bhi	ff903f58 <__bss_end__+0xff8f9d08>
    1b50:	01540000 	cmpeq	r4, r0
    1b54:	9c010000 	stcls	0, cr0, [r1], {-0}
    1b58:	00000722 	andeq	r0, r0, r2, lsr #14
    1b5c:	00039c13 	andeq	r9, r3, r3, lsl ip
    1b60:	22090100 	andcs	r0, r9, #0, 2
    1b64:	56000007 	strpl	r0, [r0], -r7
    1b68:	1400000b 	strne	r0, [r0], #-11
    1b6c:	09010063 	stmdbeq	r1, {r0, r1, r5, r6}
    1b70:	0000005a 	andeq	r0, r0, sl, asr r0
    1b74:	00000b77 	andeq	r0, r0, r7, ror fp
    1b78:	00787415 	rsbseq	r7, r8, r5, lsl r4
    1b7c:	00250b01 	eoreq	r0, r5, r1, lsl #22
    1b80:	76060000 	strvc	r0, [r6], -r0
    1b84:	1aff0800 	bne	fffc3b8c <__bss_end__+0xfffb993c>
    1b88:	006e169f 	mlseq	lr, pc, r6, r1	; <UNPREDICTABLE>
    1b8c:	00680c01 	rsbeq	r0, r8, r1, lsl #24
    1b90:	0b980000 	bleq	fe601b98 <__bss_end__+0xfe5f7948>
    1b94:	75160000 	ldrvc	r0, [r6, #-0]
    1b98:	680d0100 	stmdavs	sp, {r8}
    1b9c:	ab000000 	blge	1ba4 <_start-0x645c>
    1ba0:	1500000b 	strne	r0, [r0, #-11]
    1ba4:	0e010073 	mcreq	0, 0, r0, cr1, cr3, {3}
    1ba8:	00000068 	andeq	r0, r0, r8, rrx
    1bac:	f4175401 			; <UNDEFINED> instruction: 0xf4175401
    1bb0:	0400008a 	streq	r0, [r0], #-138	; 0x8a
    1bb4:	f8000000 			; <UNDEFINED> instruction: 0xf8000000
    1bb8:	18000001 	stmdane	r0, {r0}
    1bbc:	0000060c 	andeq	r0, r0, ip, lsl #12
    1bc0:	002c0e01 	eoreq	r0, ip, r1, lsl #28
    1bc4:	54010000 	strpl	r0, [r1], #-0
    1bc8:	013f1900 	teqeq	pc, r0, lsl #18
    1bcc:	8af80000 	bhi	ffe01bd4 <__bss_end__+0xffdf7984>
    1bd0:	001c0000 	andseq	r0, ip, r0
    1bd4:	11010000 	mrsne	r0, (UNDEF: 1)
    1bd8:	00000275 	andeq	r0, r0, r5, ror r2
    1bdc:	00016a1a 	andeq	r6, r1, sl, lsl sl
    1be0:	000bd400 	andeq	sp, fp, r0, lsl #8
    1be4:	015f1b00 	cmpeq	pc, r0, lsl #22
    1be8:	54010000 	strpl	r0, [r1], #-0
    1bec:	0001561c 	andeq	r5, r1, ip, lsl r6
    1bf0:	4b1b0000 	blmi	6c1bf8 <__bss_end__+0x6b79a8>
    1bf4:	01000001 	tsteq	r0, r1
    1bf8:	01111956 	tsteq	r1, r6, asr r9
    1bfc:	8b040000 	blhi	101c04 <__bss_end__+0xf79b4>
    1c00:	00100000 	andseq	r0, r0, r0
    1c04:	1a020000 	bne	81c0c <__bss_end__+0x779bc>
    1c08:	0000025f 	andeq	r0, r0, pc, asr r2
    1c0c:	0001281a 	andeq	r2, r1, sl, lsl r8
    1c10:	000be700 	andeq	lr, fp, r0, lsl #14
    1c14:	011d1b00 	tsteq	sp, r0, lsl #22
    1c18:	54010000 	strpl	r0, [r1], #-0
    1c1c:	008b041d 	addeq	r0, fp, sp, lsl r4
    1c20:	00000400 	andeq	r0, r0, r0, lsl #8
    1c24:	01321e00 	teqeq	r2, r0, lsl #28
    1c28:	0bfa0000 	bleq	ffe81c30 <__bss_end__+0xffe779e0>
    1c2c:	00000000 	andeq	r0, r0, r0
    1c30:	008b041f 	addeq	r0, fp, pc, lsl r4
    1c34:	00113100 	andseq	r3, r1, r0, lsl #2
    1c38:	51012000 	mrspl	r2, (UNDEF: 1)
    1c3c:	01203001 	teqeq	r0, r1
    1c40:	00760250 	rsbseq	r0, r6, r0, asr r2
    1c44:	3f190000 	svccc	0x00190000
    1c48:	18000001 	stmdane	r0, {r0}
    1c4c:	1c00008b 	stcne	0, cr0, [r0], {139}	; 0x8b
    1c50:	01000000 	mrseq	r0, (UNDEF: 0)
    1c54:	0002f813 	andeq	pc, r2, r3, lsl r8	; <UNPREDICTABLE>
    1c58:	016a1a00 	cmneq	sl, r0, lsl #20
    1c5c:	0c0d0000 	stceq	0, cr0, [sp], {-0}
    1c60:	5f1b0000 	svcpl	0x001b0000
    1c64:	01000001 	tsteq	r0, r1
    1c68:	01561a54 	cmpeq	r6, r4, asr sl
    1c6c:	0c2f0000 	stceq	0, cr0, [pc], #-0	; 1c74 <_start-0x638c>
    1c70:	4b1b0000 	blmi	6c1c78 <__bss_end__+0x6b7a28>
    1c74:	01000001 	tsteq	r0, r1
    1c78:	01111956 	tsteq	r1, r6, asr r9
    1c7c:	8b240000 	blhi	901c84 <__bss_end__+0x8f7a34>
    1c80:	00100000 	andseq	r0, r0, r0
    1c84:	1a020000 	bne	81c8c <__bss_end__+0x77a3c>
    1c88:	000002df 	ldrdeq	r0, [r0], -pc	; <UNPREDICTABLE>
    1c8c:	0001281a 	andeq	r2, r1, sl, lsl r8
    1c90:	000c6000 	andeq	r6, ip, r0
    1c94:	011d1b00 	tsteq	sp, r0, lsl #22
    1c98:	54010000 	strpl	r0, [r1], #-0
    1c9c:	008b241d 	addeq	r2, fp, sp, lsl r4
    1ca0:	00000400 	andeq	r0, r0, r0, lsl #8
    1ca4:	01321e00 	teqeq	r2, r0, lsl #28
    1ca8:	0c820000 	stceq	0, cr0, [r2], {0}
    1cac:	00000000 	andeq	r0, r0, r0
    1cb0:	008b241f 	addeq	r2, fp, pc, lsl r4
    1cb4:	00113100 	andseq	r3, r1, r0, lsl #2
    1cb8:	51012000 	mrspl	r2, (UNDEF: 1)
    1cbc:	31007704 	tstcc	r0, r4, lsl #14
    1cc0:	5001201a 	andpl	r2, r1, sl, lsl r0
    1cc4:	00007602 	andeq	r7, r0, r2, lsl #12
    1cc8:	013f1900 	teqeq	pc, r0, lsl #18
    1ccc:	8b380000 	blhi	e01cd4 <__bss_end__+0xdf7a84>
    1cd0:	001c0000 	andseq	r0, ip, r0
    1cd4:	15010000 	strne	r0, [r1, #-0]
    1cd8:	00000380 	andeq	r0, r0, r0, lsl #7
    1cdc:	00016a1a 	andeq	r6, r1, sl, lsl sl
    1ce0:	000c9500 	andeq	r9, ip, r0, lsl #10
    1ce4:	015f1b00 	cmpeq	pc, r0, lsl #22
    1ce8:	54010000 	strpl	r0, [r1], #-0
    1cec:	0001561b 	andeq	r5, r1, fp, lsl r6
    1cf0:	00770800 	rsbseq	r0, r7, r0, lsl #16
    1cf4:	ff081a32 			; <UNDEFINED> instruction: 0xff081a32
    1cf8:	4b1b9f1a 	blmi	6e9968 <__bss_end__+0x6df718>
    1cfc:	01000001 	tsteq	r0, r1
    1d00:	01111956 	tsteq	r1, r6, asr r9
    1d04:	8b440000 	blhi	1101d0c <__bss_end__+0x10f7abc>
    1d08:	00100000 	andseq	r0, r0, r0
    1d0c:	1a020000 	bne	81d14 <__bss_end__+0x77ac4>
    1d10:	00000367 	andeq	r0, r0, r7, ror #6
    1d14:	0001281a 	andeq	r2, r1, sl, lsl r8
    1d18:	000cba00 	andeq	fp, ip, r0, lsl #20
    1d1c:	011d1b00 	tsteq	sp, r0, lsl #22
    1d20:	54010000 	strpl	r0, [r1], #-0
    1d24:	008b441d 	addeq	r4, fp, sp, lsl r4
    1d28:	00000400 	andeq	r0, r0, r0, lsl #8
    1d2c:	01321e00 	teqeq	r2, r0, lsl #28
    1d30:	0cdf0000 	ldcleq	0, cr0, [pc], {0}
    1d34:	00000000 	andeq	r0, r0, r0
    1d38:	008b441f 	addeq	r4, fp, pc, lsl r4
    1d3c:	00113100 	andseq	r3, r1, r0, lsl #2
    1d40:	51012000 	mrspl	r2, (UNDEF: 1)
    1d44:	32007704 	andcc	r7, r0, #4, 14	; 0x100000
    1d48:	5001201a 	andpl	r2, r1, sl, lsl r0
    1d4c:	00007602 	andeq	r7, r0, r2, lsl #12
    1d50:	013f1900 	teqeq	pc, r0, lsl #18
    1d54:	8b580000 	blhi	1601d5c <__bss_end__+0x15f7b0c>
    1d58:	001c0000 	andseq	r0, ip, r0
    1d5c:	17010000 	strne	r0, [r1, -r0]
    1d60:	00000408 	andeq	r0, r0, r8, lsl #8
    1d64:	00016a1a 	andeq	r6, r1, sl, lsl sl
    1d68:	000cf200 	andeq	pc, ip, r0, lsl #4
    1d6c:	015f1b00 	cmpeq	pc, r0, lsl #22
    1d70:	54010000 	strpl	r0, [r1], #-0
    1d74:	0001561b 	andeq	r5, r1, fp, lsl r6
    1d78:	00770800 	rsbseq	r0, r7, r0, lsl #16
    1d7c:	ff081a34 			; <UNDEFINED> instruction: 0xff081a34
    1d80:	4b1b9f1a 	blmi	6e99f0 <__bss_end__+0x6df7a0>
    1d84:	01000001 	tsteq	r0, r1
    1d88:	01111956 	tsteq	r1, r6, asr r9
    1d8c:	8b640000 	blhi	1901d94 <__bss_end__+0x18f7b44>
    1d90:	00100000 	andseq	r0, r0, r0
    1d94:	1a020000 	bne	81d9c <__bss_end__+0x77b4c>
    1d98:	000003ef 	andeq	r0, r0, pc, ror #7
    1d9c:	0001281a 	andeq	r2, r1, sl, lsl r8
    1da0:	000d1400 	andeq	r1, sp, r0, lsl #8
    1da4:	011d1b00 	tsteq	sp, r0, lsl #22
    1da8:	54010000 	strpl	r0, [r1], #-0
    1dac:	008b641d 	addeq	r6, fp, sp, lsl r4
    1db0:	00000400 	andeq	r0, r0, r0, lsl #8
    1db4:	01321e00 	teqeq	r2, r0, lsl #28
    1db8:	0d360000 	ldceq	0, cr0, [r6, #-0]
    1dbc:	00000000 	andeq	r0, r0, r0
    1dc0:	008b641f 	addeq	r6, fp, pc, lsl r4
    1dc4:	00113100 	andseq	r3, r1, r0, lsl #2
    1dc8:	51012000 	mrspl	r2, (UNDEF: 1)
    1dcc:	34007704 	strcc	r7, [r0], #-1796	; 0x704
    1dd0:	5001201a 	andpl	r2, r1, sl, lsl r0
    1dd4:	00007602 	andeq	r7, r0, r2, lsl #12
    1dd8:	013f1900 	teqeq	pc, r0, lsl #18
    1ddc:	8b780000 	blhi	1e01de4 <__bss_end__+0x1df7b94>
    1de0:	001c0000 	andseq	r0, ip, r0
    1de4:	19010000 	stmdbne	r1, {}	; <UNPREDICTABLE>
    1de8:	00000490 	muleq	r0, r0, r4
    1dec:	00016a1a 	andeq	r6, r1, sl, lsl sl
    1df0:	000d4900 	andeq	r4, sp, r0, lsl #18
    1df4:	015f1b00 	cmpeq	pc, r0, lsl #22
    1df8:	54010000 	strpl	r0, [r1], #-0
    1dfc:	0001561b 	andeq	r5, r1, fp, lsl r6
    1e00:	00770800 	rsbseq	r0, r7, r0, lsl #16
    1e04:	ff081a38 			; <UNDEFINED> instruction: 0xff081a38
    1e08:	4b1b9f1a 	blmi	6e9a78 <__bss_end__+0x6df828>
    1e0c:	01000001 	tsteq	r0, r1
    1e10:	01111956 	tsteq	r1, r6, asr r9
    1e14:	8b840000 	blhi	fe101e1c <__bss_end__+0xfe0f7bcc>
    1e18:	00100000 	andseq	r0, r0, r0
    1e1c:	1a020000 	bne	81e24 <__bss_end__+0x77bd4>
    1e20:	00000477 	andeq	r0, r0, r7, ror r4
    1e24:	0001281a 	andeq	r2, r1, sl, lsl r8
    1e28:	000d6e00 	andeq	r6, sp, r0, lsl #28
    1e2c:	011d1b00 	tsteq	sp, r0, lsl #22
    1e30:	54010000 	strpl	r0, [r1], #-0
    1e34:	008b841d 	addeq	r8, fp, sp, lsl r4
    1e38:	00000400 	andeq	r0, r0, r0, lsl #8
    1e3c:	01321e00 	teqeq	r2, r0, lsl #28
    1e40:	0d930000 	ldceq	0, cr0, [r3]
    1e44:	00000000 	andeq	r0, r0, r0
    1e48:	008b841f 	addeq	r8, fp, pc, lsl r4
    1e4c:	00113100 	andseq	r3, r1, r0, lsl #2
    1e50:	51012000 	mrspl	r2, (UNDEF: 1)
    1e54:	38007704 	stmdacc	r0, {r2, r8, r9, sl, ip, sp, lr}
    1e58:	5001201a 	andpl	r2, r1, sl, lsl r0
    1e5c:	00007602 	andeq	r7, r0, r2, lsl #12
    1e60:	013f1900 	teqeq	pc, r0, lsl #18
    1e64:	8b980000 	blhi	fe601e6c <__bss_end__+0xfe5f7c1c>
    1e68:	001c0000 	andseq	r0, ip, r0
    1e6c:	1b010000 	blne	41e74 <__bss_end__+0x37c24>
    1e70:	00000518 	andeq	r0, r0, r8, lsl r5
    1e74:	00016a1a 	andeq	r6, r1, sl, lsl sl
    1e78:	000da600 	andeq	sl, sp, r0, lsl #12
    1e7c:	015f1b00 	cmpeq	pc, r0, lsl #22
    1e80:	54010000 	strpl	r0, [r1], #-0
    1e84:	0001561b 	andeq	r5, r1, fp, lsl r6
    1e88:	00770800 	rsbseq	r0, r7, r0, lsl #16
    1e8c:	ff081a40 			; <UNDEFINED> instruction: 0xff081a40
    1e90:	4b1b9f1a 	blmi	6e9b00 <__bss_end__+0x6df8b0>
    1e94:	01000001 	tsteq	r0, r1
    1e98:	01111956 	tsteq	r1, r6, asr r9
    1e9c:	8ba40000 	blhi	fe901ea4 <__bss_end__+0xfe8f7c54>
    1ea0:	00100000 	andseq	r0, r0, r0
    1ea4:	1a020000 	bne	81eac <__bss_end__+0x77c5c>
    1ea8:	000004ff 	strdeq	r0, [r0], -pc	; <UNPREDICTABLE>
    1eac:	0001281a 	andeq	r2, r1, sl, lsl r8
    1eb0:	000dcd00 	andeq	ip, sp, r0, lsl #26
    1eb4:	011d1b00 	tsteq	sp, r0, lsl #22
    1eb8:	54010000 	strpl	r0, [r1], #-0
    1ebc:	008ba41d 	addeq	sl, fp, sp, lsl r4
    1ec0:	00000400 	andeq	r0, r0, r0, lsl #8
    1ec4:	01321e00 	teqeq	r2, r0, lsl #28
    1ec8:	0df40000 	ldcleq	0, cr0, [r4]
    1ecc:	00000000 	andeq	r0, r0, r0
    1ed0:	008ba41f 	addeq	sl, fp, pc, lsl r4
    1ed4:	00113100 	andseq	r3, r1, r0, lsl #2
    1ed8:	51012000 	mrspl	r2, (UNDEF: 1)
    1edc:	40007704 	andmi	r7, r0, r4, lsl #14
    1ee0:	5001201a 	andpl	r2, r1, sl, lsl r0
    1ee4:	00007602 	andeq	r7, r0, r2, lsl #12
    1ee8:	013f1900 	teqeq	pc, r0, lsl #18
    1eec:	8bb80000 	blhi	fee01ef4 <__bss_end__+0xfedf7ca4>
    1ef0:	001c0000 	andseq	r0, ip, r0
    1ef4:	1d010000 	stcne	0, cr0, [r1, #-0]
    1ef8:	000005a2 	andeq	r0, r0, r2, lsr #11
    1efc:	00016a1a 	andeq	r6, r1, sl, lsl sl
    1f00:	000e0700 	andeq	r0, lr, r0, lsl #14
    1f04:	015f1b00 	cmpeq	pc, r0, lsl #22
    1f08:	54010000 	strpl	r0, [r1], #-0
    1f0c:	0001561b 	andeq	r5, r1, fp, lsl r6
    1f10:	00770900 	rsbseq	r0, r7, r0, lsl #18
    1f14:	081a2008 	ldmdaeq	sl, {r3, sp}
    1f18:	1b9f1aff 	blne	fe7c8b1c <__bss_end__+0xfe7be8cc>
    1f1c:	0000014b 	andeq	r0, r0, fp, asr #2
    1f20:	11195601 	tstne	r9, r1, lsl #12
    1f24:	c4000001 	strgt	r0, [r0], #-1
    1f28:	1000008b 	andne	r0, r0, fp, lsl #1
    1f2c:	02000000 	andeq	r0, r0, #0
    1f30:	0005881a 	andeq	r8, r5, sl, lsl r8
    1f34:	01281a00 	teqeq	r8, r0, lsl #20
    1f38:	0e310000 	cdpeq	0, 3, cr0, cr1, cr0, {0}
    1f3c:	1d1b0000 	ldcne	0, cr0, [fp, #-0]
    1f40:	01000001 	tsteq	r0, r1
    1f44:	8bc41d54 	blhi	ff10949c <__bss_end__+0xff0ff24c>
    1f48:	00040000 	andeq	r0, r4, r0
    1f4c:	321e0000 	andscc	r0, lr, #0
    1f50:	5b000001 	blpl	1f5c <_start-0x60a4>
    1f54:	0000000e 	andeq	r0, r0, lr
    1f58:	8bc41f00 	blhi	ff109b60 <__bss_end__+0xff0ff910>
    1f5c:	11310000 	teqne	r1, r0
    1f60:	01200000 	teqeq	r0, r0
    1f64:	00770551 	rsbseq	r0, r7, r1, asr r5
    1f68:	201a2008 	andscs	r2, sl, r8
    1f6c:	76025001 	strvc	r5, [r2], -r1
    1f70:	19000000 	stmdbne	r0, {}	; <UNPREDICTABLE>
    1f74:	0000013f 	andeq	r0, r0, pc, lsr r1
    1f78:	00008bd8 	ldrdeq	r8, [r0], -r8	; <UNPREDICTABLE>
    1f7c:	0000001c 	andeq	r0, r0, ip, lsl r0
    1f80:	062c1f01 	strteq	r1, [ip], -r1, lsl #30
    1f84:	6a1a0000 	bvs	681f8c <__bss_end__+0x677d3c>
    1f88:	6e000001 	cdpvs	0, 0, cr0, cr0, cr1, {0}
    1f8c:	1b00000e 	blne	1fcc <_start-0x6034>
    1f90:	0000015f 	andeq	r0, r0, pc, asr r1
    1f94:	561b5401 	ldrpl	r5, [fp], -r1, lsl #8
    1f98:	09000001 	stmdbeq	r0, {r0}
    1f9c:	40080077 	andmi	r0, r8, r7, ror r0
    1fa0:	1aff081a 	bne	fffc4010 <__bss_end__+0xfffb9dc0>
    1fa4:	014b1b9f 			; <UNDEFINED> instruction: 0x014b1b9f
    1fa8:	56010000 	strpl	r0, [r1], -r0
    1fac:	00011119 	andeq	r1, r1, r9, lsl r1
    1fb0:	008be400 	addeq	lr, fp, r0, lsl #8
    1fb4:	00001000 	andeq	r1, r0, r0
    1fb8:	121a0200 	andsne	r0, sl, #0, 4
    1fbc:	1a000006 	bne	1fdc <_start-0x6024>
    1fc0:	00000128 	andeq	r0, r0, r8, lsr #2
    1fc4:	00000e90 	muleq	r0, r0, lr
    1fc8:	00011d1b 	andeq	r1, r1, fp, lsl sp
    1fcc:	1d540100 	ldfnee	f0, [r4, #-0]
    1fd0:	00008be4 	andeq	r8, r0, r4, ror #23
    1fd4:	00000004 	andeq	r0, r0, r4
    1fd8:	0001321e 	andeq	r3, r1, lr, lsl r2
    1fdc:	000eb200 	andeq	fp, lr, r0, lsl #4
    1fe0:	1f000000 	svcne	0x00000000
    1fe4:	00008be4 	andeq	r8, r0, r4, ror #23
    1fe8:	00001131 	andeq	r1, r0, r1, lsr r1
    1fec:	05510120 	ldrbeq	r0, [r1, #-288]	; 0x120
    1ff0:	40080077 	andmi	r0, r8, r7, ror r0
    1ff4:	5001201a 	andpl	r2, r1, sl, lsl r0
    1ff8:	00007602 	andeq	r7, r0, r2, lsl #12
    1ffc:	013f1900 	teqeq	pc, r0, lsl #18
    2000:	8bf80000 	blhi	ffe02008 <__bss_end__+0xffdf7db8>
    2004:	001c0000 	andseq	r0, ip, r0
    2008:	21010000 	mrscs	r0, (UNDEF: 1)
    200c:	000006ac 	andeq	r0, r0, ip, lsr #13
    2010:	00016a1b 	andeq	r6, r1, fp, lsl sl
    2014:	1b580100 	blne	160241c <__bss_end__+0x15f81cc>
    2018:	0000015f 	andeq	r0, r0, pc, asr r1
    201c:	561a5401 	ldrpl	r5, [sl], -r1, lsl #8
    2020:	c5000001 	strgt	r0, [r0, #-1]
    2024:	1b00000e 	blne	2064 <_start-0x5f9c>
    2028:	0000014b 	andeq	r0, r0, fp, asr #2
    202c:	11195601 	tstne	r9, r1, lsl #12
    2030:	04000001 	streq	r0, [r0], #-1
    2034:	1000008c 	andne	r0, r0, ip, lsl #1
    2038:	02000000 	andeq	r0, r0, #0
    203c:	0006921a 	andeq	r9, r6, sl, lsl r2
    2040:	01281b00 	teqeq	r8, r0, lsl #22
    2044:	58010000 	stmdapl	r1, {}	; <UNPREDICTABLE>
    2048:	00011d1b 	andeq	r1, r1, fp, lsl sp
    204c:	1d540100 	ldfnee	f0, [r4, #-0]
    2050:	00008c04 	andeq	r8, r0, r4, lsl #24
    2054:	00000004 	andeq	r0, r0, r4
    2058:	0001321e 	andeq	r3, r1, lr, lsl r2
    205c:	000ef800 	andeq	pc, lr, r0, lsl #16
    2060:	1f000000 	svcne	0x00000000
    2064:	00008c04 	andeq	r8, r0, r4, lsl #24
    2068:	00001131 	andeq	r1, r0, r1, lsr r1
    206c:	05510120 	ldrbeq	r0, [r1, #-288]	; 0x120
    2070:	80080077 	andhi	r0, r8, r7, ror r0
    2074:	5001201a 	andpl	r2, r1, sl, lsl r0
    2078:	00007602 	andeq	r7, r0, r2, lsl #12
    207c:	013f2100 	teqeq	pc, r0, lsl #2
    2080:	8c180000 	ldchi	0, cr0, [r8], {-0}
    2084:	001c0000 	andseq	r0, ip, r0
    2088:	23010000 	movwcs	r0, #4096	; 0x1000
    208c:	00016a1b 	andeq	r6, r1, fp, lsl sl
    2090:	1b550100 	blne	1542498 <__bss_end__+0x1538248>
    2094:	0000015f 	andeq	r0, r0, pc, asr r1
    2098:	561c5401 	ldrpl	r5, [ip], -r1, lsl #8
    209c:	01000001 	tsteq	r0, r1
    20a0:	00014b1b 	andeq	r4, r1, fp, lsl fp
    20a4:	19560100 	ldmdbne	r6, {r8}^
    20a8:	00000111 	andeq	r0, r0, r1, lsl r1
    20ac:	00008c24 	andeq	r8, r0, r4, lsr #24
    20b0:	00000010 	andeq	r0, r0, r0, lsl r0
    20b4:	070b1a02 	streq	r1, [fp, -r2, lsl #20]
    20b8:	281b0000 	ldmdacs	fp, {}	; <UNPREDICTABLE>
    20bc:	01000001 	tsteq	r0, r1
    20c0:	011d1b55 	tsteq	sp, r5, asr fp
    20c4:	54010000 	strpl	r0, [r1], #-0
    20c8:	008c241d 	addeq	r2, ip, sp, lsl r4
    20cc:	00000400 	andeq	r0, r0, r0, lsl #8
    20d0:	01321e00 	teqeq	r2, r0, lsl #28
    20d4:	0f0b0000 	svceq	0x000b0000
    20d8:	00000000 	andeq	r0, r0, r0
    20dc:	008c241f 	addeq	r2, ip, pc, lsl r4
    20e0:	00113100 	andseq	r3, r1, r0, lsl #2
    20e4:	51012000 	mrspl	r2, (UNDEF: 1)
    20e8:	01203101 	teqeq	r0, r1, lsl #2
    20ec:	00760250 	rsbseq	r0, r6, r0, asr r2
    20f0:	06000000 	streq	r0, [r0], -r0
    20f4:	0000d904 	andeq	sp, r0, r4, lsl #18
    20f8:	065f2200 	ldrbeq	r2, [pc], -r0, lsl #4
    20fc:	27010000 	strcs	r0, [r1, -r0]
    2100:	00000025 	andeq	r0, r0, r5, lsr #32
    2104:	00076203 	andeq	r6, r7, r3, lsl #4
    2108:	78720f00 	ldmdavc	r2!, {r8, r9, sl, fp}^
    210c:	25270100 	strcs	r0, [r7, #-256]!	; 0x100
    2110:	0f000000 	svceq	0x00000000
    2114:	27010076 	smlsdxcs	r1, r6, r0, r0
    2118:	00000025 	andeq	r0, r0, r5, lsr #32
    211c:	0005ba0e 	andeq	fp, r5, lr, lsl #20
    2120:	2c270100 	stfcss	f0, [r7], #-0
    2124:	11000000 	mrsne	r0, (UNDEF: 0)
    2128:	000003e9 	andeq	r0, r0, r9, ror #7
    212c:	002c2801 	eoreq	r2, ip, r1, lsl #16
    2130:	23000000 	movwcs	r0, #0
    2134:	0000055b 	andeq	r0, r0, fp, asr r5
    2138:	00253401 	eoreq	r3, r5, r1, lsl #8
    213c:	8c380000 	ldchi	0, cr0, [r8], #-0
    2140:	01c80000 	biceq	r0, r8, r0
    2144:	9c010000 	stcls	0, cr0, [r1], {-0}
    2148:	00000b1e 	andeq	r0, r0, lr, lsl fp
    214c:	00039c13 	andeq	r9, r3, r3, lsl ip
    2150:	22340100 	eorscs	r0, r4, #0, 2
    2154:	1e000007 	cdpne	0, 0, cr0, cr0, cr7, {0}
    2158:	1300000f 	movwne	r0, #15
    215c:	000005ba 			; <UNDEFINED> instruction: 0x000005ba
    2160:	00253401 	eoreq	r3, r5, r1, lsl #8
    2164:	0f630000 	svceq	0x00630000
    2168:	72150000 	andsvc	r0, r5, #0
    216c:	35010078 	strcc	r0, [r1, #-120]	; 0x78
    2170:	00000025 	andeq	r0, r0, r5, lsr #32
    2174:	73165501 	tstvc	r6, #4194304	; 0x400000
    2178:	2c3c0100 	ldfcss	f0, [ip], #-0
    217c:	81000000 	mrshi	r0, (UNDEF: 0)
    2180:	1600000f 	strne	r0, [r0], -pc
    2184:	3f010075 	svccc	0x00010075
    2188:	00000068 	andeq	r0, r0, r8, rrx
    218c:	00000f94 	muleq	r0, r4, pc	; <UNPREDICTABLE>
    2190:	01006e16 	tsteq	r0, r6, lsl lr
    2194:	00002c40 	andeq	r2, r0, r0, asr #24
    2198:	000fa700 	andeq	sl, pc, r0, lsl #14
    219c:	00631600 	rsbeq	r1, r3, r0, lsl #12
    21a0:	002c4101 	eoreq	r4, ip, r1, lsl #2
    21a4:	0fbe0000 	svceq	0x00be0000
    21a8:	28190000 	ldmdacs	r9, {}	; <UNPREDICTABLE>
    21ac:	4c000007 	stcmi	0, cr0, [r0], {7}
    21b0:	3400008c 	strcc	r0, [r0], #-140	; 0x8c
    21b4:	01000000 	mrseq	r0, (UNDEF: 0)
    21b8:	00083c38 	andeq	r3, r8, r8, lsr ip
    21bc:	074b1a00 	strbeq	r1, [fp, -r0, lsl #20]
    21c0:	0fe80000 	svceq	0x00e80000
    21c4:	421c0000 	andsmi	r0, ip, #0
    21c8:	00000007 	andeq	r0, r0, r7
    21cc:	0007381b 	andeq	r3, r7, fp, lsl r8
    21d0:	1d550100 	ldfnee	f0, [r5, #-0]
    21d4:	00008c4c 	andeq	r8, r0, ip, asr #24
    21d8:	00000034 	andeq	r0, r0, r4, lsr r0
    21dc:	0007561e 	andeq	r5, r7, lr, lsl r6
    21e0:	00100600 	andseq	r0, r0, r0, lsl #12
    21e4:	8c502400 	cfldrdhi	mvd2, [r0], {-0}
    21e8:	11470000 	mrsne	r0, (UNDEF: 71)
    21ec:	5c250000 	stcpl	0, cr0, [r5], #-0
    21f0:	5200008c 	andpl	r0, r0, #140	; 0x8c
    21f4:	31000011 	tstcc	r0, r1, lsl r0
    21f8:	20000008 	andcs	r0, r0, r8
    21fc:	75025001 	strvc	r5, [r2, #-1]
    2200:	68240000 	stmdavs	r4!, {}	; <UNPREDICTABLE>
    2204:	4700008c 	strmi	r0, [r0, -ip, lsl #1]
    2208:	00000011 	andeq	r0, r0, r1, lsl r0
    220c:	8c881700 	stchi	7, cr1, [r8], {0}
    2210:	00040000 	andeq	r0, r4, r0
    2214:	08590000 	ldmdaeq	r9, {}^	; <UNPREDICTABLE>
    2218:	0c260000 	stceq	0, cr0, [r6], #-0
    221c:	01000006 	tsteq	r0, r6
    2220:	00002c3c 	andeq	r2, r0, ip, lsr ip
    2224:	00102400 	andseq	r2, r0, r0, lsl #8
    2228:	11190000 	tstne	r9, r0
    222c:	94000001 	strls	r0, [r0], #-1
    2230:	1000008c 	andne	r0, r0, ip, lsl #1
    2234:	01000000 	mrseq	r0, (UNDEF: 0)
    2238:	00089244 	andeq	r9, r8, r4, asr #4
    223c:	01281a00 	teqeq	r8, r0, lsl #20
    2240:	10370000 	eorsne	r0, r7, r0
    2244:	1d1a0000 	ldcne	0, cr0, [sl, #-0]
    2248:	5c000001 	stcpl	0, cr0, [r0], {1}
    224c:	1d000010 	stcne	0, cr0, [r0, #-64]	; 0xffffffc0
    2250:	00008c94 	muleq	r0, r4, ip
    2254:	00000004 	andeq	r0, r0, r4
    2258:	0001321e 	andeq	r3, r1, lr, lsl r2
    225c:	00106f00 	andseq	r6, r0, r0, lsl #30
    2260:	19000000 	stmdbne	r0, {}	; <UNPREDICTABLE>
    2264:	00000111 	andeq	r0, r0, r1, lsl r1
    2268:	00008cb4 			; <UNDEFINED> instruction: 0x00008cb4
    226c:	00000010 	andeq	r0, r0, r0, lsl r0
    2270:	08cb4801 	stmiaeq	fp, {r0, fp, lr}^
    2274:	281a0000 	ldmdacs	sl, {}	; <UNPREDICTABLE>
    2278:	82000001 	andhi	r0, r0, #1
    227c:	1a000010 	bne	22c4 <_start-0x5d3c>
    2280:	0000011d 	andeq	r0, r0, sp, lsl r1
    2284:	00001095 	muleq	r0, r5, r0
    2288:	008cb41d 	addeq	fp, ip, sp, lsl r4
    228c:	00000400 	andeq	r0, r0, r0, lsl #8
    2290:	01321e00 	teqeq	r2, r0, lsl #28
    2294:	10a80000 	adcne	r0, r8, r0
    2298:	00000000 	andeq	r0, r0, r0
    229c:	00011119 	andeq	r1, r1, r9, lsl r1
    22a0:	008cd800 	addeq	sp, ip, r0, lsl #16
    22a4:	00001000 	andeq	r1, r0, r0
    22a8:	044b0100 	strbeq	r0, [fp], #-256	; 0x100
    22ac:	1a000009 	bne	22d8 <_start-0x5d28>
    22b0:	00000128 	andeq	r0, r0, r8, lsr #2
    22b4:	000010bb 	strheq	r1, [r0], -fp
    22b8:	00011d1a 	andeq	r1, r1, sl, lsl sp
    22bc:	0010ce00 	andseq	ip, r0, r0, lsl #28
    22c0:	8cd81d00 	ldclhi	13, cr1, [r8], {0}
    22c4:	00040000 	andeq	r0, r4, r0
    22c8:	321e0000 	andscc	r0, lr, #0
    22cc:	e1000001 	tst	r0, r1
    22d0:	00000010 	andeq	r0, r0, r0, lsl r0
    22d4:	01111900 	tsteq	r1, r0, lsl #18
    22d8:	8cfc0000 	ldclhi	0, cr0, [ip]
    22dc:	00100000 	andseq	r0, r0, r0
    22e0:	4e010000 	cdpmi	0, 0, cr0, cr1, cr0, {0}
    22e4:	0000093d 	andeq	r0, r0, sp, lsr r9
    22e8:	0001281a 	andeq	r2, r1, sl, lsl r8
    22ec:	0010f400 	andseq	pc, r0, r0, lsl #8
    22f0:	011d1a00 	tsteq	sp, r0, lsl #20
    22f4:	11070000 	mrsne	r0, (UNDEF: 7)
    22f8:	fc1d0000 	ldc2	0, cr0, [sp], {-0}
    22fc:	0400008c 	streq	r0, [r0], #-140	; 0x8c
    2300:	1e000000 	cdpne	0, 0, cr0, cr0, cr0, {0}
    2304:	00000132 	andeq	r0, r0, r2, lsr r1
    2308:	0000111a 	andeq	r1, r0, sl, lsl r1
    230c:	11190000 	tstne	r9, r0
    2310:	20000001 	andcs	r0, r0, r1
    2314:	1000008d 	andne	r0, r0, sp, lsl #1
    2318:	01000000 	mrseq	r0, (UNDEF: 0)
    231c:	00097651 	andeq	r7, r9, r1, asr r6
    2320:	01281a00 	teqeq	r8, r0, lsl #20
    2324:	112d0000 	teqne	sp, r0
    2328:	1d1a0000 	ldcne	0, cr0, [sl, #-0]
    232c:	40000001 	andmi	r0, r0, r1
    2330:	1d000011 	stcne	0, cr0, [r0, #-68]	; 0xffffffbc
    2334:	00008d20 	andeq	r8, r0, r0, lsr #26
    2338:	00000004 	andeq	r0, r0, r4
    233c:	0001321e 	andeq	r3, r1, lr, lsl r2
    2340:	00115300 	andseq	r5, r1, r0, lsl #6
    2344:	19000000 	stmdbne	r0, {}	; <UNPREDICTABLE>
    2348:	00000111 	andeq	r0, r0, r1, lsl r1
    234c:	00008d44 	andeq	r8, r0, r4, asr #26
    2350:	00000010 	andeq	r0, r0, r0, lsl r0
    2354:	09af5401 	stmibeq	pc!, {r0, sl, ip, lr}	; <UNPREDICTABLE>
    2358:	281a0000 	ldmdacs	sl, {}	; <UNPREDICTABLE>
    235c:	66000001 	strvs	r0, [r0], -r1
    2360:	1a000011 	bne	23ac <_start-0x5c54>
    2364:	0000011d 	andeq	r0, r0, sp, lsl r1
    2368:	00001179 	andeq	r1, r0, r9, ror r1
    236c:	008d441d 	addeq	r4, sp, sp, lsl r4
    2370:	00000400 	andeq	r0, r0, r0, lsl #8
    2374:	01321e00 	teqeq	r2, r0, lsl #28
    2378:	118c0000 	orrne	r0, ip, r0
    237c:	00000000 	andeq	r0, r0, r0
    2380:	00011119 	andeq	r1, r1, r9, lsl r1
    2384:	008d6800 	addeq	r6, sp, r0, lsl #16
    2388:	00001000 	andeq	r1, r0, r0
    238c:	e8570100 	ldmda	r7, {r8}^
    2390:	1a000009 	bne	23bc <_start-0x5c44>
    2394:	00000128 	andeq	r0, r0, r8, lsr #2
    2398:	0000119f 	muleq	r0, pc, r1	; <UNPREDICTABLE>
    239c:	00011d1a 	andeq	r1, r1, sl, lsl sp
    23a0:	0011b200 	andseq	fp, r1, r0, lsl #4
    23a4:	8d681d00 	stclhi	13, cr1, [r8, #-0]
    23a8:	00040000 	andeq	r0, r4, r0
    23ac:	321e0000 	andscc	r0, lr, #0
    23b0:	c5000001 	strgt	r0, [r0, #-1]
    23b4:	00000011 	andeq	r0, r0, r1, lsl r0
    23b8:	01111900 	tsteq	r1, r0, lsl #18
    23bc:	8d8c0000 	stchi	0, cr0, [ip]
    23c0:	00100000 	andseq	r0, r0, r0
    23c4:	5a010000 	bpl	423cc <__bss_end__+0x3817c>
    23c8:	00000a1d 	andeq	r0, r0, sp, lsl sl
    23cc:	0001281a 	andeq	r2, r1, sl, lsl r8
    23d0:	0011d800 	andseq	sp, r1, r0, lsl #16
    23d4:	011d2700 	tsteq	sp, r0, lsl #14
    23d8:	8c1d0000 	ldchi	0, cr0, [sp], {-0}
    23dc:	0400008d 	streq	r0, [r0], #-141	; 0x8d
    23e0:	1e000000 	cdpne	0, 0, cr0, cr0, cr0, {0}
    23e4:	00000132 	andeq	r0, r0, r2, lsr r1
    23e8:	000011eb 	andeq	r1, r0, fp, ror #3
    23ec:	28190000 	ldmdacs	r9, {}	; <UNPREDICTABLE>
    23f0:	ac000007 	stcge	0, cr0, [r0], {7}
    23f4:	3400008d 	strcc	r0, [r0], #-141	; 0x8d
    23f8:	01000000 	mrseq	r0, (UNDEF: 0)
    23fc:	000a8161 	andeq	r8, sl, r1, ror #2
    2400:	074b2700 	strbeq	r2, [fp, -r0, lsl #14]
    2404:	421a0000 	andsmi	r0, sl, #0
    2408:	fe000007 	cdp2	0, 0, cr0, cr0, cr7, {0}
    240c:	1a000011 	bne	2458 <_start-0x5ba8>
    2410:	00000738 	andeq	r0, r0, r8, lsr r7
    2414:	0000121e 	andeq	r1, r0, lr, lsl r2
    2418:	008dac1d 	addeq	sl, sp, sp, lsl ip
    241c:	00003400 	andeq	r3, r0, r0, lsl #8
    2420:	07561e00 	ldrbeq	r1, [r6, -r0, lsl #28]
    2424:	123c0000 	eorsne	r0, ip, #0
    2428:	b0240000 	eorlt	r0, r4, r0
    242c:	4700008d 	strmi	r0, [r0, -sp, lsl #1]
    2430:	25000011 	strcs	r0, [r0, #-17]
    2434:	00008dbc 			; <UNDEFINED> instruction: 0x00008dbc
    2438:	00001152 	andeq	r1, r0, r2, asr r1
    243c:	00000a76 	andeq	r0, r0, r6, ror sl
    2440:	02500120 	subseq	r0, r0, #32, 2
    2444:	24000075 	strcs	r0, [r0], #-117	; 0x75
    2448:	00008dc8 	andeq	r8, r0, r8, asr #27
    244c:	00001147 	andeq	r1, r0, r7, asr #2
    2450:	b0250000 	eorlt	r0, r5, r0
    2454:	5200008c 	andpl	r0, r0, #140	; 0x8c
    2458:	95000011 	strls	r0, [r0, #-17]
    245c:	2000000a 	andcs	r0, r0, sl
    2460:	75025001 	strvc	r5, [r2, #-1]
    2464:	d0250000 	eorle	r0, r5, r0
    2468:	5200008c 	andpl	r0, r0, #140	; 0x8c
    246c:	a9000011 	stmdbge	r0, {r0, r4}
    2470:	2000000a 	andcs	r0, r0, sl
    2474:	75025001 	strvc	r5, [r2, #-1]
    2478:	f4250000 	vld4.8	{d0-d3}, [r5], r0
    247c:	5200008c 	andpl	r0, r0, #140	; 0x8c
    2480:	bd000011 	stclt	0, cr0, [r0, #-68]	; 0xffffffbc
    2484:	2000000a 	andcs	r0, r0, sl
    2488:	75025001 	strvc	r5, [r2, #-1]
    248c:	18250000 	stmdane	r5!, {}	; <UNPREDICTABLE>
    2490:	5200008d 	andpl	r0, r0, #141	; 0x8d
    2494:	d1000011 	tstle	r0, r1, lsl r0
    2498:	2000000a 	andcs	r0, r0, sl
    249c:	75025001 	strvc	r5, [r2, #-1]
    24a0:	3c250000 	stccc	0, cr0, [r5], #-0
    24a4:	5200008d 	andpl	r0, r0, #141	; 0x8d
    24a8:	e5000011 	str	r0, [r0, #-17]
    24ac:	2000000a 	andcs	r0, r0, sl
    24b0:	75025001 	strvc	r5, [r2, #-1]
    24b4:	60250000 	eorvs	r0, r5, r0
    24b8:	5200008d 	andpl	r0, r0, #141	; 0x8d
    24bc:	f9000011 			; <UNDEFINED> instruction: 0xf9000011
    24c0:	2000000a 	andcs	r0, r0, sl
    24c4:	75025001 	strvc	r5, [r2, #-1]
    24c8:	84250000 	strthi	r0, [r5], #-0
    24cc:	5200008d 	andpl	r0, r0, #141	; 0x8d
    24d0:	0d000011 	stceq	0, cr0, [r0, #-68]	; 0xffffffbc
    24d4:	2000000b 	andcs	r0, r0, fp
    24d8:	75025001 	strvc	r5, [r2, #-1]
    24dc:	a41f0000 	ldrge	r0, [pc], #-0	; 24e4 <_start-0x5b1c>
    24e0:	5200008d 	andpl	r0, r0, #141	; 0x8d
    24e4:	20000011 	andcs	r0, r0, r1, lsl r0
    24e8:	75025001 	strvc	r5, [r2, #-1]
    24ec:	23000000 	movwcs	r0, #0
    24f0:	00000570 	andeq	r0, r0, r0, ror r5
    24f4:	00256c01 	eoreq	r6, r5, r1, lsl #24
    24f8:	8e000000 	cdphi	0, 0, cr0, cr0, cr0, {0}
    24fc:	00900000 	addseq	r0, r0, r0
    2500:	9c010000 	stcls	0, cr0, [r1], {-0}
    2504:	00000c02 	andeq	r0, r0, r2, lsl #24
    2508:	01007514 	tsteq	r0, r4, lsl r5
    250c:	0007226c 	andeq	r2, r7, ip, ror #4
    2510:	00125a00 	andseq	r5, r2, r0, lsl #20
    2514:	75621400 	strbvc	r1, [r2, #-1024]!	; 0x400
    2518:	6c010066 	stcvs	0, cr0, [r1], {102}	; 0x66
    251c:	00000c02 	andeq	r0, r0, r2, lsl #24
    2520:	0000128e 	andeq	r1, r0, lr, lsl #5
    2524:	0001cd13 	andeq	ip, r1, r3, lsl sp
    2528:	686c0100 	stmdavs	ip!, {r8}^
    252c:	c2000000 	andgt	r0, r0, #0
    2530:	14000012 	strne	r0, [r0], #-18
    2534:	00646e65 	rsbeq	r6, r4, r5, ror #28
    2538:	004f6c01 	subeq	r6, pc, r1, lsl #24
    253c:	12fb0000 	rscsne	r0, fp, #0
    2540:	1c280000 	stcne	0, cr0, [r8], #-0
    2544:	01000006 	tsteq	r0, r6
    2548:	0000686c 	andeq	r6, r0, ip, ror #16
    254c:	00910200 	addseq	r0, r1, r0, lsl #4
    2550:	00011d29 	andeq	r1, r1, r9, lsr #26
    2554:	000c1800 	andeq	r1, ip, r0, lsl #16
    2558:	f4030500 	vst3.8	{d0,d2,d4}, [r3], r0
    255c:	1600009c 			; <UNDEFINED> instruction: 0x1600009c
    2560:	70010069 	andvc	r0, r1, r9, rrx
    2564:	00000025 	andeq	r0, r0, r5, lsr #32
    2568:	00001335 	andeq	r1, r0, r5, lsr r3
    256c:	0005ef26 	andeq	lr, r5, r6, lsr #30
    2570:	4f710100 	svcmi	0x00710100
    2574:	54000000 	strpl	r0, [r0], #-0
    2578:	24000013 	strcs	r0, [r0], #-19
    257c:	00008e20 	andeq	r8, r0, r0, lsr #28
    2580:	00001167 	andeq	r1, r0, r7, ror #2
    2584:	008e3425 	addeq	r3, lr, r5, lsr #8
    2588:	00116e00 	andseq	r6, r1, r0, lsl #28
    258c:	000be200 	andeq	lr, fp, r0, lsl #4
    2590:	53012000 	movwpl	r2, #4096	; 0x1000
    2594:	206d0802 	rsbcs	r0, sp, r2, lsl #16
    2598:	03055201 	movweq	r5, #20993	; 0x5201
    259c:	00009cf4 	strdeq	r9, [r0], -r4
    25a0:	05510120 	ldrbeq	r0, [r1, #-288]	; 0x120
    25a4:	009d8803 	addseq	r8, sp, r3, lsl #16
    25a8:	50012000 	andpl	r2, r1, r0
    25ac:	9d6c0305 	stclls	3, cr0, [ip, #-20]!	; 0xffffffec
    25b0:	24000000 	strcs	r0, [r0], #-0
    25b4:	00008e38 	andeq	r8, r0, r8, lsr lr
    25b8:	00001184 	andeq	r1, r0, r4, lsl #3
    25bc:	008e541f 	addeq	r5, lr, pc, lsl r4
    25c0:	00076200 	andeq	r6, r7, r0, lsl #4
    25c4:	51012000 	mrspl	r2, (UNDEF: 1)
    25c8:	20007a02 	andcs	r7, r0, r2, lsl #20
    25cc:	78025001 	stmdavc	r2, {r0, ip, lr}
    25d0:	06000000 	streq	r0, [r0], -r0
    25d4:	00004f04 	andeq	r4, r0, r4, lsl #30
    25d8:	00902a00 	addseq	r2, r0, r0, lsl #20
    25dc:	0c180000 	ldceq	0, cr0, [r8], {-0}
    25e0:	812b0000 	teqhi	fp, r0
    25e4:	12000000 	andne	r0, r0, #0
    25e8:	0c080700 	stceq	7, cr0, [r8], {-0}
    25ec:	f7230000 			; <UNDEFINED> instruction: 0xf7230000
    25f0:	01000005 	tsteq	r0, r5
    25f4:	00002580 	andeq	r2, r0, r0, lsl #11
    25f8:	008e9000 	addeq	r9, lr, r0
    25fc:	00007c00 	andeq	r7, r0, r0, lsl #24
    2600:	e49c0100 	ldr	r0, [ip], #256	; 0x100
    2604:	1400000c 	strne	r0, [r0], #-12
    2608:	80010075 	andhi	r0, r1, r5, ror r0
    260c:	00000722 	andeq	r0, r0, r2, lsr #14
    2610:	00001367 	andeq	r1, r0, r7, ror #6
    2614:	66756214 			; <UNDEFINED> instruction: 0x66756214
    2618:	02800100 	addeq	r0, r0, #0, 2
    261c:	9b00000c 	blls	2654 <_start-0x59ac>
    2620:	13000013 	movwne	r0, #19
    2624:	000001cd 	andeq	r0, r0, sp, asr #3
    2628:	00688101 	rsbeq	r8, r8, r1, lsl #2
    262c:	13cf0000 	bicne	r0, pc, #0
    2630:	1c130000 	ldcne	0, cr0, [r3], {-0}
    2634:	01000006 	tsteq	r0, r6
    2638:	00006881 	andeq	r6, r0, r1, lsl #17
    263c:	00140800 	andseq	r0, r4, r0, lsl #16
    2640:	011d2900 	tsteq	sp, r0, lsl #18
    2644:	0cf40000 	ldcleq	0, cr0, [r4]
    2648:	03050000 	movweq	r0, #20480	; 0x5000
    264c:	00009d08 	andeq	r9, r0, r8, lsl #26
    2650:	01006916 	tsteq	r0, r6, lsl r9
    2654:	00002586 	andeq	r2, r0, r6, lsl #11
    2658:	00143c00 	andseq	r3, r4, r0, lsl #24
    265c:	8eac2400 	cdphi	4, 10, cr2, cr12, cr0, {0}
    2660:	11670000 	cmnne	r7, r0
    2664:	c0250000 	eorgt	r0, r5, r0
    2668:	6e00008e 	cdpvs	0, 0, cr0, cr0, cr14, {4}
    266c:	c4000011 	strgt	r0, [r0], #-17
    2670:	2000000c 	andcs	r0, r0, ip
    2674:	08025301 	stmdaeq	r2, {r0, r8, r9, ip, lr}
    2678:	52012083 	andpl	r2, r1, #131	; 0x83
    267c:	9d080305 	stcls	3, cr0, [r8, #-20]	; 0xffffffec
    2680:	01200000 	teqeq	r0, r0
    2684:	88030551 	stmdahi	r3, {r0, r4, r6, r8, sl}
    2688:	2000009d 	mulcs	r0, sp, r0
    268c:	03055001 	movweq	r5, #20481	; 0x5001
    2690:	00009d6c 	andeq	r9, r0, ip, ror #26
    2694:	8ec42400 	cdphi	4, 12, cr2, cr4, cr0, {0}
    2698:	11840000 	orrne	r0, r4, r0
    269c:	e01f0000 	ands	r0, pc, r0
    26a0:	6200008e 	andvs	r0, r0, #142	; 0x8e
    26a4:	20000007 	andcs	r0, r0, r7
    26a8:	78025101 	stmdavc	r2, {r0, r8, ip, lr}
    26ac:	50012000 	andpl	r2, r1, r0
    26b0:	00007702 	andeq	r7, r0, r2, lsl #14
    26b4:	00902a00 	addseq	r2, r0, r0, lsl #20
    26b8:	0cf40000 	ldcleq	0, cr0, [r4]
    26bc:	812b0000 	teqhi	fp, r0
    26c0:	14000000 	strne	r0, [r0], #-0
    26c4:	0ce40700 	stcleq	7, cr0, [r4]
    26c8:	a6230000 	strtge	r0, [r3], -r0
    26cc:	01000005 	tsteq	r0, r5
    26d0:	0000d993 	muleq	r0, r3, r9
    26d4:	008f0c00 	addeq	r0, pc, r0, lsl #24
    26d8:	0000c000 	andeq	ip, r0, r0
    26dc:	149c0100 	ldrne	r0, [ip], #256	; 0x100
    26e0:	1400000e 	strne	r0, [r0], #-14
    26e4:	01007874 	tsteq	r0, r4, ror r8
    26e8:	00004f93 	muleq	r0, r3, pc	; <UNPREDICTABLE>
    26ec:	00145b00 	andseq	r5, r4, r0, lsl #22
    26f0:	78721400 	ldmdavc	r2!, {sl, ip}^
    26f4:	4f930100 	svcmi	0x00930100
    26f8:	7c000000 	stcvc	0, cr0, [r0], {-0}
    26fc:	13000014 	movwne	r0, #20
    2700:	000003d5 	ldrdeq	r0, [r0], -r5
    2704:	00689301 	rsbeq	r9, r8, r1, lsl #6
    2708:	149d0000 	ldrne	r0, [sp], #0
    270c:	3f280000 	svccc	0x00280000
    2710:	01000005 	tsteq	r0, r5
    2714:	00006893 	muleq	r0, r3, r8
    2718:	00910200 	addseq	r0, r1, r0, lsl #4
    271c:	7a686d2c 	bvc	1a1dbd4 <__bss_end__+0x1a13984>
    2720:	2c9b0100 	ldfcss	f0, [fp], {0}
    2724:	00000000 	andeq	r0, r0, r0
    2728:	2629b927 	strtcs	fp, [r9], -r7, lsr #18
    272c:	00000590 	muleq	r0, r0, r5
    2730:	002c9c01 	eoreq	r9, ip, r1, lsl #24
    2734:	14bb0000 	ldrtne	r0, [fp], #0
    2738:	1d290000 	stcne	0, cr0, [r9, #-0]
    273c:	24000001 	strcs	r0, [r0], #-1
    2740:	0500000e 	streq	r0, [r0, #-14]
    2744:	009d2003 	addseq	r2, sp, r3
    2748:	8f341700 	svchi	0x00341700
    274c:	00080000 	andeq	r0, r8, r0
    2750:	0d910000 	ldceq	0, cr0, [r1]
    2754:	692d0000 	pushvs	{}	; <UNPREDICTABLE>
    2758:	9701006e 	strls	r0, [r1, -lr, rrx]
    275c:	0000002c 	andeq	r0, r0, ip, lsr #32
    2760:	2c250001 	stccs	0, cr0, [r5], #-4
    2764:	8b00008f 	blhi	29a8 <_start-0x5658>
    2768:	a5000011 	strge	r0, [r0, #-17]
    276c:	2000000d 	andcs	r0, r0, sp
    2770:	76025001 	strvc	r5, [r2], -r1
    2774:	34250000 	strtcc	r0, [r5], #-0
    2778:	9c00008f 	stcls	0, cr0, [r0], {143}	; 0x8f
    277c:	b9000011 	stmdblt	r0, {r0, r4}
    2780:	2000000d 	andcs	r0, r0, sp
    2784:	78025001 	stmdavc	r2, {r0, ip, lr}
    2788:	48250000 	stmdami	r5!, {}	; <UNPREDICTABLE>
    278c:	3100008f 	smlabbcc	r0, pc, r0, r0	; <UNPREDICTABLE>
    2790:	d2000011 	andle	r0, r0, #17
    2794:	2000000d 	andcs	r0, r0, sp
    2798:	31015101 	tstcc	r1, r1, lsl #2
    279c:	02500120 	subseq	r0, r0, #32, 2
    27a0:	24000076 	strcs	r0, [r0], #-118	; 0x76
    27a4:	00008f8c 	andeq	r8, r0, ip, lsl #31
    27a8:	00001167 	andeq	r1, r0, r7, ror #2
    27ac:	008fa025 	addeq	sl, pc, r5, lsr #32
    27b0:	00116e00 	andseq	r6, r1, r0, lsl #28
    27b4:	000e0a00 	andeq	r0, lr, r0, lsl #20
    27b8:	53012000 	movwpl	r2, #4096	; 0x1000
    27bc:	209d0802 	addscs	r0, sp, r2, lsl #16
    27c0:	03055201 	movweq	r5, #20993	; 0x5201
    27c4:	00009d20 	andeq	r9, r0, r0, lsr #26
    27c8:	05510120 	ldrbeq	r0, [r1, #-288]	; 0x120
    27cc:	009d8803 	addseq	r8, sp, r3, lsl #16
    27d0:	50012000 	andpl	r2, r1, r0
    27d4:	9d9c0305 	ldcls	3, cr0, [ip, #20]
    27d8:	24000000 	strcs	r0, [r0], #-0
    27dc:	00008fa4 	andeq	r8, r0, r4, lsr #31
    27e0:	00001184 	andeq	r1, r0, r4, lsl #3
    27e4:	00902a00 	addseq	r2, r0, r0, lsl #20
    27e8:	0e240000 	cdpeq	0, 2, cr0, cr4, cr0, {0}
    27ec:	812b0000 	teqhi	fp, r0
    27f0:	13000000 	movwne	r0, #0
    27f4:	0e140700 	cdpeq	7, 1, cr0, cr4, cr0, {0}
    27f8:	83230000 	teqhi	r3, #0
    27fc:	01000005 	tsteq	r0, r5
    2800:	000025a9 	andeq	r2, r0, r9, lsr #11
    2804:	008fcc00 	addeq	ip, pc, r0, lsl #24
    2808:	00003c00 	andeq	r3, r0, r0, lsl #24
    280c:	cc9c0100 	ldfgts	f0, [ip], {0}
    2810:	1300000e 	movwne	r0, #14
    2814:	0000039c 	muleq	r0, ip, r3
    2818:	0722a901 	streq	sl, [r2, -r1, lsl #18]!
    281c:	14e90000 	strbtne	r0, [r9], #0
    2820:	72160000 	andsvc	r0, r6, #0
    2824:	01007365 	tsteq	r0, r5, ror #6
    2828:	000025aa 	andeq	r2, r0, sl, lsr #11
    282c:	00150a00 	andseq	r0, r5, r0, lsl #20
    2830:	011d2900 	tsteq	sp, r0, lsl #18
    2834:	0edc0000 	cdpeq	0, 13, cr0, cr12, cr0, {0}
    2838:	03050000 	movweq	r0, #20480	; 0x5000
    283c:	00009d34 	andeq	r9, r0, r4, lsr sp
    2840:	008fd825 	addeq	sp, pc, r5, lsr #16
    2844:	00076200 	andeq	r6, r7, r0, lsl #4
    2848:	000e8a00 	andeq	r8, lr, r0, lsl #20
    284c:	51012000 	mrspl	r2, (UNDEF: 1)
    2850:	20ff0902 	rscscs	r0, pc, r2, lsl #18
    2854:	f3035001 	vhadd.u8	d5, d3, d1
    2858:	24005001 	strcs	r5, [r0], #-1
    285c:	00008fe4 	andeq	r8, r0, r4, ror #31
    2860:	00001167 	andeq	r1, r0, r7, ror #2
    2864:	008ff825 	addeq	pc, pc, r5, lsr #16
    2868:	00116e00 	andseq	r6, r1, r0, lsl #28
    286c:	000ec200 	andeq	ip, lr, r0, lsl #4
    2870:	53012000 	movwpl	r2, #4096	; 0x1000
    2874:	20ac0802 	adccs	r0, ip, r2, lsl #16
    2878:	03055201 	movweq	r5, #20993	; 0x5201
    287c:	00009d34 	andeq	r9, r0, r4, lsr sp
    2880:	05510120 	ldrbeq	r0, [r1, #-288]	; 0x120
    2884:	009d8803 	addseq	r8, sp, r3, lsl #16
    2888:	50012000 	andpl	r2, r1, r0
    288c:	9de00305 	stclls	3, cr0, [r0, #20]!
    2890:	24000000 	strcs	r0, [r0], #-0
    2894:	00008ffc 	strdeq	r8, [r0], -ip
    2898:	00001184 	andeq	r1, r0, r4, lsl #3
    289c:	00902a00 	addseq	r2, r0, r0, lsl #20
    28a0:	0edc0000 	cdpeq	0, 13, cr0, cr12, cr0, {0}
    28a4:	812b0000 	teqhi	fp, r0
    28a8:	0c000000 	stceq	0, cr0, [r0], {-0}
    28ac:	0ecc0700 	cdpeq	7, 12, cr0, cr12, cr0, {0}
    28b0:	c7120000 	ldrgt	r0, [r2, -r0]
    28b4:	01000005 	tsteq	r0, r5
    28b8:	009008b0 			; <UNDEFINED> instruction: 0x009008b0
    28bc:	00002c00 	andeq	r2, r0, r0, lsl #24
    28c0:	259c0100 	ldrcs	r0, [ip, #256]	; 0x100
    28c4:	1300000f 	movwne	r0, #15
    28c8:	0000039c 	muleq	r0, ip, r3
    28cc:	0722b001 	streq	fp, [r2, -r1]!
    28d0:	151d0000 	ldrne	r0, [sp, #-0]
    28d4:	6d140000 	ldcvs	0, cr0, [r4, #-0]
    28d8:	01006773 	tsteq	r0, r3, ror r7
    28dc:	000097b0 			; <UNDEFINED> instruction: 0x000097b0
    28e0:	00153b00 	andseq	r3, r5, r0, lsl #22
    28e4:	90201f00 	eorls	r1, r0, r0, lsl #30
    28e8:	01760000 	cmneq	r6, r0
    28ec:	01200000 	teqeq	r0, r0
    28f0:	00750250 	rsbseq	r0, r5, r0, asr r2
    28f4:	a1230000 	teqge	r3, r0
    28f8:	01000003 	tsteq	r0, r3
    28fc:	000025b9 			; <UNDEFINED> instruction: 0x000025b9
    2900:	00903400 	addseq	r3, r0, r0, lsl #8
    2904:	00008400 	andeq	r8, r0, r0, lsl #8
    2908:	199c0100 	ldmibne	ip, {r8}
    290c:	13000010 	movwne	r0, #16
    2910:	0000039c 	muleq	r0, ip, r3
    2914:	0722b901 	streq	fp, [r2, -r1, lsl #18]!
    2918:	15590000 	ldrbne	r0, [r9, #-0]
    291c:	662e0000 	strtvs	r0, [lr], -r0
    2920:	0100746d 	tsteq	r0, sp, ror #8
    2924:	000097b9 			; <UNDEFINED> instruction: 0x000097b9
    2928:	74910200 	ldrvc	r0, [r1], #512	; 0x200
    292c:	7562152f 	strbvc	r1, [r2, #-1327]!	; 0x52f
    2930:	ba010066 	blt	42ad0 <__bss_end__+0x38880>
    2934:	00001019 	andeq	r1, r0, r9, lsl r0
    2938:	7c9c9103 	ldfvcd	f1, [ip], {3}
    293c:	00027218 	andeq	r7, r2, r8, lsl r2
    2940:	06bc0100 	ldrteq	r0, [ip], r0, lsl #2
    2944:	03000001 	movweq	r0, #1
    2948:	167c9891 			; <UNDEFINED> instruction: 0x167c9891
    294c:	01007a73 	tsteq	r0, r3, ror sl
    2950:	000025be 			; <UNDEFINED> instruction: 0x000025be
    2954:	00158500 	andseq	r8, r5, r0, lsl #10
    2958:	011d2900 	tsteq	sp, r0, lsl #18
    295c:	103a0000 	eorsne	r0, sl, r0
    2960:	03050000 	movweq	r0, #20480	; 0x5000
    2964:	00009d44 	andeq	r9, r0, r4, asr #26
    2968:	00905c25 	addseq	r5, r0, r5, lsr #24
    296c:	0011ad00 	andseq	sl, r1, r0, lsl #26
    2970:	000fc000 	andeq	ip, pc, r0
    2974:	53012000 	movwpl	r2, #4096	; 0x1000
    2978:	20589102 	subscs	r9, r8, r2, lsl #2
    297c:	91035201 	tstls	r3, r1, lsl #4
    2980:	01200654 	teqeq	r0, r4, asr r6
    2984:	cc0a0351 	stcgt	3, cr0, [sl], {81}	; 0x51
    2988:	50012001 	andpl	r2, r1, r1
    298c:	7bfc9103 	blvc	fff26da0 <__bss_end__+0xfff1cb50>
    2990:	90702400 	rsbsls	r2, r0, r0, lsl #8
    2994:	11670000 	cmnne	r7, r0
    2998:	84250000 	strthi	r0, [r5], #-0
    299c:	6e000090 	mcrvs	0, 0, r0, cr0, cr0, {4}
    29a0:	f8000011 			; <UNDEFINED> instruction: 0xf8000011
    29a4:	2000000f 	andcs	r0, r0, pc
    29a8:	08025301 	stmdaeq	r2, {r0, r8, r9, ip, lr}
    29ac:	520120c0 	andpl	r2, r1, #192	; 0xc0
    29b0:	9d440305 	stclls	3, cr0, [r4, #-20]	; 0xffffffec
    29b4:	01200000 	teqeq	r0, r0
    29b8:	88030551 	stmdahi	r3, {r0, r4, r6, r8, sl}
    29bc:	2000009d 	mulcs	r0, sp, r0
    29c0:	03055001 	movweq	r5, #20481	; 0x5001
    29c4:	00009e18 	andeq	r9, r0, r8, lsl lr
    29c8:	90882400 	addls	r2, r8, r0, lsl #8
    29cc:	11840000 	orrne	r0, r4, r0
    29d0:	941f0000 	ldrls	r0, [pc], #-0	; 29d8 <_start-0x5628>
    29d4:	e1000090 	swp	r0, r0, [r0]	; <UNPREDICTABLE>
    29d8:	2000000e 	andcs	r0, r0, lr
    29dc:	91035101 	tstls	r3, r1, lsl #2
    29e0:	01207bfc 	strdeq	r7, [r0, -ip]!
    29e4:	00750250 	rsbseq	r0, r5, r0, asr r2
    29e8:	902a0000 	eorls	r0, sl, r0
    29ec:	2a000000 	bcs	29f4 <_start-0x560c>
    29f0:	30000010 	andcc	r0, r0, r0, lsl r0
    29f4:	00000081 	andeq	r0, r0, r1, lsl #1
    29f8:	2a0001cb 	bcs	312c <_start-0x4ed4>
    29fc:	00000090 	muleq	r0, r0, r0
    2a00:	0000103a 	andeq	r1, r0, sl, lsr r0
    2a04:	0000812b 	andeq	r8, r0, fp, lsr #2
    2a08:	07000e00 	streq	r0, [r0, -r0, lsl #28]
    2a0c:	0000102a 	andeq	r1, r0, sl, lsr #32
    2a10:	00063823 	andeq	r3, r6, r3, lsr #16
    2a14:	25c50100 	strbcs	r0, [r5, #256]	; 0x100
    2a18:	b8000000 	stmdalt	r0, {}	; <UNPREDICTABLE>
    2a1c:	4c000090 	stcmi	0, cr0, [r0], {144}	; 0x90
    2a20:	01000000 	mrseq	r0, (UNDEF: 0)
    2a24:	00111c9c 	mulseq	r1, ip, ip
    2a28:	00751400 	rsbseq	r1, r5, r0, lsl #8
    2a2c:	0722c501 	streq	ip, [r2, -r1, lsl #10]!
    2a30:	15c40000 	strbne	r0, [r4]
    2a34:	62140000 	andsvs	r0, r4, #0
    2a38:	01006675 	tsteq	r0, r5, ror r6
    2a3c:	000c02c5 	andeq	r0, ip, r5, asr #5
    2a40:	0015e500 	andseq	lr, r5, r0, lsl #10
    2a44:	01cd1300 	biceq	r1, sp, r0, lsl #6
    2a48:	c5010000 	strgt	r0, [r1, #-0]
    2a4c:	00000068 	andeq	r0, r0, r8, rrx
    2a50:	00001606 	andeq	r1, r0, r6, lsl #12
    2a54:	646e6514 	strbtvs	r6, [lr], #-1300	; 0x514
    2a58:	4fc50100 	svcmi	0x00c50100
    2a5c:	27000000 	strcs	r0, [r0, -r0]
    2a60:	16000016 			; <UNDEFINED> instruction: 0x16000016
    2a64:	00736572 	rsbseq	r6, r3, r2, ror r5
    2a68:	0025c601 	eoreq	ip, r5, r1, lsl #12
    2a6c:	16480000 	strbne	r0, [r8], -r0
    2a70:	1d290000 	stcne	0, cr0, [r9, #-0]
    2a74:	2c000001 	stccs	0, cr0, [r0], {1}
    2a78:	05000011 	streq	r0, [r0, #-17]
    2a7c:	009d5403 	addseq	r5, sp, r3, lsl #8
    2a80:	90cc2500 	sbcls	r2, ip, r0, lsl #10
    2a84:	0b1e0000 	bleq	782a8c <__bss_end__+0x77883c>
    2a88:	10da0000 	sbcsne	r0, sl, r0
    2a8c:	01200000 	teqeq	r0, r0
    2a90:	01f30352 	mvnseq	r0, r2, asr r3
    2a94:	51012052 	qaddpl	r2, r2, r1
    2a98:	5101f303 	tstpl	r1, r3, lsl #6
    2a9c:	03500120 	cmpeq	r0, #32, 2
    2aa0:	205001f3 	ldrshcs	r0, [r0], #-19	; 0xffffffed
    2aa4:	02007d02 	andeq	r7, r0, #2, 26	; 0x80
    2aa8:	2400ff09 	strcs	pc, [r0], #-3849	; 0xf09
    2aac:	000090d8 	ldrdeq	r9, [r0], -r8
    2ab0:	00001167 	andeq	r1, r0, r7, ror #2
    2ab4:	0090ec25 	addseq	lr, r0, r5, lsr #24
    2ab8:	00116e00 	andseq	r6, r1, r0, lsl #28
    2abc:	00111200 	andseq	r1, r1, r0, lsl #4
    2ac0:	53012000 	movwpl	r2, #4096	; 0x1000
    2ac4:	20c80802 	sbccs	r0, r8, r2, lsl #16
    2ac8:	03055201 	movweq	r5, #20993	; 0x5201
    2acc:	00009d54 	andeq	r9, r0, r4, asr sp
    2ad0:	05510120 	ldrbeq	r0, [r1, #-288]	; 0x120
    2ad4:	009d8803 	addseq	r8, sp, r3, lsl #16
    2ad8:	50012000 	andpl	r2, r1, r0
    2adc:	9de00305 	stclls	3, cr0, [r0, #20]!
    2ae0:	24000000 	strcs	r0, [r0], #-0
    2ae4:	000090f0 	strdeq	r9, [r0], -r0
    2ae8:	00001184 	andeq	r1, r0, r4, lsl #3
    2aec:	00902a00 	addseq	r2, r0, r0, lsl #20
    2af0:	112c0000 	teqne	ip, r0
    2af4:	812b0000 	teqhi	fp, r0
    2af8:	16000000 	strne	r0, [r0], -r0
    2afc:	111c0700 	tstne	ip, r0, lsl #14
    2b00:	11310000 	teqne	r1, r0
    2b04:	06000006 	streq	r0, [r0], -r6
    2b08:	00114721 	andseq	r4, r1, r1, lsr #14
    2b0c:	002c3200 	eoreq	r3, ip, r0, lsl #4
    2b10:	2c320000 	ldccs	0, cr0, [r2], #-0
    2b14:	00000000 	andeq	r0, r0, r0
    2b18:	0004de33 	andeq	sp, r4, r3, lsr lr
    2b1c:	2c570700 	mrrccs	7, 0, r0, r7, cr0
    2b20:	34000000 	strcc	r0, [r0], #-0
    2b24:	000005d4 	ldrdeq	r0, [r0], -r4
    2b28:	00252406 	eoreq	r2, r5, r6, lsl #8
    2b2c:	11670000 	cmnne	r7, r0
    2b30:	2c320000 	ldccs	0, cr0, [r2], #-0
    2b34:	00000000 	andeq	r0, r0, r0
    2b38:	00018635 	andeq	r8, r1, r5, lsr r6
    2b3c:	341e0700 	ldrcc	r0, [lr], #-1792	; 0x700
    2b40:	00000261 	andeq	r0, r0, r1, ror #4
    2b44:	00252907 	eoreq	r2, r5, r7, lsl #18
    2b48:	11840000 	orrne	r0, r4, r0
    2b4c:	97320000 	ldrls	r0, [r2, -r0]!
    2b50:	2f000000 	svccs	0x00000000
    2b54:	00e83500 	rsceq	r3, r8, r0, lsl #10
    2b58:	66070000 	strvs	r0, [r7], -r0
    2b5c:	00064f31 	andeq	r4, r6, r1, lsr pc
    2b60:	9c1d0600 	ldcls	6, cr0, [sp], {-0}
    2b64:	32000011 	andcc	r0, r0, #17
    2b68:	0000002c 	andeq	r0, r0, ip, lsr #32
    2b6c:	06293100 	strteq	r3, [r9], -r0, lsl #2
    2b70:	1c060000 	stcne	0, cr0, [r6], {-0}
    2b74:	000011ad 	andeq	r1, r0, sp, lsr #3
    2b78:	00002c32 	andeq	r2, r0, r2, lsr ip
    2b7c:	5e360000 	cdppl	0, 3, cr0, cr6, cr0, {0}
    2b80:	08000002 	stmdaeq	r0, {r1}
    2b84:	00002502 	andeq	r2, r0, r2, lsl #10
    2b88:	008a3200 	addeq	r3, sl, r0, lsl #4
    2b8c:	25320000 	ldrcs	r0, [r2, #-0]!
    2b90:	32000000 	andcc	r0, r0, #0
    2b94:	00000097 	muleq	r0, r7, r0
    2b98:	00010632 	andeq	r0, r1, r2, lsr r6
    2b9c:	ff000000 			; <UNDEFINED> instruction: 0xff000000
    2ba0:	04000003 	streq	r0, [r0], #-3
    2ba4:	000edd00 	andeq	sp, lr, r0, lsl #26
    2ba8:	10010400 	andne	r0, r1, r0, lsl #8
    2bac:	01000000 	mrseq	r0, (UNDEF: 0)
    2bb0:	000007d1 	ldrdeq	r0, [r0], -r1
    2bb4:	000001fd 	strdeq	r0, [r0], -sp
    2bb8:	00009104 	andeq	r9, r0, r4, lsl #2
    2bbc:	00000154 	andeq	r0, r0, r4, asr r1
    2bc0:	00000d90 	muleq	r0, r0, sp
    2bc4:	69050402 	stmdbvs	r5, {r1, sl}
    2bc8:	0300746e 	movweq	r7, #1134	; 0x46e
    2bcc:	013a0704 	teqeq	sl, r4, lsl #14
    2bd0:	01030000 	mrseq	r0, (UNDEF: 3)
    2bd4:	0000dc06 	andeq	sp, r0, r6, lsl #24
    2bd8:	05020300 	streq	r0, [r2, #-768]	; 0x300
    2bdc:	0000015e 	andeq	r0, r0, lr, asr r1
    2be0:	55050403 	strpl	r0, [r5, #-1027]	; 0x403
    2be4:	03000001 	movweq	r0, #1
    2be8:	01500508 	cmpeq	r0, r8, lsl #10
    2bec:	01030000 	mrseq	r0, (UNDEF: 3)
    2bf0:	0000da08 	andeq	sp, r0, r8, lsl #20
    2bf4:	07020300 	streq	r0, [r2, -r0, lsl #6]
    2bf8:	000000fb 	strdeq	r0, [r0], -fp
    2bfc:	35070403 	strcc	r0, [r7, #-1027]	; 0x403
    2c00:	03000001 	movweq	r0, #1
    2c04:	01300708 	teqeq	r0, r8, lsl #14
    2c08:	04030000 	streq	r0, [r3], #-0
    2c0c:	00014707 	andeq	r4, r1, r7, lsl #14
    2c10:	08010300 	stmdaeq	r1, {r8, r9}
    2c14:	000000e3 	andeq	r0, r0, r3, ror #1
    2c18:	0c020104 	stfeqs	f0, [r2], {4}
    2c1c:	000000b2 	strheq	r0, [r0], -r2
    2c20:	0007ee05 	andeq	lr, r7, r5, lsl #28
    2c24:	e2050000 	and	r0, r5, #0
    2c28:	01000006 	tsteq	r0, r6
    2c2c:	00069b05 	andeq	r9, r6, r5, lsl #22
    2c30:	f3050400 	vshl.u8	d0, d0, d5
    2c34:	05000006 	streq	r0, [r0, #-6]
    2c38:	00070205 	andeq	r0, r7, r5, lsl #4
    2c3c:	11050600 	tstne	r5, r0, lsl #12
    2c40:	07000007 	streq	r0, [r0, -r7]
    2c44:	0007a105 	andeq	sl, r7, r5, lsl #2
    2c48:	20050300 	andcs	r0, r5, r0, lsl #6
    2c4c:	02000007 	andeq	r0, r0, #7
    2c50:	07530600 	ldrbeq	r0, [r3, -r0, lsl #12]
    2c54:	15020000 	strne	r0, [r2, #-0]
    2c58:	00000079 	andeq	r0, r0, r9, ror r0
    2c5c:	0000d007 	andeq	sp, r0, r7
    2c60:	04370100 	ldrteq	r0, [r7], #-256	; 0x100
    2c64:	9c000091 	stcls	0, cr0, [r0], {145}	; 0x91
    2c68:	01000000 	mrseq	r0, (UNDEF: 0)
    2c6c:	0001c39c 	muleq	r1, ip, r3
    2c70:	910c0800 	tstls	ip, r0, lsl #16
    2c74:	03a80000 			; <UNDEFINED> instruction: 0x03a80000
    2c78:	18090000 	stmdane	r9, {}	; <UNPREDICTABLE>
    2c7c:	af000091 	svcge	0x00000091
    2c80:	f3000003 	vhadd.u8	d0, d0, d3
    2c84:	0a000000 	beq	2c8c <_start-0x5374>
    2c88:	32015101 	andcc	r5, r1, #1073741824	; 0x40000000
    2c8c:	0150010a 	cmpeq	r0, sl, lsl #2
    2c90:	2409003e 	strcs	r0, [r9], #-62	; 0x3e
    2c94:	af000091 	svcge	0x00000091
    2c98:	0b000003 	bleq	2cac <_start-0x5354>
    2c9c:	0a000001 	beq	2ca8 <_start-0x5358>
    2ca0:	32015101 	andcc	r5, r1, #1073741824	; 0x40000000
    2ca4:	0150010a 	cmpeq	r0, sl, lsl #2
    2ca8:	2808003f 	stmdacs	r8, {r0, r1, r2, r3, r4, r5}
    2cac:	a8000091 	stmdage	r0, {r0, r4, r7}
    2cb0:	09000003 	stmdbeq	r0, {r0, r1}
    2cb4:	00009138 	andeq	r9, r0, r8, lsr r1
    2cb8:	000003c5 	andeq	r0, r0, r5, asr #7
    2cbc:	00000128 	andeq	r0, r0, r8, lsr #2
    2cc0:	0250010a 	subseq	r0, r0, #-2147483646	; 0x80000002
    2cc4:	09000075 	stmdbeq	r0, {r0, r2, r4, r5, r6}
    2cc8:	00009144 	andeq	r9, r0, r4, asr #2
    2ccc:	000003e6 	andeq	r0, r0, r6, ror #7
    2cd0:	0000013c 	andeq	r0, r0, ip, lsr r1
    2cd4:	0250010a 	subseq	r0, r0, #-2147483646	; 0x80000002
    2cd8:	08000075 	stmdaeq	r0, {r0, r2, r4, r5, r6}
    2cdc:	00009148 	andeq	r9, r0, r8, asr #2
    2ce0:	000003a8 	andeq	r0, r0, r8, lsr #7
    2ce4:	00915409 	addseq	r5, r1, r9, lsl #8
    2ce8:	0003e600 	andeq	lr, r3, r0, lsl #12
    2cec:	00015800 	andeq	r5, r1, r0, lsl #16
    2cf0:	51010a00 	tstpl	r1, r0, lsl #20
    2cf4:	09003001 	stmdbeq	r0, {r0, ip, sp}
    2cf8:	00009160 	andeq	r9, r0, r0, ror #2
    2cfc:	000003e6 	andeq	r0, r0, r6, ror #7
    2d00:	0000016b 	andeq	r0, r0, fp, ror #2
    2d04:	0151010a 	cmpeq	r1, sl, lsl #2
    2d08:	6c090030 	stcvs	0, cr0, [r9], {48}	; 0x30
    2d0c:	e6000091 			; <UNDEFINED> instruction: 0xe6000091
    2d10:	7e000003 	cdpvc	0, 0, cr0, cr0, cr3, {0}
    2d14:	0a000001 	beq	2d20 <_start-0x52e0>
    2d18:	36015101 	strcc	r5, [r1], -r1, lsl #2
    2d1c:	91780900 	cmnls	r8, r0, lsl #18
    2d20:	03e60000 	mvneq	r0, #0
    2d24:	01910000 	orrseq	r0, r1, r0
    2d28:	010a0000 	mrseq	r0, (UNDEF: 10)
    2d2c:	00330151 	eorseq	r0, r3, r1, asr r1
    2d30:	00918409 	addseq	r8, r1, r9, lsl #8
    2d34:	0003e600 	andeq	lr, r3, r0, lsl #12
    2d38:	0001a600 	andeq	sl, r1, r0, lsl #12
    2d3c:	51010a00 	tstpl	r1, r0, lsl #20
    2d40:	010e0a03 	tsteq	lr, r3, lsl #20
    2d44:	91900900 	orrsls	r0, r0, r0, lsl #18
    2d48:	03e60000 	mvneq	r0, #0
    2d4c:	01b90000 			; <UNDEFINED> instruction: 0x01b90000
    2d50:	010a0000 	mrseq	r0, (UNDEF: 10)
    2d54:	00330151 	eorseq	r0, r3, r1, asr r1
    2d58:	00919408 	addseq	r9, r1, r8, lsl #8
    2d5c:	0003a800 	andeq	sl, r3, r0, lsl #16
    2d60:	aa0b0000 	bge	2c2d68 <__bss_end__+0x2b8b18>
    2d64:	01000006 	tsteq	r0, r6
    2d68:	00002557 	andeq	r2, r0, r7, asr r5
    2d6c:	0091a000 	addseq	sl, r1, r0
    2d70:	00001c00 	andeq	r1, r0, r0, lsl #24
    2d74:	e69c0100 	ldr	r0, [ip], r0, lsl #2
    2d78:	08000001 	stmdaeq	r0, {r0}
    2d7c:	000091b0 			; <UNDEFINED> instruction: 0x000091b0
    2d80:	000003c5 	andeq	r0, r0, r5, asr #7
    2d84:	05860b00 	streq	r0, [r6, #2816]	; 0xb00
    2d88:	5d010000 	stcpl	0, cr0, [r1, #-0]
    2d8c:	00000025 	andeq	r0, r0, r5, lsr #32
    2d90:	000091bc 			; <UNDEFINED> instruction: 0x000091bc
    2d94:	00000028 	andeq	r0, r0, r8, lsr #32
    2d98:	02129c01 	andseq	r9, r2, #256	; 0x100
    2d9c:	c4080000 	strgt	r0, [r8], #-0
    2da0:	c3000091 	movwgt	r0, #145	; 0x91
    2da4:	08000001 	stmdaeq	r0, {r0}
    2da8:	000091d8 	ldrdeq	r9, [r0], -r8
    2dac:	000003c5 	andeq	r0, r0, r5, asr #7
    2db0:	075f0b00 	ldrbeq	r0, [pc, -r0, lsl #22]
    2db4:	64010000 	strvs	r0, [r1], #-0
    2db8:	00000025 	andeq	r0, r0, r5, lsr #32
    2dbc:	000091e4 	andeq	r9, r0, r4, ror #3
    2dc0:	0000001c 	andeq	r0, r0, ip, lsl r0
    2dc4:	02359c01 	eorseq	r9, r5, #256	; 0x100
    2dc8:	f4080000 	vst4.8	{d0-d3}, [r8], r0
    2dcc:	c5000091 	strgt	r0, [r0, #-145]	; 0x91
    2dd0:	00000003 	andeq	r0, r0, r3
    2dd4:	0003fd07 	andeq	pc, r3, r7, lsl #26
    2dd8:	006a0100 	rsbeq	r0, sl, r0, lsl #2
    2ddc:	2c000092 	stccs	0, cr0, [r0], {146}	; 0x92
    2de0:	01000000 	mrseq	r0, (UNDEF: 0)
    2de4:	0002719c 	muleq	r2, ip, r1
    2de8:	00630c00 	rsbeq	r0, r3, r0, lsl #24
    2dec:	002c6a01 	eoreq	r6, ip, r1, lsl #20
    2df0:	16660000 	strbtne	r0, [r6], -r0
    2df4:	0c080000 	stceq	0, cr0, [r8], {-0}
    2df8:	12000092 	andne	r0, r0, #146	; 0x92
    2dfc:	0d000002 	stceq	0, cr0, [r0, #-8]
    2e00:	00009224 	andeq	r9, r0, r4, lsr #4
    2e04:	000003e6 	andeq	r0, r0, r6, ror #7
    2e08:	0251010a 	subseq	r0, r1, #-2147483646	; 0x80000002
    2e0c:	00000074 	andeq	r0, r0, r4, ror r0
    2e10:	0006c80b 	andeq	ip, r6, fp, lsl #16
    2e14:	25740100 	ldrbcs	r0, [r4, #-256]!	; 0x100
    2e18:	2c000000 	stccs	0, cr0, [r0], {-0}
    2e1c:	0c000092 	stceq	0, cr0, [r0], {146}	; 0x92
    2e20:	01000000 	mrseq	r0, (UNDEF: 0)
    2e24:	0002949c 	muleq	r2, ip, r4
    2e28:	92340800 	eorsls	r0, r4, #0, 16
    2e2c:	01c30000 	biceq	r0, r3, r0
    2e30:	0b000000 	bleq	2e38 <_start-0x51c8>
    2e34:	0000080d 	andeq	r0, r0, sp, lsl #16
    2e38:	00257801 	eoreq	r7, r5, r1, lsl #16
    2e3c:	92380000 	eorsls	r0, r8, #0
    2e40:	00200000 	eoreq	r0, r0, r0
    2e44:	9c010000 	stcls	0, cr0, [r1], {-0}
    2e48:	000002c0 	andeq	r0, r0, r0, asr #5
    2e4c:	00924008 	addseq	r4, r2, r8
    2e50:	00027100 	andeq	r7, r2, r0, lsl #2
    2e54:	924c0800 	subls	r0, ip, #0, 16
    2e58:	01e60000 	mvneq	r0, r0
    2e5c:	0e000000 	cdpeq	0, 0, cr0, cr0, cr0, {0}
    2e60:	00000779 	andeq	r0, r0, r9, ror r7
    2e64:	02d11601 	sbcseq	r1, r1, #1048576	; 0x100000
    2e68:	03050000 	movweq	r0, #20480	; 0x5000
    2e6c:	000098ac 	andeq	r9, r0, ip, lsr #17
    2e70:	02d7040f 	sbcseq	r0, r7, #251658240	; 0xf000000
    2e74:	2c100000 	ldccs	0, cr0, [r0], {-0}
    2e78:	0e000000 	cdpeq	0, 0, cr0, cr0, cr0, {0}
    2e7c:	0000076d 	andeq	r0, r0, sp, ror #14
    2e80:	02d11701 	sbcseq	r1, r1, #262144	; 0x40000
    2e84:	03050000 	movweq	r0, #20480	; 0x5000
    2e88:	0000987c 	andeq	r9, r0, ip, ror r8
    2e8c:	00067e0e 	andeq	r7, r6, lr, lsl #28
    2e90:	d11a0100 	tstle	sl, r0, lsl #2
    2e94:	05000002 	streq	r0, [r0, #-2]
    2e98:	00989803 	addseq	r9, r8, r3, lsl #16
    2e9c:	072f0e00 	streq	r0, [pc, -r0, lsl #28]!
    2ea0:	1b010000 	blne	42ea8 <__bss_end__+0x38c58>
    2ea4:	000002d1 	ldrdeq	r0, [r0], -r1
    2ea8:	98840305 	stmls	r4, {r0, r2, r8, r9}
    2eac:	440e0000 	strmi	r0, [lr], #-0
    2eb0:	01000007 	tsteq	r0, r7
    2eb4:	0002d11c 	andeq	sp, r2, ip, lsl r1
    2eb8:	88030500 	stmdahi	r3, {r8, sl}
    2ebc:	0e000098 	mcreq	0, 0, r0, cr0, cr8, {4}
    2ec0:	000007df 	ldrdeq	r0, [r0], -pc	; <UNPREDICTABLE>
    2ec4:	02d11d01 	sbcseq	r1, r1, #1, 26	; 0x40
    2ec8:	03050000 	movweq	r0, #20480	; 0x5000
    2ecc:	0000988c 	andeq	r9, r0, ip, lsl #17
    2ed0:	00066f0e 	andeq	r6, r6, lr, lsl #30
    2ed4:	d11e0100 	tstle	lr, r0, lsl #2
    2ed8:	05000002 	streq	r0, [r0, #-2]
    2edc:	0098a803 	addseq	sl, r8, r3, lsl #16
    2ee0:	07fe0e00 	ldrbeq	r0, [lr, r0, lsl #28]!
    2ee4:	1f010000 	svcne	0x00010000
    2ee8:	000002d1 	ldrdeq	r0, [r0], -r1
    2eec:	98940305 	ldmls	r4, {r0, r2, r8, r9}
    2ef0:	8c0e0000 	stchi	0, cr0, [lr], {-0}
    2ef4:	01000006 	tsteq	r0, r6
    2ef8:	0002d120 	andeq	sp, r2, r0, lsr #2
    2efc:	a4030500 	strge	r0, [r3], #-1280	; 0x500
    2f00:	0e000098 	mcreq	0, 0, r0, cr0, cr8, {4}
    2f04:	000007c2 	andeq	r0, r0, r2, asr #15
    2f08:	02d12101 	sbcseq	r2, r1, #1073741824	; 0x40000000
    2f0c:	03050000 	movweq	r0, #20480	; 0x5000
    2f10:	000098a0 	andeq	r9, r0, r0, lsr #17
    2f14:	0006b80e 	andeq	fp, r6, lr, lsl #16
    2f18:	d1220100 	teqle	r2, r0, lsl #2
    2f1c:	05000002 	streq	r0, [r0, #-2]
    2f20:	00988003 	addseq	r8, r8, r3
    2f24:	07910e00 	ldreq	r0, [r1, r0, lsl #28]
    2f28:	23010000 	movwcs	r0, #4096	; 0x1000
    2f2c:	000002d1 	ldrdeq	r0, [r0], -r1
    2f30:	989c0305 	ldmls	ip, {r0, r2, r8, r9}
    2f34:	810e0000 	mrshi	r0, (UNDEF: 14)
    2f38:	01000007 	tsteq	r0, r7
    2f3c:	0002d124 	andeq	sp, r2, r4, lsr #2
    2f40:	90030500 	andls	r0, r3, r0, lsl #10
    2f44:	11000098 	swpne	r0, r8, [r0]	; <UNPREDICTABLE>
    2f48:	000006d6 	ldrdeq	r0, [r0], -r6
    2f4c:	b0128a03 	andslt	r8, r2, r3, lsl #20
    2f50:	02000007 	andeq	r0, r0, #7
    2f54:	0003c519 	andeq	ip, r3, r9, lsl r5
    2f58:	002c1300 	eoreq	r1, ip, r0, lsl #6
    2f5c:	b2130000 	andslt	r0, r3, #0
    2f60:	00000000 	andeq	r0, r0, r0
    2f64:	00081d14 	andeq	r1, r8, r4, lsl sp
    2f68:	2ca90300 	stccs	3, cr0, [r9]
    2f6c:	da000000 	ble	2f74 <_start-0x508c>
    2f70:	13000003 	movwne	r0, #3
    2f74:	000003da 	ldrdeq	r0, [r0], -sl
    2f78:	e0040f00 	and	r0, r4, r0, lsl #30
    2f7c:	15000003 	strne	r0, [r0, #-3]
    2f80:	000003e5 	andeq	r0, r0, r5, ror #7
    2f84:	073e1216 			; <UNDEFINED> instruction: 0x073e1216
    2f88:	9d030000 	stcls	0, cr0, [r3, #-0]
    2f8c:	000003fc 	strdeq	r0, [r0], -ip
    2f90:	0003fc13 	andeq	pc, r3, r3, lsl ip	; <UNPREDICTABLE>
    2f94:	002c1300 	eoreq	r1, ip, r0, lsl #6
    2f98:	0f000000 	svceq	0x00000000
    2f9c:	0003e504 	andeq	lr, r3, r4, lsl #10
    2fa0:	08210000 	stmdaeq	r1!, {}	; <UNPREDICTABLE>
    2fa4:	00040000 	andeq	r0, r4, r0
    2fa8:	0000100b 	andeq	r1, r0, fp
    2fac:	00100104 	andseq	r0, r0, r4, lsl #2
    2fb0:	6d010000 	stcvs	0, cr0, [r1, #-0]
    2fb4:	fd000008 	stc2	0, cr0, [r0, #-32]	; 0xffffffe0
    2fb8:	bc000001 	stclt	0, cr0, [r0], {1}
    2fbc:	68000092 	stmdavs	r0, {r1, r4, r7}
    2fc0:	95000005 	strls	r0, [r0, #-5]
    2fc4:	0200000e 	andeq	r0, r0, #14
    2fc8:	01300708 	teqeq	r0, r8, lsl #14
    2fcc:	04020000 	streq	r0, [r2], #-0
    2fd0:	00013a07 	andeq	r3, r1, r7, lsl #20
    2fd4:	06010200 	streq	r0, [r1], -r0, lsl #4
    2fd8:	000000dc 	ldrdeq	r0, [r0], -ip
    2fdc:	5e050202 	cdppl	2, 0, cr0, cr5, cr2, {0}
    2fe0:	02000001 	andeq	r0, r0, #1
    2fe4:	01550504 	cmpeq	r5, r4, lsl #10
    2fe8:	08020000 	stmdaeq	r2, {}	; <UNPREDICTABLE>
    2fec:	00015005 	andeq	r5, r1, r5
    2ff0:	08010200 	stmdaeq	r1, {r9}
    2ff4:	000000da 	ldrdeq	r0, [r0], -sl
    2ff8:	fb070202 	blx	1c380a <__bss_end__+0x1b95ba>
    2ffc:	02000000 	andeq	r0, r0, #0
    3000:	01350704 	teqeq	r5, r4, lsl #14
    3004:	04030000 	streq	r0, [r3], #-0
    3008:	746e6905 	strbtvc	r6, [lr], #-2309	; 0x905
    300c:	07040200 	streq	r0, [r4, -r0, lsl #4]
    3010:	00000147 	andeq	r0, r0, r7, asr #2
    3014:	e3080102 	movw	r0, #33026	; 0x8102
    3018:	04000000 	streq	r0, [r0], #-0
    301c:	b20c0201 	andlt	r0, ip, #268435456	; 0x10000000
    3020:	05000000 	streq	r0, [r0, #-0]
    3024:	000007ee 	andeq	r0, r0, lr, ror #15
    3028:	06e20500 	strbteq	r0, [r2], r0, lsl #10
    302c:	05010000 	streq	r0, [r1, #-0]
    3030:	0000069b 	muleq	r0, fp, r6
    3034:	06f30504 	ldrbteq	r0, [r3], r4, lsl #10
    3038:	05050000 	streq	r0, [r5, #-0]
    303c:	00000702 	andeq	r0, r0, r2, lsl #14
    3040:	07110506 	ldreq	r0, [r1, -r6, lsl #10]
    3044:	05070000 	streq	r0, [r7, #-0]
    3048:	000007a1 	andeq	r0, r0, r1, lsr #15
    304c:	07200503 	streq	r0, [r0, -r3, lsl #10]!
    3050:	00020000 	andeq	r0, r2, r0
    3054:	00075306 	andeq	r5, r7, r6, lsl #6
    3058:	79150200 	ldmdbvc	r5, {r9}
    305c:	07000000 	streq	r0, [r0, -r0]
    3060:	0000064f 	andeq	r0, r0, pc, asr #12
    3064:	92bc3f01 	adcsls	r3, ip, #1, 30
    3068:	00d40000 	sbcseq	r0, r4, r0
    306c:	9c010000 	stcls	0, cr0, [r1], {-0}
    3070:	00000133 	andeq	r0, r0, r3, lsr r1
    3074:	6e697008 	cdpvs	0, 6, cr7, cr9, cr8, {0}
    3078:	2c3f0100 	ldfcss	f0, [pc], #-0	; 3080 <_start-0x4f80>
    307c:	84000000 	strhi	r0, [r0], #-0
    3080:	09000016 	stmdbeq	r0, {r1, r2, r4}
    3084:	000008a9 	andeq	r0, r0, r9, lsr #17
    3088:	01334701 	teqeq	r3, r1, lsl #14
    308c:	16a20000 	strtne	r0, [r2], r0
    3090:	91090000 	mrsls	r0, (UNDEF: 9)
    3094:	01000009 	tsteq	r0, r9
    3098:	00002c49 	andeq	r2, r0, r9, asr #24
    309c:	0016f700 	andseq	pc, r6, r0, lsl #14
    30a0:	093c0900 	ldmdbeq	ip!, {r8, fp}
    30a4:	57010000 	strpl	r0, [r1, -r0]
    30a8:	0000002c 	andeq	r0, r0, ip, lsr #32
    30ac:	000018c3 	andeq	r1, r0, r3, asr #17
    30b0:	0093500a 	addseq	r5, r3, sl
    30b4:	0007e000 	andeq	lr, r7, r0
    30b8:	00012200 	andeq	r2, r1, r0, lsl #4
    30bc:	50010b00 	andpl	r0, r1, r0, lsl #22
    30c0:	00007502 	andeq	r7, r0, r2, lsl #10
    30c4:	0093840c 	addseq	r8, r3, ip, lsl #8
    30c8:	00080100 	andeq	r0, r8, r0, lsl #2
    30cc:	50010b00 	andpl	r0, r1, r0, lsl #22
    30d0:	00007502 	andeq	r7, r0, r2, lsl #10
    30d4:	39040d00 	stmdbcc	r4, {r8, sl, fp}
    30d8:	0e000001 	cdpeq	0, 0, cr0, cr0, cr1, {0}
    30dc:	0000002c 	andeq	r0, r0, ip, lsr #32
    30e0:	00096107 	andeq	r6, r9, r7, lsl #2
    30e4:	90600100 	rsbls	r0, r0, r0, lsl #2
    30e8:	38000093 	stmdacc	r0, {r0, r1, r4, r7}
    30ec:	01000000 	mrseq	r0, (UNDEF: 0)
    30f0:	0001969c 	muleq	r1, ip, r6
    30f4:	69700800 	ldmdbvs	r0!, {fp}^
    30f8:	6001006e 	andvs	r0, r1, lr, rrx
    30fc:	0000002c 	andeq	r0, r0, ip, lsr #32
    3100:	000018f3 	strdeq	r1, [r0], -r3
    3104:	0008a909 	andeq	sl, r8, r9, lsl #18
    3108:	33670100 	cmncc	r7, #0, 2
    310c:	14000001 	strne	r0, [r0], #-1
    3110:	09000019 	stmdbeq	r0, {r0, r3, r4}
    3114:	0000093c 	andeq	r0, r0, ip, lsr r9
    3118:	002c6801 	eoreq	r6, ip, r1, lsl #16
    311c:	194a0000 	stmdbne	sl, {}^	; <UNPREDICTABLE>
    3120:	c00c0000 	andgt	r0, ip, r0
    3124:	01000093 	swpeq	r0, r3, [r0]	; <UNPREDICTABLE>
    3128:	0b000008 	bleq	3150 <_start-0x4eb0>
    312c:	31075101 	tstcc	r7, r1, lsl #2
    3130:	4f5001f3 	svcmi	0x005001f3
    3134:	0000241a 	andeq	r2, r0, sl, lsl r4
    3138:	00086007 	andeq	r6, r8, r7
    313c:	c87b0100 	ldmdagt	fp!, {r8}^
    3140:	38000093 	stmdacc	r0, {r0, r1, r4, r7}
    3144:	01000000 	mrseq	r0, (UNDEF: 0)
    3148:	0001ee9c 	muleq	r1, ip, lr
    314c:	69700800 	ldmdbvs	r0!, {fp}^
    3150:	7b01006e 	blvc	43310 <__bss_end__+0x390c0>
    3154:	0000002c 	andeq	r0, r0, ip, lsr #32
    3158:	0000198a 	andeq	r1, r0, sl, lsl #19
    315c:	0008a909 	andeq	sl, r8, r9, lsl #18
    3160:	33810100 	orrcc	r0, r1, #0, 2
    3164:	ab000001 	blge	3170 <_start-0x4e90>
    3168:	09000019 	stmdbeq	r0, {r0, r3, r4}
    316c:	0000093c 	andeq	r0, r0, ip, lsr r9
    3170:	002c8201 	eoreq	r8, ip, r1, lsl #4
    3174:	19e10000 	stmibne	r1!, {}^	; <UNPREDICTABLE>
    3178:	f80c0000 			; <UNDEFINED> instruction: 0xf80c0000
    317c:	01000093 	swpeq	r0, r3, [r0]	; <UNPREDICTABLE>
    3180:	0b000008 	bleq	31a8 <_start-0x4e58>
    3184:	31075101 	tstcc	r7, r1, lsl #2
    3188:	4f5001f3 	svcmi	0x005001f3
    318c:	0000241a 	andeq	r2, r0, sl, lsl r4
    3190:	00062907 	andeq	r2, r6, r7, lsl #18
    3194:	00950100 	addseq	r0, r5, r0, lsl #2
    3198:	cc000094 	stcgt	0, cr0, [r0], {148}	; 0x94
    319c:	01000000 	mrseq	r0, (UNDEF: 0)
    31a0:	0002649c 	muleq	r2, ip, r4
    31a4:	69700800 	ldmdbvs	r0!, {fp}^
    31a8:	9501006e 	strls	r0, [r1, #-110]	; 0x6e
    31ac:	0000002c 	andeq	r0, r0, ip, lsr #32
    31b0:	00001a21 	andeq	r1, r0, r1, lsr #20
    31b4:	0008a909 	andeq	sl, r8, r9, lsl #18
    31b8:	339b0100 	orrscc	r0, fp, #0, 2
    31bc:	3f000001 	svccc	0x00000001
    31c0:	0900001a 	stmdbeq	r0, {r1, r3, r4}
    31c4:	00000991 	muleq	r0, r1, r9
    31c8:	002c9d01 	eoreq	r9, ip, r1, lsl #26
    31cc:	1a940000 	bne	fe5031d4 <__bss_end__+0xfe4f8f84>
    31d0:	3c090000 	stccc	0, cr0, [r9], {-0}
    31d4:	01000009 	tsteq	r0, r9
    31d8:	00002cab 	andeq	r2, r0, fp, lsr #25
    31dc:	001c6000 	andseq	r6, ip, r0
    31e0:	94940a00 	ldrls	r0, [r4], #2560	; 0xa00
    31e4:	07e00000 	strbeq	r0, [r0, r0]!
    31e8:	02530000 	subseq	r0, r3, #0
    31ec:	010b0000 	mrseq	r0, (UNDEF: 11)
    31f0:	00750250 	rsbseq	r0, r5, r0, asr r2
    31f4:	94c00c00 	strbls	r0, [r0], #3072	; 0xc00
    31f8:	08010000 	stmdaeq	r1, {}	; <UNPREDICTABLE>
    31fc:	010b0000 	mrseq	r0, (UNDEF: 11)
    3200:	00750250 	rsbseq	r0, r5, r0, asr r2
    3204:	d40f0000 	strle	r0, [pc], #-0	; 320c <_start-0x4df4>
    3208:	01000005 	tsteq	r0, r5
    320c:	000064b3 			; <UNDEFINED> instruction: 0x000064b3
    3210:	0094cc00 	addseq	ip, r4, r0, lsl #24
    3214:	00004c00 	andeq	r4, r0, r0, lsl #24
    3218:	ac9c0100 	ldfges	f0, [ip], {0}
    321c:	08000002 	stmdaeq	r0, {r1}
    3220:	006e6970 	rsbeq	r6, lr, r0, ror r9
    3224:	002cb301 	eoreq	fp, ip, r1, lsl #6
    3228:	1c7e0000 	ldclne	0, cr0, [lr], #-0
    322c:	76100000 	ldrvc	r0, [r0], -r0
    3230:	2cb90100 	ldfcss	f0, [r9]
    3234:	d6000000 	strle	r0, [r0], -r0
    3238:	1100001c 	tstne	r0, ip, lsl r0
    323c:	000094ec 	andeq	r9, r0, ip, ror #9
    3240:	000007e0 	andeq	r0, r0, r0, ror #15
    3244:	0094fc11 	addseq	pc, r4, r1, lsl ip	; <UNPREDICTABLE>
    3248:	0007e000 	andeq	lr, r7, r0
    324c:	11070000 	mrsne	r0, (UNDEF: 7)
    3250:	01000006 	tsteq	r0, r6
    3254:	009518c5 	addseq	r1, r5, r5, asr #17
    3258:	00002400 	andeq	r2, r0, r0, lsl #8
    325c:	fc9c0100 	ldc2	1, cr0, [ip], {0}
    3260:	08000002 	stmdaeq	r0, {r1}
    3264:	006e6970 	rsbeq	r6, lr, r0, ror r9
    3268:	002cc501 	eoreq	ip, ip, r1, lsl #10
    326c:	1d0c0000 	stcne	0, cr0, [ip, #-0]
    3270:	76080000 	strvc	r0, [r8], -r0
    3274:	2cc50100 	stfcse	f0, [r5], {0}
    3278:	46000000 	strmi	r0, [r0], -r0
    327c:	0a00001d 	beq	32f8 <_start-0x4d08>
    3280:	00009530 	andeq	r9, r0, r0, lsr r5
    3284:	0000013e 	andeq	r0, r0, lr, lsr r1
    3288:	000002f2 	strdeq	r0, [r0], -r2
    328c:	0350010b 	cmpeq	r0, #-1073741822	; 0xc0000002
    3290:	005001f3 	ldrsheq	r0, [r0], #-19	; 0xffffffed
    3294:	00953811 	addseq	r3, r5, r1, lsl r8
    3298:	00019600 	andeq	r9, r1, r0, lsl #12
    329c:	b0070000 	andlt	r0, r7, r0
    32a0:	01000007 	tsteq	r0, r7
    32a4:	00953cd1 			; <UNDEFINED> instruction: 0x00953cd1
    32a8:	0000d800 	andeq	sp, r0, r0, lsl #16
    32ac:	819c0100 	orrshi	r0, ip, r0, lsl #2
    32b0:	08000003 	stmdaeq	r0, {r0, r1}
    32b4:	006e6970 	rsbeq	r6, lr, r0, ror r9
    32b8:	002cd101 	eoreq	sp, ip, r1, lsl #2
    32bc:	1d800000 	stcne	0, cr0, [r0]
    32c0:	4e120000 	cdpmi	0, 1, cr0, cr2, cr0, {0}
    32c4:	01000009 	tsteq	r0, r9
    32c8:	0000b2d1 	ldrdeq	fp, [r0], -r1
    32cc:	001d9e00 	andseq	r9, sp, r0, lsl #28
    32d0:	08a90900 	stmiaeq	r9!, {r8, fp}
    32d4:	d9010000 	stmdble	r1, {}	; <UNPREDICTABLE>
    32d8:	00000133 	andeq	r0, r0, r3, lsr r1
    32dc:	00001dbf 			; <UNDEFINED> instruction: 0x00001dbf
    32e0:	00099109 	andeq	r9, r9, r9, lsl #2
    32e4:	2cda0100 	ldfcse	f0, [sl], {0}
    32e8:	14000000 	strne	r0, [r0], #-0
    32ec:	0900001e 	stmdbeq	r0, {r1, r2, r3, r4}
    32f0:	0000093c 	andeq	r0, r0, ip, lsr r9
    32f4:	002ce801 	eoreq	lr, ip, r1, lsl #16
    32f8:	1fe00000 	svcne	0x00e00000
    32fc:	d80a0000 	stmdale	sl, {}	; <UNPREDICTABLE>
    3300:	e0000095 	mul	r0, r5, r0
    3304:	70000007 	andvc	r0, r0, r7
    3308:	0b000003 	bleq	331c <_start-0x4ce4>
    330c:	76025001 	strvc	r5, [r2], -r1
    3310:	080c0000 	stmdaeq	ip, {}	; <UNPREDICTABLE>
    3314:	01000096 	swpeq	r0, r6, [r0]	; <UNPREDICTABLE>
    3318:	0b000008 	bleq	3340 <_start-0x4cc0>
    331c:	76025001 	strvc	r5, [r2], -r1
    3320:	13000000 	movwne	r0, #0
    3324:	00000854 	andeq	r0, r0, r4, asr r8
    3328:	64010501 	strvs	r0, [r1], #-1281	; 0x501
    332c:	14000000 	strne	r0, [r0], #-0
    3330:	2c000096 	stccs	0, cr0, [r0], {150}	; 0x96
    3334:	01000000 	mrseq	r0, (UNDEF: 0)
    3338:	0003b59c 	muleq	r3, ip, r5
    333c:	08571400 	ldmdaeq	r7, {sl, ip}^
    3340:	05010000 	streq	r0, [r1, #-0]
    3344:	00002c01 	andeq	r2, r0, r1, lsl #24
    3348:	00201100 	eoreq	r1, r0, r0, lsl #2
    334c:	96241100 	strtls	r1, [r4], -r0, lsl #2
    3350:	07e00000 	strbeq	r0, [r0, r0]!
    3354:	15000000 	strne	r0, [r0, #-0]
    3358:	000008ec 	andeq	r0, r0, ip, ror #17
    335c:	40011401 	andmi	r1, r1, r1, lsl #8
    3360:	84000096 	strhi	r0, [r0], #-150	; 0x96
    3364:	01000000 	mrseq	r0, (UNDEF: 0)
    3368:	0004799c 	muleq	r4, ip, r9
    336c:	69701600 	ldmdbvs	r0!, {r9, sl, ip}^
    3370:	1401006e 	strne	r0, [r1], #-110	; 0x6e
    3374:	00002c01 	andeq	r2, r0, r1, lsl #24
    3378:	00203200 	eoreq	r3, r0, r0, lsl #4
    337c:	087b1700 	ldmdaeq	fp!, {r8, r9, sl, ip}^
    3380:	26010000 	strcs	r0, [r1], -r0
    3384:	00002c01 	andeq	r2, r0, r1, lsl #24
    3388:	00205e00 	eoreq	r5, r0, r0, lsl #28
    338c:	965c1800 	ldrbls	r1, [ip], -r0, lsl #16
    3390:	001c0000 	andseq	r0, ip, r0
    3394:	041b0000 	ldreq	r0, [fp], #-0
    3398:	3c170000 	ldccc	0, cr0, [r7], {-0}
    339c:	01000009 	tsteq	r0, r9
    33a0:	002c011d 	eoreq	r0, ip, sp, lsl r1
    33a4:	207c0000 	rsbscs	r0, ip, r0
    33a8:	68110000 	ldmdavs	r1, {}	; <UNPREDICTABLE>
    33ac:	e0000096 	mul	r0, r6, r0
    33b0:	11000007 	tstne	r0, r7
    33b4:	00009678 	andeq	r9, r0, r8, ror r6
    33b8:	00000801 	andeq	r0, r0, r1, lsl #16
    33bc:	967c1800 	ldrbtls	r1, [ip], -r0, lsl #16
    33c0:	00200000 	eoreq	r0, r0, r0
    33c4:	044b0000 	strbeq	r0, [fp], #-0
    33c8:	3c170000 	ldccc	0, cr0, [r7], {-0}
    33cc:	01000009 	tsteq	r0, r9
    33d0:	002c0121 	eoreq	r0, ip, r1, lsr #2
    33d4:	209a0000 	addscs	r0, sl, r0
    33d8:	88110000 	ldmdahi	r1, {}	; <UNPREDICTABLE>
    33dc:	e0000096 	mul	r0, r6, r0
    33e0:	11000007 	tstne	r0, r7
    33e4:	0000969c 	muleq	r0, ip, r6
    33e8:	00000801 	andeq	r0, r0, r1, lsl #16
    33ec:	96541100 	ldrbls	r1, [r4], -r0, lsl #2
    33f0:	081d0000 	ldmdaeq	sp, {}	; <UNPREDICTABLE>
    33f4:	a0110000 	andsge	r0, r1, r0
    33f8:	1d000096 	stcne	0, cr0, [r0, #-600]	; 0xfffffda8
    33fc:	11000008 	tstne	r0, r8
    3400:	000096ac 	andeq	r9, r0, ip, lsr #13
    3404:	000007e0 	andeq	r0, r0, r0, ror #15
    3408:	0096b811 	addseq	fp, r6, r1, lsl r8
    340c:	00080100 	andeq	r0, r8, r0, lsl #2
    3410:	96bc1100 	ldrtls	r1, [ip], r0, lsl #2
    3414:	081d0000 	ldmdaeq	sp, {}	; <UNPREDICTABLE>
    3418:	15000000 	strne	r0, [r0, #-0]
    341c:	0000097b 	andeq	r0, r0, fp, ror r9
    3420:	c4013101 	strgt	r3, [r1], #-257	; 0x101
    3424:	84000096 	strhi	r0, [r0], #-150	; 0x96
    3428:	01000000 	mrseq	r0, (UNDEF: 0)
    342c:	00053d9c 	muleq	r5, ip, sp
    3430:	69701600 	ldmdbvs	r0!, {r9, sl, ip}^
    3434:	3101006e 	tstcc	r1, lr, rrx
    3438:	00002c01 	andeq	r2, r0, r1, lsl #24
    343c:	0020b800 	eoreq	fp, r0, r0, lsl #16
    3440:	087b1700 	ldmdaeq	fp!, {r8, r9, sl, ip}^
    3444:	42010000 	andmi	r0, r1, #0
    3448:	00002c01 	andeq	r2, r0, r1, lsl #24
    344c:	0020e400 	eoreq	lr, r0, r0, lsl #8
    3450:	96e01800 	strbtls	r1, [r0], r0, lsl #16
    3454:	001c0000 	andseq	r0, ip, r0
    3458:	04df0000 	ldrbeq	r0, [pc], #0	; 3460 <_start-0x4ba0>
    345c:	3c170000 	ldccc	0, cr0, [r7], {-0}
    3460:	01000009 	tsteq	r0, r9
    3464:	002c0139 	eoreq	r0, ip, r9, lsr r1
    3468:	21020000 	mrscs	r0, (UNDEF: 2)
    346c:	ec110000 	ldc	0, cr0, [r1], {-0}
    3470:	e0000096 	mul	r0, r6, r0
    3474:	11000007 	tstne	r0, r7
    3478:	000096fc 	strdeq	r9, [r0], -ip
    347c:	00000801 	andeq	r0, r0, r1, lsl #16
    3480:	97001800 	strls	r1, [r0, -r0, lsl #16]
    3484:	00200000 	eoreq	r0, r0, r0
    3488:	050f0000 	streq	r0, [pc, #-0]	; 3490 <_start-0x4b70>
    348c:	3c170000 	ldccc	0, cr0, [r7], {-0}
    3490:	01000009 	tsteq	r0, r9
    3494:	002c013d 	eoreq	r0, ip, sp, lsr r1
    3498:	21200000 	teqcs	r0, r0
    349c:	0c110000 	ldceq	0, cr0, [r1], {-0}
    34a0:	e0000097 	mul	r0, r7, r0
    34a4:	11000007 	tstne	r0, r7
    34a8:	00009720 	andeq	r9, r0, r0, lsr #14
    34ac:	00000801 	andeq	r0, r0, r1, lsl #16
    34b0:	96d81100 	ldrbls	r1, [r8], r0, lsl #2
    34b4:	081d0000 	ldmdaeq	sp, {}	; <UNPREDICTABLE>
    34b8:	24110000 	ldrcs	r0, [r1], #-0
    34bc:	1d000097 	stcne	0, cr0, [r0, #-604]	; 0xfffffda4
    34c0:	11000008 	tstne	r0, r8
    34c4:	00009730 	andeq	r9, r0, r0, lsr r7
    34c8:	000007e0 	andeq	r0, r0, r0, ror #15
    34cc:	00973c11 	addseq	r3, r7, r1, lsl ip
    34d0:	00080100 	andeq	r0, r8, r0, lsl #2
    34d4:	97401100 	strbls	r1, [r0, -r0, lsl #2]
    34d8:	081d0000 	ldmdaeq	sp, {}	; <UNPREDICTABLE>
    34dc:	13000000 	movwne	r0, #0
    34e0:	00000823 	andeq	r0, r0, r3, lsr #16
    34e4:	64014c01 	strvs	r4, [r1], #-3073	; 0xc01
    34e8:	48000000 	stmdami	r0, {}	; <UNPREDICTABLE>
    34ec:	84000097 	strhi	r0, [r0], #-151	; 0x97
    34f0:	01000000 	mrseq	r0, (UNDEF: 0)
    34f4:	0005e39c 	muleq	r5, ip, r3
    34f8:	69701600 	ldmdbvs	r0!, {r9, sl, ip}^
    34fc:	4c01006e 	stcmi	0, cr0, [r1], {110}	; 0x6e
    3500:	00002c01 	andeq	r2, r0, r1, lsl #24
    3504:	00213e00 	eoreq	r3, r1, r0, lsl #28
    3508:	97641800 	strbls	r1, [r4, -r0, lsl #16]!
    350c:	00240000 	eoreq	r0, r4, r0
    3510:	05970000 	ldreq	r0, [r7]
    3514:	92170000 	andsls	r0, r7, #0
    3518:	01000008 	tsteq	r0, r8
    351c:	002c0153 	eoreq	r0, ip, r3, asr r1
    3520:	21800000 	orrcs	r0, r0, r0
    3524:	70110000 	andsvc	r0, r1, r0
    3528:	e0000097 	mul	r0, r7, r0
    352c:	11000007 	tstne	r0, r7
    3530:	00009780 	andeq	r9, r0, r0, lsl #15
    3534:	0000081d 	andeq	r0, r0, sp, lsl r8
    3538:	97881800 	strls	r1, [r8, r0, lsl #16]
    353c:	002c0000 	eoreq	r0, ip, r0
    3540:	05d00000 	ldrbeq	r0, [r0]
    3544:	92170000 	andsls	r0, r7, #0
    3548:	01000008 	tsteq	r0, r8
    354c:	002c0156 	eoreq	r0, ip, r6, asr r1
    3550:	219a0000 	orrscs	r0, sl, r0
    3554:	94110000 	ldrls	r0, [r1], #-0
    3558:	e0000097 	mul	r0, r7, r0
    355c:	11000007 	tstne	r0, r7
    3560:	000097a0 	andeq	r9, r0, r0, lsr #15
    3564:	0000081d 	andeq	r0, r0, sp, lsl r8
    3568:	0097ac11 	addseq	sl, r7, r1, lsl ip
    356c:	00081d00 	andeq	r1, r8, r0, lsl #26
    3570:	5c110000 	ldcpl	0, cr0, [r1], {-0}
    3574:	1d000097 	stcne	0, cr0, [r0, #-604]	; 0xfffffda4
    3578:	11000008 	tstne	r0, r8
    357c:	000097b8 			; <UNDEFINED> instruction: 0x000097b8
    3580:	0000081d 	andeq	r0, r0, sp, lsl r8
    3584:	090f1500 	stmdbeq	pc, {r8, sl, ip}	; <UNPREDICTABLE>
    3588:	5f010000 	svcpl	0x00010000
    358c:	0097cc01 	addseq	ip, r7, r1, lsl #24
    3590:	00005800 	andeq	r5, r0, r0, lsl #16
    3594:	489c0100 	ldmmi	ip, {r8}
    3598:	16000006 	strne	r0, [r0], -r6
    359c:	006e6970 	rsbeq	r6, lr, r0, ror r9
    35a0:	2c015f01 	stccs	15, cr5, [r1], {1}
    35a4:	ad000000 	stcge	0, cr0, [r0, #-0]
    35a8:	11000021 	tstne	r0, r1, lsr #32
    35ac:	000097e0 	andeq	r9, r0, r0, ror #15
    35b0:	0000081d 	andeq	r0, r0, sp, lsl r8
    35b4:	0097fc0a 	addseq	pc, r7, sl, lsl #24
    35b8:	00080100 	andeq	r0, r8, r0, lsl #2
    35bc:	00062800 	andeq	r2, r6, r0, lsl #16
    35c0:	51010b00 	tstpl	r1, r0, lsl #22
    35c4:	00743104 	rsbseq	r3, r4, r4, lsl #2
    35c8:	180a0024 	stmdane	sl, {r2, r5}
    35cc:	01000098 	swpeq	r0, r8, [r0]	; <UNPREDICTABLE>
    35d0:	3e000008 	cdpcc	0, 0, cr0, cr0, cr8, {0}
    35d4:	0b000006 	bleq	35f4 <_start-0x4a0c>
    35d8:	31045101 	tstcc	r4, r1, lsl #2
    35dc:	00240074 	eoreq	r0, r4, r4, ror r0
    35e0:	00981c11 	addseq	r1, r8, r1, lsl ip
    35e4:	00081d00 	andeq	r1, r8, r0, lsl #26
    35e8:	da190000 	ble	6435f0 <__bss_end__+0x6393a0>
    35ec:	01000008 	tsteq	r0, r8
    35f0:	00013328 	andeq	r3, r1, r8, lsr #6
    35f4:	0c030500 	cfstr32eq	mvfx0, [r3], {-0}
    35f8:	19000099 	stmdbne	r0, {r0, r3, r4, r7}
    35fc:	00000944 	andeq	r0, r0, r4, asr #18
    3600:	01332901 	teqeq	r3, r1, lsl #18
    3604:	03050000 	movweq	r0, #20480	; 0x5000
    3608:	00009908 	andeq	r9, r0, r8, lsl #18
    360c:	00099c19 	andeq	r9, r9, r9, lsl ip
    3610:	332a0100 	teqcc	sl, #0, 2
    3614:	05000001 	streq	r0, [r0, #-1]
    3618:	00990403 	addseq	r0, r9, r3, lsl #8
    361c:	08b21900 	ldmeq	r2!, {r8, fp, ip}
    3620:	2c010000 	stccs	0, cr0, [r1], {-0}
    3624:	00000133 	andeq	r0, r0, r3, lsr r1
    3628:	98b00305 	ldmls	r0!, {r0, r2, r8, r9}
    362c:	ba190000 	blt	643634 <__bss_end__+0x6393e4>
    3630:	01000008 	tsteq	r0, r8
    3634:	0001332d 	andeq	r3, r1, sp, lsr #6
    3638:	b4030500 	strlt	r0, [r3], #-1280	; 0x500
    363c:	19000098 	stmdbne	r0, {r3, r4, r7}
    3640:	00000837 	andeq	r0, r0, r7, lsr r8
    3644:	01332e01 	teqeq	r3, r1, lsl #28
    3648:	03050000 	movweq	r0, #20480	; 0x5000
    364c:	000098b8 			; <UNDEFINED> instruction: 0x000098b8
    3650:	0008c219 	andeq	ip, r8, r9, lsl r2
    3654:	332f0100 	teqcc	pc, #0, 2
    3658:	05000001 	streq	r0, [r0, #-1]
    365c:	0098bc03 	addseq	fp, r8, r3, lsl #24
    3660:	08ca1900 	stmiaeq	sl, {r8, fp, ip}^
    3664:	30010000 	andcc	r0, r1, r0
    3668:	00000133 	andeq	r0, r0, r3, lsr r1
    366c:	98c00305 	stmials	r0, {r0, r2, r8, r9}^
    3670:	d2190000 	andsle	r0, r9, #0
    3674:	01000008 	tsteq	r0, r8
    3678:	00013331 	andeq	r3, r1, r1, lsr r3
    367c:	c4030500 	strgt	r0, [r3], #-1280	; 0x500
    3680:	19000098 	stmdbne	r0, {r3, r4, r7}
    3684:	00000884 	andeq	r0, r0, r4, lsl #17
    3688:	01333301 	teqeq	r3, r1, lsl #6
    368c:	03050000 	movweq	r0, #20480	; 0x5000
    3690:	000098c8 	andeq	r9, r0, r8, asr #17
    3694:	00088b19 	andeq	r8, r8, r9, lsl fp
    3698:	33340100 	teqcc	r4, #0, 2
    369c:	05000001 	streq	r0, [r0, #-1]
    36a0:	0098cc03 	addseq	ip, r8, r3, lsl #24
    36a4:	083f1900 	ldmdaeq	pc!, {r8, fp, ip}	; <UNPREDICTABLE>
    36a8:	36010000 	strcc	r0, [r1], -r0
    36ac:	00000133 	andeq	r0, r0, r3, lsr r1
    36b0:	98d00305 	ldmls	r0, {r0, r2, r8, r9}^
    36b4:	e5190000 	ldr	r0, [r9, #-0]
    36b8:	01000008 	tsteq	r0, r8
    36bc:	00013337 	andeq	r3, r1, r7, lsr r3
    36c0:	d4030500 	strle	r0, [r3], #-1280	; 0x500
    36c4:	19000098 	stmdbne	r0, {r3, r4, r7}
    36c8:	0000089b 	muleq	r0, fp, r8
    36cc:	01333901 	teqeq	r3, r1, lsl #18
    36d0:	03050000 	movweq	r0, #20480	; 0x5000
    36d4:	000098d8 	ldrdeq	r9, [r0], -r8
    36d8:	0008a219 	andeq	sl, r8, r9, lsl r2
    36dc:	333a0100 	teqcc	sl, #0, 2
    36e0:	05000001 	streq	r0, [r0, #-1]
    36e4:	0098dc03 	addseq	sp, r8, r3, lsl #24
    36e8:	09201900 	stmdbeq	r0!, {r8, fp, ip}
    36ec:	f0010000 			; <UNDEFINED> instruction: 0xf0010000
    36f0:	00000133 	andeq	r0, r0, r3, lsr r1
    36f4:	99000305 	stmdbls	r0, {r0, r2, r8, r9}
    36f8:	2e190000 	cdpcs	0, 1, cr0, cr9, cr0, {0}
    36fc:	01000009 	tsteq	r0, r9
    3700:	000133f1 	strdeq	r3, [r1], -r1
    3704:	e0030500 	and	r0, r3, r0, lsl #10
    3708:	19000098 	stmdbne	r0, {r3, r4, r7}
    370c:	00000953 	andeq	r0, r0, r3, asr r9
    3710:	0133f301 	teqeq	r3, r1, lsl #6
    3714:	03050000 	movweq	r0, #20480	; 0x5000
    3718:	000098f8 	strdeq	r9, [r0], -r8
    371c:	00095a19 	andeq	r5, r9, r9, lsl sl
    3720:	33f40100 	mvnscc	r0, #0, 2
    3724:	05000001 	streq	r0, [r0, #-1]
    3728:	0098fc03 	addseq	pc, r8, r3, lsl #24
    372c:	09011900 	stmdbeq	r1, {r8, fp, ip}
    3730:	f6010000 			; <UNDEFINED> instruction: 0xf6010000
    3734:	00000133 	andeq	r0, r0, r3, lsr r1
    3738:	98e40305 	stmials	r4!, {r0, r2, r8, r9}^
    373c:	08190000 	ldmdaeq	r9, {}	; <UNPREDICTABLE>
    3740:	01000009 	tsteq	r0, r9
    3744:	000133f7 	strdeq	r3, [r1], -r7
    3748:	e8030500 	stmda	r3, {r8, sl}
    374c:	19000098 	stmdbne	r0, {r3, r4, r7}
    3750:	0000096d 	andeq	r0, r0, sp, ror #18
    3754:	0133f901 	teqeq	r3, r1, lsl #18
    3758:	03050000 	movweq	r0, #20480	; 0x5000
    375c:	000098f0 	strdeq	r9, [r0], -r0
    3760:	00097419 	andeq	r7, r9, r9, lsl r4
    3764:	33fa0100 	mvnscc	r0, #0, 2
    3768:	05000001 	streq	r0, [r0, #-1]
    376c:	0098f403 	addseq	pc, r8, r3, lsl #8
    3770:	08461900 	stmdaeq	r6, {r8, fp, ip}^
    3774:	fc010000 	stc2	0, cr0, [r1], {-0}
    3778:	00000133 	andeq	r0, r0, r3, lsr r1
    377c:	98ec0305 	stmials	ip!, {r0, r2, r8, r9}^
    3780:	1d1a0000 	ldcne	0, cr0, [sl, #-0]
    3784:	01000008 	tsteq	r0, r8
    3788:	00002c20 	andeq	r2, r0, r0, lsr #24
    378c:	0007f500 	andeq	pc, r7, r0, lsl #10
    3790:	07f51b00 	ldrbeq	r1, [r5, r0, lsl #22]!
    3794:	0d000000 	stceq	0, cr0, [r0, #-0]
    3798:	0007fb04 	andeq	pc, r7, r4, lsl #22
    379c:	08001c00 	stmdaeq	r0, {sl, fp, ip}
    37a0:	1e1d0000 	cdpne	0, 1, cr0, cr13, cr0, {0}
    37a4:	0000073e 	andeq	r0, r0, lr, lsr r7
    37a8:	08171e01 	ldmdaeq	r7, {r0, r9, sl, fp, ip}
    37ac:	171b0000 	ldrne	r0, [fp, -r0]
    37b0:	1b000008 	blne	37d8 <_start-0x4828>
    37b4:	0000002c 	andeq	r0, r0, ip, lsr #32
    37b8:	00040d00 	andeq	r0, r4, r0, lsl #26
    37bc:	1f000008 	svcne	0x00000008
    37c0:	000006d6 	ldrdeq	r0, [r0], -r6
    37c4:	c3008a03 	movwgt	r8, #2563	; 0xa03
    37c8:	04000001 	streq	r0, [r0], #-1
    37cc:	0011d400 	andseq	sp, r1, r0, lsl #8
    37d0:	10010400 	andne	r0, r1, r0, lsl #8
    37d4:	01000000 	mrseq	r0, (UNDEF: 0)
    37d8:	000009ad 	andeq	r0, r0, sp, lsr #19
    37dc:	000001fd 	strdeq	r0, [r0], -sp
    37e0:	00009824 	andeq	r9, r0, r4, lsr #16
    37e4:	00000050 	andeq	r0, r0, r0, asr r0
    37e8:	00001011 	andeq	r1, r0, r1, lsl r0
    37ec:	69050402 	stmdbvs	r5, {r1, sl}
    37f0:	0300746e 	movweq	r7, #1134	; 0x46e
    37f4:	00000195 	muleq	r0, r5, r1
    37f8:	0037d402 	eorseq	sp, r7, r2, lsl #8
    37fc:	04040000 	streq	r0, [r4], #-0
    3800:	00013a07 	andeq	r3, r1, r7, lsl #20
    3804:	06010400 	streq	r0, [r1], -r0, lsl #8
    3808:	000000dc 	ldrdeq	r0, [r0], -ip
    380c:	5e050204 	cdppl	2, 0, cr0, cr5, cr4, {0}
    3810:	04000001 	streq	r0, [r0], #-1
    3814:	01550504 	cmpeq	r5, r4, lsl #10
    3818:	08040000 	stmdaeq	r4, {}	; <UNPREDICTABLE>
    381c:	00015005 	andeq	r5, r1, r5
    3820:	04070300 	streq	r0, [r7], #-768	; 0x300
    3824:	2e030000 	cdpcs	0, 0, cr0, cr3, cr0, {0}
    3828:	00000065 	andeq	r0, r0, r5, rrx
    382c:	da080104 	ble	203c44 <__bss_end__+0x1f99f4>
    3830:	04000000 	streq	r0, [r0], #-0
    3834:	00fb0702 	rscseq	r0, fp, r2, lsl #14
    3838:	5e030000 	cdppl	0, 0, cr0, cr3, cr0, {0}
    383c:	03000004 	movweq	r0, #4
    3840:	00007e34 	andeq	r7, r0, r4, lsr lr
    3844:	07040400 	streq	r0, [r4, -r0, lsl #8]
    3848:	00000135 	andeq	r0, r0, r5, lsr r1
    384c:	30070804 	andcc	r0, r7, r4, lsl #16
    3850:	04000001 	streq	r0, [r0], #-1
    3854:	01470704 	cmpeq	r7, r4, lsl #14
    3858:	04050000 	streq	r0, [r5], #-0
    385c:	e3080104 	movw	r0, #33028	; 0x8104
    3860:	06000000 	streq	r0, [r0], -r0
    3864:	d30e040c 	movwle	r0, #58380	; 0xe40c
    3868:	07000000 	streq	r0, [r0, -r0]
    386c:	04007874 	streq	r7, [r0], #-2164	; 0x874
    3870:	00005a0f 	andeq	r5, r0, pc, lsl #20
    3874:	72070000 	andvc	r0, r7, #0
    3878:	0f040078 	svceq	0x00040078
    387c:	0000005a 	andeq	r0, r0, sl, asr r0
    3880:	03d50801 	bicseq	r0, r5, #65536	; 0x10000
    3884:	10040000 	andne	r0, r4, r0
    3888:	00000073 	andeq	r0, r0, r3, ror r0
    388c:	03860804 	orreq	r0, r6, #4, 16	; 0x40000
    3890:	11040000 	mrsne	r0, (UNDEF: 4)
    3894:	00000073 	andeq	r0, r0, r3, ror r0
    3898:	be030008 	cdplt	0, 0, cr0, cr3, cr8, {0}
    389c:	04000003 	streq	r0, [r0], #-3
    38a0:	00009c12 	andeq	r9, r0, r2, lsl ip
    38a4:	05010900 	streq	r0, [r1, #-2304]	; 0x900
    38a8:	0000f910 	andeq	pc, r0, r0, lsl r9	; <UNPREDICTABLE>
    38ac:	03da0a00 	bicseq	r0, sl, #0, 20
    38b0:	0a010000 	beq	438b8 <__bss_end__+0x39668>
    38b4:	000003c8 	andeq	r0, r0, r8, asr #7
    38b8:	03b00a02 	movseq	r0, #8192	; 0x2000
    38bc:	00030000 	andeq	r0, r3, r0
    38c0:	0003ef03 	andeq	lr, r3, r3, lsl #30
    38c4:	de100500 	cfmul32le	mvfx0, mvfx0, mvfx0
    38c8:	06000000 	streq	r0, [r0], -r0
    38cc:	31140514 	tstcc	r4, r4, lsl r5
    38d0:	08000001 	stmdaeq	r0, {r0}
    38d4:	00000467 	andeq	r0, r0, r7, ror #8
    38d8:	00371505 	eorseq	r1, r7, r5, lsl #10
    38dc:	08000000 	stmdaeq	r0, {}	; <UNPREDICTABLE>
    38e0:	00000452 	andeq	r0, r0, r2, asr r4
    38e4:	00f91805 	rscseq	r1, r9, r5, lsl #16
    38e8:	08040000 	stmdaeq	r4, {}	; <UNPREDICTABLE>
    38ec:	0000041d 	andeq	r0, r0, sp, lsl r4
    38f0:	00d31b05 	sbcseq	r1, r3, r5, lsl #22
    38f4:	00080000 	andeq	r0, r8, r0
    38f8:	00040f03 	andeq	r0, r4, r3, lsl #30
    38fc:	04200500 	strteq	r0, [r0], #-1280	; 0x500
    3900:	0b000001 	bleq	390c <_start-0x46f4>
    3904:	000009a6 	andeq	r0, r0, r6, lsr #19
    3908:	017e0501 	cmneq	lr, r1, lsl #10
    390c:	98240000 	stmdals	r4!, {}	; <UNPREDICTABLE>
    3910:	00280000 	eoreq	r0, r8, r0
    3914:	9c010000 	stcls	0, cr0, [r1], {-0}
    3918:	0000017e 	andeq	r0, r0, lr, ror r1
    391c:	0100630c 	tsteq	r0, ip, lsl #6
    3920:	00017e06 	andeq	r7, r1, r6, lsl #28
    3924:	00000000 	andeq	r0, r0, r0
    3928:	98380d09 	ldmdals	r8!, {r0, r3, r8, sl, fp}
    392c:	01ab0000 			; <UNDEFINED> instruction: 0x01ab0000
    3930:	010e0000 	mrseq	r0, (UNDEF: 14)
    3934:	0e340152 	mrceq	1, 1, r0, cr4, cr2, {2}
    3938:	30015101 	andcc	r5, r1, r1, lsl #2
    393c:	0350010e 	cmpeq	r0, #-2147483645	; 0x80000003
    3940:	00244742 	eoreq	r4, r4, r2, asr #14
    3944:	31040f00 	tstcc	r4, r0, lsl #30
    3948:	0b000001 	bleq	3954 <_start-0x46ac>
    394c:	00000425 	andeq	r0, r0, r5, lsr #8
    3950:	017e0c01 	cmneq	lr, r1, lsl #24
    3954:	984c0000 	stmdals	ip, {}^	; <UNPREDICTABLE>
    3958:	00280000 	eoreq	r0, r8, r0
    395c:	9c010000 	stcls	0, cr0, [r1], {-0}
    3960:	000001ab 	andeq	r0, r0, fp, lsr #3
    3964:	0100630c 	tsteq	r0, ip, lsl #6
    3968:	00017e0d 	andeq	r7, r1, sp, lsl #28
    396c:	00000000 	andeq	r0, r0, r0
    3970:	b4100009 	ldrlt	r0, [r0], #-9
    3974:	06000001 	streq	r0, [r0], -r1
    3978:	0000931b 	andeq	r9, r0, fp, lsl r3
    397c:	00931100 	addseq	r1, r3, r0, lsl #2
    3980:	25110000 	ldrcs	r0, [r1, #-0]
    3984:	11000000 	mrsne	r0, (UNDEF: 0)
    3988:	0000002c 	andeq	r0, r0, ip, lsr #32
	...

Disassembly of section .debug_abbrev:

00000000 <.debug_abbrev>:
       0:	25011101 	strcs	r1, [r1, #-257]	; 0x101
       4:	030b130e 	movweq	r1, #45838	; 0xb30e
       8:	110e1b0e 	tstne	lr, lr, lsl #22
       c:	10061201 	andne	r1, r6, r1, lsl #4
      10:	02000017 	andeq	r0, r0, #23
      14:	0b0b0024 	bleq	2c00ac <__bss_end__+0x2b5e5c>
      18:	08030b3e 	stmdaeq	r3, {r1, r2, r3, r4, r5, r8, r9, fp}
      1c:	24030000 	strcs	r0, [r3], #-0
      20:	3e0b0b00 	vmlacc.f64	d0, d11, d0
      24:	000e030b 	andeq	r0, lr, fp, lsl #6
      28:	000f0400 	andeq	r0, pc, r0, lsl #8
      2c:	00000b0b 	andeq	r0, r0, fp, lsl #22
      30:	0b000f05 	bleq	3c4c <_start-0x43b4>
      34:	0013490b 	andseq	r4, r3, fp, lsl #18
      38:	00260600 	eoreq	r0, r6, r0, lsl #12
      3c:	00001349 	andeq	r1, r0, r9, asr #6
      40:	49010107 	stmdbmi	r1, {r0, r1, r2, r8}
      44:	00130113 	andseq	r0, r3, r3, lsl r1
      48:	00210800 	eoreq	r0, r1, r0, lsl #16
      4c:	0b2f1349 	bleq	bc4d78 <__bss_end__+0xbbab28>
      50:	2e090000 	cdpcs	0, 0, cr0, cr9, cr0, {0}
      54:	03193f01 	tsteq	r9, #1, 30
      58:	3b0b3a0e 	blcc	2ce898 <__bss_end__+0x2c4648>
      5c:	1119270b 	tstne	r9, fp, lsl #14
      60:	40061201 	andmi	r1, r6, r1, lsl #4
      64:	19429718 	stmdbne	r2, {r3, r4, r8, r9, sl, ip, pc}^
      68:	00001301 	andeq	r1, r0, r1, lsl #6
      6c:	0300340a 	movweq	r3, #1034	; 0x40a
      70:	3b0b3a0e 	blcc	2ce8b0 <__bss_end__+0x2c4660>
      74:	0213490b 	andseq	r4, r3, #180224	; 0x2c000
      78:	0b000017 	bleq	dc <_start-0x7f24>
      7c:	08030034 	stmdaeq	r3, {r2, r4, r5}
      80:	0b3b0b3a 	bleq	ec2d70 <__bss_end__+0xeb8b20>
      84:	17021349 	strne	r1, [r2, -r9, asr #6]
      88:	340c0000 	strcc	r0, [ip], #-0
      8c:	490e0300 	stmdbmi	lr, {r8, r9}
      90:	02193413 	andseq	r3, r9, #318767104	; 0x13000000
      94:	0d000018 	stceq	0, cr0, [r0, #-96]	; 0xffffffa0
      98:	0111010b 	tsteq	r1, fp, lsl #2
      9c:	13010612 	movwne	r0, #5650	; 0x1612
      a0:	0b0e0000 	bleq	3800a8 <__bss_end__+0x375e58>
      a4:	00175501 	andseq	r5, r7, r1, lsl #10
      a8:	82890f00 	addhi	r0, r9, #0, 30
      ac:	01110101 	tsteq	r1, r1, lsl #2
      b0:	00001331 	andeq	r1, r0, r1, lsr r3
      b4:	01828a10 	orreq	r8, r2, r0, lsl sl
      b8:	91180200 	tstls	r8, r0, lsl #4
      bc:	00001842 	andeq	r1, r0, r2, asr #16
      c0:	11010b11 	tstne	r1, r1, lsl fp
      c4:	00061201 	andeq	r1, r6, r1, lsl #4
      c8:	82891200 	addhi	r1, r9, #0, 4
      cc:	01110001 	tsteq	r1, r1
      d0:	00001331 	andeq	r1, r0, r1, lsr r3
      d4:	01828913 	orreq	r8, r2, r3, lsl r9
      d8:	31011101 	tstcc	r1, r1, lsl #2
      dc:	00130113 	andseq	r0, r3, r3, lsl r1
      e0:	012e1400 	teqeq	lr, r0, lsl #8
      e4:	0e03193f 	mcreq	9, 0, r1, cr3, cr15, {1}
      e8:	0b3b0b3a 	bleq	ec2dd8 <__bss_end__+0xeb8b88>
      ec:	13491927 	movtne	r1, #39207	; 0x9927
      f0:	1301193c 	movwne	r1, #6460	; 0x193c
      f4:	05150000 	ldreq	r0, [r5, #-0]
      f8:	00134900 	andseq	r4, r3, r0, lsl #18
      fc:	002e1600 	eoreq	r1, lr, r0, lsl #12
     100:	0e03193f 	mcreq	9, 0, r1, cr3, cr15, {1}
     104:	0b3b0b3a 	bleq	ec2df4 <__bss_end__+0xeb8ba4>
     108:	193c1927 	ldmdbne	ip!, {r0, r1, r2, r5, r8, fp, ip}
     10c:	18170000 	ldmdane	r7, {}	; <UNPREDICTABLE>
     110:	18000000 	stmdane	r0, {}	; <UNPREDICTABLE>
     114:	193f002e 	ldmdbne	pc!, {r1, r2, r3, r5}	; <UNPREDICTABLE>
     118:	0b3a0e03 	bleq	e8392c <__bss_end__+0xe796dc>
     11c:	19270b3b 	stmdbne	r7!, {r0, r1, r3, r4, r5, r8, r9, fp}
     120:	193c1349 	ldmdbne	ip!, {r0, r3, r6, r8, r9, ip}
     124:	01000000 	mrseq	r0, (UNDEF: 0)
     128:	0e250111 	mcreq	1, 1, r0, cr5, cr1, {0}
     12c:	0e030b13 	vmoveq.32	d3[0], r0
     130:	01110e1b 	tsteq	r1, fp, lsl lr
     134:	17100612 			; <UNDEFINED> instruction: 0x17100612
     138:	24020000 	strcs	r0, [r2], #-0
     13c:	3e0b0b00 	vmlacc.f64	d0, d11, d0
     140:	0008030b 	andeq	r0, r8, fp, lsl #6
     144:	00160300 	andseq	r0, r6, r0, lsl #6
     148:	0b3a0e03 	bleq	e8395c <__bss_end__+0xe7970c>
     14c:	13490b3b 	movtne	r0, #39739	; 0x9b3b
     150:	24040000 	strcs	r0, [r4], #-0
     154:	3e0b0b00 	vmlacc.f64	d0, d11, d0
     158:	000e030b 	andeq	r0, lr, fp, lsl #6
     15c:	000f0500 	andeq	r0, pc, r0, lsl #10
     160:	00000b0b 	andeq	r0, r0, fp, lsl #22
     164:	0b000f06 	bleq	3d84 <_start-0x427c>
     168:	0013490b 	andseq	r4, r3, fp, lsl #18
     16c:	00260700 	eoreq	r0, r6, r0, lsl #14
     170:	00001349 	andeq	r1, r0, r9, asr #6
     174:	49010108 	stmdbmi	r1, {r3, r8}
     178:	00130113 	andseq	r0, r3, r3, lsl r1
     17c:	00210900 	eoreq	r0, r1, r0, lsl #18
     180:	0b2f1349 	bleq	bc4eac <__bss_end__+0xbbac5c>
     184:	2e0a0000 	cdpcs	0, 0, cr0, cr10, cr0, {0}
     188:	03193f01 	tsteq	r9, #1, 30
     18c:	3b0b3a0e 	blcc	2ce9cc <__bss_end__+0x2c477c>
     190:	4919270b 	ldmdbmi	r9, {r0, r1, r3, r8, r9, sl, sp}
     194:	12011113 	andne	r1, r1, #-1073741820	; 0xc0000004
     198:	97184006 	ldrls	r4, [r8, -r6]
     19c:	13011942 	movwne	r1, #6466	; 0x1942
     1a0:	050b0000 	streq	r0, [fp, #-0]
     1a4:	3a0e0300 	bcc	380dac <__bss_end__+0x376b5c>
     1a8:	490b3b0b 	stmdbmi	fp, {r0, r1, r3, r8, r9, fp, ip, sp}
     1ac:	00170213 	andseq	r0, r7, r3, lsl r2
     1b0:	00340c00 	eorseq	r0, r4, r0, lsl #24
     1b4:	13490e03 	movtne	r0, #40451	; 0x9e03
     1b8:	18021934 	stmdane	r2, {r2, r4, r5, r8, fp, ip}
     1bc:	340d0000 	strcc	r0, [sp], #-0
     1c0:	3a0e0300 	bcc	380dc8 <__bss_end__+0x376b78>
     1c4:	490b3b0b 	stmdbmi	fp, {r0, r1, r3, r8, r9, fp, ip, sp}
     1c8:	00180213 	andseq	r0, r8, r3, lsl r2
     1cc:	00340e00 	eorseq	r0, r4, r0, lsl #28
     1d0:	0b3a0e03 	bleq	e839e4 <__bss_end__+0xe79794>
     1d4:	13490b3b 	movtne	r0, #39739	; 0x9b3b
     1d8:	00001702 	andeq	r1, r0, r2, lsl #14
     1dc:	0182890f 	orreq	r8, r2, pc, lsl #18
     1e0:	31011100 	mrscc	r1, (UNDEF: 17)
     1e4:	10000013 	andne	r0, r0, r3, lsl r0
     1e8:	01018289 	smlabbeq	r1, r9, r2, r8
     1ec:	13310111 	teqne	r1, #1073741828	; 0x40000004
     1f0:	00001301 	andeq	r1, r0, r1, lsl #6
     1f4:	01828a11 	orreq	r8, r2, r1, lsl sl
     1f8:	91180200 	tstls	r8, r0, lsl #4
     1fc:	00001842 	andeq	r1, r0, r2, asr #16
     200:	01828912 	orreq	r8, r2, r2, lsl r9
     204:	31011101 	tstcc	r1, r1, lsl #2
     208:	13000013 	movwne	r0, #19
     20c:	193f012e 	ldmdbne	pc!, {r1, r2, r3, r5, r8}	; <UNPREDICTABLE>
     210:	0b3a0e03 	bleq	e83a24 <__bss_end__+0xe797d4>
     214:	19270b3b 	stmdbne	r7!, {r0, r1, r3, r4, r5, r8, r9, fp}
     218:	06120111 			; <UNDEFINED> instruction: 0x06120111
     21c:	42971840 	addsmi	r1, r7, #64, 16	; 0x400000
     220:	00130119 	andseq	r0, r3, r9, lsl r1
     224:	002e1400 	eoreq	r1, lr, r0, lsl #8
     228:	0e03193f 	mcreq	9, 0, r1, cr3, cr15, {1}
     22c:	0b3b0b3a 	bleq	ec2f1c <__bss_end__+0xeb8ccc>
     230:	01111927 	tsteq	r1, r7, lsr #18
     234:	18400612 	stmdane	r0, {r1, r4, r9, sl}^
     238:	00194297 	mulseq	r9, r7, r2
     23c:	002e1500 	eoreq	r1, lr, r0, lsl #10
     240:	0e03193f 	mcreq	9, 0, r1, cr3, cr15, {1}
     244:	0b3b0b3a 	bleq	ec2f34 <__bss_end__+0xeb8ce4>
     248:	13491927 	movtne	r1, #39207	; 0x9927
     24c:	06120111 			; <UNDEFINED> instruction: 0x06120111
     250:	42971840 	addsmi	r1, r7, #64, 16	; 0x400000
     254:	16000019 			; <UNDEFINED> instruction: 0x16000019
     258:	0e030034 	mcreq	0, 0, r0, cr3, cr4, {1}
     25c:	0b3b0b3a 	bleq	ec2f4c <__bss_end__+0xeb8cfc>
     260:	193f1349 	ldmdbne	pc!, {r0, r3, r6, r8, r9, ip}	; <UNPREDICTABLE>
     264:	0000193c 	andeq	r1, r0, ip, lsr r9
     268:	3f002e17 	svccc	0x00002e17
     26c:	3a0e0319 	bcc	380ed8 <__bss_end__+0x376c88>
     270:	270b3b0b 	strcs	r3, [fp, -fp, lsl #22]
     274:	00193c19 	andseq	r3, r9, r9, lsl ip
     278:	012e1800 	teqeq	lr, r0, lsl #16
     27c:	0e03193f 	mcreq	9, 0, r1, cr3, cr15, {1}
     280:	0b3b0b3a 	bleq	ec2f70 <__bss_end__+0xeb8d20>
     284:	13491927 	movtne	r1, #39207	; 0x9927
     288:	1301193c 	movwne	r1, #6460	; 0x193c
     28c:	05190000 	ldreq	r0, [r9, #-0]
     290:	00134900 	andseq	r4, r3, r0, lsl #18
     294:	00181a00 	andseq	r1, r8, r0, lsl #20
     298:	2e1b0000 	cdpcs	0, 1, cr0, cr11, cr0, {0}
     29c:	03193f01 	tsteq	r9, #1, 30
     2a0:	3b0b3a0e 	blcc	2ceae0 <__bss_end__+0x2c4890>
     2a4:	4919270b 	ldmdbmi	r9, {r0, r1, r3, r8, r9, sl, sp}
     2a8:	00193c13 	andseq	r3, r9, r3, lsl ip
     2ac:	11010000 	mrsne	r0, (UNDEF: 1)
     2b0:	130e2501 	movwne	r2, #58625	; 0xe501
     2b4:	1b0e030b 	blne	380ee8 <__bss_end__+0x376c98>
     2b8:	1201110e 	andne	r1, r1, #-2147483645	; 0x80000003
     2bc:	00171006 	andseq	r1, r7, r6
     2c0:	00240200 	eoreq	r0, r4, r0, lsl #4
     2c4:	0b3e0b0b 	bleq	f82ef8 <__bss_end__+0xf78ca8>
     2c8:	00000e03 	andeq	r0, r0, r3, lsl #28
     2cc:	0b002403 	bleq	92e0 <gpio_set_output+0x24>
     2d0:	030b3e0b 	movweq	r3, #48651	; 0xbe0b
     2d4:	04000008 	streq	r0, [r0], #-8
     2d8:	0b0b000f 	bleq	2c031c <__bss_end__+0x2b60cc>
     2dc:	0f050000 	svceq	0x00050000
     2e0:	490b0b00 	stmdbmi	fp, {r8, r9, fp}
     2e4:	06000013 			; <UNDEFINED> instruction: 0x06000013
     2e8:	0e030016 	mcreq	0, 0, r0, cr3, cr6, {0}
     2ec:	0b3b0b3a 	bleq	ec2fdc <__bss_end__+0xeb8d8c>
     2f0:	00001349 	andeq	r1, r0, r9, asr #6
     2f4:	3f012e07 	svccc	0x00012e07
     2f8:	3a0e0319 	bcc	380f64 <__bss_end__+0x376d14>
     2fc:	270b3b0b 	strcs	r3, [fp, -fp, lsl #22]
     300:	11134919 	tstne	r3, r9, lsl r9
     304:	40061201 	andmi	r1, r6, r1, lsl #4
     308:	19429718 	stmdbne	r2, {r3, r4, r8, r9, sl, ip, pc}^
     30c:	05080000 	streq	r0, [r8, #-0]
     310:	3a080300 	bcc	200f18 <__bss_end__+0x1f6cc8>
     314:	490b3b0b 	stmdbmi	fp, {r0, r1, r3, r8, r9, fp, ip, sp}
     318:	00180213 	andseq	r0, r8, r3, lsl r2
     31c:	00050900 	andeq	r0, r5, r0, lsl #18
     320:	0b3a0803 	bleq	e82334 <__bss_end__+0xe780e4>
     324:	13490b3b 	movtne	r0, #39739	; 0x9b3b
     328:	00001702 	andeq	r1, r0, r2, lsl #14
     32c:	0300340a 	movweq	r3, #1034	; 0x40a
     330:	3b0b3a08 	blcc	2ceb58 <__bss_end__+0x2c4908>
     334:	0213490b 	andseq	r4, r3, #180224	; 0x2c000
     338:	0b000017 	bleq	39c <_start-0x7c64>
     33c:	08030034 	stmdaeq	r3, {r2, r4, r5}
     340:	0b3b0b3a 	bleq	ec3030 <__bss_end__+0xeb8de0>
     344:	18021349 	stmdane	r2, {r0, r3, r6, r8, r9, ip}
     348:	01000000 	mrseq	r0, (UNDEF: 0)
     34c:	0e250111 	mcreq	1, 1, r0, cr5, cr1, {0}
     350:	0e030b13 	vmoveq.32	d3[0], r0
     354:	01110e1b 	tsteq	r1, fp, lsl lr
     358:	17100612 			; <UNDEFINED> instruction: 0x17100612
     35c:	16020000 	strne	r0, [r2], -r0
     360:	3a0e0300 	bcc	380f68 <__bss_end__+0x376d18>
     364:	490b3b0b 	stmdbmi	fp, {r0, r1, r3, r8, r9, fp, ip, sp}
     368:	03000013 	movweq	r0, #19
     36c:	0e030113 	mcreq	1, 0, r0, cr3, cr3, {0}
     370:	0b3a0b0b 	bleq	e82fa4 <__bss_end__+0xe78d54>
     374:	13010b3b 	movwne	r0, #6971	; 0x1b3b
     378:	0d040000 	stceq	0, cr0, [r4, #-0]
     37c:	490e0300 	stmdbmi	lr, {r8, r9}
     380:	340b3813 	strcc	r3, [fp], #-2067	; 0x813
     384:	05000019 	streq	r0, [r0, #-25]
     388:	0b0b000f 	bleq	2c03cc <__bss_end__+0x2b617c>
     38c:	24060000 	strcs	r0, [r6], #-0
     390:	3e0b0b00 	vmlacc.f64	d0, d11, d0
     394:	0008030b 	andeq	r0, r8, fp, lsl #6
     398:	00240700 	eoreq	r0, r4, r0, lsl #14
     39c:	0b3e0b0b 	bleq	f82fd0 <__bss_end__+0xf78d80>
     3a0:	00000e03 	andeq	r0, r0, r3, lsl #28
     3a4:	0b000f08 	bleq	3fcc <_start-0x4034>
     3a8:	0013490b 	andseq	r4, r3, fp, lsl #18
     3ac:	00260900 	eoreq	r0, r6, r0, lsl #18
     3b0:	00001349 	andeq	r1, r0, r9, asr #6
     3b4:	3f012e0a 	svccc	0x00012e0a
     3b8:	3a0e0319 	bcc	381024 <__bss_end__+0x376dd4>
     3bc:	270b3b0b 	strcs	r3, [fp, -fp, lsl #22]
     3c0:	11134919 	tstne	r3, r9, lsl r9
     3c4:	40061201 	andmi	r1, r6, r1, lsl #4
     3c8:	19429718 	stmdbne	r2, {r3, r4, r8, r9, sl, ip, pc}^
     3cc:	00001301 	andeq	r1, r0, r1, lsl #6
     3d0:	0300050b 	movweq	r0, #1291	; 0x50b
     3d4:	3b0b3a08 	blcc	2cebfc <__bss_end__+0x2c49ac>
     3d8:	0213490b 	andseq	r4, r3, #180224	; 0x2c000
     3dc:	0c000018 	stceq	0, cr0, [r0], {24}
     3e0:	00000018 	andeq	r0, r0, r8, lsl r0
     3e4:	0300340d 	movweq	r3, #1037	; 0x40d
     3e8:	3b0b3a08 	blcc	2cec10 <__bss_end__+0x2c49c0>
     3ec:	0213490b 	andseq	r4, r3, #180224	; 0x2c000
     3f0:	0e000018 	mcreq	0, 0, r0, cr0, cr8, {0}
     3f4:	0e030034 	mcreq	0, 0, r0, cr3, cr4, {1}
     3f8:	0b3b0b3a 	bleq	ec30e8 <__bss_end__+0xeb8e98>
     3fc:	18021349 	stmdane	r2, {r0, r3, r6, r8, r9, ip}
     400:	340f0000 	strcc	r0, [pc], #-0	; 408 <_start-0x7bf8>
     404:	3a080300 	bcc	20100c <__bss_end__+0x1f6dbc>
     408:	490b3b0b 	stmdbmi	fp, {r0, r1, r3, r8, r9, fp, ip, sp}
     40c:	00170213 	andseq	r0, r7, r3, lsl r2
     410:	82891000 	addhi	r1, r9, #0
     414:	01110101 	tsteq	r1, r1, lsl #2
     418:	13011331 	movwne	r1, #4913	; 0x1331
     41c:	8a110000 	bhi	440424 <__bss_end__+0x4361d4>
     420:	02000182 	andeq	r0, r0, #-2147483616	; 0x80000020
     424:	18429118 	stmdane	r2, {r3, r4, r8, ip, pc}^
     428:	89120000 	ldmdbhi	r2, {}	; <UNPREDICTABLE>
     42c:	11010182 	smlabbne	r1, r2, r1, r0
     430:	13000001 	movwne	r0, #1
     434:	13490101 	movtne	r0, #37121	; 0x9101
     438:	00001301 	andeq	r1, r0, r1, lsl #6
     43c:	49002114 	stmdbmi	r0, {r2, r4, r8, sp}
     440:	00052f13 	andeq	r2, r5, r3, lsl pc
     444:	01151500 	tsteq	r5, r0, lsl #10
     448:	13491927 	movtne	r1, #39207	; 0x9927
     44c:	00001301 	andeq	r1, r0, r1, lsl #6
     450:	49000516 	stmdbmi	r0, {r1, r2, r4, r8, sl}
     454:	17000013 	smladne	r0, r3, r0, r0
     458:	0e030034 	mcreq	0, 0, r0, cr3, cr4, {1}
     45c:	0b3b0b3a 	bleq	ec314c <__bss_end__+0xeb8efc>
     460:	193f1349 	ldmdbne	pc!, {r0, r3, r6, r8, r9, ip}	; <UNPREDICTABLE>
     464:	0000193c 	andeq	r1, r0, ip, lsr r9
     468:	3f012e18 	svccc	0x00012e18
     46c:	3a0e0319 	bcc	3810d8 <__bss_end__+0x376e88>
     470:	270b3b0b 	strcs	r3, [fp, -fp, lsl #22]
     474:	3c134919 	ldccc	9, cr4, [r3], {25}
     478:	00000019 	andeq	r0, r0, r9, lsl r0
     47c:	25011101 	strcs	r1, [r1, #-257]	; 0x101
     480:	030b130e 	movweq	r1, #45838	; 0xb30e
     484:	110e1b0e 	tstne	lr, lr, lsl #22
     488:	10061201 	andne	r1, r6, r1, lsl #4
     48c:	02000017 	andeq	r0, r0, #23
     490:	0b0b0024 	bleq	2c0528 <__bss_end__+0x2b62d8>
     494:	08030b3e 	stmdaeq	r3, {r1, r2, r3, r4, r5, r8, r9, fp}
     498:	24030000 	strcs	r0, [r3], #-0
     49c:	3e0b0b00 	vmlacc.f64	d0, d11, d0
     4a0:	000e030b 	andeq	r0, lr, fp, lsl #6
     4a4:	012e0400 	teqeq	lr, r0, lsl #8
     4a8:	0b3a0e03 	bleq	e83cbc <__bss_end__+0xe79a6c>
     4ac:	19270b3b 	stmdbne	r7!, {r0, r1, r3, r4, r5, r8, r9, fp}
     4b0:	01111349 	tsteq	r1, r9, asr #6
     4b4:	18400612 	stmdane	r0, {r1, r4, r9, sl}^
     4b8:	01194297 			; <UNDEFINED> instruction: 0x01194297
     4bc:	05000013 	streq	r0, [r0, #-19]
     4c0:	08030005 	stmdaeq	r3, {r0, r2}
     4c4:	0b3b0b3a 	bleq	ec31b4 <__bss_end__+0xeb8f64>
     4c8:	17021349 	strne	r1, [r2, -r9, asr #6]
     4cc:	89060000 	stmdbhi	r6, {}	; <UNPREDICTABLE>
     4d0:	11010182 	smlabbne	r1, r2, r1, r0
     4d4:	00133101 	andseq	r3, r3, r1, lsl #2
     4d8:	828a0700 	addhi	r0, sl, #0, 14
     4dc:	18020001 	stmdane	r2, {r0}
     4e0:	00184291 	mulseq	r8, r1, r2
     4e4:	002e0800 	eoreq	r0, lr, r0, lsl #16
     4e8:	0e03193f 	mcreq	9, 0, r1, cr3, cr15, {1}
     4ec:	0b3b0b3a 	bleq	ec31dc <__bss_end__+0xeb8f8c>
     4f0:	01111927 	tsteq	r1, r7, lsr #18
     4f4:	18400612 	stmdane	r0, {r1, r4, r9, sl}^
     4f8:	00194297 	mulseq	r9, r7, r2
     4fc:	012e0900 	teqeq	lr, r0, lsl #18
     500:	0e03193f 	mcreq	9, 0, r1, cr3, cr15, {1}
     504:	0b3b0b3a 	bleq	ec31f4 <__bss_end__+0xeb8fa4>
     508:	01111927 	tsteq	r1, r7, lsr #18
     50c:	18400612 	stmdane	r0, {r1, r4, r9, sl}^
     510:	01194297 			; <UNDEFINED> instruction: 0x01194297
     514:	0a000013 	beq	568 <_start-0x7a98>
     518:	08030005 	stmdaeq	r3, {r0, r2}
     51c:	0b3b0b3a 	bleq	ec320c <__bss_end__+0xeb8fbc>
     520:	18021349 	stmdane	r2, {r0, r3, r6, r8, r9, ip}
     524:	150b0000 	strne	r0, [fp, #-0]
     528:	49192701 	ldmdbmi	r9, {r0, r8, r9, sl, sp}
     52c:	00130113 	andseq	r0, r3, r3, lsl r1
     530:	00050c00 	andeq	r0, r5, r0, lsl #24
     534:	00001349 	andeq	r1, r0, r9, asr #6
     538:	0b000f0d 	bleq	4174 <_start-0x3e8c>
     53c:	0013490b 	andseq	r4, r3, fp, lsl #18
     540:	00340e00 	eorseq	r0, r4, r0, lsl #28
     544:	0b3a0e03 	bleq	e83d58 <__bss_end__+0xe79b08>
     548:	13490b3b 	movtne	r0, #39739	; 0x9b3b
     54c:	1802193f 	stmdane	r2, {r0, r1, r2, r3, r4, r5, r8, fp, ip}
     550:	2e0f0000 	cdpcs	0, 0, cr0, cr15, cr0, {0}
     554:	03193f01 	tsteq	r9, #1, 30
     558:	3b0b3a0e 	blcc	2ced98 <__bss_end__+0x2c4b48>
     55c:	3c19270b 	ldccc	7, cr2, [r9], {11}
     560:	00000019 	andeq	r0, r0, r9, lsl r0
     564:	25011101 	strcs	r1, [r1, #-257]	; 0x101
     568:	030b130e 	movweq	r1, #45838	; 0xb30e
     56c:	110e1b0e 	tstne	lr, lr, lsl #22
     570:	10061201 	andne	r1, r6, r1, lsl #4
     574:	02000017 	andeq	r0, r0, #23
     578:	0b0b0024 	bleq	2c0610 <__bss_end__+0x2b63c0>
     57c:	08030b3e 	stmdaeq	r3, {r1, r2, r3, r4, r5, r8, r9, fp}
     580:	24030000 	strcs	r0, [r3], #-0
     584:	3e0b0b00 	vmlacc.f64	d0, d11, d0
     588:	000e030b 	andeq	r0, lr, fp, lsl #6
     58c:	000f0400 	andeq	r0, pc, r0, lsl #8
     590:	13490b0b 	movtne	r0, #39691	; 0x9b0b
     594:	26050000 	strcs	r0, [r5], -r0
     598:	00134900 	andseq	r4, r3, r0, lsl #18
     59c:	012e0600 	teqeq	lr, r0, lsl #12
     5a0:	0e03193f 	mcreq	9, 0, r1, cr3, cr15, {1}
     5a4:	0b3b0b3a 	bleq	ec3294 <__bss_end__+0xeb9044>
     5a8:	13491927 	movtne	r1, #39207	; 0x9927
     5ac:	06120111 			; <UNDEFINED> instruction: 0x06120111
     5b0:	42961840 	addsmi	r1, r6, #64, 16	; 0x400000
     5b4:	00130119 	andseq	r0, r3, r9, lsl r1
     5b8:	00050700 	andeq	r0, r5, r0, lsl #14
     5bc:	0b3a0803 	bleq	e825d0 <__bss_end__+0xe78380>
     5c0:	13490b3b 	movtne	r0, #39739	; 0x9b3b
     5c4:	00001702 	andeq	r1, r0, r2, lsl #14
     5c8:	27011508 	strcs	r1, [r1, -r8, lsl #10]
     5cc:	01134919 	tsteq	r3, r9, lsl r9
     5d0:	09000013 	stmdbeq	r0, {r0, r1, r4}
     5d4:	13490005 	movtne	r0, #36869	; 0x9005
     5d8:	340a0000 	strcc	r0, [sl], #-0
     5dc:	3a0e0300 	bcc	3811e4 <__bss_end__+0x376f94>
     5e0:	490b3b0b 	stmdbmi	fp, {r0, r1, r3, r8, r9, fp, ip, sp}
     5e4:	3c193f13 	ldccc	15, cr3, [r9], {19}
     5e8:	0b000019 	bleq	654 <_start-0x79ac>
     5ec:	0e030034 	mcreq	0, 0, r0, cr3, cr4, {1}
     5f0:	0b3b0b3a 	bleq	ec32e0 <__bss_end__+0xeb9090>
     5f4:	193f1349 	ldmdbne	pc!, {r0, r3, r6, r8, r9, ip}	; <UNPREDICTABLE>
     5f8:	00001802 	andeq	r1, r0, r2, lsl #16
     5fc:	01110100 	tsteq	r1, r0, lsl #2
     600:	0b130e25 	bleq	4c3e9c <__bss_end__+0x4b9c4c>
     604:	0e1b0e03 	cdpeq	14, 1, cr0, cr11, cr3, {0}
     608:	06120111 			; <UNDEFINED> instruction: 0x06120111
     60c:	00001710 	andeq	r1, r0, r0, lsl r7
     610:	0b002402 	bleq	9620 <is_gpio_int+0xc>
     614:	030b3e0b 	movweq	r3, #48651	; 0xbe0b
     618:	03000008 	movweq	r0, #8
     61c:	0b0b0024 	bleq	2c06b4 <__bss_end__+0x2b6464>
     620:	0e030b3e 	vmoveq.16	d3[0], r0
     624:	0f040000 	svceq	0x00040000
     628:	000b0b00 	andeq	r0, fp, r0, lsl #22
     62c:	000f0500 	andeq	r0, pc, r0, lsl #10
     630:	13490b0b 	movtne	r0, #39691	; 0x9b0b
     634:	26060000 	strcs	r0, [r6], -r0
     638:	00134900 	andseq	r4, r3, r0, lsl #18
     63c:	00160700 	andseq	r0, r6, r0, lsl #14
     640:	0b3a0e03 	bleq	e83e54 <__bss_end__+0xe79c04>
     644:	13490b3b 	movtne	r0, #39739	; 0x9b3b
     648:	13080000 	movwne	r0, #32768	; 0x8000
     64c:	0b0e0301 	bleq	381258 <__bss_end__+0x377008>
     650:	3b0b3a0b 	blcc	2cee84 <__bss_end__+0x2c4c34>
     654:	0013010b 	andseq	r0, r3, fp, lsl #2
     658:	000d0900 	andeq	r0, sp, r0, lsl #18
     65c:	13490e03 	movtne	r0, #40451	; 0x9e03
     660:	19340b38 	ldmdbne	r4!, {r3, r4, r5, r8, r9, fp}
     664:	2e0a0000 	cdpcs	0, 0, cr0, cr10, cr0, {0}
     668:	3a0e0301 	bcc	381274 <__bss_end__+0x377024>
     66c:	270b3b0b 	strcs	r3, [fp, -fp, lsl #22]
     670:	11134919 	tstne	r3, r9, lsl r9
     674:	40061201 	andmi	r1, r6, r1, lsl #4
     678:	19429718 	stmdbne	r2, {r3, r4, r8, r9, sl, ip, pc}^
     67c:	00001301 	andeq	r1, r0, r1, lsl #6
     680:	0300050b 	movweq	r0, #1291	; 0x50b
     684:	3b0b3a08 	blcc	2ceeac <__bss_end__+0x2c4c5c>
     688:	0213490b 	andseq	r4, r3, #180224	; 0x2c000
     68c:	0c000017 	stceq	0, cr0, [r0], {23}
     690:	0803012e 	stmdaeq	r3, {r1, r2, r3, r5, r8}
     694:	0b3b0b3a 	bleq	ec3384 <__bss_end__+0xeb9134>
     698:	13491927 	movtne	r1, #39207	; 0x9927
     69c:	06120111 			; <UNDEFINED> instruction: 0x06120111
     6a0:	42971840 	addsmi	r1, r7, #64, 16	; 0x400000
     6a4:	00130119 	andseq	r0, r3, r9, lsl r1
     6a8:	00050d00 	andeq	r0, r5, r0, lsl #26
     6ac:	0b3a0e03 	bleq	e83ec0 <__bss_end__+0xe79c70>
     6b0:	13490b3b 	movtne	r0, #39739	; 0x9b3b
     6b4:	00001702 	andeq	r1, r0, r2, lsl #14
     6b8:	0300050e 	movweq	r0, #1294	; 0x50e
     6bc:	3b0b3a0e 	blcc	2ceefc <__bss_end__+0x2c4cac>
     6c0:	0213490b 	andseq	r4, r3, #180224	; 0x2c000
     6c4:	0f000018 	svceq	0x00000018
     6c8:	08030034 	stmdaeq	r3, {r2, r4, r5}
     6cc:	0b3b0b3a 	bleq	ec33bc <__bss_end__+0xeb916c>
     6d0:	18021349 	stmdane	r2, {r0, r3, r6, r8, r9, ip}
     6d4:	34100000 	ldrcc	r0, [r0], #-0
     6d8:	3a080300 	bcc	2012e0 <__bss_end__+0x1f7090>
     6dc:	490b3b0b 	stmdbmi	fp, {r0, r1, r3, r8, r9, fp, ip, sp}
     6e0:	00170213 	andseq	r0, r7, r3, lsl r2
     6e4:	00341100 	eorseq	r1, r4, r0, lsl #2
     6e8:	13490e03 	movtne	r0, #40451	; 0x9e03
     6ec:	18021934 	stmdane	r2, {r2, r4, r5, r8, fp, ip}
     6f0:	0b120000 	bleq	4806f8 <__bss_end__+0x4764a8>
     6f4:	12011101 	andne	r1, r1, #1073741824	; 0x40000000
     6f8:	00130106 	andseq	r0, r3, r6, lsl #2
     6fc:	00341300 	eorseq	r1, r4, r0, lsl #6
     700:	0b3a0e03 	bleq	e83f14 <__bss_end__+0xe79cc4>
     704:	13490b3b 	movtne	r0, #39739	; 0x9b3b
     708:	00001702 	andeq	r1, r0, r2, lsl #14
     70c:	01828914 	orreq	r8, r2, r4, lsl r9
     710:	31011100 	mrscc	r1, (UNDEF: 17)
     714:	15000013 	strne	r0, [r0, #-19]
     718:	01018289 	smlabbeq	r1, r9, r2, r8
     71c:	13310111 	teqne	r1, #1073741828	; 0x40000004
     720:	00001301 	andeq	r1, r0, r1, lsl #6
     724:	01828a16 	orreq	r8, r2, r6, lsl sl
     728:	91180200 	tstls	r8, r0, lsl #4
     72c:	00001842 	andeq	r1, r0, r2, asr #16
     730:	01828917 	orreq	r8, r2, r7, lsl r9
     734:	31011101 	tstcc	r1, r1, lsl #2
     738:	18000013 	stmdane	r0, {r0, r1, r4}
     73c:	13490101 	movtne	r0, #37121	; 0x9101
     740:	00001301 	andeq	r1, r0, r1, lsl #6
     744:	49002119 	stmdbmi	r0, {r0, r3, r4, r8, sp}
     748:	000b2f13 	andeq	r2, fp, r3, lsl pc
     74c:	012e1a00 	teqeq	lr, r0, lsl #20
     750:	0e03193f 	mcreq	9, 0, r1, cr3, cr15, {1}
     754:	0b3b0b3a 	bleq	ec3444 <__bss_end__+0xeb91f4>
     758:	01111927 	tsteq	r1, r7, lsr #18
     75c:	18400612 	stmdane	r0, {r1, r4, r9, sl}^
     760:	01194297 			; <UNDEFINED> instruction: 0x01194297
     764:	1b000013 	blne	7b8 <_start-0x7848>
     768:	19270115 	stmdbne	r7!, {r0, r2, r4, r8}
     76c:	13011349 	movwne	r1, #4937	; 0x1349
     770:	051c0000 	ldreq	r0, [ip, #-0]
     774:	00134900 	andseq	r4, r3, r0, lsl #18
     778:	012e1d00 	teqeq	lr, r0, lsl #26
     77c:	0e03193f 	mcreq	9, 0, r1, cr3, cr15, {1}
     780:	0b3b0b3a 	bleq	ec3470 <__bss_end__+0xeb9220>
     784:	13491927 	movtne	r1, #39207	; 0x9927
     788:	06120111 			; <UNDEFINED> instruction: 0x06120111
     78c:	42971840 	addsmi	r1, r7, #64, 16	; 0x400000
     790:	00130119 	andseq	r0, r3, r9, lsl r1
     794:	010b1e00 	tsteq	fp, r0, lsl #28
     798:	00001755 	andeq	r1, r0, r5, asr r7
     79c:	0300341f 	movweq	r3, #1055	; 0x41f
     7a0:	3b0b3a0e 	blcc	2cefe0 <__bss_end__+0x2c4d90>
     7a4:	3f13490b 	svccc	0x0013490b
     7a8:	00193c19 	andseq	r3, r9, r9, lsl ip
     7ac:	002e2000 	eoreq	r2, lr, r0
     7b0:	0e03193f 	mcreq	9, 0, r1, cr3, cr15, {1}
     7b4:	0b3b0b3a 	bleq	ec34a4 <__bss_end__+0xeb9254>
     7b8:	193c1927 	ldmdbne	ip!, {r0, r1, r2, r5, r8, fp, ip}
     7bc:	2e210000 	cdpcs	0, 2, cr0, cr1, cr0, {0}
     7c0:	03193f01 	tsteq	r9, #1, 30
     7c4:	3b0b3a0e 	blcc	2cf004 <__bss_end__+0x2c4db4>
     7c8:	4919270b 	ldmdbmi	r9, {r0, r1, r3, r8, r9, sl, sp}
     7cc:	01193c13 	tsteq	r9, r3, lsl ip
     7d0:	22000013 	andcs	r0, r0, #19
     7d4:	00000018 	andeq	r0, r0, r8, lsl r0
     7d8:	01110100 	tsteq	r1, r0, lsl #2
     7dc:	0b130e25 	bleq	4c4078 <__bss_end__+0x4b9e28>
     7e0:	0e1b0e03 	cdpeq	14, 1, cr0, cr11, cr3, {0}
     7e4:	06120111 			; <UNDEFINED> instruction: 0x06120111
     7e8:	00001710 	andeq	r1, r0, r0, lsl r7
     7ec:	0b002402 	bleq	97fc <gpio_event_clear+0x30>
     7f0:	030b3e0b 	movweq	r3, #48651	; 0xbe0b
     7f4:	03000008 	movweq	r0, #8
     7f8:	0b0b0024 	bleq	2c0890 <__bss_end__+0x2b6640>
     7fc:	0e030b3e 	vmoveq.16	d3[0], r0
     800:	0f040000 	svceq	0x00040000
     804:	490b0b00 	stmdbmi	fp, {r8, r9, fp}
     808:	05000013 	streq	r0, [r0, #-19]
     80c:	13490026 	movtne	r0, #36902	; 0x9026
     810:	2e060000 	cdpcs	0, 0, cr0, cr6, cr0, {0}
     814:	03193f01 	tsteq	r9, #1, 30
     818:	3b0b3a0e 	blcc	2cf058 <__bss_end__+0x2c4e08>
     81c:	1119270b 	tstne	r9, fp, lsl #14
     820:	40061201 	andmi	r1, r6, r1, lsl #4
     824:	19429718 	stmdbne	r2, {r3, r4, r8, r9, sl, ip, pc}^
     828:	00001301 	andeq	r1, r0, r1, lsl #6
     82c:	01828907 	orreq	r8, r2, r7, lsl #18
     830:	01011101 	tsteq	r1, r1, lsl #2
     834:	08000013 	stmdaeq	r0, {r0, r1, r4}
     838:	0001828a 	andeq	r8, r1, sl, lsl #5
     83c:	42911802 	addsmi	r1, r1, #131072	; 0x20000
     840:	09000018 	stmdbeq	r0, {r3, r4}
     844:	01018289 	smlabbeq	r1, r9, r2, r8
     848:	13310111 	teqne	r1, #1073741828	; 0x40000004
     84c:	00001301 	andeq	r1, r0, r1, lsl #6
     850:	0182890a 	orreq	r8, r2, sl, lsl #18
     854:	31011100 	mrscc	r1, (UNDEF: 17)
     858:	0b000013 	bleq	8ac <_start-0x7754>
     85c:	19270115 	stmdbne	r7!, {r0, r2, r4, r8}
     860:	13011349 	movwne	r1, #4937	; 0x1349
     864:	050c0000 	streq	r0, [ip, #-0]
     868:	00134900 	andseq	r4, r3, r0, lsl #18
     86c:	00340d00 	eorseq	r0, r4, r0, lsl #26
     870:	0b3a0e03 	bleq	e84084 <__bss_end__+0xe79e34>
     874:	13490b3b 	movtne	r0, #39739	; 0x9b3b
     878:	193c193f 	ldmdbne	ip!, {r0, r1, r2, r3, r4, r5, r8, fp, ip}
     87c:	2e0e0000 	cdpcs	0, 0, cr0, cr14, cr0, {0}
     880:	03193f01 	tsteq	r9, #1, 30
     884:	3b0b3a0e 	blcc	2cf0c4 <__bss_end__+0x2c4e74>
     888:	3c19270b 	ldccc	7, cr2, [r9], {11}
     88c:	00130119 	andseq	r0, r3, r9, lsl r1
     890:	002e0f00 	eoreq	r0, lr, r0, lsl #30
     894:	0e03193f 	mcreq	9, 0, r1, cr3, cr15, {1}
     898:	0b3b0b3a 	bleq	ec3588 <__bss_end__+0xeb9338>
     89c:	193c1927 	ldmdbne	ip!, {r0, r1, r2, r5, r8, fp, ip}
     8a0:	01000000 	mrseq	r0, (UNDEF: 0)
     8a4:	0e250111 	mcreq	1, 1, r0, cr5, cr1, {0}
     8a8:	0e030b13 	vmoveq.32	d3[0], r0
     8ac:	01110e1b 	tsteq	r1, fp, lsl lr
     8b0:	17100612 			; <UNDEFINED> instruction: 0x17100612
     8b4:	24020000 	strcs	r0, [r2], #-0
     8b8:	3e0b0b00 	vmlacc.f64	d0, d11, d0
     8bc:	0008030b 	andeq	r0, r8, fp, lsl #6
     8c0:	00240300 	eoreq	r0, r4, r0, lsl #6
     8c4:	0b3e0b0b 	bleq	f834f8 <__bss_end__+0xf792a8>
     8c8:	00000e03 	andeq	r0, r0, r3, lsl #28
     8cc:	03001604 	movweq	r1, #1540	; 0x604
     8d0:	3b0b3a0e 	blcc	2cf110 <__bss_end__+0x2c4ec0>
     8d4:	0013490b 	andseq	r4, r3, fp, lsl #18
     8d8:	000f0500 	andeq	r0, pc, r0, lsl #10
     8dc:	13490b0b 	movtne	r0, #39691	; 0x9b0b
     8e0:	26060000 	strcs	r0, [r6], -r0
     8e4:	00134900 	andseq	r4, r3, r0, lsl #18
     8e8:	01130700 	tsteq	r3, r0, lsl #14
     8ec:	0b3a0b0b 	bleq	e83520 <__bss_end__+0xe792d0>
     8f0:	13010b3b 	movwne	r0, #6971	; 0x1b3b
     8f4:	0d080000 	stceq	0, cr0, [r8, #-0]
     8f8:	3a080300 	bcc	201500 <__bss_end__+0x1f72b0>
     8fc:	490b3b0b 	stmdbmi	fp, {r0, r1, r3, r8, r9, fp, ip, sp}
     900:	000b3813 	andeq	r3, fp, r3, lsl r8
     904:	000d0900 	andeq	r0, sp, r0, lsl #18
     908:	0b3a0e03 	bleq	e8411c <__bss_end__+0xe79ecc>
     90c:	13490b3b 	movtne	r0, #39739	; 0x9b3b
     910:	00000b38 	andeq	r0, r0, r8, lsr fp
     914:	0b01040a 	bleq	41944 <__bss_end__+0x376f4>
     918:	3b0b3a0b 	blcc	2cf14c <__bss_end__+0x2c4efc>
     91c:	0013010b 	andseq	r0, r3, fp, lsl #2
     920:	00280b00 	eoreq	r0, r8, r0, lsl #22
     924:	0d1c0e03 	ldceq	14, cr0, [ip, #-12]
     928:	2e0c0000 	cdpcs	0, 0, cr0, cr12, cr0, {0}
     92c:	3a0e0301 	bcc	381538 <__bss_end__+0x3772e8>
     930:	270b3b0b 	strcs	r3, [fp, -fp, lsl #22]
     934:	11134919 	tstne	r3, r9, lsl r9
     938:	40061201 	andmi	r1, r6, r1, lsl #4
     93c:	19429718 	stmdbne	r2, {r3, r4, r8, r9, sl, ip, pc}^
     940:	00001301 	andeq	r1, r0, r1, lsl #6
     944:	0300050d 	movweq	r0, #1293	; 0x50d
     948:	3b0b3a08 	blcc	2cf170 <__bss_end__+0x2c4f20>
     94c:	0213490b 	andseq	r4, r3, #180224	; 0x2c000
     950:	0e000017 	mcreq	0, 0, r0, cr0, cr7, {0}
     954:	01018289 	smlabbeq	r1, r9, r2, r8
     958:	13310111 	teqne	r1, #1073741828	; 0x40000004
     95c:	8a0f0000 	bhi	3c0964 <__bss_end__+0x3b6714>
     960:	02000182 	andeq	r0, r0, #-2147483616	; 0x80000020
     964:	18429118 	stmdane	r2, {r3, r4, r8, ip, pc}^
     968:	2e100000 	cdpcs	0, 1, cr0, cr0, cr0, {0}
     96c:	03193f01 	tsteq	r9, #1, 30
     970:	3b0b3a0e 	blcc	2cf1b0 <__bss_end__+0x2c4f60>
     974:	1201110b 	andne	r1, r1, #-1073741822	; 0xc0000002
     978:	97184006 	ldrls	r4, [r8, -r6]
     97c:	13011942 	movwne	r1, #6466	; 0x1942
     980:	34110000 	ldrcc	r0, [r1], #-0
     984:	3a0e0300 	bcc	38158c <__bss_end__+0x37733c>
     988:	490b3b0b 	stmdbmi	fp, {r0, r1, r3, r8, r9, fp, ip, sp}
     98c:	3c193f13 	ldccc	15, cr3, [r9], {19}
     990:	12000019 	andne	r0, r0, #25
     994:	193f002e 	ldmdbne	pc!, {r1, r2, r3, r5}	; <UNPREDICTABLE>
     998:	0b3a0e03 	bleq	e841ac <__bss_end__+0xe79f5c>
     99c:	19270b3b 	stmdbne	r7!, {r0, r1, r3, r4, r5, r8, r9, fp}
     9a0:	0000193c 	andeq	r1, r0, ip, lsr r9
     9a4:	03003413 	movweq	r3, #1043	; 0x413
     9a8:	3b0b3a08 	blcc	2cf1d0 <__bss_end__+0x2c4f80>
     9ac:	0213490b 	andseq	r4, r3, #180224	; 0x2c000
     9b0:	14000017 	strne	r0, [r0], #-23
     9b4:	0e030034 	mcreq	0, 0, r0, cr3, cr4, {1}
     9b8:	0b3b0b3a 	bleq	ec36a8 <__bss_end__+0xeb9458>
     9bc:	00001349 	andeq	r1, r0, r9, asr #6
     9c0:	01828915 	orreq	r8, r2, r5, lsl r9
     9c4:	31011100 	mrscc	r1, (UNDEF: 17)
     9c8:	16000013 			; <UNDEFINED> instruction: 0x16000013
     9cc:	01018289 	smlabbeq	r1, r9, r2, r8
     9d0:	13310111 	teqne	r1, #1073741828	; 0x40000004
     9d4:	00001301 	andeq	r1, r0, r1, lsl #6
     9d8:	03003417 	movweq	r3, #1047	; 0x417
     9dc:	3b0b3a0e 	blcc	2cf21c <__bss_end__+0x2c4fcc>
     9e0:	0213490b 	andseq	r4, r3, #180224	; 0x2c000
     9e4:	18000018 	stmdane	r0, {r3, r4}
     9e8:	19270115 	stmdbne	r7!, {r0, r2, r4, r8}
     9ec:	13011349 	movwne	r1, #4937	; 0x1349
     9f0:	05190000 	ldreq	r0, [r9, #-0]
     9f4:	00134900 	andseq	r4, r3, r0, lsl #18
     9f8:	012e1a00 	teqeq	lr, r0, lsl #20
     9fc:	0e03193f 	mcreq	9, 0, r1, cr3, cr15, {1}
     a00:	0b3b0b3a 	bleq	ec36f0 <__bss_end__+0xeb94a0>
     a04:	193c1927 	ldmdbne	ip!, {r0, r1, r2, r5, r8, fp, ip}
     a08:	00001301 	andeq	r1, r0, r1, lsl #6
     a0c:	3f002e1b 	svccc	0x00002e1b
     a10:	3a0e0319 	bcc	38167c <__bss_end__+0x37742c>
     a14:	270b3b0b 	strcs	r3, [fp, -fp, lsl #22]
     a18:	3c134919 	ldccc	9, cr4, [r3], {25}
     a1c:	1c000019 	stcne	0, cr0, [r0], {25}
     a20:	193f012e 	ldmdbne	pc!, {r1, r2, r3, r5, r8}	; <UNPREDICTABLE>
     a24:	0b3a0e03 	bleq	e84238 <__bss_end__+0xe79fe8>
     a28:	19270b3b 	stmdbne	r7!, {r0, r1, r3, r4, r5, r8, r9, fp}
     a2c:	193c1349 	ldmdbne	ip!, {r0, r3, r6, r8, r9, ip}
     a30:	00001301 	andeq	r1, r0, r1, lsl #6
     a34:	0000181d 	andeq	r1, r0, sp, lsl r8
     a38:	11010000 	mrsne	r0, (UNDEF: 1)
     a3c:	130e2501 	movwne	r2, #58625	; 0xe501
     a40:	1b0e030b 	blne	381674 <__bss_end__+0x377424>
     a44:	1117550e 	tstne	r7, lr, lsl #10
     a48:	00171001 	andseq	r1, r7, r1
     a4c:	00240200 	eoreq	r0, r4, r0, lsl #4
     a50:	0b3e0b0b 	bleq	f83684 <__bss_end__+0xf79434>
     a54:	00000803 	andeq	r0, r0, r3, lsl #16
     a58:	0b002403 	bleq	9a6c <__FUNCTION__.4182+0x15c>
     a5c:	030b3e0b 	movweq	r3, #48651	; 0xbe0b
     a60:	0400000e 	streq	r0, [r0], #-14
     a64:	193f012e 	ldmdbne	pc!, {r1, r2, r3, r5, r8}	; <UNPREDICTABLE>
     a68:	0b3a0e03 	bleq	e8427c <__bss_end__+0xe7a02c>
     a6c:	19270b3b 	stmdbne	r7!, {r0, r1, r3, r4, r5, r8, r9, fp}
     a70:	01111349 	tsteq	r1, r9, asr #6
     a74:	18400612 	stmdane	r0, {r1, r4, r9, sl}^
     a78:	01194297 			; <UNDEFINED> instruction: 0x01194297
     a7c:	05000013 	streq	r0, [r0, #-19]
     a80:	0e030034 	mcreq	0, 0, r0, cr3, cr4, {1}
     a84:	0b3b0b3a 	bleq	ec3774 <__bss_end__+0xeb9524>
     a88:	17021349 	strne	r1, [r2, -r9, asr #6]
     a8c:	2e060000 	cdpcs	0, 0, cr0, cr6, cr0, {0}
     a90:	03193f01 	tsteq	r9, #1, 30
     a94:	3b0b3a0e 	blcc	2cf2d4 <__bss_end__+0x2c5084>
     a98:	1119270b 	tstne	r9, fp, lsl #14
     a9c:	40061201 	andmi	r1, r6, r1, lsl #4
     aa0:	19429718 	stmdbne	r2, {r3, r4, r8, r9, sl, ip, pc}^
     aa4:	00001301 	andeq	r1, r0, r1, lsl #6
     aa8:	03003407 	movweq	r3, #1031	; 0x407
     aac:	3b0b3a0e 	blcc	2cf2ec <__bss_end__+0x2c509c>
     ab0:	1c13490b 	ldcne	9, cr4, [r3], {11}
     ab4:	08000006 	stmdaeq	r0, {r1, r2}
     ab8:	0e030034 	mcreq	0, 0, r0, cr3, cr4, {1}
     abc:	0b3b0b3a 	bleq	ec37ac <__bss_end__+0xeb955c>
     ac0:	0b1c1349 	bleq	7057ec <__bss_end__+0x6fb59c>
     ac4:	89090000 	stmdbhi	r9, {}	; <UNPREDICTABLE>
     ac8:	11000182 	smlabbne	r0, r2, r1, r0
     acc:	00133101 	andseq	r3, r3, r1, lsl #2
     ad0:	82890a00 	addhi	r0, r9, #0, 20
     ad4:	01110101 	tsteq	r1, r1, lsl #2
     ad8:	13011331 	movwne	r1, #4913	; 0x1331
     adc:	8a0b0000 	bhi	2c0ae4 <__bss_end__+0x2b6894>
     ae0:	02000182 	andeq	r0, r0, #-2147483616	; 0x80000020
     ae4:	18429118 	stmdane	r2, {r3, r4, r8, ip, pc}^
     ae8:	890c0000 	stmdbhi	ip, {}	; <UNPREDICTABLE>
     aec:	11010182 	smlabbne	r1, r2, r1, r0
     af0:	00133101 	andseq	r3, r3, r1, lsl #2
     af4:	00260d00 	eoreq	r0, r6, r0, lsl #26
     af8:	00001349 	andeq	r1, r0, r9, asr #6
     afc:	3f012e0e 	svccc	0x00012e0e
     b00:	3a0e0319 	bcc	38176c <__bss_end__+0x37751c>
     b04:	270b3b0b 	strcs	r3, [fp, -fp, lsl #22]
     b08:	01193c19 	tsteq	r9, r9, lsl ip
     b0c:	0f000013 	svceq	0x00000013
     b10:	13490005 	movtne	r0, #36869	; 0x9005
     b14:	2e100000 	cdpcs	0, 1, cr0, cr0, cr0, {0}
     b18:	03193f01 	tsteq	r9, #1, 30
     b1c:	3b0b3a0e 	blcc	2cf35c <__bss_end__+0x2c510c>
     b20:	3c19270b 	ldccc	7, cr2, [r9], {11}
     b24:	00000019 	andeq	r0, r0, r9, lsl r0
     b28:	25011101 	strcs	r1, [r1, #-257]	; 0x101
     b2c:	030b130e 	movweq	r1, #45838	; 0xb30e
     b30:	110e1b0e 	tstne	lr, lr, lsl #22
     b34:	10061201 	andne	r1, r6, r1, lsl #4
     b38:	02000017 	andeq	r0, r0, #23
     b3c:	0b0b0024 	bleq	2c0bd4 <__bss_end__+0x2b6984>
     b40:	08030b3e 	stmdaeq	r3, {r1, r2, r3, r4, r5, r8, r9, fp}
     b44:	24030000 	strcs	r0, [r3], #-0
     b48:	3e0b0b00 	vmlacc.f64	d0, d11, d0
     b4c:	000e030b 	andeq	r0, lr, fp, lsl #6
     b50:	012e0400 	teqeq	lr, r0, lsl #8
     b54:	0e03193f 	mcreq	9, 0, r1, cr3, cr15, {1}
     b58:	0b3b0b3a 	bleq	ec3848 <__bss_end__+0xeb95f8>
     b5c:	01111927 	tsteq	r1, r7, lsr #18
     b60:	18400612 	stmdane	r0, {r1, r4, r9, sl}^
     b64:	01194297 			; <UNDEFINED> instruction: 0x01194297
     b68:	05000013 	streq	r0, [r0, #-19]
     b6c:	0e030005 	cdpeq	0, 0, cr0, cr3, cr5, {0}
     b70:	0b3b0b3a 	bleq	ec3860 <__bss_end__+0xeb9610>
     b74:	17021349 	strne	r1, [r2, -r9, asr #6]
     b78:	2e060000 	cdpcs	0, 0, cr0, cr6, cr0, {0}
     b7c:	03193f01 	tsteq	r9, #1, 30
     b80:	3b0b3a0e 	blcc	2cf3c0 <__bss_end__+0x2c5170>
     b84:	4919270b 	ldmdbmi	r9, {r0, r1, r3, r8, r9, sl, sp}
     b88:	12011113 	andne	r1, r1, #-1073741820	; 0xc0000004
     b8c:	97184006 	ldrls	r4, [r8, -r6]
     b90:	13011942 	movwne	r1, #6466	; 0x1942
     b94:	89070000 	stmdbhi	r7, {}	; <UNPREDICTABLE>
     b98:	11010182 	smlabbne	r1, r2, r1, r0
     b9c:	00133101 	andseq	r3, r3, r1, lsl #2
     ba0:	828a0800 	addhi	r0, sl, #0, 16
     ba4:	18020001 	stmdane	r2, {r0}
     ba8:	00184291 	mulseq	r8, r1, r2
     bac:	00340900 	eorseq	r0, r4, r0, lsl #18
     bb0:	0b3a0803 	bleq	e82bc4 <__bss_end__+0xe78974>
     bb4:	13490b3b 	movtne	r0, #39739	; 0x9b3b
     bb8:	00001802 	andeq	r1, r0, r2, lsl #16
     bbc:	0182890a 	orreq	r8, r2, sl, lsl #18
     bc0:	31011100 	mrscc	r1, (UNDEF: 17)
     bc4:	0b000013 	bleq	c18 <_start-0x73e8>
     bc8:	08030005 	stmdaeq	r3, {r0, r2}
     bcc:	0b3b0b3a 	bleq	ec38bc <__bss_end__+0xeb966c>
     bd0:	17021349 	strne	r1, [r2, -r9, asr #6]
     bd4:	0b0c0000 	bleq	300bdc <__bss_end__+0x2f698c>
     bd8:	12011101 	andne	r1, r1, #1073741824	; 0x40000000
     bdc:	00130106 	andseq	r0, r3, r6, lsl #2
     be0:	00340d00 	eorseq	r0, r4, r0, lsl #26
     be4:	0b3a0803 	bleq	e82bf8 <__bss_end__+0xe789a8>
     be8:	13490b3b 	movtne	r0, #39739	; 0x9b3b
     bec:	00001702 	andeq	r1, r0, r2, lsl #14
     bf0:	3f012e0e 	svccc	0x00012e0e
     bf4:	3a0e0319 	bcc	381860 <__bss_end__+0x377610>
     bf8:	270b3b0b 	strcs	r3, [fp, -fp, lsl #22]
     bfc:	3c134919 	ldccc	9, cr4, [r3], {25}
     c00:	0f000019 	svceq	0x00000019
     c04:	13490005 	movtne	r0, #36869	; 0x9005
     c08:	01000000 	mrseq	r0, (UNDEF: 0)
     c0c:	0e250111 	mcreq	1, 1, r0, cr5, cr1, {0}
     c10:	0e030b13 	vmoveq.32	d3[0], r0
     c14:	01110e1b 	tsteq	r1, fp, lsl lr
     c18:	17100612 			; <UNDEFINED> instruction: 0x17100612
     c1c:	24020000 	strcs	r0, [r2], #-0
     c20:	3e0b0b00 	vmlacc.f64	d0, d11, d0
     c24:	0008030b 	andeq	r0, r8, fp, lsl #6
     c28:	00240300 	eoreq	r0, r4, r0, lsl #6
     c2c:	0b3e0b0b 	bleq	f83860 <__bss_end__+0xf79610>
     c30:	00000e03 	andeq	r0, r0, r3, lsl #28
     c34:	03001604 	movweq	r1, #1540	; 0x604
     c38:	3b0b3a0e 	blcc	2cf478 <__bss_end__+0x2c5228>
     c3c:	0013490b 	andseq	r4, r3, fp, lsl #18
     c40:	000f0500 	andeq	r0, pc, r0, lsl #10
     c44:	00000b0b 	andeq	r0, r0, fp, lsl #22
     c48:	0b000f06 	bleq	4868 <_start-0x3798>
     c4c:	0013490b 	andseq	r4, r3, fp, lsl #18
     c50:	00260700 	eoreq	r0, r6, r0, lsl #14
     c54:	00001349 	andeq	r1, r0, r9, asr #6
     c58:	0b011308 	bleq	45880 <__bss_end__+0x3b630>
     c5c:	3b0b3a0b 	blcc	2cf490 <__bss_end__+0x2c5240>
     c60:	0013010b 	andseq	r0, r3, fp, lsl #2
     c64:	000d0900 	andeq	r0, sp, r0, lsl #18
     c68:	0b3a0803 	bleq	e82c7c <__bss_end__+0xe78a2c>
     c6c:	13490b3b 	movtne	r0, #39739	; 0x9b3b
     c70:	00000b38 	andeq	r0, r0, r8, lsr fp
     c74:	03000d0a 	movweq	r0, #3338	; 0xd0a
     c78:	3b0b3a0e 	blcc	2cf4b8 <__bss_end__+0x2c5268>
     c7c:	3813490b 	ldmdacc	r3, {r0, r1, r3, r8, fp, lr}
     c80:	0b00000b 	bleq	cb4 <_start-0x734c>
     c84:	0e030113 	mcreq	1, 0, r0, cr3, cr3, {0}
     c88:	0b3a0b0b 	bleq	e838bc <__bss_end__+0xe7966c>
     c8c:	13010b3b 	movwne	r0, #6971	; 0x1b3b
     c90:	0d0c0000 	stceq	0, cr0, [ip, #-0]
     c94:	490e0300 	stmdbmi	lr, {r8, r9}
     c98:	340b3813 	strcc	r3, [fp], #-2067	; 0x813
     c9c:	0d000019 	stceq	0, cr0, [r0, #-100]	; 0xffffff9c
     ca0:	0e03012e 	adfeqsp	f0, f3, #0.5
     ca4:	0b3b0b3a 	bleq	ec3994 <__bss_end__+0xeb9744>
     ca8:	0b201927 	bleq	80714c <__bss_end__+0x7fcefc>
     cac:	00001301 	andeq	r1, r0, r1, lsl #6
     cb0:	0300050e 	movweq	r0, #1294	; 0x50e
     cb4:	3b0b3a0e 	blcc	2cf4f4 <__bss_end__+0x2c52a4>
     cb8:	0013490b 	andseq	r4, r3, fp, lsl #18
     cbc:	00050f00 	andeq	r0, r5, r0, lsl #30
     cc0:	0b3a0803 	bleq	e82cd4 <__bss_end__+0xe78a84>
     cc4:	13490b3b 	movtne	r0, #39739	; 0x9b3b
     cc8:	0b100000 	bleq	400cd0 <__bss_end__+0x3f6a80>
     ccc:	11000001 	tstne	r0, r1
     cd0:	0e030034 	mcreq	0, 0, r0, cr3, cr4, {1}
     cd4:	0b3b0b3a 	bleq	ec39c4 <__bss_end__+0xeb9774>
     cd8:	00001349 	andeq	r1, r0, r9, asr #6
     cdc:	3f012e12 	svccc	0x00012e12
     ce0:	3a0e0319 	bcc	38194c <__bss_end__+0x3776fc>
     ce4:	270b3b0b 	strcs	r3, [fp, -fp, lsl #22]
     ce8:	12011119 	andne	r1, r1, #1073741830	; 0x40000006
     cec:	97184006 	ldrls	r4, [r8, -r6]
     cf0:	13011942 	movwne	r1, #6466	; 0x1942
     cf4:	05130000 	ldreq	r0, [r3, #-0]
     cf8:	3a0e0300 	bcc	381900 <__bss_end__+0x3776b0>
     cfc:	490b3b0b 	stmdbmi	fp, {r0, r1, r3, r8, r9, fp, ip, sp}
     d00:	00170213 	andseq	r0, r7, r3, lsl r2
     d04:	00051400 	andeq	r1, r5, r0, lsl #8
     d08:	0b3a0803 	bleq	e82d1c <__bss_end__+0xe78acc>
     d0c:	13490b3b 	movtne	r0, #39739	; 0x9b3b
     d10:	00001702 	andeq	r1, r0, r2, lsl #14
     d14:	03003415 	movweq	r3, #1045	; 0x415
     d18:	3b0b3a08 	blcc	2cf540 <__bss_end__+0x2c52f0>
     d1c:	0213490b 	andseq	r4, r3, #180224	; 0x2c000
     d20:	16000018 			; <UNDEFINED> instruction: 0x16000018
     d24:	08030034 	stmdaeq	r3, {r2, r4, r5}
     d28:	0b3b0b3a 	bleq	ec3a18 <__bss_end__+0xeb97c8>
     d2c:	17021349 	strne	r1, [r2, -r9, asr #6]
     d30:	0b170000 	bleq	5c0d38 <__bss_end__+0x5b6ae8>
     d34:	12011101 	andne	r1, r1, #1073741824	; 0x40000000
     d38:	00130106 	andseq	r0, r3, r6, lsl #2
     d3c:	00341800 	eorseq	r1, r4, r0, lsl #16
     d40:	0b3a0e03 	bleq	e84554 <__bss_end__+0xe7a304>
     d44:	13490b3b 	movtne	r0, #39739	; 0x9b3b
     d48:	00001802 	andeq	r1, r0, r2, lsl #16
     d4c:	31011d19 	tstcc	r1, r9, lsl sp
     d50:	12011113 	andne	r1, r1, #-1073741820	; 0xc0000004
     d54:	590b5806 	stmdbpl	fp, {r1, r2, fp, ip, lr}
     d58:	0013010b 	andseq	r0, r3, fp, lsl #2
     d5c:	00051a00 	andeq	r1, r5, r0, lsl #20
     d60:	17021331 	smladxne	r2, r1, r3, r1
     d64:	051b0000 	ldreq	r0, [fp, #-0]
     d68:	02133100 	andseq	r3, r3, #0, 2
     d6c:	1c000018 	stcne	0, cr0, [r0], {24}
     d70:	13310005 	teqne	r1, #5
     d74:	00000b1c 	andeq	r0, r0, ip, lsl fp
     d78:	11010b1d 	tstne	r1, sp, lsl fp
     d7c:	00061201 	andeq	r1, r6, r1, lsl #4
     d80:	00341e00 	eorseq	r1, r4, r0, lsl #28
     d84:	17021331 	smladxne	r2, r1, r3, r1
     d88:	891f0000 	ldmdbhi	pc, {}	; <UNPREDICTABLE>
     d8c:	11010182 	smlabbne	r1, r2, r1, r0
     d90:	00133101 	andseq	r3, r3, r1, lsl #2
     d94:	828a2000 	addhi	r2, sl, #0
     d98:	18020001 	stmdane	r2, {r0}
     d9c:	00184291 	mulseq	r8, r1, r2
     da0:	011d2100 	tsteq	sp, r0, lsl #2
     da4:	01111331 	tsteq	r1, r1, lsr r3
     da8:	0b580612 	bleq	16025f8 <__bss_end__+0x15f83a8>
     dac:	00000b59 	andeq	r0, r0, r9, asr fp
     db0:	03012e22 	movweq	r2, #7714	; 0x1e22
     db4:	3b0b3a0e 	blcc	2cf5f4 <__bss_end__+0x2c53a4>
     db8:	4919270b 	ldmdbmi	r9, {r0, r1, r3, r8, r9, sl, sp}
     dbc:	010b2013 	tsteq	fp, r3, lsl r0
     dc0:	23000013 	movwcs	r0, #19
     dc4:	193f012e 	ldmdbne	pc!, {r1, r2, r3, r5, r8}	; <UNPREDICTABLE>
     dc8:	0b3a0e03 	bleq	e845dc <__bss_end__+0xe7a38c>
     dcc:	19270b3b 	stmdbne	r7!, {r0, r1, r3, r4, r5, r8, r9, fp}
     dd0:	01111349 	tsteq	r1, r9, asr #6
     dd4:	18400612 	stmdane	r0, {r1, r4, r9, sl}^
     dd8:	01194297 			; <UNDEFINED> instruction: 0x01194297
     ddc:	24000013 	strcs	r0, [r0], #-19
     de0:	00018289 	andeq	r8, r1, r9, lsl #5
     de4:	13310111 	teqne	r1, #1073741828	; 0x40000004
     de8:	89250000 	stmdbhi	r5!, {}	; <UNPREDICTABLE>
     dec:	11010182 	smlabbne	r1, r2, r1, r0
     df0:	01133101 	tsteq	r3, r1, lsl #2
     df4:	26000013 			; <UNDEFINED> instruction: 0x26000013
     df8:	0e030034 	mcreq	0, 0, r0, cr3, cr4, {1}
     dfc:	0b3b0b3a 	bleq	ec3aec <__bss_end__+0xeb989c>
     e00:	17021349 	strne	r1, [r2, -r9, asr #6]
     e04:	05270000 	streq	r0, [r7, #-0]!
     e08:	00133100 	andseq	r3, r3, r0, lsl #2
     e0c:	00052800 	andeq	r2, r5, r0, lsl #16
     e10:	0b3a0e03 	bleq	e84624 <__bss_end__+0xe7a3d4>
     e14:	13490b3b 	movtne	r0, #39739	; 0x9b3b
     e18:	00001802 	andeq	r1, r0, r2, lsl #16
     e1c:	03003429 	movweq	r3, #1065	; 0x429
     e20:	3413490e 	ldrcc	r4, [r3], #-2318	; 0x90e
     e24:	00180219 	andseq	r0, r8, r9, lsl r2
     e28:	01012a00 	tsteq	r1, r0, lsl #20
     e2c:	13011349 	movwne	r1, #4937	; 0x1349
     e30:	212b0000 	teqcs	fp, r0
     e34:	2f134900 	svccs	0x00134900
     e38:	2c00000b 	stccs	0, cr0, [r0], {11}
     e3c:	08030034 	stmdaeq	r3, {r2, r4, r5}
     e40:	0b3b0b3a 	bleq	ec3b30 <__bss_end__+0xeb98e0>
     e44:	061c1349 	ldreq	r1, [ip], -r9, asr #6
     e48:	342d0000 	strtcc	r0, [sp], #-0
     e4c:	3a080300 	bcc	201a54 <__bss_end__+0x1f7804>
     e50:	490b3b0b 	stmdbmi	fp, {r0, r1, r3, r8, r9, fp, ip, sp}
     e54:	000b1c13 	andeq	r1, fp, r3, lsl ip
     e58:	00052e00 	andeq	r2, r5, r0, lsl #28
     e5c:	0b3a0803 	bleq	e82e70 <__bss_end__+0xe78c20>
     e60:	13490b3b 	movtne	r0, #39739	; 0x9b3b
     e64:	00001802 	andeq	r1, r0, r2, lsl #16
     e68:	0000182f 	andeq	r1, r0, pc, lsr #16
     e6c:	00213000 	eoreq	r3, r1, r0
     e70:	052f1349 	streq	r1, [pc, #-841]!	; b2f <_start-0x74d1>
     e74:	2e310000 	cdpcs	0, 3, cr0, cr1, cr0, {0}
     e78:	03193f01 	tsteq	r9, #1, 30
     e7c:	3b0b3a0e 	blcc	2cf6bc <__bss_end__+0x2c546c>
     e80:	3c19270b 	ldccc	7, cr2, [r9], {11}
     e84:	00130119 	andseq	r0, r3, r9, lsl r1
     e88:	00053200 	andeq	r3, r5, r0, lsl #4
     e8c:	00001349 	andeq	r1, r0, r9, asr #6
     e90:	3f002e33 	svccc	0x00002e33
     e94:	3a0e0319 	bcc	381b00 <__bss_end__+0x3778b0>
     e98:	270b3b0b 	strcs	r3, [fp, -fp, lsl #22]
     e9c:	3c134919 	ldccc	9, cr4, [r3], {25}
     ea0:	34000019 	strcc	r0, [r0], #-25
     ea4:	193f012e 	ldmdbne	pc!, {r1, r2, r3, r5, r8}	; <UNPREDICTABLE>
     ea8:	0b3a0e03 	bleq	e846bc <__bss_end__+0xe7a46c>
     eac:	19270b3b 	stmdbne	r7!, {r0, r1, r3, r4, r5, r8, r9, fp}
     eb0:	193c1349 	ldmdbne	ip!, {r0, r3, r6, r8, r9, ip}
     eb4:	00001301 	andeq	r1, r0, r1, lsl #6
     eb8:	3f002e35 	svccc	0x00002e35
     ebc:	3a0e0319 	bcc	381b28 <__bss_end__+0x3778d8>
     ec0:	270b3b0b 	strcs	r3, [fp, -fp, lsl #22]
     ec4:	00193c19 	andseq	r3, r9, r9, lsl ip
     ec8:	012e3600 	teqeq	lr, r0, lsl #12
     ecc:	0e03193f 	mcreq	9, 0, r1, cr3, cr15, {1}
     ed0:	0b3b0b3a 	bleq	ec3bc0 <__bss_end__+0xeb9970>
     ed4:	13491927 	movtne	r1, #39207	; 0x9927
     ed8:	0000193c 	andeq	r1, r0, ip, lsr r9
     edc:	01110100 	tsteq	r1, r0, lsl #2
     ee0:	0b130e25 	bleq	4c477c <__bss_end__+0x4ba52c>
     ee4:	0e1b0e03 	cdpeq	14, 1, cr0, cr11, cr3, {0}
     ee8:	06120111 			; <UNDEFINED> instruction: 0x06120111
     eec:	00001710 	andeq	r1, r0, r0, lsl r7
     ef0:	0b002402 	bleq	9f00 <buf.4179+0xbc>
     ef4:	030b3e0b 	movweq	r3, #48651	; 0xbe0b
     ef8:	03000008 	movweq	r0, #8
     efc:	0b0b0024 	bleq	2c0f94 <__bss_end__+0x2b6d44>
     f00:	0e030b3e 	vmoveq.16	d3[0], r0
     f04:	04040000 	streq	r0, [r4], #-0
     f08:	3a0b0b01 	bcc	2c3b14 <__bss_end__+0x2b98c4>
     f0c:	010b3b0b 	tsteq	fp, fp, lsl #22
     f10:	05000013 	streq	r0, [r0, #-19]
     f14:	0e030028 	cdpeq	0, 0, cr0, cr3, cr8, {1}
     f18:	00000d1c 	andeq	r0, r0, ip, lsl sp
     f1c:	03001606 	movweq	r1, #1542	; 0x606
     f20:	3b0b3a0e 	blcc	2cf760 <__bss_end__+0x2c5510>
     f24:	0013490b 	andseq	r4, r3, fp, lsl #18
     f28:	012e0700 	teqeq	lr, r0, lsl #14
     f2c:	0e03193f 	mcreq	9, 0, r1, cr3, cr15, {1}
     f30:	0b3b0b3a 	bleq	ec3c20 <__bss_end__+0xeb99d0>
     f34:	01111927 	tsteq	r1, r7, lsr #18
     f38:	18400612 	stmdane	r0, {r1, r4, r9, sl}^
     f3c:	01194297 			; <UNDEFINED> instruction: 0x01194297
     f40:	08000013 	stmdaeq	r0, {r0, r1, r4}
     f44:	00018289 	andeq	r8, r1, r9, lsl #5
     f48:	13310111 	teqne	r1, #1073741828	; 0x40000004
     f4c:	89090000 	stmdbhi	r9, {}	; <UNPREDICTABLE>
     f50:	11010182 	smlabbne	r1, r2, r1, r0
     f54:	01133101 	tsteq	r3, r1, lsl #2
     f58:	0a000013 	beq	fac <_start-0x7054>
     f5c:	0001828a 	andeq	r8, r1, sl, lsl #5
     f60:	42911802 	addsmi	r1, r1, #131072	; 0x20000
     f64:	0b000018 	bleq	fcc <_start-0x7034>
     f68:	193f012e 	ldmdbne	pc!, {r1, r2, r3, r5, r8}	; <UNPREDICTABLE>
     f6c:	0b3a0e03 	bleq	e84780 <__bss_end__+0xe7a530>
     f70:	19270b3b 	stmdbne	r7!, {r0, r1, r3, r4, r5, r8, r9, fp}
     f74:	01111349 	tsteq	r1, r9, asr #6
     f78:	18400612 	stmdane	r0, {r1, r4, r9, sl}^
     f7c:	01194297 			; <UNDEFINED> instruction: 0x01194297
     f80:	0c000013 	stceq	0, cr0, [r0], {19}
     f84:	08030005 	stmdaeq	r3, {r0, r2}
     f88:	0b3b0b3a 	bleq	ec3c78 <__bss_end__+0xeb9a28>
     f8c:	17021349 	strne	r1, [r2, -r9, asr #6]
     f90:	890d0000 	stmdbhi	sp, {}	; <UNPREDICTABLE>
     f94:	11010182 	smlabbne	r1, r2, r1, r0
     f98:	00133101 	andseq	r3, r3, r1, lsl #2
     f9c:	00340e00 	eorseq	r0, r4, r0, lsl #28
     fa0:	0b3a0e03 	bleq	e847b4 <__bss_end__+0xe7a564>
     fa4:	13490b3b 	movtne	r0, #39739	; 0x9b3b
     fa8:	1802193f 	stmdane	r2, {r0, r1, r2, r3, r4, r5, r8, fp, ip}
     fac:	0f0f0000 	svceq	0x000f0000
     fb0:	490b0b00 	stmdbmi	fp, {r8, r9, fp}
     fb4:	10000013 	andne	r0, r0, r3, lsl r0
     fb8:	13490035 	movtne	r0, #36917	; 0x9035
     fbc:	2e110000 	cdpcs	0, 1, cr0, cr1, cr0, {0}
     fc0:	03193f00 	tsteq	r9, #0, 30
     fc4:	3b0b3a0e 	blcc	2cf804 <__bss_end__+0x2c55b4>
     fc8:	3c19270b 	ldccc	7, cr2, [r9], {11}
     fcc:	12000019 	andne	r0, r0, #25
     fd0:	193f012e 	ldmdbne	pc!, {r1, r2, r3, r5, r8}	; <UNPREDICTABLE>
     fd4:	0b3a0e03 	bleq	e847e8 <__bss_end__+0xe7a598>
     fd8:	19270b3b 	stmdbne	r7!, {r0, r1, r3, r4, r5, r8, r9, fp}
     fdc:	1301193c 	movwne	r1, #6460	; 0x193c
     fe0:	05130000 	ldreq	r0, [r3, #-0]
     fe4:	00134900 	andseq	r4, r3, r0, lsl #18
     fe8:	012e1400 	teqeq	lr, r0, lsl #8
     fec:	0e03193f 	mcreq	9, 0, r1, cr3, cr15, {1}
     ff0:	0b3b0b3a 	bleq	ec3ce0 <__bss_end__+0xeb9a90>
     ff4:	13491927 	movtne	r1, #39207	; 0x9927
     ff8:	1301193c 	movwne	r1, #6460	; 0x193c
     ffc:	26150000 	ldrcs	r0, [r5], -r0
    1000:	00134900 	andseq	r4, r3, r0, lsl #18
    1004:	00351600 	eorseq	r1, r5, r0, lsl #12
    1008:	01000000 	mrseq	r0, (UNDEF: 0)
    100c:	0e250111 	mcreq	1, 1, r0, cr5, cr1, {0}
    1010:	0e030b13 	vmoveq.32	d3[0], r0
    1014:	01110e1b 	tsteq	r1, fp, lsl lr
    1018:	17100612 			; <UNDEFINED> instruction: 0x17100612
    101c:	24020000 	strcs	r0, [r2], #-0
    1020:	3e0b0b00 	vmlacc.f64	d0, d11, d0
    1024:	000e030b 	andeq	r0, lr, fp, lsl #6
    1028:	00240300 	eoreq	r0, r4, r0, lsl #6
    102c:	0b3e0b0b 	bleq	f83c60 <__bss_end__+0xf79a10>
    1030:	00000803 	andeq	r0, r0, r3, lsl #16
    1034:	0b010404 	bleq	4204c <__bss_end__+0x37dfc>
    1038:	3b0b3a0b 	blcc	2cf86c <__bss_end__+0x2c561c>
    103c:	0013010b 	andseq	r0, r3, fp, lsl #2
    1040:	00280500 	eoreq	r0, r8, r0, lsl #10
    1044:	0d1c0e03 	ldceq	14, cr0, [ip, #-12]
    1048:	16060000 	strne	r0, [r6], -r0
    104c:	3a0e0300 	bcc	381c54 <__bss_end__+0x377a04>
    1050:	490b3b0b 	stmdbmi	fp, {r0, r1, r3, r8, r9, fp, ip, sp}
    1054:	07000013 	smladeq	r0, r3, r0, r0
    1058:	193f012e 	ldmdbne	pc!, {r1, r2, r3, r5, r8}	; <UNPREDICTABLE>
    105c:	0b3a0e03 	bleq	e84870 <__bss_end__+0xe7a620>
    1060:	19270b3b 	stmdbne	r7!, {r0, r1, r3, r4, r5, r8, r9, fp}
    1064:	06120111 			; <UNDEFINED> instruction: 0x06120111
    1068:	42971840 	addsmi	r1, r7, #64, 16	; 0x400000
    106c:	00130119 	andseq	r0, r3, r9, lsl r1
    1070:	00050800 	andeq	r0, r5, r0, lsl #16
    1074:	0b3a0803 	bleq	e83088 <__bss_end__+0xe78e38>
    1078:	13490b3b 	movtne	r0, #39739	; 0x9b3b
    107c:	00001702 	andeq	r1, r0, r2, lsl #14
    1080:	03003409 	movweq	r3, #1033	; 0x409
    1084:	3b0b3a0e 	blcc	2cf8c4 <__bss_end__+0x2c5674>
    1088:	0213490b 	andseq	r4, r3, #180224	; 0x2c000
    108c:	0a000017 	beq	10f0 <_start-0x6f10>
    1090:	01018289 	smlabbeq	r1, r9, r2, r8
    1094:	13310111 	teqne	r1, #1073741828	; 0x40000004
    1098:	00001301 	andeq	r1, r0, r1, lsl #6
    109c:	01828a0b 	orreq	r8, r2, fp, lsl #20
    10a0:	91180200 	tstls	r8, r0, lsl #4
    10a4:	00001842 	andeq	r1, r0, r2, asr #16
    10a8:	0182890c 	orreq	r8, r2, ip, lsl #18
    10ac:	31011101 	tstcc	r1, r1, lsl #2
    10b0:	0d000013 	stceq	0, cr0, [r0, #-76]	; 0xffffffb4
    10b4:	0b0b000f 	bleq	2c10f8 <__bss_end__+0x2b6ea8>
    10b8:	00001349 	andeq	r1, r0, r9, asr #6
    10bc:	4900350e 	stmdbmi	r0, {r1, r2, r3, r8, sl, ip, sp}
    10c0:	0f000013 	svceq	0x00000013
    10c4:	193f012e 	ldmdbne	pc!, {r1, r2, r3, r5, r8}	; <UNPREDICTABLE>
    10c8:	0b3a0e03 	bleq	e848dc <__bss_end__+0xe7a68c>
    10cc:	19270b3b 	stmdbne	r7!, {r0, r1, r3, r4, r5, r8, r9, fp}
    10d0:	01111349 	tsteq	r1, r9, asr #6
    10d4:	18400612 	stmdane	r0, {r1, r4, r9, sl}^
    10d8:	01194297 			; <UNDEFINED> instruction: 0x01194297
    10dc:	10000013 	andne	r0, r0, r3, lsl r0
    10e0:	08030034 	stmdaeq	r3, {r2, r4, r5}
    10e4:	0b3b0b3a 	bleq	ec3dd4 <__bss_end__+0xeb9b84>
    10e8:	17021349 	strne	r1, [r2, -r9, asr #6]
    10ec:	89110000 	ldmdbhi	r1, {}	; <UNPREDICTABLE>
    10f0:	11000182 	smlabbne	r0, r2, r1, r0
    10f4:	00133101 	andseq	r3, r3, r1, lsl #2
    10f8:	00051200 	andeq	r1, r5, r0, lsl #4
    10fc:	0b3a0e03 	bleq	e84910 <__bss_end__+0xe7a6c0>
    1100:	13490b3b 	movtne	r0, #39739	; 0x9b3b
    1104:	00001702 	andeq	r1, r0, r2, lsl #14
    1108:	3f012e13 	svccc	0x00012e13
    110c:	3a0e0319 	bcc	381d78 <__bss_end__+0x377b28>
    1110:	27053b0b 	strcs	r3, [r5, -fp, lsl #22]
    1114:	11134919 	tstne	r3, r9, lsl r9
    1118:	40061201 	andmi	r1, r6, r1, lsl #4
    111c:	19429718 	stmdbne	r2, {r3, r4, r8, r9, sl, ip, pc}^
    1120:	00001301 	andeq	r1, r0, r1, lsl #6
    1124:	03000514 	movweq	r0, #1300	; 0x514
    1128:	3b0b3a0e 	blcc	2cf968 <__bss_end__+0x2c5718>
    112c:	02134905 	andseq	r4, r3, #81920	; 0x14000
    1130:	15000017 	strne	r0, [r0, #-23]
    1134:	193f012e 	ldmdbne	pc!, {r1, r2, r3, r5, r8}	; <UNPREDICTABLE>
    1138:	0b3a0e03 	bleq	e8494c <__bss_end__+0xe7a6fc>
    113c:	1927053b 	stmdbne	r7!, {r0, r1, r3, r4, r5, r8, sl}
    1140:	06120111 			; <UNDEFINED> instruction: 0x06120111
    1144:	42971840 	addsmi	r1, r7, #64, 16	; 0x400000
    1148:	00130119 	andseq	r0, r3, r9, lsl r1
    114c:	00051600 	andeq	r1, r5, r0, lsl #12
    1150:	0b3a0803 	bleq	e83164 <__bss_end__+0xe78f14>
    1154:	1349053b 	movtne	r0, #38203	; 0x953b
    1158:	00001702 	andeq	r1, r0, r2, lsl #14
    115c:	03003417 	movweq	r3, #1047	; 0x417
    1160:	3b0b3a0e 	blcc	2cf9a0 <__bss_end__+0x2c5750>
    1164:	02134905 	andseq	r4, r3, #81920	; 0x14000
    1168:	18000017 	stmdane	r0, {r0, r1, r2, r4}
    116c:	0111010b 	tsteq	r1, fp, lsl #2
    1170:	13010612 	movwne	r0, #5650	; 0x1612
    1174:	34190000 	ldrcc	r0, [r9], #-0
    1178:	3a0e0300 	bcc	381d80 <__bss_end__+0x377b30>
    117c:	490b3b0b 	stmdbmi	fp, {r0, r1, r3, r8, r9, fp, ip, sp}
    1180:	02193f13 	andseq	r3, r9, #19, 30	; 0x4c
    1184:	1a000018 	bne	11ec <_start-0x6e14>
    1188:	193f012e 	ldmdbne	pc!, {r1, r2, r3, r5, r8}	; <UNPREDICTABLE>
    118c:	0b3a0e03 	bleq	e849a0 <__bss_end__+0xe7a750>
    1190:	19270b3b 	stmdbne	r7!, {r0, r1, r3, r4, r5, r8, r9, fp}
    1194:	193c1349 	ldmdbne	ip!, {r0, r3, r6, r8, r9, ip}
    1198:	00001301 	andeq	r1, r0, r1, lsl #6
    119c:	4900051b 	stmdbmi	r0, {r0, r1, r3, r4, r8, sl}
    11a0:	1c000013 	stcne	0, cr0, [r0], {19}
    11a4:	13490026 	movtne	r0, #36902	; 0x9026
    11a8:	351d0000 	ldrcc	r0, [sp, #-0]
    11ac:	1e000000 	cdpne	0, 0, cr0, cr0, cr0, {0}
    11b0:	193f012e 	ldmdbne	pc!, {r1, r2, r3, r5, r8}	; <UNPREDICTABLE>
    11b4:	0b3a0e03 	bleq	e849c8 <__bss_end__+0xe7a778>
    11b8:	19270b3b 	stmdbne	r7!, {r0, r1, r3, r4, r5, r8, r9, fp}
    11bc:	1301193c 	movwne	r1, #6460	; 0x193c
    11c0:	2e1f0000 	cdpcs	0, 1, cr0, cr15, cr0, {0}
    11c4:	03193f00 	tsteq	r9, #0, 30
    11c8:	3b0b3a0e 	blcc	2cfa08 <__bss_end__+0x2c57b8>
    11cc:	3c19270b 	ldccc	7, cr2, [r9], {11}
    11d0:	00000019 	andeq	r0, r0, r9, lsl r0
    11d4:	25011101 	strcs	r1, [r1, #-257]	; 0x101
    11d8:	030b130e 	movweq	r1, #45838	; 0xb30e
    11dc:	110e1b0e 	tstne	lr, lr, lsl #22
    11e0:	10061201 	andne	r1, r6, r1, lsl #4
    11e4:	02000017 	andeq	r0, r0, #23
    11e8:	0b0b0024 	bleq	2c1280 <__bss_end__+0x2b7030>
    11ec:	08030b3e 	stmdaeq	r3, {r1, r2, r3, r4, r5, r8, r9, fp}
    11f0:	16030000 	strne	r0, [r3], -r0
    11f4:	3a0e0300 	bcc	381dfc <__bss_end__+0x377bac>
    11f8:	490b3b0b 	stmdbmi	fp, {r0, r1, r3, r8, r9, fp, ip, sp}
    11fc:	04000013 	streq	r0, [r0], #-19
    1200:	0b0b0024 	bleq	2c1298 <__bss_end__+0x2b7048>
    1204:	0e030b3e 	vmoveq.16	d3[0], r0
    1208:	0f050000 	svceq	0x00050000
    120c:	000b0b00 	andeq	r0, fp, r0, lsl #22
    1210:	01130600 	tsteq	r3, r0, lsl #12
    1214:	0b3a0b0b 	bleq	e83e48 <__bss_end__+0xe79bf8>
    1218:	13010b3b 	movwne	r0, #6971	; 0x1b3b
    121c:	0d070000 	stceq	0, cr0, [r7, #-0]
    1220:	3a080300 	bcc	201e28 <__bss_end__+0x1f7bd8>
    1224:	490b3b0b 	stmdbmi	fp, {r0, r1, r3, r8, r9, fp, ip, sp}
    1228:	000b3813 	andeq	r3, fp, r3, lsl r8
    122c:	000d0800 	andeq	r0, sp, r0, lsl #16
    1230:	0b3a0e03 	bleq	e84a44 <__bss_end__+0xe7a7f4>
    1234:	13490b3b 	movtne	r0, #39739	; 0x9b3b
    1238:	00000b38 	andeq	r0, r0, r8, lsr fp
    123c:	0b010409 	bleq	42268 <__bss_end__+0x38018>
    1240:	3b0b3a0b 	blcc	2cfa74 <__bss_end__+0x2c5824>
    1244:	0013010b 	andseq	r0, r3, fp, lsl #2
    1248:	00280a00 	eoreq	r0, r8, r0, lsl #20
    124c:	0d1c0e03 	ldceq	14, cr0, [ip, #-12]
    1250:	2e0b0000 	cdpcs	0, 0, cr0, cr11, cr0, {0}
    1254:	03193f01 	tsteq	r9, #1, 30
    1258:	3b0b3a0e 	blcc	2cfa98 <__bss_end__+0x2c5848>
    125c:	4919270b 	ldmdbmi	r9, {r0, r1, r3, r8, r9, sl, sp}
    1260:	12011113 	andne	r1, r1, #-1073741820	; 0xc0000004
    1264:	97184006 	ldrls	r4, [r8, -r6]
    1268:	13011942 	movwne	r1, #6466	; 0x1942
    126c:	340c0000 	strcc	r0, [ip], #-0
    1270:	3a080300 	bcc	201e78 <__bss_end__+0x1f7c28>
    1274:	490b3b0b 	stmdbmi	fp, {r0, r1, r3, r8, r9, fp, ip, sp}
    1278:	00061c13 	andeq	r1, r6, r3, lsl ip
    127c:	82890d00 	addhi	r0, r9, #0, 26
    1280:	01110101 	tsteq	r1, r1, lsl #2
    1284:	00001331 	andeq	r1, r0, r1, lsr r3
    1288:	01828a0e 	orreq	r8, r2, lr, lsl #20
    128c:	91180200 	tstls	r8, r0, lsl #4
    1290:	00001842 	andeq	r1, r0, r2, asr #16
    1294:	0b000f0f 	bleq	4ed8 <_start-0x3128>
    1298:	0013490b 	andseq	r4, r3, fp, lsl #18
    129c:	012e1000 	teqeq	lr, r0
    12a0:	0e03193f 	mcreq	9, 0, r1, cr3, cr15, {1}
    12a4:	0b3b0b3a 	bleq	ec3f94 <__bss_end__+0xeb9d44>
    12a8:	13491927 	movtne	r1, #39207	; 0x9927
    12ac:	0000193c 	andeq	r1, r0, ip, lsr r9
    12b0:	49000511 	stmdbmi	r0, {r0, r4, r8, sl}
    12b4:	00000013 	andeq	r0, r0, r3, lsl r0

Disassembly of section .debug_loc:

00000000 <.debug_loc>:
       0:	00000030 	andeq	r0, r0, r0, lsr r0
       4:	00000034 	andeq	r0, r0, r4, lsr r0
       8:	34500001 	ldrbcc	r0, [r0], #-1
       c:	98000000 	stmdals	r0, {}	; <UNPREDICTABLE>
      10:	01000001 	tsteq	r0, r1
      14:	00005600 	andeq	r5, r0, r0, lsl #12
      18:	00000000 	andeq	r0, r0, r0
      1c:	003c0000 	eorseq	r0, ip, r0
      20:	00400000 	subeq	r0, r0, r0
      24:	00010000 	andeq	r0, r1, r0
      28:	00004050 	andeq	r4, r0, r0, asr r0
      2c:	00019800 	andeq	r9, r1, r0, lsl #16
      30:	55000100 	strpl	r0, [r0, #-256]	; 0x100
	...
      3c:	00000080 	andeq	r0, r0, r0, lsl #1
      40:	000000ab 	andeq	r0, r0, fp, lsr #1
      44:	ab520001 	blge	1480050 <__bss_end__+0x1475e00>
      48:	d0000000 	andle	r0, r0, r0
      4c:	03000000 	movweq	r0, #0
      50:	9f047500 	svcls	0x00047500
      54:	000000d0 	ldrdeq	r0, [r0], -r0	; <UNPREDICTABLE>
      58:	000000e7 	andeq	r0, r0, r7, ror #1
      5c:	e7520001 	ldrb	r0, [r2, -r1]
      60:	98000000 	stmdals	r0, {}	; <UNPREDICTABLE>
      64:	03000001 	movweq	r0, #1
      68:	9f047500 	svcls	0x00047500
	...
      74:	000000e8 	andeq	r0, r0, r8, ror #1
      78:	000000f3 	strdeq	r0, [r0], -r3
      7c:	0c500001 	mrrceq	0, 0, r0, r0, cr1	; <UNPREDICTABLE>
      80:	0f000001 	svceq	0x00000001
      84:	01000001 	tsteq	r0, r1
      88:	00005000 	andeq	r5, r0, r0
      8c:	00000000 	andeq	r0, r0, r0
      90:	01140000 	tsteq	r4, r0
      94:	011f0000 	tsteq	pc, r0
      98:	00010000 	andeq	r0, r1, r0
      9c:	00013850 	andeq	r3, r1, r0, asr r8
      a0:	00013c00 	andeq	r3, r1, r0, lsl #24
      a4:	50000100 	andpl	r0, r0, r0, lsl #2
	...
      b0:	00000048 	andeq	r0, r0, r8, asr #32
      b4:	00000054 	andeq	r0, r0, r4, asr r0
      b8:	9f300002 	svcls	0x00300002
      bc:	00000054 	andeq	r0, r0, r4, asr r0
      c0:	00000088 	andeq	r0, r0, r8, lsl #1
      c4:	00540001 	subseq	r0, r4, r1
      c8:	00000000 	andeq	r0, r0, r0
      cc:	5c000000 	stcpl	0, cr0, [r0], {-0}
      d0:	74000000 	strvc	r0, [r0], #-0
      d4:	01000000 	mrseq	r0, (UNDEF: 0)
      d8:	00005000 	andeq	r5, r0, r0
      dc:	00000000 	andeq	r0, r0, r0
      e0:	006c0000 	rsbeq	r0, ip, r0
      e4:	00740000 	rsbseq	r0, r4, r0
      e8:	00010000 	andeq	r0, r1, r0
      ec:	00000053 	andeq	r0, r0, r3, asr r0
      f0:	00000000 	andeq	r0, r0, r0
      f4:	00008000 	andeq	r8, r0, r0
      f8:	00008800 	andeq	r8, r0, r0, lsl #16
      fc:	30000200 	andcc	r0, r0, r0, lsl #4
     100:	0000889f 	muleq	r0, pc, r8	; <UNPREDICTABLE>
     104:	0000ab00 	andeq	sl, r0, r0, lsl #22
     108:	53000100 	movwpl	r0, #256	; 0x100
     10c:	000000d0 	ldrdeq	r0, [r0], -r0	; <UNPREDICTABLE>
     110:	000000e7 	andeq	r0, r0, r7, ror #1
     114:	00530001 	subseq	r0, r3, r1
     118:	00000000 	andeq	r0, r0, r0
     11c:	98000000 	stmdals	r0, {}	; <UNPREDICTABLE>
     120:	d4000000 	strle	r0, [r0], #-0
     124:	01000000 	mrseq	r0, (UNDEF: 0)
     128:	00005400 	andeq	r5, r0, r0, lsl #8
	...
     134:	00170000 	andseq	r0, r7, r0
     138:	00010000 	andeq	r0, r1, r0
     13c:	00001750 	andeq	r1, r0, r0, asr r7
     140:	00003000 	andeq	r3, r0, r0
     144:	f3000400 	vshl.u8	d0, d0, d0
     148:	309f5001 	addscc	r5, pc, r1
     14c:	44000000 	strmi	r0, [r0], #-0
     150:	01000000 	mrseq	r0, (UNDEF: 0)
     154:	00445000 	subeq	r5, r4, r0
     158:	00680000 	rsbeq	r0, r8, r0
     15c:	00040000 	andeq	r0, r4, r0
     160:	9f5001f3 	svcls	0x005001f3
	...
     16c:	00000040 	andeq	r0, r0, r0, asr #32
     170:	0000004f 	andeq	r0, r0, pc, asr #32
     174:	4f520001 	svcmi	0x00520001
     178:	68000000 	stmdavs	r0, {}	; <UNPREDICTABLE>
     17c:	09000000 	stmdbeq	r0, {}	; <UNPREDICTABLE>
     180:	5001f300 	andpl	pc, r1, r0, lsl #6
     184:	fc090323 	stc2	3, cr0, [r9], {35}	; 0x23
     188:	00009f1a 	andeq	r9, r0, sl, lsl pc
     18c:	00000000 	andeq	r0, r0, r0
     190:	00680000 	rsbeq	r0, r8, r0
     194:	007f0000 	rsbseq	r0, pc, r0
     198:	00010000 	andeq	r0, r1, r0
     19c:	00007f50 	andeq	r7, r0, r0, asr pc
     1a0:	00009800 	andeq	r9, r0, r0, lsl #16
     1a4:	f3000400 	vshl.u8	d0, d0, d0
     1a8:	989f5001 	ldmls	pc, {r0, ip, lr}	; <UNPREDICTABLE>
     1ac:	a3000000 	movwge	r0, #0
     1b0:	01000000 	mrseq	r0, (UNDEF: 0)
     1b4:	00a35000 	adceq	r5, r3, r0
     1b8:	00a80000 	adceq	r0, r8, r0
     1bc:	00040000 	andeq	r0, r4, r0
     1c0:	9f5001f3 	svcls	0x005001f3
     1c4:	000000a8 	andeq	r0, r0, r8, lsr #1
     1c8:	000000b3 	strheq	r0, [r0], -r3
     1cc:	b3500001 	cmplt	r0, #1
     1d0:	cc000000 	stcgt	0, cr0, [r0], {-0}
     1d4:	04000000 	streq	r0, [r0], #-0
     1d8:	5001f300 	andpl	pc, r1, r0, lsl #6
     1dc:	0000cc9f 	muleq	r0, pc, ip	; <UNPREDICTABLE>
     1e0:	0000eb00 	andeq	lr, r0, r0, lsl #22
     1e4:	50000100 	andpl	r0, r0, r0, lsl #2
     1e8:	000000eb 	andeq	r0, r0, fp, ror #1
     1ec:	00000104 	andeq	r0, r0, r4, lsl #2
     1f0:	01f30004 	mvnseq	r0, r4
     1f4:	00009f50 	andeq	r9, r0, r0, asr pc
     1f8:	00000000 	andeq	r0, r0, r0
     1fc:	00680000 	rsbeq	r0, r8, r0
     200:	007f0000 	rsbseq	r0, pc, r0
     204:	00010000 	andeq	r0, r1, r0
     208:	00007f51 	andeq	r7, r0, r1, asr pc
     20c:	00009800 	andeq	r9, r0, r0, lsl #16
     210:	f3000400 	vshl.u8	d0, d0, d0
     214:	989f5101 	ldmls	pc, {r0, r8, ip, lr}	; <UNPREDICTABLE>
     218:	a3000000 	movwge	r0, #0
     21c:	01000000 	mrseq	r0, (UNDEF: 0)
     220:	00a35100 	adceq	r5, r3, r0, lsl #2
     224:	00a80000 	adceq	r0, r8, r0
     228:	00040000 	andeq	r0, r4, r0
     22c:	9f5101f3 	svcls	0x005101f3
     230:	000000a8 	andeq	r0, r0, r8, lsr #1
     234:	000000b3 	strheq	r0, [r0], -r3
     238:	b3510001 	cmplt	r1, #1
     23c:	cc000000 	stcgt	0, cr0, [r0], {-0}
     240:	04000000 	streq	r0, [r0], #-0
     244:	5101f300 	mrspl	pc, SP_irq	; <UNPREDICTABLE>
     248:	0000cc9f 	muleq	r0, pc, ip	; <UNPREDICTABLE>
     24c:	0000e000 	andeq	lr, r0, r0
     250:	51000100 	mrspl	r0, (UNDEF: 16)
     254:	000000e0 	andeq	r0, r0, r0, ror #1
     258:	000000e4 	andeq	r0, r0, r4, ror #1
     25c:	00710004 	rsbseq	r0, r1, r4
     260:	00e49f1f 	rsceq	r9, r4, pc, lsl pc
     264:	01040000 	mrseq	r0, (UNDEF: 4)
     268:	00040000 	andeq	r0, r4, r0
     26c:	9f5101f3 	svcls	0x005101f3
	...
     278:	000000d4 	ldrdeq	r0, [r0], -r4
     27c:	000000d8 	ldrdeq	r0, [r0], -r8
     280:	d8520001 	ldmdale	r2, {r0}^
     284:	e4000000 	str	r0, [r0], #-0
     288:	05000000 	streq	r0, [r0, #-0]
     28c:	9e400300 	cdpls	3, 4, cr0, cr0, cr0, {0}
     290:	00e40000 	rsceq	r0, r4, r0
     294:	00eb0000 	rsceq	r0, fp, r0
     298:	00010000 	andeq	r0, r1, r0
     29c:	00000051 	andeq	r0, r0, r1, asr r0
	...
     2a8:	00000400 	andeq	r0, r0, r0, lsl #8
     2ac:	52000100 	andpl	r0, r0, #0, 2
     2b0:	00000004 	andeq	r0, r0, r4
     2b4:	00000020 	andeq	r0, r0, r0, lsr #32
     2b8:	01f30004 	mvnseq	r0, r4
     2bc:	00009f52 	andeq	r9, r0, r2, asr pc
	...
     2c8:	000c0000 	andeq	r0, ip, r0
     2cc:	00010000 	andeq	r0, r1, r0
     2d0:	00000c50 	andeq	r0, r0, r0, asr ip
     2d4:	00001400 	andeq	r1, r0, r0, lsl #8
     2d8:	73000300 	movwvc	r0, #768	; 0x300
     2dc:	00149f01 	andseq	r9, r4, r1, lsl #30
     2e0:	00200000 	eoreq	r0, r0, r0
     2e4:	00010000 	andeq	r0, r1, r0
     2e8:	00000053 	andeq	r0, r0, r3, asr r0
     2ec:	00000000 	andeq	r0, r0, r0
     2f0:	00002c00 	andeq	r2, r0, r0, lsl #24
     2f4:	00003800 	andeq	r3, r0, r0, lsl #16
     2f8:	50000100 	andpl	r0, r0, r0, lsl #2
     2fc:	00000038 	andeq	r0, r0, r8, lsr r0
     300:	00000048 	andeq	r0, r0, r8, asr #32
     304:	48550001 	ldmdami	r5, {r0}^
     308:	58000000 	stmdapl	r0, {}	; <UNPREDICTABLE>
     30c:	01000000 	mrseq	r0, (UNDEF: 0)
     310:	00005000 	andeq	r5, r0, r0
	...
     31c:	000b0000 	andeq	r0, fp, r0
     320:	00010000 	andeq	r0, r1, r0
     324:	00000b50 	andeq	r0, r0, r0, asr fp
     328:	00001400 	andeq	r1, r0, r0, lsl #8
     32c:	54000100 	strpl	r0, [r0], #-256	; 0x100
	...
     33c:	00000010 	andeq	r0, r0, r0, lsl r0
     340:	10500001 	subsne	r0, r0, r1
     344:	34000000 	strcc	r0, [r0], #-0
     348:	01000000 	mrseq	r0, (UNDEF: 0)
     34c:	00005400 	andeq	r5, r0, r0, lsl #8
	...
     358:	00040000 	andeq	r0, r4, r0
     35c:	00010000 	andeq	r0, r1, r0
     360:	00000450 	andeq	r0, r0, r0, asr r4
     364:	00000c00 	andeq	r0, r0, r0, lsl #24
     368:	70000300 	andvc	r0, r0, r0, lsl #6
     36c:	000c9f30 	andeq	r9, ip, r0, lsr pc
     370:	00140000 	andseq	r0, r4, r0
     374:	00040000 	andeq	r0, r4, r0
     378:	9f5001f3 	svcls	0x005001f3
	...
     384:	00000014 	andeq	r0, r0, r4, lsl r0
     388:	00000020 	andeq	r0, r0, r0, lsr #32
     38c:	20500001 	subscs	r0, r0, r1
     390:	2c000000 	stccs	0, cr0, [r0], {-0}
     394:	03000000 	movweq	r0, #0
     398:	9f017000 	svcls	0x00017000
     39c:	0000002c 	andeq	r0, r0, ip, lsr #32
     3a0:	00000040 	andeq	r0, r0, r0, asr #32
     3a4:	00500001 	subseq	r0, r0, r1
     3a8:	00000000 	andeq	r0, r0, r0
     3ac:	14000000 	strne	r0, [r0], #-0
     3b0:	18000000 	stmdane	r0, {}	; <UNPREDICTABLE>
     3b4:	01000000 	mrseq	r0, (UNDEF: 0)
     3b8:	00185100 	andseq	r5, r8, r0, lsl #2
     3bc:	00400000 	subeq	r0, r0, r0
     3c0:	00040000 	andeq	r0, r4, r0
     3c4:	9f5101f3 	svcls	0x005101f3
	...
     3d0:	00000040 	andeq	r0, r0, r0, asr #32
     3d4:	00000060 	andeq	r0, r0, r0, rrx
     3d8:	60500001 	subsvs	r0, r0, r1
     3dc:	6c000000 	stcvs	0, cr0, [r0], {-0}
     3e0:	03000000 	movweq	r0, #0
     3e4:	9f017100 	svcls	0x00017100
     3e8:	0000006c 	andeq	r0, r0, ip, rrx
     3ec:	00000074 	andeq	r0, r0, r4, ror r0
     3f0:	74510001 	ldrbvc	r0, [r1], #-1
     3f4:	80000000 	andhi	r0, r0, r0
     3f8:	03000000 	movweq	r0, #0
     3fc:	9f017100 	svcls	0x00017100
	...
     408:	00000040 	andeq	r0, r0, r0, asr #32
     40c:	00000050 	andeq	r0, r0, r0, asr r0
     410:	50510001 	subspl	r0, r1, r1
     414:	80000000 	andhi	r0, r0, r0
     418:	04000000 	streq	r0, [r0], #-0
     41c:	5101f300 	mrspl	pc, SP_irq	; <UNPREDICTABLE>
     420:	0000009f 	muleq	r0, pc, r0	; <UNPREDICTABLE>
     424:	00000000 	andeq	r0, r0, r0
     428:	00004000 	andeq	r4, r0, r0
     42c:	00005800 	andeq	r5, r0, r0, lsl #16
     430:	52000100 	andpl	r0, r0, #0, 2
     434:	00000058 	andeq	r0, r0, r8, asr r0
     438:	00000064 	andeq	r0, r0, r4, rrx
     43c:	64520001 	ldrbvs	r0, [r2], #-1
     440:	68000000 	stmdavs	r0, {}	; <UNPREDICTABLE>
     444:	03000000 	movweq	r0, #0
     448:	9f017200 	svcls	0x00017200
     44c:	00000068 	andeq	r0, r0, r8, rrx
     450:	00000080 	andeq	r0, r0, r0, lsl #1
     454:	00520001 	subseq	r0, r2, r1
     458:	00000000 	andeq	r0, r0, r0
     45c:	40000000 	andmi	r0, r0, r0
     460:	54000000 	strpl	r0, [r0], #-0
     464:	01000000 	mrseq	r0, (UNDEF: 0)
     468:	00545300 	subseq	r5, r4, r0, lsl #6
     46c:	00780000 	rsbseq	r0, r8, r0
     470:	00010000 	andeq	r0, r1, r0
     474:	00000053 	andeq	r0, r0, r3, asr r0
     478:	00000000 	andeq	r0, r0, r0
     47c:	00004800 	andeq	r4, r0, r0, lsl #16
     480:	00006000 	andeq	r6, r0, r0
     484:	5c000100 	stfpls	f0, [r0], {-0}
     488:	00000060 	andeq	r0, r0, r0, rrx
     48c:	00000080 	andeq	r0, r0, r0, lsl #1
     490:	01f3000a 	mvnseq	r0, sl
     494:	5301f352 	movwpl	pc, #4946	; 0x1352	; <UNPREDICTABLE>
     498:	9f01231c 	svcls	0x0001231c
	...
     4a4:	00000080 	andeq	r0, r0, r0, lsl #1
     4a8:	000000a4 	andeq	r0, r0, r4, lsr #1
     4ac:	a4500001 	ldrbge	r0, [r0], #-1
     4b0:	18000000 	stmdane	r0, {}	; <UNPREDICTABLE>
     4b4:	03000001 	movweq	r0, #1
     4b8:	9f027000 	svcls	0x00027000
     4bc:	00000118 	andeq	r0, r0, r8, lsl r1
     4c0:	0000021c 	andeq	r0, r0, ip, lsl r2
     4c4:	01f30004 	mvnseq	r0, r4
     4c8:	00009f50 	andeq	r9, r0, r0, asr pc
     4cc:	00000000 	andeq	r0, r0, r0
     4d0:	00800000 	addeq	r0, r0, r0
     4d4:	00f00000 	rscseq	r0, r0, r0
     4d8:	00010000 	andeq	r0, r1, r0
     4dc:	0000f051 	andeq	pc, r0, r1, asr r0	; <UNPREDICTABLE>
     4e0:	00016000 	andeq	r6, r1, r0
     4e4:	55000100 	strpl	r0, [r0, #-256]	; 0x100
     4e8:	00000160 	andeq	r0, r0, r0, ror #2
     4ec:	00000168 	andeq	r0, r0, r8, ror #2
     4f0:	68510001 	ldmdavs	r1, {r0}^
     4f4:	88000001 	stmdahi	r0, {r0}
     4f8:	01000001 	tsteq	r0, r1
     4fc:	01885500 	orreq	r5, r8, r0, lsl #10
     500:	019c0000 	orrseq	r0, ip, r0
     504:	00010000 	andeq	r0, r1, r0
     508:	00019c51 	andeq	r9, r1, r1, asr ip
     50c:	0001bc00 	andeq	fp, r1, r0, lsl #24
     510:	55000100 	strpl	r0, [r0, #-256]	; 0x100
     514:	000001bc 			; <UNDEFINED> instruction: 0x000001bc
     518:	000001bf 			; <UNDEFINED> instruction: 0x000001bf
     51c:	bf510001 	svclt	0x00510001
     520:	00000001 	andeq	r0, r0, r1
     524:	01000002 	tsteq	r0, r2
     528:	02005500 	andeq	r5, r0, #0, 10
     52c:	021c0000 	andseq	r0, ip, #0
     530:	00040000 	andeq	r0, r4, r0
     534:	9f5101f3 	svcls	0x005101f3
	...
     540:	00000080 	andeq	r0, r0, r0, lsl #1
     544:	00000094 	muleq	r0, r4, r0
     548:	94520001 	ldrbls	r0, [r2], #-1
     54c:	00000000 	andeq	r0, r0, r0
     550:	01000002 	tsteq	r0, r2
     554:	02005400 	andeq	r5, r0, #0, 8
     558:	021c0000 	andseq	r0, ip, #0
     55c:	00040000 	andeq	r0, r4, r0
     560:	9f5201f3 	svcls	0x005201f3
	...
     56c:	00000080 	andeq	r0, r0, r0, lsl #1
     570:	00000100 	andeq	r0, r0, r0, lsl #2
     574:	04530001 	ldrbeq	r0, [r3], #-1
     578:	08000001 	stmdaeq	r0, {r0}
     57c:	01000001 	tsteq	r0, r1
     580:	01605300 	cmneq	r0, r0, lsl #6
     584:	01680000 	cmneq	r8, r0
     588:	00010000 	andeq	r0, r1, r0
     58c:	00016853 	andeq	r6, r1, r3, asr r8
     590:	00018800 	andeq	r8, r1, r0, lsl #16
     594:	f3000400 	vshl.u8	d0, d0, d0
     598:	889f5301 	ldmhi	pc, {r0, r8, r9, ip, lr}	; <UNPREDICTABLE>
     59c:	90000001 	andls	r0, r0, r1
     5a0:	01000001 	tsteq	r0, r1
     5a4:	01905300 	orrseq	r5, r0, r0, lsl #6
     5a8:	01940000 	orrseq	r0, r4, r0
     5ac:	00010000 	andeq	r0, r1, r0
     5b0:	0001945c 	andeq	r9, r1, ip, asr r4
     5b4:	00019c00 	andeq	r9, r1, r0, lsl #24
     5b8:	53000100 	movwpl	r0, #256	; 0x100
     5bc:	0000019c 	muleq	r0, ip, r1
     5c0:	000001bc 			; <UNDEFINED> instruction: 0x000001bc
     5c4:	01f30004 	mvnseq	r0, r4
     5c8:	01bc9f53 			; <UNDEFINED> instruction: 0x01bc9f53
     5cc:	01bf0000 			; <UNDEFINED> instruction: 0x01bf0000
     5d0:	00010000 	andeq	r0, r1, r0
     5d4:	0001bf53 	andeq	fp, r1, r3, asr pc
     5d8:	0001d800 	andeq	sp, r1, r0, lsl #16
     5dc:	f3000400 	vshl.u8	d0, d0, d0
     5e0:	009f5301 	addseq	r5, pc, r1, lsl #6
     5e4:	00000000 	andeq	r0, r0, r0
     5e8:	80000000 	andhi	r0, r0, r0
     5ec:	9c000000 	stcls	0, cr0, [r0], {-0}
     5f0:	02000000 	andeq	r0, r0, #0
     5f4:	9c009100 	stflsd	f1, [r0], {-0}
     5f8:	bf000000 	svclt	0x00000000
     5fc:	01000001 	tsteq	r0, r1
     600:	01d85200 	bicseq	r5, r8, r0, lsl #4
     604:	01e30000 	mvneq	r0, r0
     608:	00010000 	andeq	r0, r1, r0
     60c:	00000052 	andeq	r0, r0, r2, asr r0
     610:	00000000 	andeq	r0, r0, r0
     614:	00009c00 	andeq	r9, r0, r0, lsl #24
     618:	00011800 	andeq	r1, r1, r0, lsl #16
     61c:	5d000100 	stfpls	f0, [r0, #-0]
     620:	00000118 	andeq	r0, r0, r8, lsl r1
     624:	0000011c 	andeq	r0, r0, ip, lsl r1
     628:	1c530001 	mrrcne	0, 0, r0, r3, cr1
     62c:	20000001 	andcs	r0, r0, r1
     630:	01000001 	tsteq	r0, r1
     634:	01205100 	teqeq	r0, r0, lsl #2
     638:	01600000 	cmneq	r0, r0
     63c:	00010000 	andeq	r0, r1, r0
     640:	00016053 	andeq	r6, r1, r3, asr r0
     644:	00016800 	andeq	r6, r1, r0, lsl #16
     648:	5d000100 	stfpls	f0, [r0, #-0]
     64c:	00000168 	andeq	r0, r0, r8, ror #2
     650:	0000016c 	andeq	r0, r0, ip, ror #2
     654:	6c5e0001 	mrrcvs	0, 0, r0, lr, cr1
     658:	88000001 	stmdahi	r0, {r0}
     65c:	01000001 	tsteq	r0, r1
     660:	01885300 	orreq	r5, r8, r0, lsl #6
     664:	01900000 	orrseq	r0, r0, r0
     668:	00040000 	andeq	r0, r4, r0
     66c:	9f7fa191 	svcls	0x007fa191
     670:	00000190 	muleq	r0, r0, r1
     674:	00000194 	muleq	r0, r4, r1
     678:	94530001 	ldrbls	r0, [r3], #-1
     67c:	9c000001 	stcls	0, cr0, [r0], {1}
     680:	01000001 	tsteq	r0, r1
     684:	019c5d00 	orrseq	r5, ip, r0, lsl #26
     688:	01a00000 	moveq	r0, r0
     68c:	00010000 	andeq	r0, r1, r0
     690:	0001a05e 	andeq	sl, r1, lr, asr r0
     694:	0001bc00 	andeq	fp, r1, r0, lsl #24
     698:	53000100 	movwpl	r0, #256	; 0x100
     69c:	000001bc 			; <UNDEFINED> instruction: 0x000001bc
     6a0:	000001d8 	ldrdeq	r0, [r0], -r8
     6a4:	d85d0001 	ldmdale	sp, {r0}^
     6a8:	e3000001 	movw	r0, #1
     6ac:	01000001 	tsteq	r0, r1
     6b0:	00005300 	andeq	r5, r0, r0, lsl #6
     6b4:	00000000 	andeq	r0, r0, r0
     6b8:	00a00000 	adceq	r0, r0, r0
     6bc:	00ec0000 	rsceq	r0, ip, r0
     6c0:	00010000 	andeq	r0, r1, r0
     6c4:	0000ec5c 	andeq	lr, r0, ip, asr ip
     6c8:	00010000 	andeq	r0, r1, r0
     6cc:	53000100 	movwpl	r0, #256	; 0x100
     6d0:	00000100 	andeq	r0, r0, r0, lsl #2
     6d4:	00000104 	andeq	r0, r0, r4, lsl #2
     6d8:	045c0001 	ldrbeq	r0, [ip], #-1
     6dc:	08000001 	stmdaeq	r0, {r0}
     6e0:	01000001 	tsteq	r0, r1
     6e4:	01085300 	mrseq	r5, (UNDEF: 56)
     6e8:	01180000 	tsteq	r8, r0
     6ec:	00010000 	andeq	r0, r1, r0
     6f0:	0001185c 	andeq	r1, r1, ip, asr r8
     6f4:	00011c00 	andeq	r1, r1, r0, lsl #24
     6f8:	50000100 	andpl	r0, r0, r0, lsl #2
     6fc:	0000011c 	andeq	r0, r0, ip, lsl r1
     700:	0000013c 	andeq	r0, r0, ip, lsr r1
     704:	445c0001 	ldrbmi	r0, [ip], #-1
     708:	58000001 	stmdapl	r0, {r0}
     70c:	01000001 	tsteq	r0, r1
     710:	01585000 	cmpeq	r8, r0
     714:	01600000 	cmneq	r0, r0
     718:	00010000 	andeq	r0, r1, r0
     71c:	0001605c 	andeq	r6, r1, ip, asr r0
     720:	00016800 	andeq	r6, r1, r0, lsl #16
     724:	53000100 	movwpl	r0, #256	; 0x100
     728:	00000168 	andeq	r0, r0, r8, ror #2
     72c:	00000178 	andeq	r0, r0, r8, ror r1
     730:	785c0001 	ldmdavc	ip, {r0}^
     734:	80000001 	andhi	r0, r0, r1
     738:	05000001 	streq	r0, [r0, #-1]
     73c:	34007c00 	strcc	r7, [r0], #-3072	; 0xc00
     740:	01809f25 	orreq	r9, r0, r5, lsr #30
     744:	01880000 	orreq	r0, r8, r0
     748:	00010000 	andeq	r0, r1, r0
     74c:	0001885c 	andeq	r8, r1, ip, asr r8
     750:	00019000 	andeq	r9, r1, r0
     754:	53000100 	movwpl	r0, #256	; 0x100
     758:	00000190 	muleq	r0, r0, r1
     75c:	00000194 	muleq	r0, r4, r1
     760:	945c0001 	ldrbls	r0, [ip], #-1
     764:	9c000001 	stcls	0, cr0, [r0], {1}
     768:	01000001 	tsteq	r0, r1
     76c:	019c5300 	orrseq	r5, ip, r0, lsl #6
     770:	01ac0000 			; <UNDEFINED> instruction: 0x01ac0000
     774:	00010000 	andeq	r0, r1, r0
     778:	0001ac5c 	andeq	sl, r1, ip, asr ip
     77c:	0001b400 	andeq	fp, r1, r0, lsl #8
     780:	7c000500 	cfstr32vc	mvfx0, [r0], {-0}
     784:	9f253100 	svcls	0x00253100
     788:	000001b4 			; <UNDEFINED> instruction: 0x000001b4
     78c:	000001bc 			; <UNDEFINED> instruction: 0x000001bc
     790:	bc5c0001 	mrrclt	0, 0, r0, ip, cr1
     794:	bf000001 	svclt	0x00000001
     798:	01000001 	tsteq	r0, r1
     79c:	01bf5300 			; <UNDEFINED> instruction: 0x01bf5300
     7a0:	01d80000 	bicseq	r0, r8, r0
     7a4:	00040000 	andeq	r0, r4, r0
     7a8:	9f5301f3 	svcls	0x005301f3
     7ac:	000001d8 	ldrdeq	r0, [r0], -r8
     7b0:	000001e3 	andeq	r0, r0, r3, ror #3
     7b4:	005c0001 	subseq	r0, ip, r1
     7b8:	00000000 	andeq	r0, r0, r0
     7bc:	ec000000 	stc	0, cr0, [r0], {-0}
     7c0:	fc000000 	stc2	0, cr0, [r0], {-0}
     7c4:	02000000 	andeq	r0, r0, #0
     7c8:	fc9f3000 	ldc2	0, cr3, [pc], {0}
     7cc:	04000000 	streq	r0, [r0], #-0
     7d0:	02000001 	andeq	r0, r0, #1
     7d4:	049f3100 	ldreq	r3, [pc], #256	; 7dc <_start-0x7824>
     7d8:	08000001 	stmdaeq	r0, {r0}
     7dc:	02000001 	andeq	r0, r0, #1
     7e0:	009f3000 	addseq	r3, pc, r0
     7e4:	00000000 	andeq	r0, r0, r0
     7e8:	1c000000 	stcne	0, cr0, [r0], {-0}
     7ec:	2b000002 	blcs	7fc <_start-0x7804>
     7f0:	01000002 	tsteq	r0, r2
     7f4:	022b5000 	eoreq	r5, fp, #0
     7f8:	02440000 	subeq	r0, r4, #0
     7fc:	00040000 	andeq	r0, r4, r0
     800:	9f5001f3 	svcls	0x005001f3
     804:	00000244 	andeq	r0, r0, r4, asr #4
     808:	00000270 	andeq	r0, r0, r0, ror r2
     80c:	00500001 	subseq	r0, r0, r1
     810:	00000000 	andeq	r0, r0, r0
     814:	1c000000 	stcne	0, cr0, [r0], {-0}
     818:	2b000002 	blcs	828 <_start-0x77d8>
     81c:	01000002 	tsteq	r0, r2
     820:	022b5100 	eoreq	r5, fp, #0, 2
     824:	02440000 	subeq	r0, r4, #0
     828:	00040000 	andeq	r0, r4, r0
     82c:	9f5101f3 	svcls	0x005101f3
     830:	00000244 	andeq	r0, r0, r4, asr #4
     834:	00000270 	andeq	r0, r0, r0, ror r2
     838:	00510001 	subseq	r0, r1, r1
     83c:	00000000 	andeq	r0, r0, r0
     840:	70000000 	andvc	r0, r0, r0
     844:	9c000002 	stcls	0, cr0, [r0], {2}
     848:	01000002 	tsteq	r0, r2
     84c:	029c5000 	addseq	r5, ip, #0
     850:	04e40000 	strbteq	r0, [r4], #0
     854:	00010000 	andeq	r0, r1, r0
     858:	0004e45a 	andeq	lr, r4, sl, asr r4
     85c:	0004f800 	andeq	pc, r4, r0, lsl #16
     860:	f3000400 	vshl.u8	d0, d0, d0
     864:	009f5001 	addseq	r5, pc, r1
     868:	00000000 	andeq	r0, r0, r0
     86c:	70000000 	andvc	r0, r0, r0
     870:	84000002 	strhi	r0, [r0], #-2
     874:	01000002 	tsteq	r0, r2
     878:	02845100 	addeq	r5, r4, #0, 2
     87c:	029c0000 	addseq	r0, ip, #0
     880:	00030000 	andeq	r0, r3, r0
     884:	9c9f0171 	ldflss	f0, [pc], {113}	; 0x71
     888:	f8000002 			; <UNDEFINED> instruction: 0xf8000002
     88c:	04000004 	streq	r0, [r0], #-4
     890:	5101f300 	mrspl	pc, SP_irq	; <UNPREDICTABLE>
     894:	0000009f 	muleq	r0, pc, r0	; <UNPREDICTABLE>
     898:	00000000 	andeq	r0, r0, r0
     89c:	00027000 	andeq	r7, r2, r0
     8a0:	0002a400 	andeq	sl, r2, r0, lsl #8
     8a4:	52000100 	andpl	r0, r0, #0, 2
     8a8:	000002a4 	andeq	r0, r0, r4, lsr #5
     8ac:	000002cc 	andeq	r0, r0, ip, asr #5
     8b0:	cc520001 	mrrcgt	0, 0, r0, r2, cr1
     8b4:	94000002 	strls	r0, [r0], #-2
     8b8:	01000004 	tsteq	r0, r4
     8bc:	04945600 	ldreq	r5, [r4], #1536	; 0x600
     8c0:	04f80000 	ldrbteq	r0, [r8], #0
     8c4:	00010000 	andeq	r0, r1, r0
     8c8:	00000052 	andeq	r0, r0, r2, asr r0
     8cc:	00000000 	andeq	r0, r0, r0
     8d0:	00027000 	andeq	r7, r2, r0
     8d4:	00028c00 	andeq	r8, r2, r0, lsl #24
     8d8:	53000100 	movwpl	r0, #256	; 0x100
	...
     8e4:	00000280 	andeq	r0, r0, r0, lsl #5
     8e8:	0000029c 	muleq	r0, ip, r2
     8ec:	9c500001 	mrrcls	0, 0, r0, r0, cr1	; <UNPREDICTABLE>
     8f0:	a0000002 	andge	r0, r0, r2
     8f4:	01000002 	tsteq	r0, r2
     8f8:	02a05400 	adceq	r5, r0, #0, 8
     8fc:	02ac0000 	adceq	r0, ip, #0
     900:	00030000 	andeq	r0, r3, r0
     904:	ac9f0174 	ldfges	f0, [pc], {116}	; 0x74
     908:	b8000002 	stmdalt	r0, {r1}
     90c:	01000002 	tsteq	r0, r2
     910:	02b85400 	adcseq	r5, r8, #0, 8
     914:	02c40000 	sbceq	r0, r4, #0
     918:	00030000 	andeq	r0, r3, r0
     91c:	c49f0174 	ldrgt	r0, [pc], #372	; 924 <_start-0x76dc>
     920:	98000002 	stmdals	r0, {r1}
     924:	01000004 	tsteq	r0, r4
     928:	04985400 	ldreq	r5, [r8], #1024	; 0x400
     92c:	04a40000 	strteq	r0, [r4], #0
     930:	00030000 	andeq	r0, r3, r0
     934:	a49f0174 	ldrge	r0, [pc], #372	; 93c <_start-0x76c4>
     938:	d0000004 	andle	r0, r0, r4
     93c:	01000004 	tsteq	r0, r4
     940:	04d05400 	ldrbeq	r5, [r0], #1024	; 0x400
     944:	04dc0000 	ldrbeq	r0, [ip], #0
     948:	00010000 	andeq	r0, r1, r0
     94c:	0004dc50 	andeq	sp, r4, r0, asr ip
     950:	0004e400 	andeq	lr, r4, r0, lsl #8
     954:	74000300 	strvc	r0, [r0], #-768	; 0x300
     958:	00009f01 	andeq	r9, r0, r1, lsl #30
     95c:	00000000 	andeq	r0, r0, r0
     960:	02880000 	addeq	r0, r8, #0
     964:	04e40000 	strbteq	r0, [r4], #0
     968:	00010000 	andeq	r0, r1, r0
     96c:	0004e458 	andeq	lr, r4, r8, asr r4
     970:	0004f800 	andeq	pc, r4, r0, lsl #16
     974:	f3000a00 	vpmax.u8	d0, d0, d0
     978:	01f35101 	mvnseq	r5, r1, lsl #2
     97c:	1c312250 	lfmne	f2, 4, [r1], #-320	; 0xfffffec0
     980:	0000009f 	muleq	r0, pc, r0	; <UNPREDICTABLE>
     984:	00000000 	andeq	r0, r0, r0
     988:	0003cc00 	andeq	ip, r3, r0, lsl #24
     98c:	0003d000 	andeq	sp, r3, r0
     990:	50000100 	andpl	r0, r0, r0, lsl #2
     994:	000003f0 	strdeq	r0, [r0], -r0	; <UNPREDICTABLE>
     998:	000003f4 	strdeq	r0, [r0], -r4
     99c:	14500001 	ldrbne	r0, [r0], #-1
     9a0:	18000004 	stmdane	r0, {r2}
     9a4:	01000004 	tsteq	r0, r4
     9a8:	04385000 	ldrteq	r5, [r8], #-0
     9ac:	043c0000 	ldrteq	r0, [ip], #-0
     9b0:	00010000 	andeq	r0, r1, r0
     9b4:	00044450 	andeq	r4, r4, r0, asr r4
     9b8:	00044800 	andeq	r4, r4, r0, lsl #16
     9bc:	50000100 	andpl	r0, r0, r0, lsl #2
     9c0:	00000468 	andeq	r0, r0, r8, ror #8
     9c4:	0000046c 	andeq	r0, r0, ip, ror #8
     9c8:	90500001 	subsls	r0, r0, r1
     9cc:	b8000004 	stmdalt	r0, {r2}
     9d0:	01000004 	tsteq	r0, r4
     9d4:	00005000 	andeq	r5, r0, r0
     9d8:	00000000 	andeq	r0, r0, r0
     9dc:	02cc0000 	sbceq	r0, ip, #0
     9e0:	02d40000 	sbcseq	r0, r4, #0
     9e4:	00020000 	andeq	r0, r2, r0
     9e8:	02d49f30 	sbcseq	r9, r4, #48, 30	; 0xc0
     9ec:	02d80000 	sbcseq	r0, r8, #0
     9f0:	00010000 	andeq	r0, r1, r0
     9f4:	0002e457 	andeq	lr, r2, r7, asr r4
     9f8:	0004b800 	andeq	fp, r4, r0, lsl #16
     9fc:	57000100 	strpl	r0, [r0, -r0, lsl #2]
	...
     a0c:	0000000c 	andeq	r0, r0, ip
     a10:	0c500001 	mrrceq	0, 0, r0, r0, cr1	; <UNPREDICTABLE>
     a14:	20000000 	andcs	r0, r0, r0
     a18:	01000000 	mrseq	r0, (UNDEF: 0)
     a1c:	00005400 	andeq	r5, r0, r0, lsl #8
     a20:	00000000 	andeq	r0, r0, r0
     a24:	00340000 	eorseq	r0, r4, r0
     a28:	003c0000 	eorseq	r0, ip, r0
     a2c:	00030000 	andeq	r0, r3, r0
     a30:	3c9f0473 	cfldrscc	mvf0, [pc], {115}	; 0x73
     a34:	47000000 	strmi	r0, [r0, -r0]
     a38:	01000000 	mrseq	r0, (UNDEF: 0)
     a3c:	00005300 	andeq	r5, r0, r0, lsl #6
     a40:	00000000 	andeq	r0, r0, r0
     a44:	00480000 	subeq	r0, r8, r0
     a48:	00740000 	rsbseq	r0, r4, r0
     a4c:	00010000 	andeq	r0, r1, r0
     a50:	00007450 	andeq	r7, r0, r0, asr r4
     a54:	00008300 	andeq	r8, r0, r0, lsl #6
     a58:	73000300 	movwvc	r0, #768	; 0x300
     a5c:	00009f78 	andeq	r9, r0, r8, ror pc
     a60:	00000000 	andeq	r0, r0, r0
     a64:	89e80000 	stmibhi	r8!, {}^	; <UNPREDICTABLE>
     a68:	89ec0000 	stmibhi	ip!, {}^	; <UNPREDICTABLE>
     a6c:	00020000 	andeq	r0, r2, r0
     a70:	89ec9f30 	stmibhi	ip!, {r4, r5, r8, r9, sl, fp, ip, pc}^
     a74:	89f00000 	ldmibhi	r0!, {}^	; <UNPREDICTABLE>
     a78:	00010000 	andeq	r0, r1, r0
     a7c:	00000050 	andeq	r0, r0, r0, asr r0
     a80:	00000000 	andeq	r0, r0, r0
     a84:	008a0000 	addeq	r0, sl, r0
     a88:	008a0400 	addeq	r0, sl, r0, lsl #8
     a8c:	30000200 	andcc	r0, r0, r0, lsl #4
     a90:	008a049f 	umulleq	r0, sl, pc, r4	; <UNPREDICTABLE>
     a94:	008a0800 	addeq	r0, sl, r0, lsl #16
     a98:	53000100 	movwpl	r0, #256	; 0x100
     a9c:	00008a0c 	andeq	r8, r0, ip, lsl #20
     aa0:	00008a14 	andeq	r8, r0, r4, lsl sl
     aa4:	00530001 	subseq	r0, r3, r1
	...
     ab0:	04000000 	streq	r0, [r0], #-0
     ab4:	01000000 	mrseq	r0, (UNDEF: 0)
     ab8:	00045000 	andeq	r5, r4, r0
     abc:	000c0000 	andeq	r0, ip, r0
     ac0:	00010000 	andeq	r0, r1, r0
     ac4:	00000c53 	andeq	r0, r0, r3, asr ip
     ac8:	00001000 	andeq	r1, r0, r0
     acc:	50000100 	andpl	r0, r0, r0, lsl #2
     ad0:	00000010 	andeq	r0, r0, r0, lsl r0
     ad4:	0000001c 	andeq	r0, r0, ip, lsl r0
     ad8:	00530001 	subseq	r0, r3, r1
     adc:	00000000 	andeq	r0, r0, r0
     ae0:	3c000000 	stccc	0, cr0, [r0], {-0}
     ae4:	47000000 	strmi	r0, [r0, -r0]
     ae8:	01000000 	mrseq	r0, (UNDEF: 0)
     aec:	00475000 	subeq	r5, r7, r0
     af0:	00600000 	rsbeq	r0, r0, r0
     af4:	00010000 	andeq	r0, r1, r0
     af8:	00000055 	andeq	r0, r0, r5, asr r0
     afc:	00000000 	andeq	r0, r0, r0
     b00:	00005000 	andeq	r5, r0, r0
     b04:	00005400 	andeq	r5, r0, r0, lsl #8
     b08:	50000100 	andpl	r0, r0, r0, lsl #2
	...
     b14:	00000060 	andeq	r0, r0, r0, rrx
     b18:	0000006c 	andeq	r0, r0, ip, rrx
     b1c:	6c500001 	mrrcvs	0, 0, r0, r0, cr1	; <UNPREDICTABLE>
     b20:	74000000 	strvc	r0, [r0], #-0
     b24:	04000000 	streq	r0, [r0], #-0
     b28:	5001f300 	andpl	pc, r1, r0, lsl #6
     b2c:	0000009f 	muleq	r0, pc, r0	; <UNPREDICTABLE>
     b30:	00000000 	andeq	r0, r0, r0
     b34:	00007400 	andeq	r7, r0, r0, lsl #8
     b38:	00008000 	andeq	r8, r0, r0
     b3c:	50000100 	andpl	r0, r0, r0, lsl #2
     b40:	00000080 	andeq	r0, r0, r0, lsl #1
     b44:	00000088 	andeq	r0, r0, r8, lsl #1
     b48:	01f30004 	mvnseq	r0, r4
     b4c:	00009f50 	andeq	r9, r0, r0, asr pc
	...
     b58:	00180000 	andseq	r0, r8, r0
     b5c:	00010000 	andeq	r0, r1, r0
     b60:	00001850 	andeq	r1, r0, r0, asr r8
     b64:	00015400 	andeq	r5, r1, r0, lsl #8
     b68:	f3000400 	vshl.u8	d0, d0, d0
     b6c:	009f5001 	addseq	r5, pc, r1
	...
     b78:	1c000000 	stcne	0, cr0, [r0], {-0}
     b7c:	01000000 	mrseq	r0, (UNDEF: 0)
     b80:	001c5100 	andseq	r5, ip, r0, lsl #2
     b84:	01540000 	cmpeq	r4, r0
     b88:	00040000 	andeq	r0, r4, r0
     b8c:	9f5101f3 	svcls	0x005101f3
	...
     b98:	00000010 	andeq	r0, r0, r0, lsl r0
     b9c:	00000134 	andeq	r0, r0, r4, lsr r1
     ba0:	00550001 	subseq	r0, r5, r1
     ba4:	00000000 	andeq	r0, r0, r0
     ba8:	10000000 	andne	r0, r0, r0
     bac:	34000000 	strcc	r0, [r0], #-0
     bb0:	01000000 	mrseq	r0, (UNDEF: 0)
     bb4:	00345500 	eorseq	r5, r4, r0, lsl #10
     bb8:	01340000 	teqeq	r4, r0
     bbc:	00010000 	andeq	r0, r1, r0
     bc0:	00013458 	andeq	r3, r1, r8, asr r4
     bc4:	00015400 	andeq	r5, r1, r0, lsl #8
     bc8:	55000100 	strpl	r0, [r0, #-256]	; 0x100
	...
     bd4:	00000014 	andeq	r0, r0, r4, lsl r0
     bd8:	00000134 	andeq	r0, r0, r4, lsr r1
     bdc:	00550001 	subseq	r0, r5, r1
     be0:	00000000 	andeq	r0, r0, r0
     be4:	20000000 	andcs	r0, r0, r0
     be8:	34000000 	strcc	r0, [r0], #-0
     bec:	01000001 	tsteq	r0, r1
     bf0:	00005500 	andeq	r5, r0, r0, lsl #10
     bf4:	00000000 	andeq	r0, r0, r0
     bf8:	00240000 	eoreq	r0, r4, r0
     bfc:	00280000 	eoreq	r0, r8, r0
     c00:	00010000 	andeq	r0, r1, r0
     c04:	00000053 	andeq	r0, r0, r3, asr r0
     c08:	00000000 	andeq	r0, r0, r0
     c0c:	00003400 	andeq	r3, r0, r0, lsl #8
     c10:	00005400 	andeq	r5, r0, r0, lsl #8
     c14:	58000100 	stmdapl	r0, {r8}
     c18:	00000054 	andeq	r0, r0, r4, asr r0
     c1c:	00000134 	andeq	r0, r0, r4, lsr r1
     c20:	00750005 	rsbseq	r0, r5, r5
     c24:	009f2431 	addseq	r2, pc, r1, lsr r4	; <UNPREDICTABLE>
     c28:	00000000 	andeq	r0, r0, r0
     c2c:	34000000 	strcc	r0, [r0], #-0
     c30:	3c000000 	stccc	0, cr0, [r0], {-0}
     c34:	05000000 	streq	r0, [r0, #-0]
     c38:	31007700 	tstcc	r0, r0, lsl #14
     c3c:	003c9f1a 	eorseq	r9, ip, sl, lsl pc
     c40:	003f0000 	eorseq	r0, pc, r0
     c44:	00010000 	andeq	r0, r1, r0
     c48:	00003f51 	andeq	r3, r0, r1, asr pc
     c4c:	00015400 	andeq	r5, r1, r0, lsl #8
     c50:	77000500 	strvc	r0, [r0, -r0, lsl #10]
     c54:	9f1a3100 	svcls	0x001a3100
	...
     c60:	00000040 	andeq	r0, r0, r0, asr #32
     c64:	00000054 	andeq	r0, r0, r4, asr r0
     c68:	54580001 	ldrbpl	r0, [r8], #-1
     c6c:	34000000 	strcc	r0, [r0], #-0
     c70:	05000001 	streq	r0, [r0, #-1]
     c74:	31007500 	tstcc	r0, r0, lsl #10
     c78:	00009f24 	andeq	r9, r0, r4, lsr #30
     c7c:	00000000 	andeq	r0, r0, r0
     c80:	00440000 	subeq	r0, r4, r0
     c84:	00480000 	subeq	r0, r8, r0
     c88:	00010000 	andeq	r0, r1, r0
     c8c:	00000053 	andeq	r0, r0, r3, asr r0
     c90:	00000000 	andeq	r0, r0, r0
     c94:	00005400 	andeq	r5, r0, r0, lsl #8
     c98:	00007400 	andeq	r7, r0, r0, lsl #8
     c9c:	58000100 	stmdapl	r0, {r8}
     ca0:	00000074 	andeq	r0, r0, r4, ror r0
     ca4:	00000134 	andeq	r0, r0, r4, lsr r1
     ca8:	00750008 	rsbseq	r0, r5, r8
     cac:	00752431 	rsbseq	r2, r5, r1, lsr r4
     cb0:	00009f22 	andeq	r9, r0, r2, lsr #30
     cb4:	00000000 	andeq	r0, r0, r0
     cb8:	00600000 	rsbeq	r0, r0, r0
     cbc:	00740000 	rsbseq	r0, r4, r0
     cc0:	00010000 	andeq	r0, r1, r0
     cc4:	00007458 	andeq	r7, r0, r8, asr r4
     cc8:	00013400 	andeq	r3, r1, r0, lsl #8
     ccc:	75000800 	strvc	r0, [r0, #-2048]	; 0x800
     cd0:	75243100 	strvc	r3, [r4, #-256]!	; 0x100
     cd4:	009f2200 	addseq	r2, pc, r0, lsl #4
     cd8:	00000000 	andeq	r0, r0, r0
     cdc:	64000000 	strvs	r0, [r0], #-0
     ce0:	68000000 	stmdavs	r0, {}	; <UNPREDICTABLE>
     ce4:	01000000 	mrseq	r0, (UNDEF: 0)
     ce8:	00005300 	andeq	r5, r0, r0, lsl #6
     cec:	00000000 	andeq	r0, r0, r0
     cf0:	00740000 	rsbseq	r0, r4, r0
     cf4:	00940000 	addseq	r0, r4, r0
     cf8:	00010000 	andeq	r0, r1, r0
     cfc:	00009458 	andeq	r9, r0, r8, asr r4
     d00:	00013400 	andeq	r3, r1, r0, lsl #8
     d04:	75000500 	strvc	r0, [r0, #-1280]	; 0x500
     d08:	9f243200 	svcls	0x00243200
	...
     d14:	00000080 	andeq	r0, r0, r0, lsl #1
     d18:	00000094 	muleq	r0, r4, r0
     d1c:	94580001 	ldrbls	r0, [r8], #-1
     d20:	34000000 	strcc	r0, [r0], #-0
     d24:	05000001 	streq	r0, [r0, #-1]
     d28:	32007500 	andcc	r7, r0, #0, 10
     d2c:	00009f24 	andeq	r9, r0, r4, lsr #30
     d30:	00000000 	andeq	r0, r0, r0
     d34:	00840000 	addeq	r0, r4, r0
     d38:	00880000 	addeq	r0, r8, r0
     d3c:	00010000 	andeq	r0, r1, r0
     d40:	00000053 	andeq	r0, r0, r3, asr r0
     d44:	00000000 	andeq	r0, r0, r0
     d48:	00009400 	andeq	r9, r0, r0, lsl #8
     d4c:	0000b400 	andeq	fp, r0, r0, lsl #8
     d50:	58000100 	stmdapl	r0, {r8}
     d54:	000000b4 	strheq	r0, [r0], -r4
     d58:	00000134 	andeq	r0, r0, r4, lsr r1
     d5c:	00750008 	rsbseq	r0, r5, r8
     d60:	00752432 	rsbseq	r2, r5, r2, lsr r4
     d64:	00009f22 	andeq	r9, r0, r2, lsr #30
     d68:	00000000 	andeq	r0, r0, r0
     d6c:	00a00000 	adceq	r0, r0, r0
     d70:	00b40000 	adcseq	r0, r4, r0
     d74:	00010000 	andeq	r0, r1, r0
     d78:	0000b458 	andeq	fp, r0, r8, asr r4
     d7c:	00013400 	andeq	r3, r1, r0, lsl #8
     d80:	75000800 	strvc	r0, [r0, #-2048]	; 0x800
     d84:	75243200 	strvc	r3, [r4, #-512]!	; 0x200
     d88:	009f2200 	addseq	r2, pc, r0, lsl #4
     d8c:	00000000 	andeq	r0, r0, r0
     d90:	a4000000 	strge	r0, [r0], #-0
     d94:	a8000000 	stmdage	r0, {}	; <UNPREDICTABLE>
     d98:	01000000 	mrseq	r0, (UNDEF: 0)
     d9c:	00005300 	andeq	r5, r0, r0, lsl #6
     da0:	00000000 	andeq	r0, r0, r0
     da4:	00b40000 	adcseq	r0, r4, r0
     da8:	00d40000 	sbcseq	r0, r4, r0
     dac:	00010000 	andeq	r0, r1, r0
     db0:	0000d458 	andeq	sp, r0, r8, asr r4
     db4:	00013400 	andeq	r3, r1, r0, lsl #8
     db8:	75000a00 	strvc	r0, [r0, #-2560]	; 0xa00
     dbc:	75243200 	strvc	r3, [r4, #-512]!	; 0x200
     dc0:	22243100 	eorcs	r3, r4, #0, 2
     dc4:	0000009f 	muleq	r0, pc, r0	; <UNPREDICTABLE>
     dc8:	00000000 	andeq	r0, r0, r0
     dcc:	0000c000 	andeq	ip, r0, r0
     dd0:	0000d400 	andeq	sp, r0, r0, lsl #8
     dd4:	58000100 	stmdapl	r0, {r8}
     dd8:	000000d4 	ldrdeq	r0, [r0], -r4
     ddc:	00000134 	andeq	r0, r0, r4, lsr r1
     de0:	0075000a 	rsbseq	r0, r5, sl
     de4:	00752432 	rsbseq	r2, r5, r2, lsr r4
     de8:	9f222431 	svcls	0x00222431
	...
     df4:	000000c4 	andeq	r0, r0, r4, asr #1
     df8:	000000c8 	andeq	r0, r0, r8, asr #1
     dfc:	00530001 	subseq	r0, r3, r1
     e00:	00000000 	andeq	r0, r0, r0
     e04:	d4000000 	strle	r0, [r0], #-0
     e08:	f4000000 	vst4.8	{d0-d3}, [r0], r0
     e0c:	01000000 	mrseq	r0, (UNDEF: 0)
     e10:	00f45800 	rscseq	r5, r4, r0, lsl #16
     e14:	01340000 	teqeq	r4, r0
     e18:	000d0000 	andeq	r0, sp, r0
     e1c:	24320075 	ldrtcs	r0, [r2], #-117	; 0x75
     e20:	24310075 	ldrtcs	r0, [r1], #-117	; 0x75
     e24:	22007522 	andcs	r7, r0, #142606336	; 0x8800000
     e28:	0000009f 	muleq	r0, pc, r0	; <UNPREDICTABLE>
     e2c:	00000000 	andeq	r0, r0, r0
     e30:	0000e000 	andeq	lr, r0, r0
     e34:	0000f400 	andeq	pc, r0, r0, lsl #8
     e38:	58000100 	stmdapl	r0, {r8}
     e3c:	000000f4 	strdeq	r0, [r0], -r4
     e40:	00000134 	andeq	r0, r0, r4, lsr r1
     e44:	0075000d 	rsbseq	r0, r5, sp
     e48:	00752432 	rsbseq	r2, r5, r2, lsr r4
     e4c:	75222431 	strvc	r2, [r2, #-1073]!	; 0x431
     e50:	009f2200 	addseq	r2, pc, r0, lsl #4
     e54:	00000000 	andeq	r0, r0, r0
     e58:	e4000000 	str	r0, [r0], #-0
     e5c:	e8000000 	stmda	r0, {}	; <UNPREDICTABLE>
     e60:	01000000 	mrseq	r0, (UNDEF: 0)
     e64:	00005300 	andeq	r5, r0, r0, lsl #6
     e68:	00000000 	andeq	r0, r0, r0
     e6c:	00f40000 	rscseq	r0, r4, r0
     e70:	01140000 	tsteq	r4, r0
     e74:	00010000 	andeq	r0, r1, r0
     e78:	00011458 	andeq	r1, r1, r8, asr r4
     e7c:	00013400 	andeq	r3, r1, r0, lsl #8
     e80:	75000500 	strvc	r0, [r0, #-1280]	; 0x500
     e84:	9f243300 	svcls	0x00243300
	...
     e90:	00000100 	andeq	r0, r0, r0, lsl #2
     e94:	00000114 	andeq	r0, r0, r4, lsl r1
     e98:	14580001 	ldrbne	r0, [r8], #-1
     e9c:	34000001 	strcc	r0, [r0], #-1
     ea0:	05000001 	streq	r0, [r0, #-1]
     ea4:	33007500 	movwcc	r7, #1280	; 0x500
     ea8:	00009f24 	andeq	r9, r0, r4, lsr #30
     eac:	00000000 	andeq	r0, r0, r0
     eb0:	01040000 	mrseq	r0, (UNDEF: 4)
     eb4:	01080000 	mrseq	r0, (UNDEF: 8)
     eb8:	00010000 	andeq	r0, r1, r0
     ebc:	00000053 	andeq	r0, r0, r3, asr r0
     ec0:	00000000 	andeq	r0, r0, r0
     ec4:	00011400 	andeq	r1, r1, r0, lsl #8
     ec8:	00011c00 	andeq	r1, r1, r0, lsl #24
     ecc:	77000600 	strvc	r0, [r0, -r0, lsl #12]
     ed0:	1a800800 	bne	fe002ed8 <__bss_end__+0xfdff8c88>
     ed4:	00011c9f 	muleq	r1, pc, ip	; <UNPREDICTABLE>
     ed8:	00011f00 	andeq	r1, r1, r0, lsl #30
     edc:	51000100 	mrspl	r0, (UNDEF: 16)
     ee0:	0000011f 	andeq	r0, r0, pc, lsl r1
     ee4:	00000154 	andeq	r0, r0, r4, asr r1
     ee8:	00770006 	rsbseq	r0, r7, r6
     eec:	9f1a8008 	svcls	0x001a8008
	...
     ef8:	00000124 	andeq	r0, r0, r4, lsr #2
     efc:	00000128 	andeq	r0, r0, r8, lsr #2
     f00:	00530001 	subseq	r0, r3, r1
     f04:	00000000 	andeq	r0, r0, r0
     f08:	44000000 	strmi	r0, [r0], #-0
     f0c:	48000001 	stmdami	r0, {r0}
     f10:	01000001 	tsteq	r0, r1
     f14:	00005300 	andeq	r5, r0, r0, lsl #6
     f18:	00000000 	andeq	r0, r0, r0
     f1c:	01540000 	cmpeq	r4, r0
     f20:	016b0000 	cmneq	fp, r0
     f24:	00010000 	andeq	r0, r1, r0
     f28:	00016b50 	andeq	r6, r1, r0, asr fp
     f2c:	0001d000 	andeq	sp, r1, r0
     f30:	59000100 	stmdbpl	r0, {r8}
     f34:	000001d0 	ldrdeq	r0, [r0], -r0	; <UNPREDICTABLE>
     f38:	0000030c 	andeq	r0, r0, ip, lsl #6
     f3c:	01f30004 	mvnseq	r0, r4
     f40:	030c9f50 	movweq	r9, #53072	; 0xcf50
     f44:	03140000 	tsteq	r4, #0
     f48:	00010000 	andeq	r0, r1, r0
     f4c:	00031459 	andeq	r1, r3, r9, asr r4
     f50:	00031c00 	andeq	r1, r3, r0, lsl #24
     f54:	f3000400 	vshl.u8	d0, d0, d0
     f58:	009f5001 	addseq	r5, pc, r1
     f5c:	00000000 	andeq	r0, r0, r0
     f60:	54000000 	strpl	r0, [r0], #-0
     f64:	6b000001 	blvs	f70 <_start-0x7090>
     f68:	01000001 	tsteq	r0, r1
     f6c:	016b5100 	cmneq	fp, r0, lsl #2
     f70:	031c0000 	tsteq	ip, #0
     f74:	00010000 	andeq	r0, r1, r0
     f78:	00000056 	andeq	r0, r0, r6, asr r0
     f7c:	00000000 	andeq	r0, r0, r0
     f80:	0001a800 	andeq	sl, r1, r0, lsl #16
     f84:	00029800 	andeq	r9, r2, r0, lsl #16
     f88:	58000100 	stmdapl	r0, {r8}
	...
     f94:	000001ac 	andeq	r0, r0, ip, lsr #3
     f98:	000002d0 	ldrdeq	r0, [r0], -r0	; <UNPREDICTABLE>
     f9c:	00540001 	subseq	r0, r4, r1
     fa0:	00000000 	andeq	r0, r0, r0
     fa4:	ac000000 	stcge	0, cr0, [r0], {-0}
     fa8:	d0000001 	andle	r0, r0, r1
     fac:	05000002 	streq	r0, [r0, #-2]
     fb0:	31007400 	tstcc	r0, r0, lsl #8
     fb4:	00009f25 	andeq	r9, r0, r5, lsr #30
     fb8:	00000000 	andeq	r0, r0, r0
     fbc:	01ac0000 			; <UNDEFINED> instruction: 0x01ac0000
     fc0:	01d00000 	bicseq	r0, r0, r0
     fc4:	00020000 	andeq	r0, r2, r0
     fc8:	01d09f30 	bicseq	r9, r0, r0, lsr pc
     fcc:	030c0000 	movweq	r0, #49152	; 0xc000
     fd0:	00010000 	andeq	r0, r1, r0
     fd4:	00031459 	andeq	r1, r3, r9, asr r4
     fd8:	00031c00 	andeq	r1, r3, r0, lsl #24
     fdc:	59000100 	stmdbpl	r0, {r8}
	...
     fe8:	00000168 	andeq	r0, r0, r8, ror #2
     fec:	0000016b 	andeq	r0, r0, fp, ror #2
     ff0:	6b510001 	blvs	1440ffc <__bss_end__+0x1436dac>
     ff4:	1c000001 	stcne	0, cr0, [r0], {1}
     ff8:	01000003 	tsteq	r0, r3
     ffc:	00005600 	andeq	r5, r0, r0, lsl #12
    1000:	00000000 	andeq	r0, r0, r0
    1004:	01700000 	cmneq	r0, r0
    1008:	01ac0000 			; <UNDEFINED> instruction: 0x01ac0000
    100c:	00010000 	andeq	r0, r1, r0
    1010:	00030c54 	andeq	r0, r3, r4, asr ip
    1014:	00031400 	andeq	r1, r3, r0, lsl #8
    1018:	54000100 	strpl	r0, [r0], #-256	; 0x100
	...
    1024:	000001a8 	andeq	r0, r0, r8, lsr #3
    1028:	000001c4 	andeq	r0, r0, r4, asr #3
    102c:	00580001 	subseq	r0, r8, r1
    1030:	00000000 	andeq	r0, r0, r0
    1034:	b0000000 	andlt	r0, r0, r0
    1038:	cb000001 	blgt	1044 <_start-0x6fbc>
    103c:	01000001 	tsteq	r0, r1
    1040:	01cb5200 	biceq	r5, fp, r0, lsl #4
    1044:	02d00000 	sbcseq	r0, r0, #0
    1048:	00080000 	andeq	r0, r8, r0
    104c:	25310074 	ldrcs	r0, [r1, #-116]!	; 0x74
    1050:	9f220074 	svcls	0x00220074
	...
    105c:	000001b0 			; <UNDEFINED> instruction: 0x000001b0
    1060:	000001c4 	andeq	r0, r0, r4, asr #3
    1064:	00580001 	subseq	r0, r8, r1
    1068:	00000000 	andeq	r0, r0, r0
    106c:	b4000000 	strlt	r0, [r0], #-0
    1070:	b8000001 	stmdalt	r0, {r0}
    1074:	01000001 	tsteq	r0, r1
    1078:	00005300 	andeq	r5, r0, r0, lsl #6
    107c:	00000000 	andeq	r0, r0, r0
    1080:	01d00000 	bicseq	r0, r0, r0
    1084:	02d00000 	sbcseq	r0, r0, #0
    1088:	00010000 	andeq	r0, r1, r0
    108c:	00000054 	andeq	r0, r0, r4, asr r0
    1090:	00000000 	andeq	r0, r0, r0
    1094:	0001d000 	andeq	sp, r1, r0
    1098:	0001e400 	andeq	lr, r1, r0, lsl #8
    109c:	58000100 	stmdapl	r0, {r8}
	...
    10a8:	000001d4 	ldrdeq	r0, [r0], -r4
    10ac:	000001d8 	ldrdeq	r0, [r0], -r8
    10b0:	00530001 	subseq	r0, r3, r1
    10b4:	00000000 	andeq	r0, r0, r0
    10b8:	f4000000 	vst4.8	{d0-d3}, [r0], r0
    10bc:	d0000001 	andle	r0, r0, r1
    10c0:	01000002 	tsteq	r0, r2
    10c4:	00005400 	andeq	r5, r0, r0, lsl #8
    10c8:	00000000 	andeq	r0, r0, r0
    10cc:	01f40000 	mvnseq	r0, r0
    10d0:	02080000 	andeq	r0, r8, #0
    10d4:	00010000 	andeq	r0, r1, r0
    10d8:	00000058 	andeq	r0, r0, r8, asr r0
    10dc:	00000000 	andeq	r0, r0, r0
    10e0:	0001f800 	andeq	pc, r1, r0, lsl #16
    10e4:	0001fc00 	andeq	pc, r1, r0, lsl #24
    10e8:	53000100 	movwpl	r0, #256	; 0x100
	...
    10f4:	00000218 	andeq	r0, r0, r8, lsl r2
    10f8:	000002d0 	ldrdeq	r0, [r0], -r0	; <UNPREDICTABLE>
    10fc:	00540001 	subseq	r0, r4, r1
    1100:	00000000 	andeq	r0, r0, r0
    1104:	18000000 	stmdane	r0, {}	; <UNPREDICTABLE>
    1108:	2c000002 	stccs	0, cr0, [r0], {2}
    110c:	01000002 	tsteq	r0, r2
    1110:	00005800 	andeq	r5, r0, r0, lsl #16
    1114:	00000000 	andeq	r0, r0, r0
    1118:	021c0000 	andseq	r0, ip, #0
    111c:	02200000 	eoreq	r0, r0, #0
    1120:	00010000 	andeq	r0, r1, r0
    1124:	00000053 	andeq	r0, r0, r3, asr r0
    1128:	00000000 	andeq	r0, r0, r0
    112c:	00023c00 	andeq	r3, r2, r0, lsl #24
    1130:	0002d000 	andeq	sp, r2, r0
    1134:	54000100 	strpl	r0, [r0], #-256	; 0x100
	...
    1140:	0000023c 	andeq	r0, r0, ip, lsr r2
    1144:	00000250 	andeq	r0, r0, r0, asr r2
    1148:	00580001 	subseq	r0, r8, r1
    114c:	00000000 	andeq	r0, r0, r0
    1150:	40000000 	andmi	r0, r0, r0
    1154:	44000002 	strmi	r0, [r0], #-2
    1158:	01000002 	tsteq	r0, r2
    115c:	00005300 	andeq	r5, r0, r0, lsl #6
    1160:	00000000 	andeq	r0, r0, r0
    1164:	02600000 	rsbeq	r0, r0, #0
    1168:	02d00000 	sbcseq	r0, r0, #0
    116c:	00010000 	andeq	r0, r1, r0
    1170:	00000054 	andeq	r0, r0, r4, asr r0
    1174:	00000000 	andeq	r0, r0, r0
    1178:	00026000 	andeq	r6, r2, r0
    117c:	00027400 	andeq	r7, r2, r0, lsl #8
    1180:	58000100 	stmdapl	r0, {r8}
	...
    118c:	00000264 	andeq	r0, r0, r4, ror #4
    1190:	00000268 	andeq	r0, r0, r8, ror #4
    1194:	00530001 	subseq	r0, r3, r1
    1198:	00000000 	andeq	r0, r0, r0
    119c:	84000000 	strhi	r0, [r0], #-0
    11a0:	d0000002 	andle	r0, r0, r2
    11a4:	01000002 	tsteq	r0, r2
    11a8:	00005400 	andeq	r5, r0, r0, lsl #8
    11ac:	00000000 	andeq	r0, r0, r0
    11b0:	02840000 	addeq	r0, r4, #0
    11b4:	02980000 	addseq	r0, r8, #0
    11b8:	00010000 	andeq	r0, r1, r0
    11bc:	00000058 	andeq	r0, r0, r8, asr r0
    11c0:	00000000 	andeq	r0, r0, r0
    11c4:	00028800 	andeq	r8, r2, r0, lsl #16
    11c8:	00028c00 	andeq	r8, r2, r0, lsl #24
    11cc:	53000100 	movwpl	r0, #256	; 0x100
	...
    11d8:	000002a8 	andeq	r0, r0, r8, lsr #5
    11dc:	000002d0 	ldrdeq	r0, [r0], -r0	; <UNPREDICTABLE>
    11e0:	00540001 	subseq	r0, r4, r1
    11e4:	00000000 	andeq	r0, r0, r0
    11e8:	ac000000 	stcge	0, cr0, [r0], {-0}
    11ec:	b0000002 	andlt	r0, r0, r2
    11f0:	01000002 	tsteq	r0, r2
    11f4:	00005300 	andeq	r5, r0, r0, lsl #6
    11f8:	00000000 	andeq	r0, r0, r0
    11fc:	02c80000 	sbceq	r0, r8, #0
    1200:	030c0000 	movweq	r0, #49152	; 0xc000
    1204:	00020000 	andeq	r0, r2, r0
    1208:	03149f30 	tsteq	r4, #48, 30	; 0xc0
    120c:	031c0000 	tsteq	ip, #0
    1210:	00020000 	andeq	r0, r2, r0
    1214:	00009f30 	andeq	r9, r0, r0, lsr pc
    1218:	00000000 	andeq	r0, r0, r0
    121c:	02c80000 	sbceq	r0, r8, #0
    1220:	030c0000 	movweq	r0, #49152	; 0xc000
    1224:	00010000 	andeq	r0, r1, r0
    1228:	00031455 	andeq	r1, r3, r5, asr r4
    122c:	00031c00 	andeq	r1, r3, r0, lsl #24
    1230:	55000100 	strpl	r0, [r0, #-256]	; 0x100
	...
    123c:	000002d0 	ldrdeq	r0, [r0], -r0	; <UNPREDICTABLE>
    1240:	0000030c 	andeq	r0, r0, ip, lsl #6
    1244:	14540001 	ldrbne	r0, [r4], #-1
    1248:	1c000003 	stcne	0, cr0, [r0], {3}
    124c:	01000003 	tsteq	r0, r3
    1250:	00005400 	andeq	r5, r0, r0, lsl #8
    1254:	00000000 	andeq	r0, r0, r0
    1258:	031c0000 	tsteq	ip, #0
    125c:	033b0000 	teqeq	fp, #0
    1260:	00010000 	andeq	r0, r1, r0
    1264:	00033b50 	andeq	r3, r3, r0, asr fp
    1268:	00035400 	andeq	r5, r3, r0, lsl #8
    126c:	58000100 	stmdapl	r0, {r8}
    1270:	00000354 	andeq	r0, r0, r4, asr r3
    1274:	00000364 	andeq	r0, r0, r4, ror #6
    1278:	64500001 	ldrbvs	r0, [r0], #-1
    127c:	ac000003 	stcge	0, cr0, [r0], {3}
    1280:	01000003 	tsteq	r0, r3
    1284:	00005800 	andeq	r5, r0, r0, lsl #16
    1288:	00000000 	andeq	r0, r0, r0
    128c:	031c0000 	tsteq	ip, #0
    1290:	033b0000 	teqeq	fp, #0
    1294:	00010000 	andeq	r0, r1, r0
    1298:	00033b51 	andeq	r3, r3, r1, asr fp
    129c:	00035400 	andeq	r5, r3, r0, lsl #8
    12a0:	56000100 	strpl	r0, [r0], -r0, lsl #2
    12a4:	00000354 	andeq	r0, r0, r4, asr r3
    12a8:	00000364 	andeq	r0, r0, r4, ror #6
    12ac:	64510001 	ldrbvs	r0, [r1], #-1
    12b0:	ac000003 	stcge	0, cr0, [r0], {3}
    12b4:	01000003 	tsteq	r0, r3
    12b8:	00005600 	andeq	r5, r0, r0, lsl #12
    12bc:	00000000 	andeq	r0, r0, r0
    12c0:	031c0000 	tsteq	ip, #0
    12c4:	033b0000 	teqeq	fp, #0
    12c8:	00010000 	andeq	r0, r1, r0
    12cc:	00033b52 	andeq	r3, r3, r2, asr fp
    12d0:	00035400 	andeq	r5, r3, r0, lsl #8
    12d4:	f3000400 	vshl.u8	d0, d0, d0
    12d8:	549f5201 	ldrpl	r5, [pc], #513	; 12e0 <_start-0x6d20>
    12dc:	64000003 	strvs	r0, [r0], #-3
    12e0:	01000003 	tsteq	r0, r3
    12e4:	03645200 	cmneq	r4, #0, 4
    12e8:	03ac0000 			; <UNDEFINED> instruction: 0x03ac0000
    12ec:	00030000 	andeq	r0, r3, r0
    12f0:	009f0177 	addseq	r0, pc, r7, ror r1	; <UNPREDICTABLE>
    12f4:	00000000 	andeq	r0, r0, r0
    12f8:	1c000000 	stcne	0, cr0, [r0], {-0}
    12fc:	3b000003 	blcc	1310 <_start-0x6cf0>
    1300:	01000003 	tsteq	r0, r3
    1304:	033b5300 	teqeq	fp, #0, 6
    1308:	03540000 	cmpeq	r4, #0
    130c:	00040000 	andeq	r0, r4, r0
    1310:	9f5301f3 	svcls	0x005301f3
    1314:	00000354 	andeq	r0, r0, r4, asr r3
    1318:	00000364 	andeq	r0, r0, r4, ror #6
    131c:	64530001 	ldrbvs	r0, [r3], #-1
    1320:	ac000003 	stcge	0, cr0, [r0], {3}
    1324:	04000003 	streq	r0, [r0], #-3
    1328:	5301f300 	movwpl	pc, #4864	; 0x1300	; <UNPREDICTABLE>
    132c:	0000009f 	muleq	r0, pc, r0	; <UNPREDICTABLE>
    1330:	00000000 	andeq	r0, r0, r0
    1334:	00035c00 	andeq	r5, r3, r0, lsl #24
    1338:	00036400 	andeq	r6, r3, r0, lsl #8
    133c:	30000200 	andcc	r0, r0, r0, lsl #4
    1340:	0003649f 	muleq	r3, pc, r4	; <UNPREDICTABLE>
    1344:	0003ac00 	andeq	sl, r3, r0, lsl #24
    1348:	54000100 	strpl	r0, [r0], #-256	; 0x100
	...
    1354:	00000374 	andeq	r0, r0, r4, ror r3
    1358:	00000384 	andeq	r0, r0, r4, lsl #7
    135c:	00500001 	subseq	r0, r0, r1
    1360:	00000000 	andeq	r0, r0, r0
    1364:	ac000000 	stcge	0, cr0, [r0], {-0}
    1368:	c7000003 	strgt	r0, [r0, -r3]
    136c:	01000003 	tsteq	r0, r3
    1370:	03c75000 	biceq	r5, r7, #0
    1374:	03e00000 	mvneq	r0, #0
    1378:	00010000 	andeq	r0, r1, r0
    137c:	0003e057 	andeq	lr, r3, r7, asr r0
    1380:	0003f000 	andeq	pc, r3, r0
    1384:	50000100 	andpl	r0, r0, r0, lsl #2
    1388:	000003f0 	strdeq	r0, [r0], -r0	; <UNPREDICTABLE>
    138c:	00000428 	andeq	r0, r0, r8, lsr #8
    1390:	00570001 	subseq	r0, r7, r1
    1394:	00000000 	andeq	r0, r0, r0
    1398:	ac000000 	stcge	0, cr0, [r0], {-0}
    139c:	c7000003 	strgt	r0, [r0, -r3]
    13a0:	01000003 	tsteq	r0, r3
    13a4:	03c75100 	biceq	r5, r7, #0, 2
    13a8:	03e00000 	mvneq	r0, #0
    13ac:	00010000 	andeq	r0, r1, r0
    13b0:	0003e055 	andeq	lr, r3, r5, asr r0
    13b4:	0003f000 	andeq	pc, r3, r0
    13b8:	51000100 	mrspl	r0, (UNDEF: 16)
    13bc:	000003f0 	strdeq	r0, [r0], -r0	; <UNPREDICTABLE>
    13c0:	00000428 	andeq	r0, r0, r8, lsr #8
    13c4:	00550001 	subseq	r0, r5, r1
    13c8:	00000000 	andeq	r0, r0, r0
    13cc:	ac000000 	stcge	0, cr0, [r0], {-0}
    13d0:	c7000003 	strgt	r0, [r0, -r3]
    13d4:	01000003 	tsteq	r0, r3
    13d8:	03c75200 	biceq	r5, r7, #0, 4
    13dc:	03e00000 	mvneq	r0, #0
    13e0:	00040000 	andeq	r0, r4, r0
    13e4:	9f5201f3 	svcls	0x005201f3
    13e8:	000003e0 	andeq	r0, r0, r0, ror #7
    13ec:	000003f0 	strdeq	r0, [r0], -r0	; <UNPREDICTABLE>
    13f0:	f0520001 			; <UNDEFINED> instruction: 0xf0520001
    13f4:	28000003 	stmdacs	r0, {r0, r1}
    13f8:	03000004 	movweq	r0, #4
    13fc:	9f017600 	svcls	0x00017600
	...
    1408:	000003ac 	andeq	r0, r0, ip, lsr #7
    140c:	000003c7 	andeq	r0, r0, r7, asr #7
    1410:	c7530001 	ldrbgt	r0, [r3, -r1]
    1414:	e0000003 	and	r0, r0, r3
    1418:	01000003 	tsteq	r0, r3
    141c:	03e05800 	mvneq	r5, #0, 16
    1420:	03f00000 	mvnseq	r0, #0
    1424:	00010000 	andeq	r0, r1, r0
    1428:	0003f053 	andeq	pc, r3, r3, asr r0	; <UNPREDICTABLE>
    142c:	00042800 	andeq	r2, r4, r0, lsl #16
    1430:	58000100 	stmdapl	r0, {r8}
	...
    143c:	000003e8 	andeq	r0, r0, r8, ror #7
    1440:	000003f0 	strdeq	r0, [r0], -r0	; <UNPREDICTABLE>
    1444:	9f300002 	svcls	0x00300002
    1448:	000003f0 	strdeq	r0, [r0], -r0	; <UNPREDICTABLE>
    144c:	00000428 	andeq	r0, r0, r8, lsr #8
    1450:	00540001 	subseq	r0, r4, r1
    1454:	00000000 	andeq	r0, r0, r0
    1458:	28000000 	stmdacs	r0, {}	; <UNPREDICTABLE>
    145c:	47000004 	strmi	r0, [r0, -r4]
    1460:	01000004 	tsteq	r0, r4
    1464:	04475100 	strbeq	r5, [r7], #-256	; 0x100
    1468:	04e80000 	strbteq	r0, [r8], #0
    146c:	00040000 	andeq	r0, r4, r0
    1470:	9f5101f3 	svcls	0x005101f3
	...
    147c:	00000428 	andeq	r0, r0, r8, lsr #8
    1480:	00000447 	andeq	r0, r0, r7, asr #8
    1484:	47520001 	ldrbmi	r0, [r2, -r1]
    1488:	e8000004 	stmda	r0, {r2}
    148c:	04000004 	streq	r0, [r0], #-4
    1490:	5201f300 	andpl	pc, r1, #0, 6
    1494:	0000009f 	muleq	r0, pc, r0	; <UNPREDICTABLE>
    1498:	00000000 	andeq	r0, r0, r0
    149c:	00042800 	andeq	r2, r4, r0, lsl #16
    14a0:	00044700 	andeq	r4, r4, r0, lsl #14
    14a4:	53000100 	movwpl	r0, #256	; 0x100
    14a8:	00000447 	andeq	r0, r0, r7, asr #8
    14ac:	000004e8 	andeq	r0, r0, r8, ror #9
    14b0:	00550001 	subseq	r0, r5, r1
    14b4:	00000000 	andeq	r0, r0, r0
    14b8:	68000000 	stmdavs	r0, {}	; <UNPREDICTABLE>
    14bc:	a7000004 	strge	r0, [r0, -r4]
    14c0:	01000004 	tsteq	r0, r4
    14c4:	04a75200 	strteq	r5, [r7], #512	; 0x200
    14c8:	04c00000 	strbeq	r0, [r0], #0
    14cc:	00060000 	andeq	r0, r6, r0
    14d0:	00770075 	rsbseq	r0, r7, r5, ror r0
    14d4:	04c09f1e 	strbeq	r9, [r0], #3870	; 0xf1e
    14d8:	04e80000 	strbteq	r0, [r8], #0
    14dc:	00010000 	andeq	r0, r1, r0
    14e0:	00000052 	andeq	r0, r0, r2, asr r0
    14e4:	00000000 	andeq	r0, r0, r0
    14e8:	0004e800 	andeq	lr, r4, r0, lsl #16
    14ec:	0004f300 	andeq	pc, r4, r0, lsl #6
    14f0:	50000100 	andpl	r0, r0, r0, lsl #2
    14f4:	000004f3 	strdeq	r0, [r0], -r3
    14f8:	00000524 	andeq	r0, r0, r4, lsr #10
    14fc:	01f30004 	mvnseq	r0, r4
    1500:	00009f50 	andeq	r9, r0, r0, asr pc
    1504:	00000000 	andeq	r0, r0, r0
    1508:	04f40000 	ldrbteq	r0, [r4], #0
    150c:	04ff0000 	ldrbteq	r0, [pc], #0	; 1514 <_start-0x6aec>
    1510:	00010000 	andeq	r0, r1, r0
    1514:	00000050 	andeq	r0, r0, r0, asr r0
    1518:	00000000 	andeq	r0, r0, r0
    151c:	00052400 	andeq	r2, r5, r0, lsl #8
    1520:	00053400 	andeq	r3, r5, r0, lsl #8
    1524:	50000100 	andpl	r0, r0, r0, lsl #2
    1528:	00000534 	andeq	r0, r0, r4, lsr r5
    152c:	00000550 	andeq	r0, r0, r0, asr r5
    1530:	00550001 	subseq	r0, r5, r1
    1534:	00000000 	andeq	r0, r0, r0
    1538:	24000000 	strcs	r0, [r0], #-0
    153c:	34000005 	strcc	r0, [r0], #-5
    1540:	01000005 	tsteq	r0, r5
    1544:	05345100 	ldreq	r5, [r4, #-256]!	; 0x100
    1548:	05500000 	ldrbeq	r0, [r0, #-0]
    154c:	00010000 	andeq	r0, r1, r0
    1550:	00000054 	andeq	r0, r0, r4, asr r0
    1554:	00000000 	andeq	r0, r0, r0
    1558:	00055000 	andeq	r5, r5, r0
    155c:	00056c00 	andeq	r6, r5, r0, lsl #24
    1560:	50000100 	andpl	r0, r0, r0, lsl #2
    1564:	0000056c 	andeq	r0, r0, ip, ror #10
    1568:	000005bc 			; <UNDEFINED> instruction: 0x000005bc
    156c:	bc550001 	mrrclt	0, 0, r0, r5, cr1
    1570:	d4000005 	strle	r0, [r0], #-5
    1574:	04000005 	streq	r0, [r0], #-5
    1578:	5001f300 	andpl	pc, r1, r0, lsl #6
    157c:	0000009f 	muleq	r0, pc, r0	; <UNPREDICTABLE>
    1580:	00000000 	andeq	r0, r0, r0
    1584:	00057c00 	andeq	r7, r5, r0, lsl #24
    1588:	00058b00 	andeq	r8, r5, r0, lsl #22
    158c:	50000100 	andpl	r0, r0, r0, lsl #2
    1590:	0000058b 	andeq	r0, r0, fp, lsl #11
    1594:	000005a4 	andeq	r0, r0, r4, lsr #11
    1598:	a4540001 	ldrbge	r0, [r4], #-1
    159c:	a8000005 	stmdage	r0, {r0, r2}
    15a0:	01000005 	tsteq	r0, r5
    15a4:	05a85000 	streq	r5, [r8, #0]!
    15a8:	05bc0000 	ldreq	r0, [ip, #0]!
    15ac:	00010000 	andeq	r0, r1, r0
    15b0:	0005bc54 	andeq	fp, r5, r4, asr ip
    15b4:	0005d400 	andeq	sp, r5, r0, lsl #8
    15b8:	50000100 	andpl	r0, r0, r0, lsl #2
	...
    15c4:	000005d4 	ldrdeq	r0, [r0], -r4
    15c8:	000005e7 	andeq	r0, r0, r7, ror #11
    15cc:	e7500001 	ldrb	r0, [r0, -r1]
    15d0:	20000005 	andcs	r0, r0, r5
    15d4:	04000006 	streq	r0, [r0], #-6
    15d8:	5001f300 	andpl	pc, r1, r0, lsl #6
    15dc:	0000009f 	muleq	r0, pc, r0	; <UNPREDICTABLE>
    15e0:	00000000 	andeq	r0, r0, r0
    15e4:	0005d400 	andeq	sp, r5, r0, lsl #8
    15e8:	0005e700 	andeq	lr, r5, r0, lsl #14
    15ec:	51000100 	mrspl	r0, (UNDEF: 16)
    15f0:	000005e7 	andeq	r0, r0, r7, ror #11
    15f4:	00000620 	andeq	r0, r0, r0, lsr #12
    15f8:	01f30004 	mvnseq	r0, r4
    15fc:	00009f51 	andeq	r9, r0, r1, asr pc
    1600:	00000000 	andeq	r0, r0, r0
    1604:	05d40000 	ldrbeq	r0, [r4]
    1608:	05e70000 	strbeq	r0, [r7, #0]!
    160c:	00010000 	andeq	r0, r1, r0
    1610:	0005e752 	andeq	lr, r5, r2, asr r7
    1614:	00062000 	andeq	r2, r6, r0
    1618:	f3000400 	vshl.u8	d0, d0, d0
    161c:	009f5201 	addseq	r5, pc, r1, lsl #4
    1620:	00000000 	andeq	r0, r0, r0
    1624:	d4000000 	strle	r0, [r0], #-0
    1628:	e7000005 	str	r0, [r0, -r5]
    162c:	01000005 	tsteq	r0, r5
    1630:	05e75300 	strbeq	r5, [r7, #768]!	; 0x300
    1634:	06200000 	strteq	r0, [r0], -r0
    1638:	00040000 	andeq	r0, r4, r0
    163c:	9f5301f3 	svcls	0x005301f3
	...
    1648:	000005e8 	andeq	r0, r0, r8, ror #11
    164c:	000005f3 	strdeq	r0, [r0], -r3
    1650:	0c500001 	mrrceq	0, 0, r0, r0, cr1	; <UNPREDICTABLE>
    1654:	20000006 	andcs	r0, r0, r6
    1658:	01000006 	tsteq	r0, r6
    165c:	00005000 	andeq	r5, r0, r0
    1660:	00000000 	andeq	r0, r0, r0
    1664:	00fc0000 	rscseq	r0, ip, r0
    1668:	01040000 	mrseq	r0, (UNDEF: 4)
    166c:	00010000 	andeq	r0, r1, r0
    1670:	00010450 	andeq	r0, r1, r0, asr r4
    1674:	00012800 	andeq	r2, r1, r0, lsl #16
    1678:	54000100 	strpl	r0, [r0], #-256	; 0x100
	...
    1688:	00000090 	muleq	r0, r0, r0
    168c:	90500001 	subsls	r0, r0, r1
    1690:	d4000000 	strle	r0, [r0], #-0
    1694:	01000000 	mrseq	r0, (UNDEF: 0)
    1698:	00005400 	andeq	r5, r0, r0, lsl #8
    169c:	00000000 	andeq	r0, r0, r0
    16a0:	00480000 	subeq	r0, r8, r0
    16a4:	004c0000 	subeq	r0, ip, r0
    16a8:	00010000 	andeq	r0, r1, r0
    16ac:	00005455 	andeq	r5, r0, r5, asr r4
    16b0:	00005800 	andeq	r5, r0, r0, lsl #16
    16b4:	55000100 	strpl	r0, [r0, #-256]	; 0x100
    16b8:	00000060 	andeq	r0, r0, r0, rrx
    16bc:	00000064 	andeq	r0, r0, r4, rrx
    16c0:	6c550001 	mrrcvs	0, 0, r0, r5, cr1
    16c4:	70000000 	andvc	r0, r0, r0
    16c8:	01000000 	mrseq	r0, (UNDEF: 0)
    16cc:	00785500 	rsbseq	r5, r8, r0, lsl #10
    16d0:	007c0000 	rsbseq	r0, ip, r0
    16d4:	00010000 	andeq	r0, r1, r0
    16d8:	00008455 	andeq	r8, r0, r5, asr r4
    16dc:	00008800 	andeq	r8, r0, r0, lsl #16
    16e0:	55000100 	strpl	r0, [r0, #-256]	; 0x100
    16e4:	0000008c 	andeq	r0, r0, ip, lsl #1
    16e8:	000000d4 	ldrdeq	r0, [r0], -r4
    16ec:	00550001 	subseq	r0, r5, r1
    16f0:	00000000 	andeq	r0, r0, r0
    16f4:	1c000000 	stcne	0, cr0, [r0], {-0}
    16f8:	44000000 	strmi	r0, [r0], #-0
    16fc:	01000000 	mrseq	r0, (UNDEF: 0)
    1700:	00445300 	subeq	r5, r4, r0, lsl #6
    1704:	004c0000 	subeq	r0, ip, r0
    1708:	001c0000 	andseq	r0, ip, r0
    170c:	2cf70070 	ldclcs	0, cr0, [r7], #448	; 0x1c0
    1710:	25f425f7 	ldrbcs	r2, [r4, #1527]!	; 0x5f7
    1714:	cccccd08 	stclgt	13, cr12, [ip], {8}
    1718:	000000cc 	andeq	r0, r0, ip, asr #1
    171c:	20081e00 	andcs	r1, r8, r0, lsl #28
    1720:	f72525f7 			; <UNDEFINED> instruction: 0xf72525f7
    1724:	9f25332c 	svcls	0x0025332c
    1728:	0000004c 	andeq	r0, r0, ip, asr #32
    172c:	00000050 	andeq	r0, r0, r0, asr r0
    1730:	50530001 	subspl	r0, r3, r1
    1734:	58000000 	stmdapl	r0, {}	; <UNPREDICTABLE>
    1738:	1c000000 	stcne	0, cr0, [r0], {-0}
    173c:	f7007000 			; <UNDEFINED> instruction: 0xf7007000
    1740:	f425f72c 	vld1.8	{d15}, [r5 :128], ip
    1744:	cccd0825 	stclgt	8, cr0, [sp], {37}	; 0x25
    1748:	0000cccc 	andeq	ip, r0, ip, asr #25
    174c:	081e0000 	ldmdaeq	lr, {}	; <UNPREDICTABLE>
    1750:	2525f720 	strcs	pc, [r5, #-1824]!	; 0x720
    1754:	25332cf7 	ldrcs	r2, [r3, #-3319]!	; 0xcf7
    1758:	0000589f 	muleq	r0, pc, r8	; <UNPREDICTABLE>
    175c:	00005c00 	andeq	r5, r0, r0, lsl #24
    1760:	53000100 	movwpl	r0, #256	; 0x100
    1764:	0000005c 	andeq	r0, r0, ip, asr r0
    1768:	00000064 	andeq	r0, r0, r4, rrx
    176c:	0070001c 	rsbseq	r0, r0, ip, lsl r0
    1770:	25f72cf7 	ldrbcs	r2, [r7, #3319]!	; 0xcf7
    1774:	cd0825f4 	cfstr32gt	mvfx2, [r8, #-976]	; 0xfffffc30
    1778:	00cccccc 	sbceq	ip, ip, ip, asr #25
    177c:	1e000000 	cdpne	0, 0, cr0, cr0, cr0, {0}
    1780:	25f72008 	ldrbcs	r2, [r7, #8]!
    1784:	332cf725 	msrcc	CPSR_fs, #9699328	; 0x940000
    1788:	00649f25 	rsbeq	r9, r4, r5, lsr #30
    178c:	00680000 	rsbeq	r0, r8, r0
    1790:	00010000 	andeq	r0, r1, r0
    1794:	00006853 	andeq	r6, r0, r3, asr r8
    1798:	00007000 	andeq	r7, r0, r0
    179c:	70001c00 	andvc	r1, r0, r0, lsl #24
    17a0:	f72cf700 			; <UNDEFINED> instruction: 0xf72cf700
    17a4:	0825f425 	stmdaeq	r5!, {r0, r2, r5, sl, ip, sp, lr, pc}
    17a8:	cccccccd 	stclgt	12, cr12, [ip], {205}	; 0xcd
    17ac:	00000000 	andeq	r0, r0, r0
    17b0:	f720081e 			; <UNDEFINED> instruction: 0xf720081e
    17b4:	2cf72525 	cfldr64cs	mvdx2, [r7], #148	; 0x94
    17b8:	709f2533 	addsvc	r2, pc, r3, lsr r5	; <UNPREDICTABLE>
    17bc:	74000000 	strvc	r0, [r0], #-0
    17c0:	01000000 	mrseq	r0, (UNDEF: 0)
    17c4:	00745300 	rsbseq	r5, r4, r0, lsl #6
    17c8:	007c0000 	rsbseq	r0, ip, r0
    17cc:	001c0000 	andseq	r0, ip, r0
    17d0:	2cf70070 	ldclcs	0, cr0, [r7], #448	; 0x1c0
    17d4:	25f425f7 	ldrbcs	r2, [r4, #1527]!	; 0x5f7
    17d8:	cccccd08 	stclgt	13, cr12, [ip], {8}
    17dc:	000000cc 	andeq	r0, r0, ip, asr #1
    17e0:	20081e00 	andcs	r1, r8, r0, lsl #28
    17e4:	f72525f7 			; <UNDEFINED> instruction: 0xf72525f7
    17e8:	9f25332c 	svcls	0x0025332c
    17ec:	0000007c 	andeq	r0, r0, ip, ror r0
    17f0:	00000080 	andeq	r0, r0, r0, lsl #1
    17f4:	80530001 	subshi	r0, r3, r1
    17f8:	88000000 	stmdahi	r0, {}	; <UNPREDICTABLE>
    17fc:	1c000000 	stcne	0, cr0, [r0], {-0}
    1800:	f7007000 			; <UNDEFINED> instruction: 0xf7007000
    1804:	f425f72c 	vld1.8	{d15}, [r5 :128], ip
    1808:	cccd0825 	stclgt	8, cr0, [sp], {37}	; 0x25
    180c:	0000cccc 	andeq	ip, r0, ip, asr #25
    1810:	081e0000 	ldmdaeq	lr, {}	; <UNPREDICTABLE>
    1814:	2525f720 	strcs	pc, [r5, #-1824]!	; 0x720
    1818:	25332cf7 	ldrcs	r2, [r3, #-3319]!	; 0xcf7
    181c:	0000889f 	muleq	r0, pc, r8	; <UNPREDICTABLE>
    1820:	00008c00 	andeq	r8, r0, r0, lsl #24
    1824:	53000100 	movwpl	r0, #256	; 0x100
    1828:	0000008c 	andeq	r0, r0, ip, lsl #1
    182c:	00000090 	muleq	r0, r0, r0
    1830:	0070001c 	rsbseq	r0, r0, ip, lsl r0
    1834:	25f72cf7 	ldrbcs	r2, [r7, #3319]!	; 0xcf7
    1838:	cd0825f4 	cfstr32gt	mvfx2, [r8, #-976]	; 0xfffffc30
    183c:	00cccccc 	sbceq	ip, ip, ip, asr #25
    1840:	1e000000 	cdpne	0, 0, cr0, cr0, cr0, {0}
    1844:	25f72008 	ldrbcs	r2, [r7, #8]!
    1848:	332cf725 	msrcc	CPSR_fs, #9699328	; 0x940000
    184c:	00909f25 	addseq	r9, r0, r5, lsr #30
    1850:	00980000 	addseq	r0, r8, r0
    1854:	001c0000 	andseq	r0, ip, r0
    1858:	2cf70074 	ldclcs	0, cr0, [r7], #464	; 0x1d0
    185c:	25f425f7 	ldrbcs	r2, [r4, #1527]!	; 0x5f7
    1860:	cccccd08 	stclgt	13, cr12, [ip], {8}
    1864:	000000cc 	andeq	r0, r0, ip, asr #1
    1868:	20081e00 	andcs	r1, r8, r0, lsl #28
    186c:	f72525f7 			; <UNDEFINED> instruction: 0xf72525f7
    1870:	9f25332c 	svcls	0x0025332c
    1874:	00000098 	muleq	r0, r8, r0
    1878:	0000009c 	muleq	r0, ip, r0
    187c:	00740017 	rsbseq	r0, r4, r7, lsl r0
    1880:	25f72cf7 	ldrbcs	r2, [r7, #3319]!	; 0xcf7
    1884:	2cf70071 	ldclcs	0, cr0, [r7], #452	; 0x1c4
    1888:	081e25f7 	ldmdaeq	lr, {r0, r1, r2, r4, r5, r6, r7, r8, sl, sp}
    188c:	2525f720 	strcs	pc, [r5, #-1824]!	; 0x720
    1890:	25332cf7 	ldrcs	r2, [r3, #-3319]!	; 0xcf7
    1894:	00009c9f 	muleq	r0, pc, ip	; <UNPREDICTABLE>
    1898:	0000d400 	andeq	sp, r0, r0, lsl #8
    189c:	74001c00 	strvc	r1, [r0], #-3072	; 0xc00
    18a0:	f72cf700 			; <UNDEFINED> instruction: 0xf72cf700
    18a4:	0825f425 	stmdaeq	r5!, {r0, r2, r5, sl, ip, sp, lr, pc}
    18a8:	cccccccd 	stclgt	12, cr12, [ip], {205}	; 0xcd
    18ac:	00000000 	andeq	r0, r0, r0
    18b0:	f720081e 			; <UNDEFINED> instruction: 0xf720081e
    18b4:	2cf72525 	cfldr64cs	mvdx2, [r7], #148	; 0x94
    18b8:	009f2533 	addseq	r2, pc, r3, lsr r5	; <UNPREDICTABLE>
    18bc:	00000000 	andeq	r0, r0, r0
    18c0:	94000000 	strls	r0, [r0], #-0
    18c4:	b8000000 	stmdalt	r0, {}	; <UNPREDICTABLE>
    18c8:	01000000 	mrseq	r0, (UNDEF: 0)
    18cc:	00b85000 	adcseq	r5, r8, r0
    18d0:	00c40000 	sbceq	r0, r4, r0
    18d4:	00080000 	andeq	r0, r8, r0
    18d8:	24007131 	strcs	r7, [r0], #-305	; 0x131
    18dc:	9f210073 	svcls	0x00210073
    18e0:	000000c4 	andeq	r0, r0, r4, asr #1
    18e4:	000000c7 	andeq	r0, r0, r7, asr #1
    18e8:	00510001 	subseq	r0, r1, r1
    18ec:	00000000 	andeq	r0, r0, r0
    18f0:	d4000000 	strle	r0, [r0], #-0
    18f4:	f8000000 			; <UNDEFINED> instruction: 0xf8000000
    18f8:	01000000 	mrseq	r0, (UNDEF: 0)
    18fc:	00f85000 	rscseq	r5, r8, r0
    1900:	010c0000 	mrseq	r0, (UNDEF: 12)
    1904:	00040000 	andeq	r0, r4, r0
    1908:	9f5001f3 	svcls	0x005001f3
	...
    1914:	000000e0 	andeq	r0, r0, r0, ror #1
    1918:	000000e8 	andeq	r0, r0, r8, ror #1
    191c:	9f300002 	svcls	0x00300002
    1920:	000000e8 	andeq	r0, r0, r8, ror #1
    1924:	000000e8 	andeq	r0, r0, r8, ror #1
    1928:	e8520001 	ldmda	r2, {r0}^
    192c:	f0000000 			; <UNDEFINED> instruction: 0xf0000000
    1930:	02000000 	andeq	r0, r0, #0
    1934:	f09f3000 			; <UNDEFINED> instruction: 0xf09f3000
    1938:	03000000 	movweq	r0, #0
    193c:	01000001 	tsteq	r0, r1
    1940:	00005200 	andeq	r5, r0, r0, lsl #4
    1944:	00000000 	andeq	r0, r0, r0
    1948:	00e00000 	rsceq	r0, r0, r0
    194c:	00f40000 	rscseq	r0, r4, r0
    1950:	00020000 	andeq	r0, r2, r0
    1954:	00f49f30 	rscseq	r9, r4, r0, lsr pc
    1958:	01000000 	mrseq	r0, (UNDEF: 0)
    195c:	00050000 	andeq	r0, r5, r0
    1960:	24007331 	strcs	r7, [r0], #-817	; 0x331
    1964:	0001009f 	muleq	r1, pc, r0	; <UNPREDICTABLE>
    1968:	00010300 	andeq	r0, r1, r0, lsl #6
    196c:	51000100 	mrspl	r0, (UNDEF: 16)
    1970:	00000103 	andeq	r0, r0, r3, lsl #2
    1974:	0000010c 	andeq	r0, r0, ip, lsl #2
    1978:	f3310008 	vhadd.u<illegal width 64>	d0, d1, d8
    197c:	1a4f5001 	bne	13d5988 <__bss_end__+0x13cb738>
    1980:	00009f24 	andeq	r9, r0, r4, lsr #30
    1984:	00000000 	andeq	r0, r0, r0
    1988:	010c0000 	mrseq	r0, (UNDEF: 12)
    198c:	01300000 	teqeq	r0, r0
    1990:	00010000 	andeq	r0, r1, r0
    1994:	00013050 	andeq	r3, r1, r0, asr r0
    1998:	00014400 	andeq	r4, r1, r0, lsl #8
    199c:	f3000400 	vshl.u8	d0, d0, d0
    19a0:	009f5001 	addseq	r5, pc, r1
    19a4:	00000000 	andeq	r0, r0, r0
    19a8:	18000000 	stmdane	r0, {}	; <UNPREDICTABLE>
    19ac:	20000001 	andcs	r0, r0, r1
    19b0:	02000001 	andeq	r0, r0, #1
    19b4:	209f3000 	addscs	r3, pc, r0
    19b8:	20000001 	andcs	r0, r0, r1
    19bc:	01000001 	tsteq	r0, r1
    19c0:	01205200 	teqeq	r0, r0, lsl #4
    19c4:	01280000 	teqeq	r8, r0
    19c8:	00020000 	andeq	r0, r2, r0
    19cc:	01289f30 	teqeq	r8, r0, lsr pc
    19d0:	013b0000 	teqeq	fp, r0
    19d4:	00010000 	andeq	r0, r1, r0
    19d8:	00000052 	andeq	r0, r0, r2, asr r0
    19dc:	00000000 	andeq	r0, r0, r0
    19e0:	00011800 	andeq	r1, r1, r0, lsl #16
    19e4:	00012c00 	andeq	r2, r1, r0, lsl #24
    19e8:	30000200 	andcc	r0, r0, r0, lsl #4
    19ec:	00012c9f 	muleq	r1, pc, ip	; <UNPREDICTABLE>
    19f0:	00013800 	andeq	r3, r1, r0, lsl #16
    19f4:	31000500 	tstcc	r0, r0, lsl #10
    19f8:	9f240073 	svcls	0x00240073
    19fc:	00000138 	andeq	r0, r0, r8, lsr r1
    1a00:	0000013b 	andeq	r0, r0, fp, lsr r1
    1a04:	3b510001 	blcc	1441a10 <__bss_end__+0x14377c0>
    1a08:	44000001 	strmi	r0, [r0], #-1
    1a0c:	08000001 	stmdaeq	r0, {r0}
    1a10:	01f33100 	mvnseq	r3, r0, lsl #2
    1a14:	241a4f50 	ldrcs	r4, [sl], #-3920	; 0xf50
    1a18:	0000009f 	muleq	r0, pc, r0	; <UNPREDICTABLE>
    1a1c:	00000000 	andeq	r0, r0, r0
    1a20:	00014400 	andeq	r4, r1, r0, lsl #8
    1a24:	0001d400 	andeq	sp, r1, r0, lsl #8
    1a28:	50000100 	andpl	r0, r0, r0, lsl #2
    1a2c:	000001d4 	ldrdeq	r0, [r0], -r4
    1a30:	00000210 	andeq	r0, r0, r0, lsl r2
    1a34:	00540001 	subseq	r0, r4, r1
    1a38:	00000000 	andeq	r0, r0, r0
    1a3c:	8c000000 	stchi	0, cr0, [r0], {-0}
    1a40:	90000001 	andls	r0, r0, r1
    1a44:	01000001 	tsteq	r0, r1
    1a48:	01985500 	orrseq	r5, r8, r0, lsl #10
    1a4c:	019c0000 	orrseq	r0, ip, r0
    1a50:	00010000 	andeq	r0, r1, r0
    1a54:	0001a455 	andeq	sl, r1, r5, asr r4
    1a58:	0001a800 	andeq	sl, r1, r0, lsl #16
    1a5c:	55000100 	strpl	r0, [r0, #-256]	; 0x100
    1a60:	000001b0 			; <UNDEFINED> instruction: 0x000001b0
    1a64:	000001b4 			; <UNDEFINED> instruction: 0x000001b4
    1a68:	bc550001 	mrrclt	0, 0, r0, r5, cr1
    1a6c:	c0000001 	andgt	r0, r0, r1
    1a70:	01000001 	tsteq	r0, r1
    1a74:	01c85500 	biceq	r5, r8, r0, lsl #10
    1a78:	01cc0000 	biceq	r0, ip, r0
    1a7c:	00010000 	andeq	r0, r1, r0
    1a80:	0001d055 	andeq	sp, r1, r5, asr r0
    1a84:	00021000 	andeq	r1, r2, r0
    1a88:	55000100 	strpl	r0, [r0, #-256]	; 0x100
	...
    1a94:	00000160 	andeq	r0, r0, r0, ror #2
    1a98:	00000188 	andeq	r0, r0, r8, lsl #3
    1a9c:	88530001 	ldmdahi	r3, {r0}^
    1aa0:	90000001 	andls	r0, r0, r1
    1aa4:	1c000001 	stcne	0, cr0, [r0], {1}
    1aa8:	f7007000 			; <UNDEFINED> instruction: 0xf7007000
    1aac:	f425f72c 	vld1.8	{d15}, [r5 :128], ip
    1ab0:	cccd0825 	stclgt	8, cr0, [sp], {37}	; 0x25
    1ab4:	0000cccc 	andeq	ip, r0, ip, asr #25
    1ab8:	081e0000 	ldmdaeq	lr, {}	; <UNPREDICTABLE>
    1abc:	2525f720 	strcs	pc, [r5, #-1824]!	; 0x720
    1ac0:	25332cf7 	ldrcs	r2, [r3, #-3319]!	; 0xcf7
    1ac4:	0001909f 	muleq	r1, pc, r0	; <UNPREDICTABLE>
    1ac8:	00019400 	andeq	r9, r1, r0, lsl #8
    1acc:	53000100 	movwpl	r0, #256	; 0x100
    1ad0:	00000194 	muleq	r0, r4, r1
    1ad4:	0000019c 	muleq	r0, ip, r1
    1ad8:	0070001c 	rsbseq	r0, r0, ip, lsl r0
    1adc:	25f72cf7 	ldrbcs	r2, [r7, #3319]!	; 0xcf7
    1ae0:	cd0825f4 	cfstr32gt	mvfx2, [r8, #-976]	; 0xfffffc30
    1ae4:	00cccccc 	sbceq	ip, ip, ip, asr #25
    1ae8:	1e000000 	cdpne	0, 0, cr0, cr0, cr0, {0}
    1aec:	25f72008 	ldrbcs	r2, [r7, #8]!
    1af0:	332cf725 	msrcc	CPSR_fs, #9699328	; 0x940000
    1af4:	019c9f25 	orrseq	r9, ip, r5, lsr #30
    1af8:	01a00000 	moveq	r0, r0
    1afc:	00010000 	andeq	r0, r1, r0
    1b00:	0001a053 	andeq	sl, r1, r3, asr r0
    1b04:	0001a800 	andeq	sl, r1, r0, lsl #16
    1b08:	70001c00 	andvc	r1, r0, r0, lsl #24
    1b0c:	f72cf700 			; <UNDEFINED> instruction: 0xf72cf700
    1b10:	0825f425 	stmdaeq	r5!, {r0, r2, r5, sl, ip, sp, lr, pc}
    1b14:	cccccccd 	stclgt	12, cr12, [ip], {205}	; 0xcd
    1b18:	00000000 	andeq	r0, r0, r0
    1b1c:	f720081e 			; <UNDEFINED> instruction: 0xf720081e
    1b20:	2cf72525 	cfldr64cs	mvdx2, [r7], #148	; 0x94
    1b24:	a89f2533 	ldmge	pc, {r0, r1, r4, r5, r8, sl, sp}	; <UNPREDICTABLE>
    1b28:	ac000001 	stcge	0, cr0, [r0], {1}
    1b2c:	01000001 	tsteq	r0, r1
    1b30:	01ac5300 			; <UNDEFINED> instruction: 0x01ac5300
    1b34:	01b40000 			; <UNDEFINED> instruction: 0x01b40000
    1b38:	001c0000 	andseq	r0, ip, r0
    1b3c:	2cf70070 	ldclcs	0, cr0, [r7], #448	; 0x1c0
    1b40:	25f425f7 	ldrbcs	r2, [r4, #1527]!	; 0x5f7
    1b44:	cccccd08 	stclgt	13, cr12, [ip], {8}
    1b48:	000000cc 	andeq	r0, r0, ip, asr #1
    1b4c:	20081e00 	andcs	r1, r8, r0, lsl #28
    1b50:	f72525f7 			; <UNDEFINED> instruction: 0xf72525f7
    1b54:	9f25332c 	svcls	0x0025332c
    1b58:	000001b4 			; <UNDEFINED> instruction: 0x000001b4
    1b5c:	000001b8 			; <UNDEFINED> instruction: 0x000001b8
    1b60:	b8530001 	ldmdalt	r3, {r0}^
    1b64:	c0000001 	andgt	r0, r0, r1
    1b68:	1c000001 	stcne	0, cr0, [r0], {1}
    1b6c:	f7007000 			; <UNDEFINED> instruction: 0xf7007000
    1b70:	f425f72c 	vld1.8	{d15}, [r5 :128], ip
    1b74:	cccd0825 	stclgt	8, cr0, [sp], {37}	; 0x25
    1b78:	0000cccc 	andeq	ip, r0, ip, asr #25
    1b7c:	081e0000 	ldmdaeq	lr, {}	; <UNPREDICTABLE>
    1b80:	2525f720 	strcs	pc, [r5, #-1824]!	; 0x720
    1b84:	25332cf7 	ldrcs	r2, [r3, #-3319]!	; 0xcf7
    1b88:	0001c09f 	muleq	r1, pc, r0	; <UNPREDICTABLE>
    1b8c:	0001c400 	andeq	ip, r1, r0, lsl #8
    1b90:	53000100 	movwpl	r0, #256	; 0x100
    1b94:	000001c4 	andeq	r0, r0, r4, asr #3
    1b98:	000001cc 	andeq	r0, r0, ip, asr #3
    1b9c:	0070001c 	rsbseq	r0, r0, ip, lsl r0
    1ba0:	25f72cf7 	ldrbcs	r2, [r7, #3319]!	; 0xcf7
    1ba4:	cd0825f4 	cfstr32gt	mvfx2, [r8, #-976]	; 0xfffffc30
    1ba8:	00cccccc 	sbceq	ip, ip, ip, asr #25
    1bac:	1e000000 	cdpne	0, 0, cr0, cr0, cr0, {0}
    1bb0:	25f72008 	ldrbcs	r2, [r7, #8]!
    1bb4:	332cf725 	msrcc	CPSR_fs, #9699328	; 0x940000
    1bb8:	01cc9f25 	biceq	r9, ip, r5, lsr #30
    1bbc:	01d00000 	bicseq	r0, r0, r0
    1bc0:	00010000 	andeq	r0, r1, r0
    1bc4:	0001d053 	andeq	sp, r1, r3, asr r0
    1bc8:	0001d400 	andeq	sp, r1, r0, lsl #8
    1bcc:	70001c00 	andvc	r1, r0, r0, lsl #24
    1bd0:	f72cf700 			; <UNDEFINED> instruction: 0xf72cf700
    1bd4:	0825f425 	stmdaeq	r5!, {r0, r2, r5, sl, ip, sp, lr, pc}
    1bd8:	cccccccd 	stclgt	12, cr12, [ip], {205}	; 0xcd
    1bdc:	00000000 	andeq	r0, r0, r0
    1be0:	f720081e 			; <UNDEFINED> instruction: 0xf720081e
    1be4:	2cf72525 	cfldr64cs	mvdx2, [r7], #148	; 0x94
    1be8:	d49f2533 	ldrle	r2, [pc], #1331	; 1bf0 <_start-0x6410>
    1bec:	dc000001 	stcle	0, cr0, [r0], {1}
    1bf0:	1c000001 	stcne	0, cr0, [r0], {1}
    1bf4:	f7007400 			; <UNDEFINED> instruction: 0xf7007400
    1bf8:	f425f72c 	vld1.8	{d15}, [r5 :128], ip
    1bfc:	cccd0825 	stclgt	8, cr0, [sp], {37}	; 0x25
    1c00:	0000cccc 	andeq	ip, r0, ip, asr #25
    1c04:	081e0000 	ldmdaeq	lr, {}	; <UNPREDICTABLE>
    1c08:	2525f720 	strcs	pc, [r5, #-1824]!	; 0x720
    1c0c:	25332cf7 	ldrcs	r2, [r3, #-3319]!	; 0xcf7
    1c10:	0001dc9f 	muleq	r1, pc, ip	; <UNPREDICTABLE>
    1c14:	0001e000 	andeq	lr, r1, r0
    1c18:	74001700 	strvc	r1, [r0], #-1792	; 0x700
    1c1c:	f72cf700 			; <UNDEFINED> instruction: 0xf72cf700
    1c20:	f7007125 			; <UNDEFINED> instruction: 0xf7007125
    1c24:	1e25f72c 	cdpne	7, 2, cr15, cr5, cr12, {1}
    1c28:	25f72008 	ldrbcs	r2, [r7, #8]!
    1c2c:	332cf725 	msrcc	CPSR_fs, #9699328	; 0x940000
    1c30:	01e09f25 	mvneq	r9, r5, lsr #30
    1c34:	02100000 	andseq	r0, r0, #0
    1c38:	001c0000 	andseq	r0, ip, r0
    1c3c:	2cf70074 	ldclcs	0, cr0, [r7], #464	; 0x1d0
    1c40:	25f425f7 	ldrbcs	r2, [r4, #1527]!	; 0x5f7
    1c44:	cccccd08 	stclgt	13, cr12, [ip], {8}
    1c48:	000000cc 	andeq	r0, r0, ip, asr #1
    1c4c:	20081e00 	andcs	r1, r8, r0, lsl #28
    1c50:	f72525f7 			; <UNDEFINED> instruction: 0xf72525f7
    1c54:	9f25332c 	svcls	0x0025332c
	...
    1c60:	000001d8 	ldrdeq	r0, [r0], -r8
    1c64:	000001fc 	strdeq	r0, [r0], -ip
    1c68:	fc500001 	mrrc2	0, 0, r0, r0, cr1	; <UNPREDICTABLE>
    1c6c:	03000001 	movweq	r0, #1
    1c70:	01000002 	tsteq	r0, r2
    1c74:	00005100 	andeq	r5, r0, r0, lsl #2
    1c78:	00000000 	andeq	r0, r0, r0
    1c7c:	02100000 	andseq	r0, r0, #0
    1c80:	022c0000 	eoreq	r0, ip, #0
    1c84:	00010000 	andeq	r0, r1, r0
    1c88:	00022c50 	andeq	r2, r2, r0, asr ip
    1c8c:	00023400 	andeq	r3, r2, r0, lsl #8
    1c90:	54000100 	strpl	r0, [r0], #-256	; 0x100
    1c94:	00000234 	andeq	r0, r0, r4, lsr r2
    1c98:	0000023c 	andeq	r0, r0, ip, lsr r2
    1c9c:	3c500001 	mrrccc	0, 0, r0, r0, cr1	; <UNPREDICTABLE>
    1ca0:	44000002 	strmi	r0, [r0], #-2
    1ca4:	01000002 	tsteq	r0, r2
    1ca8:	02445400 	subeq	r5, r4, #0, 8
    1cac:	02500000 	subseq	r0, r0, #0
    1cb0:	00040000 	andeq	r0, r4, r0
    1cb4:	9f5001f3 	svcls	0x005001f3
    1cb8:	00000250 	andeq	r0, r0, r0, asr r2
    1cbc:	00000254 	andeq	r0, r0, r4, asr r2
    1cc0:	54500001 	ldrbpl	r0, [r0], #-1
    1cc4:	5c000002 	stcpl	0, cr0, [r0], {2}
    1cc8:	01000002 	tsteq	r0, r2
    1ccc:	00005400 	andeq	r5, r0, r0, lsl #8
    1cd0:	00000000 	andeq	r0, r0, r0
    1cd4:	02200000 	eoreq	r0, r0, #0
    1cd8:	02300000 	eorseq	r0, r0, #0
    1cdc:	00020000 	andeq	r0, r2, r0
    1ce0:	02309f30 	eorseq	r9, r0, #48, 30	; 0xc0
    1ce4:	02340000 	eorseq	r0, r4, #0
    1ce8:	00010000 	andeq	r0, r1, r0
    1cec:	00023450 	andeq	r3, r2, r0, asr r4
    1cf0:	00024000 	andeq	r4, r2, r0
    1cf4:	30000200 	andcc	r0, r0, r0, lsl #4
    1cf8:	0002409f 	muleq	r2, pc, r0	; <UNPREDICTABLE>
    1cfc:	00024c00 	andeq	r4, r2, r0, lsl #24
    1d00:	50000100 	andpl	r0, r0, r0, lsl #2
	...
    1d0c:	0000025c 	andeq	r0, r0, ip, asr r2
    1d10:	00000273 	andeq	r0, r0, r3, ror r2
    1d14:	73500001 	cmpvc	r0, #1
    1d18:	78000002 	stmdavc	r0, {r1}
    1d1c:	04000002 	streq	r0, [r0], #-2
    1d20:	5001f300 	andpl	pc, r1, r0, lsl #6
    1d24:	0002789f 	muleq	r2, pc, r8	; <UNPREDICTABLE>
    1d28:	00027b00 	andeq	r7, r2, r0, lsl #22
    1d2c:	50000100 	andpl	r0, r0, r0, lsl #2
    1d30:	0000027b 	andeq	r0, r0, fp, ror r2
    1d34:	00000280 	andeq	r0, r0, r0, lsl #5
    1d38:	01f30004 	mvnseq	r0, r4
    1d3c:	00009f50 	andeq	r9, r0, r0, asr pc
    1d40:	00000000 	andeq	r0, r0, r0
    1d44:	025c0000 	subseq	r0, ip, #0
    1d48:	02730000 	rsbseq	r0, r3, #0
    1d4c:	00010000 	andeq	r0, r1, r0
    1d50:	00027351 	andeq	r7, r2, r1, asr r3
    1d54:	00027800 	andeq	r7, r2, r0, lsl #16
    1d58:	f3000400 	vshl.u8	d0, d0, d0
    1d5c:	789f5101 	ldmvc	pc, {r0, r8, ip, lr}	; <UNPREDICTABLE>
    1d60:	7b000002 	blvc	1d70 <_start-0x6290>
    1d64:	01000002 	tsteq	r0, r2
    1d68:	027b5100 	rsbseq	r5, fp, #0, 2
    1d6c:	02800000 	addeq	r0, r0, #0
    1d70:	00040000 	andeq	r0, r4, r0
    1d74:	9f5101f3 	svcls	0x005101f3
	...
    1d80:	00000280 	andeq	r0, r0, r0, lsl #5
    1d84:	00000318 	andeq	r0, r0, r8, lsl r3
    1d88:	18500001 	ldmdane	r0, {r0}^
    1d8c:	58000003 	stmdapl	r0, {r0, r1}
    1d90:	01000003 	tsteq	r0, r3
    1d94:	00005400 	andeq	r5, r0, r0, lsl #8
    1d98:	00000000 	andeq	r0, r0, r0
    1d9c:	02800000 	addeq	r0, r0, #0
    1da0:	031b0000 	tsteq	fp, #0
    1da4:	00010000 	andeq	r0, r1, r0
    1da8:	00031b51 	andeq	r1, r3, r1, asr fp
    1dac:	00035800 	andeq	r5, r3, r0, lsl #16
    1db0:	f3000400 	vshl.u8	d0, d0, d0
    1db4:	009f5101 	addseq	r5, pc, r1, lsl #2
    1db8:	00000000 	andeq	r0, r0, r0
    1dbc:	d0000000 	andle	r0, r0, r0
    1dc0:	d4000002 	strle	r0, [r0], #-2
    1dc4:	01000002 	tsteq	r0, r2
    1dc8:	02dc5600 	sbcseq	r5, ip, #0, 12
    1dcc:	02e00000 	rsceq	r0, r0, #0
    1dd0:	00010000 	andeq	r0, r1, r0
    1dd4:	0002e856 	andeq	lr, r2, r6, asr r8
    1dd8:	0002ec00 	andeq	lr, r2, r0, lsl #24
    1ddc:	56000100 	strpl	r0, [r0], -r0, lsl #2
    1de0:	000002f4 	strdeq	r0, [r0], -r4
    1de4:	000002f8 	strdeq	r0, [r0], -r8
    1de8:	00560001 	subseq	r0, r6, r1
    1dec:	04000003 	streq	r0, [r0], #-3
    1df0:	01000003 	tsteq	r0, r3
    1df4:	030c5600 	movweq	r5, #50688	; 0xc600
    1df8:	03100000 	tsteq	r0, #0
    1dfc:	00010000 	andeq	r0, r1, r0
    1e00:	00031456 	andeq	r1, r3, r6, asr r4
    1e04:	00035800 	andeq	r5, r3, r0, lsl #16
    1e08:	56000100 	strpl	r0, [r0], -r0, lsl #2
	...
    1e14:	000002a4 	andeq	r0, r0, r4, lsr #5
    1e18:	000002cc 	andeq	r0, r0, ip, asr #5
    1e1c:	cc530001 	mrrcgt	0, 0, r0, r3, cr1
    1e20:	d4000002 	strle	r0, [r0], #-2
    1e24:	1c000002 	stcne	0, cr0, [r0], {2}
    1e28:	f7007000 			; <UNDEFINED> instruction: 0xf7007000
    1e2c:	f425f72c 	vld1.8	{d15}, [r5 :128], ip
    1e30:	cccd0825 	stclgt	8, cr0, [sp], {37}	; 0x25
    1e34:	0000cccc 	andeq	ip, r0, ip, asr #25
    1e38:	081e0000 	ldmdaeq	lr, {}	; <UNPREDICTABLE>
    1e3c:	2525f720 	strcs	pc, [r5, #-1824]!	; 0x720
    1e40:	25332cf7 	ldrcs	r2, [r3, #-3319]!	; 0xcf7
    1e44:	0002d49f 	muleq	r2, pc, r4	; <UNPREDICTABLE>
    1e48:	0002d800 	andeq	sp, r2, r0, lsl #16
    1e4c:	53000100 	movwpl	r0, #256	; 0x100
    1e50:	000002d8 	ldrdeq	r0, [r0], -r8
    1e54:	000002e0 	andeq	r0, r0, r0, ror #5
    1e58:	0070001c 	rsbseq	r0, r0, ip, lsl r0
    1e5c:	25f72cf7 	ldrbcs	r2, [r7, #3319]!	; 0xcf7
    1e60:	cd0825f4 	cfstr32gt	mvfx2, [r8, #-976]	; 0xfffffc30
    1e64:	00cccccc 	sbceq	ip, ip, ip, asr #25
    1e68:	1e000000 	cdpne	0, 0, cr0, cr0, cr0, {0}
    1e6c:	25f72008 	ldrbcs	r2, [r7, #8]!
    1e70:	332cf725 	msrcc	CPSR_fs, #9699328	; 0x940000
    1e74:	02e09f25 	rsceq	r9, r0, #37, 30	; 0x94
    1e78:	02e40000 	rsceq	r0, r4, #0
    1e7c:	00010000 	andeq	r0, r1, r0
    1e80:	0002e453 	andeq	lr, r2, r3, asr r4
    1e84:	0002ec00 	andeq	lr, r2, r0, lsl #24
    1e88:	70001c00 	andvc	r1, r0, r0, lsl #24
    1e8c:	f72cf700 			; <UNDEFINED> instruction: 0xf72cf700
    1e90:	0825f425 	stmdaeq	r5!, {r0, r2, r5, sl, ip, sp, lr, pc}
    1e94:	cccccccd 	stclgt	12, cr12, [ip], {205}	; 0xcd
    1e98:	00000000 	andeq	r0, r0, r0
    1e9c:	f720081e 			; <UNDEFINED> instruction: 0xf720081e
    1ea0:	2cf72525 	cfldr64cs	mvdx2, [r7], #148	; 0x94
    1ea4:	ec9f2533 	cfldr32	mvfx2, [pc], {51}	; 0x33
    1ea8:	f0000002 			; <UNDEFINED> instruction: 0xf0000002
    1eac:	01000002 	tsteq	r0, r2
    1eb0:	02f05300 	rscseq	r5, r0, #0, 6
    1eb4:	02f80000 	rscseq	r0, r8, #0
    1eb8:	001c0000 	andseq	r0, ip, r0
    1ebc:	2cf70070 	ldclcs	0, cr0, [r7], #448	; 0x1c0
    1ec0:	25f425f7 	ldrbcs	r2, [r4, #1527]!	; 0x5f7
    1ec4:	cccccd08 	stclgt	13, cr12, [ip], {8}
    1ec8:	000000cc 	andeq	r0, r0, ip, asr #1
    1ecc:	20081e00 	andcs	r1, r8, r0, lsl #28
    1ed0:	f72525f7 			; <UNDEFINED> instruction: 0xf72525f7
    1ed4:	9f25332c 	svcls	0x0025332c
    1ed8:	000002f8 	strdeq	r0, [r0], -r8
    1edc:	000002fc 	strdeq	r0, [r0], -ip
    1ee0:	fc530001 	mrrc2	0, 0, r0, r3, cr1
    1ee4:	04000002 	streq	r0, [r0], #-2
    1ee8:	1c000003 	stcne	0, cr0, [r0], {3}
    1eec:	f7007000 			; <UNDEFINED> instruction: 0xf7007000
    1ef0:	f425f72c 	vld1.8	{d15}, [r5 :128], ip
    1ef4:	cccd0825 	stclgt	8, cr0, [sp], {37}	; 0x25
    1ef8:	0000cccc 	andeq	ip, r0, ip, asr #25
    1efc:	081e0000 	ldmdaeq	lr, {}	; <UNPREDICTABLE>
    1f00:	2525f720 	strcs	pc, [r5, #-1824]!	; 0x720
    1f04:	25332cf7 	ldrcs	r2, [r3, #-3319]!	; 0xcf7
    1f08:	0003049f 	muleq	r3, pc, r4	; <UNPREDICTABLE>
    1f0c:	00030800 	andeq	r0, r3, r0, lsl #16
    1f10:	53000100 	movwpl	r0, #256	; 0x100
    1f14:	00000308 	andeq	r0, r0, r8, lsl #6
    1f18:	00000310 	andeq	r0, r0, r0, lsl r3
    1f1c:	0070001c 	rsbseq	r0, r0, ip, lsl r0
    1f20:	25f72cf7 	ldrbcs	r2, [r7, #3319]!	; 0xcf7
    1f24:	cd0825f4 	cfstr32gt	mvfx2, [r8, #-976]	; 0xfffffc30
    1f28:	00cccccc 	sbceq	ip, ip, ip, asr #25
    1f2c:	1e000000 	cdpne	0, 0, cr0, cr0, cr0, {0}
    1f30:	25f72008 	ldrbcs	r2, [r7, #8]!
    1f34:	332cf725 	msrcc	CPSR_fs, #9699328	; 0x940000
    1f38:	03109f25 	tsteq	r0, #37, 30	; 0x94
    1f3c:	03140000 	tsteq	r4, #0
    1f40:	00010000 	andeq	r0, r1, r0
    1f44:	00031453 	andeq	r1, r3, r3, asr r4
    1f48:	00031800 	andeq	r1, r3, r0, lsl #16
    1f4c:	70001c00 	andvc	r1, r0, r0, lsl #24
    1f50:	f72cf700 			; <UNDEFINED> instruction: 0xf72cf700
    1f54:	0825f425 	stmdaeq	r5!, {r0, r2, r5, sl, ip, sp, lr, pc}
    1f58:	cccccccd 	stclgt	12, cr12, [ip], {205}	; 0xcd
    1f5c:	00000000 	andeq	r0, r0, r0
    1f60:	f720081e 			; <UNDEFINED> instruction: 0xf720081e
    1f64:	2cf72525 	cfldr64cs	mvdx2, [r7], #148	; 0x94
    1f68:	189f2533 	ldmne	pc, {r0, r1, r4, r5, r8, sl, sp}	; <UNPREDICTABLE>
    1f6c:	20000003 	andcs	r0, r0, r3
    1f70:	1c000003 	stcne	0, cr0, [r0], {3}
    1f74:	f7007400 			; <UNDEFINED> instruction: 0xf7007400
    1f78:	f425f72c 	vld1.8	{d15}, [r5 :128], ip
    1f7c:	cccd0825 	stclgt	8, cr0, [sp], {37}	; 0x25
    1f80:	0000cccc 	andeq	ip, r0, ip, asr #25
    1f84:	081e0000 	ldmdaeq	lr, {}	; <UNPREDICTABLE>
    1f88:	2525f720 	strcs	pc, [r5, #-1824]!	; 0x720
    1f8c:	25332cf7 	ldrcs	r2, [r3, #-3319]!	; 0xcf7
    1f90:	0003209f 	muleq	r3, pc, r0	; <UNPREDICTABLE>
    1f94:	00032400 	andeq	r2, r3, r0, lsl #8
    1f98:	74001700 	strvc	r1, [r0], #-1792	; 0x700
    1f9c:	f72cf700 			; <UNDEFINED> instruction: 0xf72cf700
    1fa0:	f7007325 			; <UNDEFINED> instruction: 0xf7007325
    1fa4:	1e25f72c 	cdpne	7, 2, cr15, cr5, cr12, {1}
    1fa8:	25f72008 	ldrbcs	r2, [r7, #8]!
    1fac:	332cf725 	msrcc	CPSR_fs, #9699328	; 0x940000
    1fb0:	03249f25 	teqeq	r4, #37, 30	; 0x94
    1fb4:	03580000 	cmpeq	r8, #0
    1fb8:	001c0000 	andseq	r0, ip, r0
    1fbc:	2cf70074 	ldclcs	0, cr0, [r7], #464	; 0x1d0
    1fc0:	25f425f7 	ldrbcs	r2, [r4, #1527]!	; 0x5f7
    1fc4:	cccccd08 	stclgt	13, cr12, [ip], {8}
    1fc8:	000000cc 	andeq	r0, r0, ip, asr #1
    1fcc:	20081e00 	andcs	r1, r8, r0, lsl #28
    1fd0:	f72525f7 			; <UNDEFINED> instruction: 0xf72525f7
    1fd4:	9f25332c 	svcls	0x0025332c
	...
    1fe0:	0000031c 	andeq	r0, r0, ip, lsl r3
    1fe4:	00000340 	andeq	r0, r0, r0, asr #6
    1fe8:	40500001 	subsmi	r0, r0, r1
    1fec:	48000003 	stmdami	r0, {r0, r1}
    1ff0:	09000003 	stmdbeq	r0, {r0, r1}
    1ff4:	73007500 	movwvc	r7, #1280	; 0x500
    1ff8:	00712400 	rsbseq	r2, r1, r0, lsl #8
    1ffc:	03489f21 	movteq	r9, #36641	; 0x8f21
    2000:	034b0000 	movteq	r0, #45056	; 0xb000
    2004:	00010000 	andeq	r0, r1, r0
    2008:	00000051 	andeq	r0, r0, r1, asr r0
    200c:	00000000 	andeq	r0, r0, r0
    2010:	00035800 	andeq	r5, r3, r0, lsl #16
    2014:	00036400 	andeq	r6, r3, r0, lsl #8
    2018:	50000100 	andpl	r0, r0, r0, lsl #2
    201c:	00000364 	andeq	r0, r0, r4, ror #6
    2020:	00000384 	andeq	r0, r0, r4, lsl #7
    2024:	01f30004 	mvnseq	r0, r4
    2028:	00009f50 	andeq	r9, r0, r0, asr pc
    202c:	00000000 	andeq	r0, r0, r0
    2030:	03840000 	orreq	r0, r4, #0
    2034:	03970000 	orrseq	r0, r7, #0
    2038:	00010000 	andeq	r0, r1, r0
    203c:	00039750 	andeq	r9, r3, r0, asr r7
    2040:	0003d000 	andeq	sp, r3, r0
    2044:	54000100 	strpl	r0, [r0], #-256	; 0x100
    2048:	000003d0 	ldrdeq	r0, [r0], -r0	; <UNPREDICTABLE>
    204c:	00000408 	andeq	r0, r0, r8, lsl #8
    2050:	01f30004 	mvnseq	r0, r4
    2054:	00009f50 	andeq	r9, r0, r0, asr pc
    2058:	00000000 	andeq	r0, r0, r0
    205c:	03f00000 	mvnseq	r0, #0
    2060:	03f40000 	mvnseq	r0, #0
    2064:	00010000 	andeq	r0, r1, r0
    2068:	0003f450 	andeq	pc, r3, r0, asr r4	; <UNPREDICTABLE>
    206c:	0003fb00 	andeq	pc, r3, r0, lsl #22
    2070:	51000100 	mrspl	r0, (UNDEF: 16)
	...
    207c:	000003ac 	andeq	r0, r0, ip, lsr #7
    2080:	000003b4 			; <UNDEFINED> instruction: 0x000003b4
    2084:	b4500001 	ldrblt	r0, [r0], #-1
    2088:	bb000003 	bllt	209c <_start-0x5f64>
    208c:	01000003 	tsteq	r0, r3
    2090:	00005100 	andeq	r5, r0, r0, lsl #2
    2094:	00000000 	andeq	r0, r0, r0
    2098:	03cc0000 	biceq	r0, ip, #0
    209c:	03d80000 	bicseq	r0, r8, #0
    20a0:	00010000 	andeq	r0, r1, r0
    20a4:	0003d850 	andeq	sp, r3, r0, asr r8
    20a8:	0003df00 	andeq	sp, r3, r0, lsl #30
    20ac:	51000100 	mrspl	r0, (UNDEF: 16)
	...
    20b8:	00000408 	andeq	r0, r0, r8, lsl #8
    20bc:	0000041b 	andeq	r0, r0, fp, lsl r4
    20c0:	1b500001 	blne	14020cc <__bss_end__+0x13f7e7c>
    20c4:	54000004 	strpl	r0, [r0], #-4
    20c8:	01000004 	tsteq	r0, r4
    20cc:	04545400 	ldrbeq	r5, [r4], #-1024	; 0x400
    20d0:	048c0000 	streq	r0, [ip], #0
    20d4:	00040000 	andeq	r0, r4, r0
    20d8:	9f5001f3 	svcls	0x005001f3
	...
    20e4:	00000474 	andeq	r0, r0, r4, ror r4
    20e8:	00000478 	andeq	r0, r0, r8, ror r4
    20ec:	78500001 	ldmdavc	r0, {r0}^
    20f0:	7f000004 	svcvc	0x00000004
    20f4:	01000004 	tsteq	r0, r4
    20f8:	00005100 	andeq	r5, r0, r0, lsl #2
    20fc:	00000000 	andeq	r0, r0, r0
    2100:	04300000 	ldrteq	r0, [r0], #-0
    2104:	04380000 	ldrteq	r0, [r8], #-0
    2108:	00010000 	andeq	r0, r1, r0
    210c:	00043850 	andeq	r3, r4, r0, asr r8
    2110:	00043f00 	andeq	r3, r4, r0, lsl #30
    2114:	51000100 	mrspl	r0, (UNDEF: 16)
	...
    2120:	00000450 	andeq	r0, r0, r0, asr r4
    2124:	0000045c 	andeq	r0, r0, ip, asr r4
    2128:	5c500001 	mrrcpl	0, 0, r0, r0, cr1	; <UNPREDICTABLE>
    212c:	63000004 	movwvs	r0, #4
    2130:	01000004 	tsteq	r0, r4
    2134:	00005100 	andeq	r5, r0, r0, lsl #2
    2138:	00000000 	andeq	r0, r0, r0
    213c:	048c0000 	streq	r0, [ip], #0
    2140:	049f0000 	ldreq	r0, [pc], #0	; 2148 <_start-0x5eb8>
    2144:	00010000 	andeq	r0, r1, r0
    2148:	00049f50 	andeq	r9, r4, r0, asr pc
    214c:	0004e000 	andeq	lr, r4, r0
    2150:	54000100 	strpl	r0, [r0], #-256	; 0x100
    2154:	000004e0 	andeq	r0, r0, r0, ror #9
    2158:	00000504 	andeq	r0, r0, r4, lsl #10
    215c:	01f30004 	mvnseq	r0, r4
    2160:	05049f50 	streq	r9, [r4, #-3920]	; 0xf50
    2164:	05080000 	streq	r0, [r8, #-0]
    2168:	00010000 	andeq	r0, r1, r0
    216c:	00050850 	andeq	r0, r5, r0, asr r8
    2170:	00051000 	andeq	r1, r5, r0
    2174:	54000100 	strpl	r0, [r0], #-256	; 0x100
	...
    2180:	000004b4 			; <UNDEFINED> instruction: 0x000004b4
    2184:	000004c3 	andeq	r0, r0, r3, asr #9
    2188:	74310008 	ldrtvc	r0, [r1], #-8
    218c:	00702400 	rsbseq	r2, r0, r0, lsl #8
    2190:	00009f1a 	andeq	r9, r0, sl, lsl pc
    2194:	00000000 	andeq	r0, r0, r0
    2198:	04e00000 	strbteq	r0, [r0], #0
    219c:	04f80000 	ldrbteq	r0, [r8], #0
    21a0:	00010000 	andeq	r0, r1, r0
    21a4:	00000054 	andeq	r0, r0, r4, asr r0
    21a8:	00000000 	andeq	r0, r0, r0
    21ac:	00051000 	andeq	r1, r5, r0
    21b0:	00052300 	andeq	r2, r5, r0, lsl #6
    21b4:	50000100 	andpl	r0, r0, r0, lsl #2
    21b8:	00000523 	andeq	r0, r0, r3, lsr #10
    21bc:	00000548 	andeq	r0, r0, r8, asr #10
    21c0:	48540001 	ldmdami	r4, {r0}^
    21c4:	68000005 	stmdavs	r0, {r0, r2}
    21c8:	04000005 	streq	r0, [r0], #-5
    21cc:	5001f300 	andpl	pc, r1, r0, lsl #6
    21d0:	0000009f 	muleq	r0, pc, r0	; <UNPREDICTABLE>
    21d4:	00000000 	andeq	r0, r0, r0
	...

Disassembly of section .debug_aranges:

00000000 <.debug_aranges>:
   0:	0000001c 	andeq	r0, r0, ip, lsl r0
   4:	00000002 	andeq	r0, r0, r2
   8:	00040000 	andeq	r0, r4, r0
   c:	00000000 	andeq	r0, r0, r0
  10:	00008010 	andeq	r8, r0, r0, lsl r0
  14:	00000198 	muleq	r0, r8, r1
	...
  20:	0000001c 	andeq	r0, r0, ip, lsl r0
  24:	03e70002 	mvneq	r0, #2
  28:	00040000 	andeq	r0, r4, r0
  2c:	00000000 	andeq	r0, r0, r0
  30:	000081a8 	andeq	r8, r0, r8, lsr #3
  34:	00000188 	andeq	r0, r0, r8, lsl #3
	...
  40:	0000001c 	andeq	r0, r0, ip, lsl r0
  44:	075e0002 	ldrbeq	r0, [lr, -r2]
  48:	00040000 	andeq	r0, r4, r0
  4c:	00000000 	andeq	r0, r0, r0
  50:	00008330 	andeq	r8, r0, r0, lsr r3
  54:	00000020 	andeq	r0, r0, r0, lsr #32
	...
  60:	0000001c 	andeq	r0, r0, ip, lsl r0
  64:	083d0002 	ldmdaeq	sp!, {r1}
  68:	00040000 	andeq	r0, r4, r0
  6c:	00000000 	andeq	r0, r0, r0
  70:	00008350 	andeq	r8, r0, r0, asr r3
  74:	00000058 	andeq	r0, r0, r8, asr r0
	...
  80:	0000001c 	andeq	r0, r0, ip, lsl r0
  84:	09d20002 	ldmibeq	r2, {r1}^
  88:	00040000 	andeq	r0, r4, r0
  8c:	00000000 	andeq	r0, r0, r0
  90:	000083a8 	andeq	r8, r0, r8, lsr #7
  94:	0000003c 	andeq	r0, r0, ip, lsr r0
	...
  a0:	0000001c 	andeq	r0, r0, ip, lsl r0
  a4:	0ae90002 	beq	ffa400b4 <__bss_end__+0xffa35e64>
  a8:	00040000 	andeq	r0, r4, r0
  ac:	00000000 	andeq	r0, r0, r0
  b0:	000083e4 	andeq	r8, r0, r4, ror #7
  b4:	00000034 	andeq	r0, r0, r4, lsr r0
	...
  c0:	0000001c 	andeq	r0, r0, ip, lsl r0
  c4:	0bdb0002 	bleq	ff6c00d4 <__bss_end__+0xff6b5e84>
  c8:	00040000 	andeq	r0, r4, r0
  cc:	00000000 	andeq	r0, r0, r0
  d0:	00008418 	andeq	r8, r0, r8, lsl r4
  d4:	000004f8 	strdeq	r0, [r0], -r8
	...
  e0:	0000001c 	andeq	r0, r0, ip, lsl r0
  e4:	12600002 	rsbne	r0, r0, #2
  e8:	00040000 	andeq	r0, r4, r0
  ec:	00000000 	andeq	r0, r0, r0
  f0:	00008910 	andeq	r8, r0, r0, lsl r9
  f4:	00000028 	andeq	r0, r0, r8, lsr #32
	...
 100:	0000001c 	andeq	r0, r0, ip, lsl r0
 104:	13630002 	cmnne	r3, #2
 108:	00040000 	andeq	r0, r4, r0
 10c:	00000000 	andeq	r0, r0, r0
 110:	00008938 	andeq	r8, r0, r8, lsr r9
 114:	000000b0 	strheq	r0, [r0], -r0	; <UNPREDICTABLE>
	...
 120:	0000001c 	andeq	r0, r0, ip, lsl r0
 124:	16440002 	strbne	r0, [r4], -r2
 128:	00040000 	andeq	r0, r4, r0
 12c:	00000000 	andeq	r0, r0, r0
 130:	000089e8 	andeq	r8, r0, r8, ror #19
 134:	00000074 	andeq	r0, r0, r4, ror r0
	...
 140:	0000001c 	andeq	r0, r0, ip, lsl r0
 144:	17f50002 	ldrbne	r0, [r5, r2]!
 148:	00040000 	andeq	r0, r4, r0
 14c:	00000000 	andeq	r0, r0, r0
 150:	00008a5c 	andeq	r8, r0, ip, asr sl
 154:	00000088 	andeq	r0, r0, r8, lsl #1
	...
 160:	0000001c 	andeq	r0, r0, ip, lsl r0
 164:	19d10002 	ldmibne	r1, {r1}^
 168:	00040000 	andeq	r0, r4, r0
 16c:	00000000 	andeq	r0, r0, r0
 170:	00008ae4 	andeq	r8, r0, r4, ror #21
 174:	00000620 	andeq	r0, r0, r0, lsr #12
	...
 180:	0000001c 	andeq	r0, r0, ip, lsl r0
 184:	2b9f0002 	blcs	fe7c0194 <__bss_end__+0xfe7b5f44>
 188:	00040000 	andeq	r0, r4, r0
 18c:	00000000 	andeq	r0, r0, r0
 190:	00009104 	andeq	r9, r0, r4, lsl #2
 194:	00000154 	andeq	r0, r0, r4, asr r1
	...
 1a0:	0000001c 	andeq	r0, r0, ip, lsl r0
 1a4:	2fa20002 	svccs	0x00a20002
 1a8:	00040000 	andeq	r0, r4, r0
 1ac:	00000000 	andeq	r0, r0, r0
 1b0:	000092bc 			; <UNDEFINED> instruction: 0x000092bc
 1b4:	00000568 	andeq	r0, r0, r8, ror #10
	...
 1c0:	0000001c 	andeq	r0, r0, ip, lsl r0
 1c4:	37c70002 	strbcc	r0, [r7, r2]
 1c8:	00040000 	andeq	r0, r4, r0
 1cc:	00000000 	andeq	r0, r0, r0
 1d0:	00009824 	andeq	r9, r0, r4, lsr #16
 1d4:	00000050 	andeq	r0, r0, r0, asr r0
	...

Disassembly of section .debug_ranges:

00000000 <.debug_ranges>:
   0:	0000004c 	andeq	r0, r0, ip, asr #32
   4:	00000050 	andeq	r0, r0, r0, asr r0
   8:	00000054 	andeq	r0, r0, r4, asr r0
   c:	00000070 	andeq	r0, r0, r0, ror r0
	...
  18:	00000294 	muleq	r0, r4, r2
  1c:	00000298 	muleq	r0, r8, r2
  20:	000002c8 	andeq	r0, r0, r8, asr #5
  24:	000004b8 			; <UNDEFINED> instruction: 0x000004b8
	...
  30:	000089e8 	andeq	r8, r0, r8, ror #19
  34:	00008a5c 	andeq	r8, r0, ip, asr sl
	...

Disassembly of section .debug_line:

00000000 <.debug_line>:
       0:	000000db 	ldrdeq	r0, [r0], -fp
       4:	00720002 	rsbseq	r0, r2, r2
       8:	01020000 	mrseq	r0, (UNDEF: 2)
       c:	000d0efb 	strdeq	r0, [sp], -fp
      10:	01010101 	tsteq	r1, r1, lsl #2
      14:	01000000 	mrseq	r0, (UNDEF: 0)
      18:	2f010000 	svccs	0x00010000
      1c:	72657355 	rsbvc	r7, r5, #1409286145	; 0x54000001
      20:	72622f73 	rsbvc	r2, r2, #460	; 0x1cc
      24:	6a6e6169 	bvs	1b985d0 <__bss_end__+0x1b8e380>
      28:	442f6e75 	strtmi	r6, [pc], #-3701	; 30 <_start-0x7fd0>
      2c:	746b7365 	strbtvc	r7, [fp], #-869	; 0x365
      30:	732f706f 	teqvc	pc, #111	; 0x6f
      34:	6f6f6863 	svcvs	0x006f6863
      38:	69572f6c 	ldmdbvs	r7, {r2, r3, r5, r6, r8, r9, sl, fp, sp}^
      3c:	7265746e 	rsbvc	r7, r5, #1845493760	; 0x6e000000
      40:	30323931 	eorscc	r3, r2, r1, lsr r9
      44:	3153432f 	cmpcc	r3, pc, lsr #6
      48:	2f453034 	svccs	0x00453034
      4c:	34317363 	ldrtcc	r7, [r1], #-867	; 0x363
      50:	322d6530 	eorcc	r6, sp, #48, 10	; 0xc000000
      54:	6e697730 	mcrvs	7, 3, r7, cr9, cr0, {1}
      58:	62696c2f 	rsbvs	r6, r9, #12032	; 0x2f00
      5c:	00006970 	andeq	r6, r0, r0, ror r9
      60:	74736574 	ldrbtvc	r6, [r3], #-1396	; 0x574
      64:	616d6b2d 	cmnvs	sp, sp, lsr #22
      68:	636f6c6c 	cmnvs	pc, #108, 24	; 0x6c00
      6c:	0000632e 	andeq	r6, r0, lr, lsr #6
      70:	70720000 	rsbsvc	r0, r2, r0
      74:	00682e69 	rsbeq	r2, r8, r9, ror #28
      78:	00000001 	andeq	r0, r0, r1
      7c:	10020500 	andne	r0, r2, r0, lsl #10
      80:	15000080 	strne	r0, [r0, #-128]	; 0x80
      84:	304b304b 	subcc	r3, fp, fp, asr #32
      88:	67674c84 	strbvs	r4, [r7, -r4, lsl #25]!
      8c:	02002d2f 	andeq	r2, r0, #3008	; 0xbc0
      90:	002f0204 	eoreq	r0, pc, r4, lsl #4
      94:	4b020402 	blmi	810a4 <__bss_end__+0x76e54>
      98:	02040200 	andeq	r0, r4, #0, 4
      9c:	04020083 	streq	r0, [r2], #-131	; 0x83
      a0:	02002b02 	andeq	r2, r0, #2048	; 0x800
      a4:	2e060104 	adfcss	f0, f6, f4
      a8:	4b2f5006 	blmi	bd40c8 <__bss_end__+0xbc9e78>
      ac:	04020083 	streq	r0, [r2], #-131	; 0x83
      b0:	06820601 	streq	r0, [r2], r1, lsl #12
      b4:	02003a08 	andeq	r3, r0, #8, 20	; 0x8000
      b8:	2e060104 	adfcss	f0, f6, f4
      bc:	00675006 	rsbeq	r5, r7, r6
      c0:	06010402 	streq	r0, [r1], -r2, lsl #8
      c4:	2fd8064a 	svccs	0x00d8064a
      c8:	0402002f 	streq	r0, [r2], #-47	; 0x2f
      cc:	064a0601 	strbeq	r0, [sl], -r1, lsl #12
      d0:	040200d7 	streq	r0, [r2], #-215	; 0xd7
      d4:	06820601 	streq	r0, [r2], r1, lsl #12
      d8:	16024bd8 			; <UNDEFINED> instruction: 0x16024bd8
      dc:	64010100 	strvs	r0, [r1], #-256	; 0x100
      e0:	02000001 	andeq	r0, r0, #1
      e4:	00011900 	andeq	r1, r1, r0, lsl #18
      e8:	fb010200 	blx	408f2 <__bss_end__+0x366a2>
      ec:	01000d0e 	tsteq	r0, lr, lsl #26
      f0:	00010101 	andeq	r0, r1, r1, lsl #2
      f4:	00010000 	andeq	r0, r1, r0
      f8:	552f0100 	strpl	r0, [pc, #-256]!	; 0 <_start-0x8000>
      fc:	73726573 	cmnvc	r2, #482344960	; 0x1cc00000
     100:	6972622f 	ldmdbvs	r2!, {r0, r1, r2, r3, r5, r9, sp, lr}^
     104:	756a6e61 	strbvc	r6, [sl, #-3681]!	; 0xe61
     108:	65442f6e 	strbvs	r2, [r4, #-3950]	; 0xf6e
     10c:	6f746b73 	svcvs	0x00746b73
     110:	63732f70 	cmnvs	r3, #112, 30	; 0x1c0
     114:	6c6f6f68 	stclvs	15, cr6, [pc], #-416	; ffffff7c <__bss_end__+0xffff5d2c>
     118:	6e69572f 	cdpvs	7, 6, cr5, cr9, cr15, {1}
     11c:	31726574 	cmncc	r2, r4, ror r5
     120:	2f303239 	svccs	0x00303239
     124:	34315343 	ldrtcc	r5, [r1], #-835	; 0x343
     128:	632f4530 	teqvs	pc, #48, 10	; 0xc000000
     12c:	30343173 	eorscc	r3, r4, r3, ror r1
     130:	30322d65 	eorscc	r2, r2, r5, ror #26
     134:	2f6e6977 	svccs	0x006e6977
     138:	7062696c 	rsbvc	r6, r2, ip, ror #18
     13c:	752f0069 	strvc	r0, [pc, #-105]!	; db <_start-0x7f25>
     140:	6c2f7273 	sfmvs	f7, 4, [pc], #-460	; ffffff7c <__bss_end__+0xffff5d2c>
     144:	6c61636f 	stclvs	3, cr6, [r1], #-444	; 0xfffffe44
     148:	6c65432f 	stclvs	3, cr4, [r5], #-188	; 0xffffff44
     14c:	2f72616c 	svccs	0x0072616c
     150:	2d6d7261 	sfmcs	f7, 2, [sp, #-388]!	; 0xfffffe7c
     154:	656e6f6e 	strbvs	r6, [lr, #-3950]!	; 0xf6e
     158:	6261652d 	rsbvs	r6, r1, #188743680	; 0xb400000
     15c:	2e342f69 	cdpcs	15, 3, cr2, cr4, cr9, {3}
     160:	2d332e38 	ldccs	14, cr2, [r3, #-224]!	; 0xffffff20
     164:	37317363 	ldrcc	r7, [r1, -r3, ror #6]!
     168:	6c2f6530 	cfstr32vs	mvfx6, [pc], #-192	; b0 <_start-0x7f50>
     16c:	672f6269 	strvs	r6, [pc, -r9, ror #4]!
     170:	612f6363 	teqvs	pc, r3, ror #6
     174:	6e2d6d72 	mcrvs	13, 1, r6, cr13, cr2, {3}
     178:	2d656e6f 	stclcs	14, cr6, [r5, #-444]!	; 0xfffffe44
     17c:	69626165 	stmdbvs	r2!, {r0, r2, r5, r6, r8, sp, lr}^
     180:	382e342f 	stmdacc	lr!, {r0, r1, r2, r3, r5, sl, ip, sp}
     184:	692f332e 	stmdbvs	pc!, {r1, r2, r3, r5, r8, r9, ip, sp}	; <UNPREDICTABLE>
     188:	756c636e 	strbvc	r6, [ip, #-878]!	; 0x36e
     18c:	2f006564 	svccs	0x00006564
     190:	2f727375 	svccs	0x00727375
     194:	61636f6c 	cmnvs	r3, ip, ror #30
     198:	65432f6c 	strbvs	r2, [r3, #-3948]	; 0xf6c
     19c:	72616c6c 	rsbvc	r6, r1, #108, 24	; 0x6c00
     1a0:	6d72612f 	ldfvse	f6, [r2, #-188]!	; 0xffffff44
     1a4:	6e6f6e2d 	cdpvs	14, 6, cr6, cr15, cr13, {1}
     1a8:	61652d65 	cmnvs	r5, r5, ror #26
     1ac:	342f6962 	strtcc	r6, [pc], #-2402	; 1b4 <_start-0x7e4c>
     1b0:	332e382e 	teqcc	lr, #3014656	; 0x2e0000
     1b4:	3173632d 	cmncc	r3, sp, lsr #6
     1b8:	2f653037 	svccs	0x00653037
     1bc:	2d6d7261 	sfmcs	f7, 2, [sp, #-388]!	; 0xfffffe7c
     1c0:	656e6f6e 	strbvs	r6, [lr, #-3950]!	; 0xf6e
     1c4:	6261652d 	rsbvs	r6, r1, #188743680	; 0xb400000
     1c8:	6e692f69 	cdpvs	15, 6, cr2, cr9, cr9, {3}
     1cc:	64756c63 	ldrbtvs	r6, [r5], #-3171	; 0xc63
     1d0:	6b000065 	blvs	36c <_start-0x7c94>
     1d4:	6c6c616d 	stfvse	f6, [ip], #-436	; 0xfffffe4c
     1d8:	632e636f 	teqvs	lr, #-1140850687	; 0xbc000001
     1dc:	00000000 	andeq	r0, r0, r0
     1e0:	2e697072 	mcrcs	0, 3, r7, cr9, cr2, {3}
     1e4:	00010068 	andeq	r0, r1, r8, rrx
     1e8:	64747300 	ldrbtvs	r7, [r4], #-768	; 0x300
     1ec:	2e666564 	cdpcs	5, 6, cr6, cr6, cr4, {3}
     1f0:	00020068 	andeq	r0, r2, r8, rrx
     1f4:	72747300 	rsbsvc	r7, r4, #0, 6
     1f8:	2e676e69 	cdpcs	14, 6, cr6, cr7, cr9, {3}
     1fc:	00030068 	andeq	r0, r3, r8, rrx
     200:	05000000 	streq	r0, [r0, #-0]
     204:	0081a802 	addeq	sl, r1, r2, lsl #16
     208:	01180300 	tsteq	r8, r0, lsl #6
     20c:	0402002f 	streq	r0, [r2], #-47	; 0x2f
     210:	06820601 	streq	r0, [r2], r1, lsl #12
     214:	4b4b4bd8 	blmi	12d317c <__bss_end__+0x12c8f2c>
     218:	002fbe4d 	eoreq	fp, pc, sp, asr #28
     21c:	06010402 	streq	r0, [r1], -r2, lsl #8
     220:	4bd80682 	blmi	ff601c30 <__bss_end__+0xff5f79e0>
     224:	0402004b 	streq	r0, [r2], #-75	; 0x4b
     228:	064a0601 	strbeq	r0, [sl], -r1, lsl #12
     22c:	30834bd7 	ldrdcc	r4, [r3], r7
     230:	ba0a032f 	blt	280ef4 <__bss_end__+0x276ca4>
     234:	0402002f 	streq	r0, [r2], #-47	; 0x2f
     238:	06820601 	streq	r0, [r2], r1, lsl #12
     23c:	13f967d7 	mvnsne	r6, #56360960	; 0x35c0000
     240:	080214c2 	stmdaeq	r2, {r1, r6, r7, sl, ip}
     244:	ec010100 	stfs	f0, [r1], {-0}
     248:	02000000 	andeq	r0, r0, #0
     24c:	0000d000 	andeq	sp, r0, r0
     250:	fb010200 	blx	40a5a <__bss_end__+0x3680a>
     254:	01000d0e 	tsteq	r0, lr, lsl #26
     258:	00010101 	andeq	r0, r1, r1, lsl #2
     25c:	00010000 	andeq	r0, r1, r0
     260:	696c0100 	stmdbvs	ip!, {r8}^
     264:	2f006362 	svccs	0x00006362
     268:	2f727375 	svccs	0x00727375
     26c:	61636f6c 	cmnvs	r3, ip, ror #30
     270:	65432f6c 	strbvs	r2, [r3, #-3948]	; 0xf6c
     274:	72616c6c 	rsbvc	r6, r1, #108, 24	; 0x6c00
     278:	6d72612f 	ldfvse	f6, [r2, #-188]!	; 0xffffff44
     27c:	6e6f6e2d 	cdpvs	14, 6, cr6, cr15, cr13, {1}
     280:	61652d65 	cmnvs	r5, r5, ror #26
     284:	342f6962 	strtcc	r6, [pc], #-2402	; 28c <_start-0x7d74>
     288:	332e382e 	teqcc	lr, #3014656	; 0x2e0000
     28c:	3173632d 	cmncc	r3, sp, lsr #6
     290:	2f653037 	svccs	0x00653037
     294:	2f62696c 	svccs	0x0062696c
     298:	2f636367 	svccs	0x00636367
     29c:	2d6d7261 	sfmcs	f7, 2, [sp, #-388]!	; 0xfffffe7c
     2a0:	656e6f6e 	strbvs	r6, [lr, #-3950]!	; 0xf6e
     2a4:	6261652d 	rsbvs	r6, r1, #188743680	; 0xb400000
     2a8:	2e342f69 	cdpcs	15, 3, cr2, cr4, cr9, {3}
     2ac:	2f332e38 	svccs	0x00332e38
     2b0:	6c636e69 	stclvs	14, cr6, [r3], #-420	; 0xfffffe5c
     2b4:	00656475 	rsbeq	r6, r5, r5, ror r4
     2b8:	7273752f 	rsbsvc	r7, r3, #197132288	; 0xbc00000
     2bc:	636f6c2f 	cmnvs	pc, #12032	; 0x2f00
     2c0:	432f6c61 	teqmi	pc, #24832	; 0x6100
     2c4:	616c6c65 	cmnvs	ip, r5, ror #24
     2c8:	72612f72 	rsbvc	r2, r1, #456	; 0x1c8
     2cc:	6f6e2d6d 	svcvs	0x006e2d6d
     2d0:	652d656e 	strvs	r6, [sp, #-1390]!	; 0x56e
     2d4:	2f696261 	svccs	0x00696261
     2d8:	2e382e34 	mrccs	14, 1, r2, cr8, cr4, {1}
     2dc:	73632d33 	cmnvc	r3, #3264	; 0xcc0
     2e0:	65303731 	ldrvs	r3, [r0, #-1841]!	; 0x731
     2e4:	6d72612f 	ldfvse	f6, [r2, #-188]!	; 0xffffff44
     2e8:	6e6f6e2d 	cdpvs	14, 6, cr6, cr15, cr13, {1}
     2ec:	61652d65 	cmnvs	r5, r5, ror #26
     2f0:	692f6962 	stmdbvs	pc!, {r1, r5, r6, r8, fp, sp, lr}	; <UNPREDICTABLE>
     2f4:	756c636e 	strbvc	r6, [ip, #-878]!	; 0x36e
     2f8:	00006564 	andeq	r6, r0, r4, ror #10
     2fc:	736d656d 	cmnvc	sp, #457179136	; 0x1b400000
     300:	632e7465 	teqvs	lr, #1694498816	; 0x65000000
     304:	00000100 	andeq	r0, r0, r0, lsl #2
     308:	64647473 	strbtvs	r7, [r4], #-1139	; 0x473
     30c:	682e6665 	stmdavs	lr!, {r0, r2, r5, r6, r9, sl, sp, lr}
     310:	00000200 	andeq	r0, r0, r0, lsl #4
     314:	69727473 	ldmdbvs	r2!, {r0, r1, r4, r5, r6, sl, ip, sp, lr}^
     318:	682e676e 	stmdavs	lr!, {r1, r2, r3, r5, r6, r8, r9, sl, sp, lr}
     31c:	00000300 	andeq	r0, r0, r0, lsl #6
     320:	02050000 	andeq	r0, r5, #0
     324:	00008330 	andeq	r8, r0, r0, lsr r3
     328:	2f4c1314 	svccs	0x004c1314
     32c:	01040200 	mrseq	r0, R12_usr
     330:	02024d49 	andeq	r4, r2, #4672	; 0x1240
     334:	02010100 	andeq	r0, r1, #0, 2
     338:	02000001 	andeq	r0, r0, #1
     33c:	0000eb00 	andeq	lr, r0, r0, lsl #22
     340:	fb010200 	blx	40b4a <__bss_end__+0x368fa>
     344:	01000d0e 	tsteq	r0, lr, lsl #26
     348:	00010101 	andeq	r0, r1, r1, lsl #2
     34c:	00010000 	andeq	r0, r1, r0
     350:	696c0100 	stmdbvs	ip!, {r8}^
     354:	2f006362 	svccs	0x00006362
     358:	2f727375 	svccs	0x00727375
     35c:	61636f6c 	cmnvs	r3, ip, ror #30
     360:	65432f6c 	strbvs	r2, [r3, #-3948]	; 0xf6c
     364:	72616c6c 	rsbvc	r6, r1, #108, 24	; 0x6c00
     368:	6d72612f 	ldfvse	f6, [r2, #-188]!	; 0xffffff44
     36c:	6e6f6e2d 	cdpvs	14, 6, cr6, cr15, cr13, {1}
     370:	61652d65 	cmnvs	r5, r5, ror #26
     374:	342f6962 	strtcc	r6, [pc], #-2402	; 37c <_start-0x7c84>
     378:	332e382e 	teqcc	lr, #3014656	; 0x2e0000
     37c:	3173632d 	cmncc	r3, sp, lsr #6
     380:	2f653037 	svccs	0x00653037
     384:	2f62696c 	svccs	0x0062696c
     388:	2f636367 	svccs	0x00636367
     38c:	2d6d7261 	sfmcs	f7, 2, [sp, #-388]!	; 0xfffffe7c
     390:	656e6f6e 	strbvs	r6, [lr, #-3950]!	; 0xf6e
     394:	6261652d 	rsbvs	r6, r1, #188743680	; 0xb400000
     398:	2e342f69 	cdpcs	15, 3, cr2, cr4, cr9, {3}
     39c:	2f332e38 	svccs	0x00332e38
     3a0:	6c636e69 	stclvs	14, cr6, [r3], #-420	; 0xfffffe5c
     3a4:	00656475 	rsbeq	r6, r5, r5, ror r4
     3a8:	6573552f 	ldrbvs	r5, [r3, #-1327]!	; 0x52f
     3ac:	622f7372 	eorvs	r7, pc, #-939524095	; 0xc8000001
     3b0:	6e616972 	mcrvs	9, 3, r6, cr1, cr2, {3}
     3b4:	2f6e756a 	svccs	0x006e756a
     3b8:	6b736544 	blvs	1cd98d0 <__bss_end__+0x1ccf680>
     3bc:	2f706f74 	svccs	0x00706f74
     3c0:	6f686373 	svcvs	0x00686373
     3c4:	572f6c6f 	strpl	r6, [pc, -pc, ror #24]!
     3c8:	65746e69 	ldrbvs	r6, [r4, #-3689]!	; 0xe69
     3cc:	32393172 	eorscc	r3, r9, #-2147483620	; 0x8000001c
     3d0:	53432f30 	movtpl	r2, #16176	; 0x3f30
     3d4:	45303431 	ldrmi	r3, [r0, #-1073]!	; 0x431
     3d8:	3173632f 	cmncc	r3, pc, lsr #6
     3dc:	2d653034 	stclcs	0, cr3, [r5, #-208]!	; 0xffffff30
     3e0:	69773032 	ldmdbvs	r7!, {r1, r4, r5, ip, sp}^
     3e4:	696c2f6e 	stmdbvs	ip!, {r1, r2, r3, r5, r6, r8, r9, sl, fp, sp}^
     3e8:	00697062 	rsbeq	r7, r9, r2, rrx
     3ec:	69727000 	ldmdbvs	r2!, {ip, sp, lr}^
     3f0:	2e6b746e 	cdpcs	4, 6, cr7, cr11, cr14, {3}
     3f4:	00010063 	andeq	r0, r1, r3, rrx
     3f8:	64747300 	ldrbtvs	r7, [r4], #-768	; 0x300
     3fc:	2e677261 	cdpcs	2, 6, cr7, cr7, cr1, {3}
     400:	00020068 	andeq	r0, r2, r8, rrx
     404:	75623c00 	strbvc	r3, [r2, #-3072]!	; 0xc00
     408:	2d746c69 	ldclcs	12, cr6, [r4, #-420]!	; 0xfffffe5c
     40c:	003e6e69 	eorseq	r6, lr, r9, ror #28
     410:	72000000 	andvc	r0, r0, #0
     414:	682e6970 	stmdavs	lr!, {r4, r5, r6, r8, fp, sp, lr}
     418:	00000300 	andeq	r0, r0, r0, lsl #6
     41c:	702d6176 	eorvc	r6, sp, r6, ror r1
     420:	746e6972 	strbtvc	r6, [lr], #-2418	; 0x972
     424:	00682e6b 	rsbeq	r2, r8, fp, ror #28
     428:	00000001 	andeq	r0, r0, r1
     42c:	50020500 	andpl	r0, r2, r0, lsl #10
     430:	17000083 	strne	r0, [r0, -r3, lsl #1]
     434:	89bf4b6b 	ldmibhi	pc!, {r0, r1, r3, r5, r6, r8, r9, fp, lr}	; <UNPREDICTABLE>
     438:	01000e02 	tsteq	r0, r2, lsl #28
     43c:	00008a01 	andeq	r8, r0, r1, lsl #20
     440:	72000200 	andvc	r0, r0, #0, 4
     444:	02000000 	andeq	r0, r0, #0
     448:	0d0efb01 	vstreq	d15, [lr, #-4]
     44c:	01010100 	mrseq	r0, (UNDEF: 17)
     450:	00000001 	andeq	r0, r0, r1
     454:	01000001 	tsteq	r0, r1
     458:	6362696c 	cmnvs	r2, #108, 18	; 0x1b0000
     45c:	73552f00 	cmpvc	r5, #0, 30
     460:	2f737265 	svccs	0x00737265
     464:	61697262 	cmnvs	r9, r2, ror #4
     468:	6e756a6e 	vsubvs.f32	s13, s10, s29
     46c:	7365442f 	cmnvc	r5, #788529152	; 0x2f000000
     470:	706f746b 	rsbvc	r7, pc, fp, ror #8
     474:	6863732f 	stmdavs	r3!, {r0, r1, r2, r3, r5, r8, r9, ip, sp, lr}^
     478:	2f6c6f6f 	svccs	0x006c6f6f
     47c:	746e6957 	strbtvc	r6, [lr], #-2391	; 0x957
     480:	39317265 	ldmdbcc	r1!, {r0, r2, r5, r6, r9, ip, sp, lr}
     484:	432f3032 	teqmi	pc, #50	; 0x32
     488:	30343153 	eorscc	r3, r4, r3, asr r1
     48c:	73632f45 	cmnvc	r3, #276	; 0x114
     490:	65303431 	ldrvs	r3, [r0, #-1073]!	; 0x431
     494:	7730322d 	ldrvc	r3, [r0, -sp, lsr #4]!
     498:	6c2f6e69 	stcvs	14, cr6, [pc], #-420	; 2fc <_start-0x7d04>
     49c:	69706269 	ldmdbvs	r0!, {r0, r3, r5, r6, r9, sp, lr}^
     4a0:	75700000 	ldrbvc	r0, [r0, #-0]!
     4a4:	61686374 	smcvs	34356	; 0x8634
     4a8:	00632e72 	rsbeq	r2, r3, r2, ror lr
     4ac:	72000001 	andvc	r0, r0, #1
     4b0:	682e6970 	stmdavs	lr!, {r4, r5, r6, r8, fp, sp, lr}
     4b4:	00000200 	andeq	r0, r0, r0, lsl #4
     4b8:	02050000 	andeq	r0, r5, #0
     4bc:	000083a8 	andeq	r8, r0, r8, lsr #7
     4c0:	136b4a14 	cmnne	fp, #20, 20	; 0x14000
     4c4:	080213bc 	stmdaeq	r2, {r2, r3, r4, r5, r7, r8, r9, ip}
     4c8:	96010100 	strls	r0, [r1], -r0, lsl #2
     4cc:	02000000 	andeq	r0, r0, #0
     4d0:	00006f00 	andeq	r6, r0, r0, lsl #30
     4d4:	fb010200 	blx	40cde <__bss_end__+0x36a8e>
     4d8:	01000d0e 	tsteq	r0, lr, lsl #26
     4dc:	00010101 	andeq	r0, r1, r1, lsl #2
     4e0:	00010000 	andeq	r0, r1, r0
     4e4:	696c0100 	stmdbvs	ip!, {r8}^
     4e8:	2f006362 	svccs	0x00006362
     4ec:	72657355 	rsbvc	r7, r5, #1409286145	; 0x54000001
     4f0:	72622f73 	rsbvc	r2, r2, #460	; 0x1cc
     4f4:	6a6e6169 	bvs	1b98aa0 <__bss_end__+0x1b8e850>
     4f8:	442f6e75 	strtmi	r6, [pc], #-3701	; 500 <_start-0x7b00>
     4fc:	746b7365 	strbtvc	r7, [fp], #-869	; 0x365
     500:	732f706f 	teqvc	pc, #111	; 0x6f
     504:	6f6f6863 	svcvs	0x006f6863
     508:	69572f6c 	ldmdbvs	r7, {r2, r3, r5, r6, r8, r9, sl, fp, sp}^
     50c:	7265746e 	rsbvc	r7, r5, #1845493760	; 0x6e000000
     510:	30323931 	eorscc	r3, r2, r1, lsr r9
     514:	3153432f 	cmpcc	r3, pc, lsr #6
     518:	2f453034 	svccs	0x00453034
     51c:	34317363 	ldrtcc	r7, [r1], #-867	; 0x363
     520:	322d6530 	eorcc	r6, sp, #48, 10	; 0xc000000
     524:	6e697730 	mcrvs	7, 3, r7, cr9, cr0, {1}
     528:	62696c2f 	rsbvs	r6, r9, #12032	; 0x2f00
     52c:	00006970 	andeq	r6, r0, r0, ror r9
     530:	6b747570 	blvs	1d1daf8 <__bss_end__+0x1d138a8>
     534:	0100632e 	tsteq	r0, lr, lsr #6
     538:	70720000 	rsbsvc	r0, r2, r0
     53c:	00682e69 	rsbeq	r2, r8, r9, ror #28
     540:	00000002 	andeq	r0, r0, r2
     544:	e4020500 	str	r0, [r2], #-1280	; 0x500
     548:	15000083 	strne	r0, [r0, #-131]	; 0x83
     54c:	02002d4c 	andeq	r2, r0, #76, 26	; 0x1300
     550:	002f0204 	eoreq	r0, pc, r4, lsl #4
     554:	49020402 	stmdbmi	r2, {r1, sl}
     558:	01040200 	mrseq	r0, R12_usr
     55c:	6b062e06 	blvs	18bd7c <__bss_end__+0x181b2c>
     560:	01000602 	tsteq	r0, r2, lsl #12
     564:	0001de01 	andeq	sp, r1, r1, lsl #28
     568:	df000200 	svcle	0x00000200
     56c:	02000000 	andeq	r0, r0, #0
     570:	0d0efb01 	vstreq	d15, [lr, #-4]
     574:	01010100 	mrseq	r0, (UNDEF: 17)
     578:	00000001 	andeq	r0, r0, r1
     57c:	01000001 	tsteq	r0, r1
     580:	6362696c 	cmnvs	r2, #108, 18	; 0x1b0000
     584:	73752f00 	cmnvc	r5, #0, 30
     588:	6f6c2f72 	svcvs	0x006c2f72
     58c:	2f6c6163 	svccs	0x006c6163
     590:	6c6c6543 	cfstr64vs	mvdx6, [ip], #-268	; 0xfffffef4
     594:	612f7261 	teqvs	pc, r1, ror #4
     598:	6e2d6d72 	mcrvs	13, 1, r6, cr13, cr2, {3}
     59c:	2d656e6f 	stclcs	14, cr6, [r5, #-444]!	; 0xfffffe44
     5a0:	69626165 	stmdbvs	r2!, {r0, r2, r5, r6, r8, sp, lr}^
     5a4:	382e342f 	stmdacc	lr!, {r0, r1, r2, r3, r5, sl, ip, sp}
     5a8:	632d332e 	teqvs	sp, #-1207959552	; 0xb8000000
     5ac:	30373173 	eorscc	r3, r7, r3, ror r1
     5b0:	696c2f65 	stmdbvs	ip!, {r0, r2, r5, r6, r8, r9, sl, fp, sp}^
     5b4:	63672f62 	cmnvs	r7, #392	; 0x188
     5b8:	72612f63 	rsbvc	r2, r1, #396	; 0x18c
     5bc:	6f6e2d6d 	svcvs	0x006e2d6d
     5c0:	652d656e 	strvs	r6, [sp, #-1390]!	; 0x56e
     5c4:	2f696261 	svccs	0x00696261
     5c8:	2e382e34 	mrccs	14, 1, r2, cr8, cr4, {1}
     5cc:	6e692f33 	mcrvs	15, 3, r2, cr9, cr3, {1}
     5d0:	64756c63 	ldrbtvs	r6, [r5], #-3171	; 0xc63
     5d4:	552f0065 	strpl	r0, [pc, #-101]!	; 577 <_start-0x7a89>
     5d8:	73726573 	cmnvc	r2, #482344960	; 0x1cc00000
     5dc:	6972622f 	ldmdbvs	r2!, {r0, r1, r2, r3, r5, r9, sp, lr}^
     5e0:	756a6e61 	strbvc	r6, [sl, #-3681]!	; 0xe61
     5e4:	65442f6e 	strbvs	r2, [r4, #-3950]	; 0xf6e
     5e8:	6f746b73 	svcvs	0x00746b73
     5ec:	63732f70 	cmnvs	r3, #112, 30	; 0x1c0
     5f0:	6c6f6f68 	stclvs	15, cr6, [pc], #-416	; 458 <_start-0x7ba8>
     5f4:	6e69572f 	cdpvs	7, 6, cr5, cr9, cr15, {1}
     5f8:	31726574 	cmncc	r2, r4, ror r5
     5fc:	2f303239 	svccs	0x00303239
     600:	34315343 	ldrtcc	r5, [r1], #-835	; 0x343
     604:	632f4530 	teqvs	pc, #48, 10	; 0xc000000
     608:	30343173 	eorscc	r3, r4, r3, ror r1
     60c:	30322d65 	eorscc	r2, r2, r5, ror #26
     610:	2f6e6977 	svccs	0x006e6977
     614:	7062696c 	rsbvc	r6, r2, ip, ror #18
     618:	76000069 	strvc	r0, [r0], -r9, rrx
     61c:	72702d61 	rsbsvc	r2, r0, #6208	; 0x1840
     620:	6b746e69 	blvs	1d1bfcc <__bss_end__+0x1d11d7c>
     624:	0100632e 	tsteq	r0, lr, lsr #6
     628:	74730000 	ldrbtvc	r0, [r3], #-0
     62c:	67726164 	ldrbvs	r6, [r2, -r4, ror #2]!
     630:	0200682e 	andeq	r6, r0, #3014656	; 0x2e0000
     634:	70720000 	rsbsvc	r0, r2, r0
     638:	00682e69 	rsbeq	r2, r8, r9, ror #28
     63c:	3c000003 	stccc	0, cr0, [r0], {3}
     640:	6c697562 	cfstr64vs	mvdx7, [r9], #-392	; 0xfffffe78
     644:	6e692d74 	mcrvs	13, 3, r2, cr9, cr4, {3}
     648:	0000003e 	andeq	r0, r0, lr, lsr r0
     64c:	05000000 	streq	r0, [r0, #-0]
     650:	00841802 	addeq	r1, r4, r2, lsl #16
     654:	01260300 	teqeq	r6, r0, lsl #6
     658:	3113a501 	tstcc	r3, r1, lsl #10
     65c:	0402002d 	streq	r0, [r2], #-45	; 0x2d
     660:	02002f02 	andeq	r2, r0, #2, 30
     664:	002d0204 	eoreq	r0, sp, r4, lsl #4
     668:	2f020402 	svccs	0x00020402
     66c:	01040200 	mrseq	r0, R12_usr
     670:	304c4c2d 	subcc	r4, ip, sp, lsr #24
     674:	4f2f4b14 	svcmi	0x002f4b14
     678:	02040200 	andeq	r0, r4, #0, 4
     67c:	04020067 	streq	r0, [r2], #-103	; 0x67
     680:	4d4c6501 	cfstr64mi	mvdx6, [ip, #-4]
     684:	312fa030 	teqcc	pc, r0, lsr r0	; <UNPREDICTABLE>
     688:	16260230 			; <UNDEFINED> instruction: 0x16260230
     68c:	002c2d84 	eoreq	r2, ip, r4, lsl #27
     690:	30010402 	andcc	r0, r1, r2, lsl #8
     694:	01040200 	mrseq	r0, R12_usr
     698:	00660633 	rsbeq	r0, r6, r3, lsr r6
     69c:	2e010402 	cdpcs	4, 0, cr0, cr1, cr2, {0}
     6a0:	01040200 	mrseq	r0, R12_usr
     6a4:	67210806 	strvs	r0, [r1, -r6, lsl #16]!
     6a8:	8273032f 	rsbshi	r0, r3, #-1140850688	; 0xbc000000
     6ac:	002e1303 	eoreq	r1, lr, r3, lsl #6
     6b0:	06010402 	streq	r0, [r1], -r2, lsl #8
     6b4:	0402002e 	streq	r0, [r2], #-46	; 0x2e
     6b8:	6a9f0601 	bvs	fe7c1ec4 <__bss_end__+0xfe7b7c74>
     6bc:	2e67034b 	cdpcs	3, 6, cr0, cr7, cr11, {2}
     6c0:	002e2103 	eoreq	r2, lr, r3, lsl #2
     6c4:	06010402 	streq	r0, [r1], -r2, lsl #8
     6c8:	0402002e 	streq	r0, [r2], #-46	; 0x2e
     6cc:	009f0601 	addseq	r0, pc, r1, lsl #12
     6d0:	6a010402 	bvs	416e0 <__bss_end__+0x37490>
     6d4:	a603f3d9 			; <UNDEFINED> instruction: 0xa603f3d9
     6d8:	2f20087f 	svccs	0x0020087f
     6dc:	01040200 	mrseq	r0, R12_usr
     6e0:	d7064a06 	strle	r4, [r6, -r6, lsl #20]
     6e4:	da032f4b 	ble	cc418 <__bss_end__+0xc21c8>
     6e8:	4c83f200 	sfmmi	f7, 1, [r3], {0}
     6ec:	2e0e0348 	cdpcs	3, 0, cr0, cr14, cr8, {2}
     6f0:	2f2e7503 	svccs	0x002e7503
     6f4:	2f4b842f 	svccs	0x004b842f
     6f8:	30314d2d 	eorscc	r4, r1, sp, lsr #26
     6fc:	0200832f 	andeq	r8, r0, #-1140850688	; 0xbc000000
     700:	a22c0104 	eorge	r0, ip, #4, 2
     704:	01040200 	mrseq	r0, R12_usr
     708:	d8064a06 	stmdale	r6, {r1, r2, r9, fp, lr}
     70c:	03163602 	tsteq	r6, #2097152	; 0x200000
     710:	2108d60e 	tstcs	r8, lr, lsl #12
     714:	f331f330 	vcge.u<illegal width 64>	d15, d1, d16
     718:	4b30f330 	blmi	c3d3e0 <__bss_end__+0xc33190>
     71c:	0830f330 	ldmdaeq	r0!, {r4, r5, r8, r9, ip, sp, lr, pc}
     720:	002f3123 	eoreq	r3, pc, r3, lsr #2
     724:	65010402 	strvs	r0, [r1, #-1026]	; 0x402
     728:	02040200 	andeq	r0, r4, #0, 4
     72c:	02004a06 	andeq	r4, r0, #24576	; 0x6000
     730:	03060104 	movweq	r0, #24836	; 0x6104
     734:	02006642 	andeq	r6, r0, #69206016	; 0x4200000
     738:	66060204 	strvs	r0, [r6], -r4, lsl #4
     73c:	00c20306 	sbceq	r0, r2, r6, lsl #6
     740:	1002684a 	andne	r6, r2, sl, asr #16
     744:	93010100 	movwls	r0, #4352	; 0x1100
     748:	02000000 	andeq	r0, r0, #0
     74c:	00007d00 	andeq	r7, r0, r0, lsl #26
     750:	fb010200 	blx	40f5a <__bss_end__+0x36d0a>
     754:	01000d0e 	tsteq	r0, lr, lsl #26
     758:	00010101 	andeq	r0, r1, r1, lsl #2
     75c:	00010000 	andeq	r0, r1, r0
     760:	73630100 	cmnvc	r3, #0, 2
     764:	65303431 	ldrvs	r3, [r0, #-1073]!	; 0x431
     768:	6372732d 	cmnvs	r2, #-1275068416	; 0xb4000000
     76c:	73552f00 	cmpvc	r5, #0, 30
     770:	2f737265 	svccs	0x00737265
     774:	61697262 	cmnvs	r9, r2, ror #4
     778:	6e756a6e 	vsubvs.f32	s13, s10, s29
     77c:	7365442f 	cmnvc	r5, #788529152	; 0x2f000000
     780:	706f746b 	rsbvc	r7, pc, fp, ror #8
     784:	6863732f 	stmdavs	r3!, {r0, r1, r2, r3, r5, r8, r9, ip, sp, lr}^
     788:	2f6c6f6f 	svccs	0x006c6f6f
     78c:	746e6957 	strbtvc	r6, [lr], #-2391	; 0x957
     790:	39317265 	ldmdbcc	r1!, {r0, r2, r5, r6, r9, ip, sp, lr}
     794:	432f3032 	teqmi	pc, #50	; 0x32
     798:	30343153 	eorscc	r3, r4, r3, asr r1
     79c:	73632f45 	cmnvc	r3, #276	; 0x114
     7a0:	65303431 	ldrvs	r3, [r0, #-1073]!	; 0x431
     7a4:	7730322d 	ldrvc	r3, [r0, -sp, lsr #4]!
     7a8:	6c2f6e69 	stcvs	14, cr6, [pc], #-420	; 60c <_start-0x79f4>
     7ac:	69706269 	ldmdbvs	r0!, {r0, r3, r5, r6, r9, sp, lr}^
     7b0:	6c630000 	stclvs	0, cr0, [r3], #-0
     7b4:	2d6e6165 	stfcse	f6, [lr, #-404]!	; 0xfffffe6c
     7b8:	6f626572 	svcvs	0x00626572
     7bc:	632e746f 	teqvs	lr, #1862270976	; 0x6f000000
     7c0:	00000100 	andeq	r0, r0, r0, lsl #2
     7c4:	2e697072 	mcrcs	0, 3, r7, cr9, cr2, {3}
     7c8:	00020068 	andeq	r0, r2, r8, rrx
     7cc:	05000000 	streq	r0, [r0, #-0]
     7d0:	00891002 	addeq	r1, r9, r2
     7d4:	832f1500 	teqhi	pc, #0, 10
     7d8:	0006024b 	andeq	r0, r6, fp, asr #4
     7dc:	01210101 	teqeq	r1, r1, lsl #2
     7e0:	00020000 	andeq	r0, r2, r0
     7e4:	000000f8 	strdeq	r0, [r0], -r8
     7e8:	0efb0102 	cdpeq	1, 15, cr0, cr11, cr2, {0}
     7ec:	0101000d 	tsteq	r1, sp
     7f0:	00000101 	andeq	r0, r0, r1, lsl #2
     7f4:	00000100 	andeq	r0, r0, r0, lsl #2
     7f8:	31736301 	cmncc	r3, r1, lsl #6
     7fc:	2d653034 	stclcs	0, cr3, [r5, #-208]!	; 0xffffff30
     800:	00637273 	rsbeq	r7, r3, r3, ror r2
     804:	7273752f 	rsbsvc	r7, r3, #197132288	; 0xbc00000
     808:	636f6c2f 	cmnvs	pc, #12032	; 0x2f00
     80c:	432f6c61 	teqmi	pc, #24832	; 0x6100
     810:	616c6c65 	cmnvs	ip, r5, ror #24
     814:	72612f72 	rsbvc	r2, r1, #456	; 0x1c8
     818:	6f6e2d6d 	svcvs	0x006e2d6d
     81c:	652d656e 	strvs	r6, [sp, #-1390]!	; 0x56e
     820:	2f696261 	svccs	0x00696261
     824:	2e382e34 	mrccs	14, 1, r2, cr8, cr4, {1}
     828:	73632d33 	cmnvc	r3, #3264	; 0xcc0
     82c:	65303731 	ldrvs	r3, [r0, #-1841]!	; 0x731
     830:	62696c2f 	rsbvs	r6, r9, #12032	; 0x2f00
     834:	6363672f 	cmnvs	r3, #12320768	; 0xbc0000
     838:	6d72612f 	ldfvse	f6, [r2, #-188]!	; 0xffffff44
     83c:	6e6f6e2d 	cdpvs	14, 6, cr6, cr15, cr13, {1}
     840:	61652d65 	cmnvs	r5, r5, ror #26
     844:	342f6962 	strtcc	r6, [pc], #-2402	; 84c <_start-0x77b4>
     848:	332e382e 	teqcc	lr, #3014656	; 0x2e0000
     84c:	636e692f 	cmnvs	lr, #770048	; 0xbc000
     850:	6564756c 	strbvs	r7, [r4, #-1388]!	; 0x56c
     854:	73552f00 	cmpvc	r5, #0, 30
     858:	2f737265 	svccs	0x00737265
     85c:	61697262 	cmnvs	r9, r2, ror #4
     860:	6e756a6e 	vsubvs.f32	s13, s10, s29
     864:	7365442f 	cmnvc	r5, #788529152	; 0x2f000000
     868:	706f746b 	rsbvc	r7, pc, fp, ror #8
     86c:	6863732f 	stmdavs	r3!, {r0, r1, r2, r3, r5, r8, r9, ip, sp, lr}^
     870:	2f6c6f6f 	svccs	0x006c6f6f
     874:	746e6957 	strbtvc	r6, [lr], #-2391	; 0x957
     878:	39317265 	ldmdbcc	r1!, {r0, r2, r5, r6, r9, ip, sp, lr}
     87c:	432f3032 	teqmi	pc, #50	; 0x32
     880:	30343153 	eorscc	r3, r4, r3, asr r1
     884:	73632f45 	cmnvc	r3, #276	; 0x114
     888:	65303431 	ldrvs	r3, [r0, #-1073]!	; 0x431
     88c:	7730322d 	ldrvc	r3, [r0, -sp, lsr #4]!
     890:	6c2f6e69 	stcvs	14, cr6, [pc], #-420	; 6f4 <_start-0x790c>
     894:	69706269 	ldmdbvs	r0!, {r0, r3, r5, r6, r9, sp, lr}^
     898:	73630000 	cmnvc	r3, #0
     89c:	74726174 	ldrbtvc	r6, [r2], #-372	; 0x174
     8a0:	0100632e 	tsteq	r0, lr, lsr #6
     8a4:	74730000 	ldrbtvc	r0, [r3], #-0
     8a8:	746e6964 	strbtvc	r6, [lr], #-2404	; 0x964
     8ac:	6363672d 	cmnvs	r3, #11796480	; 0xb40000
     8b0:	0200682e 	andeq	r6, r0, #3014656	; 0x2e0000
     8b4:	77730000 	ldrbvc	r0, [r3, -r0]!
     8b8:	7261752d 	rsbvc	r7, r1, #188743680	; 0xb400000
     8bc:	00682e74 	rsbeq	r2, r8, r4, ror lr
     8c0:	63000001 	movwvs	r0, #1
     8c4:	72746e6f 	rsbsvc	r6, r4, #1776	; 0x6f0
     8c8:	622d6c6f 	eorvs	r6, sp, #28416	; 0x6f00
     8cc:	6b636f6c 	blvs	18dc684 <__bss_end__+0x18d2434>
     8d0:	0100682e 	tsteq	r0, lr, lsr #16
     8d4:	70720000 	rsbsvc	r0, r2, r0
     8d8:	00682e69 	rsbeq	r2, r8, r9, ror #28
     8dc:	00000003 	andeq	r0, r0, r3
     8e0:	38020500 	stmdacc	r2, {r8, sl}
     8e4:	17000089 	strne	r0, [r0, -r9, lsl #1]
     8e8:	3268684b 	rsbcc	r6, r8, #4915200	; 0x4b0000
     8ec:	2f2d2f31 	svccs	0x002d2f31
     8f0:	01040200 	mrseq	r0, R12_usr
     8f4:	4b2f4f49 	blmi	bd4620 <__bss_end__+0xbca3d0>
     8f8:	67836767 	strvs	r6, [r3, r7, ror #14]
     8fc:	10022f4e 	andne	r2, r2, lr, asr #30
     900:	99010100 	stmdbls	r1, {r8}
     904:	02000000 	andeq	r0, r0, #0
     908:	00007700 	andeq	r7, r0, r0, lsl #14
     90c:	fb010200 	blx	41116 <__bss_end__+0x36ec6>
     910:	01000d0e 	tsteq	r0, lr, lsl #26
     914:	00010101 	andeq	r0, r1, r1, lsl #2
     918:	00010000 	andeq	r0, r1, r0
     91c:	73630100 	cmnvc	r3, #0, 2
     920:	65303431 	ldrvs	r3, [r0, #-1073]!	; 0x431
     924:	6372732d 	cmnvs	r2, #-1275068416	; 0xb4000000
     928:	73552f00 	cmpvc	r5, #0, 30
     92c:	2f737265 	svccs	0x00737265
     930:	61697262 	cmnvs	r9, r2, ror #4
     934:	6e756a6e 	vsubvs.f32	s13, s10, s29
     938:	7365442f 	cmnvc	r5, #788529152	; 0x2f000000
     93c:	706f746b 	rsbvc	r7, pc, fp, ror #8
     940:	6863732f 	stmdavs	r3!, {r0, r1, r2, r3, r5, r8, r9, ip, sp, lr}^
     944:	2f6c6f6f 	svccs	0x006c6f6f
     948:	746e6957 	strbtvc	r6, [lr], #-2391	; 0x957
     94c:	39317265 	ldmdbcc	r1!, {r0, r2, r5, r6, r9, ip, sp, lr}
     950:	432f3032 	teqmi	pc, #50	; 0x32
     954:	30343153 	eorscc	r3, r4, r3, asr r1
     958:	73632f45 	cmnvc	r3, #276	; 0x114
     95c:	65303431 	ldrvs	r3, [r0, #-1073]!	; 0x431
     960:	7730322d 	ldrvc	r3, [r0, -sp, lsr #4]!
     964:	6c2f6e69 	stcvs	14, cr6, [pc], #-420	; 7c8 <_start-0x7838>
     968:	69706269 	ldmdbvs	r0!, {r0, r3, r5, r6, r9, sp, lr}^
     96c:	65720000 	ldrbvs	r0, [r2, #-0]!
     970:	746f6f62 	strbtvc	r6, [pc], #-3938	; 978 <_start-0x7688>
     974:	0100632e 	tsteq	r0, lr, lsr #6
     978:	70720000 	rsbsvc	r0, r2, r0
     97c:	00682e69 	rsbeq	r2, r8, r9, ror #28
     980:	00000002 	andeq	r0, r0, r2
     984:	e8020500 	stmda	r2, {r8, sl}
     988:	03000089 	movweq	r0, #137	; 0x89
     98c:	3114010d 	tstcc	r4, sp, lsl #2
     990:	2f15852f 	svccs	0x0015852f
     994:	672f4d4b 	strvs	r4, [pc, -fp, asr #26]!
     998:	02675235 	rsbeq	r5, r7, #1342177283	; 0x50000003
     99c:	01010010 	tsteq	r1, r0, lsl r0
     9a0:	000000a3 	andeq	r0, r0, r3, lsr #1
     9a4:	00760002 	rsbseq	r0, r6, r2
     9a8:	01020000 	mrseq	r0, (UNDEF: 2)
     9ac:	000d0efb 	strdeq	r0, [sp], -fp
     9b0:	01010101 	tsteq	r1, r1, lsl #2
     9b4:	01000000 	mrseq	r0, (UNDEF: 0)
     9b8:	63010000 	movwvs	r0, #4096	; 0x1000
     9bc:	30343173 	eorscc	r3, r4, r3, ror r1
     9c0:	72732d65 	rsbsvc	r2, r3, #6464	; 0x1940
     9c4:	552f0063 	strpl	r0, [pc, #-99]!	; 969 <_start-0x7697>
     9c8:	73726573 	cmnvc	r2, #482344960	; 0x1cc00000
     9cc:	6972622f 	ldmdbvs	r2!, {r0, r1, r2, r3, r5, r9, sp, lr}^
     9d0:	756a6e61 	strbvc	r6, [sl, #-3681]!	; 0xe61
     9d4:	65442f6e 	strbvs	r2, [r4, #-3950]	; 0xf6e
     9d8:	6f746b73 	svcvs	0x00746b73
     9dc:	63732f70 	cmnvs	r3, #112, 30	; 0x1c0
     9e0:	6c6f6f68 	stclvs	15, cr6, [pc], #-416	; 848 <_start-0x77b8>
     9e4:	6e69572f 	cdpvs	7, 6, cr5, cr9, cr15, {1}
     9e8:	31726574 	cmncc	r2, r4, ror r5
     9ec:	2f303239 	svccs	0x00303239
     9f0:	34315343 	ldrtcc	r5, [r1], #-835	; 0x343
     9f4:	632f4530 	teqvs	pc, #48, 10	; 0xc000000
     9f8:	30343173 	eorscc	r3, r4, r3, ror r1
     9fc:	30322d65 	eorscc	r2, r2, r5, ror #26
     a00:	2f6e6977 	svccs	0x006e6977
     a04:	7062696c 	rsbvc	r6, r2, ip, ror #18
     a08:	74000069 	strvc	r0, [r0], #-105	; 0x69
     a0c:	72656d69 	rsbvc	r6, r5, #6720	; 0x1a40
     a10:	0100632e 	tsteq	r0, lr, lsr #6
     a14:	70720000 	rsbsvc	r0, r2, r0
     a18:	00682e69 	rsbeq	r2, r8, r9, ror #28
     a1c:	00000002 	andeq	r0, r0, r2
     a20:	5c020500 	cfstr32pl	mvfx0, [r2], {-0}
     a24:	1600008a 	strne	r0, [r0], -sl, lsl #1
     a28:	002d2f13 	eoreq	r2, sp, r3, lsl pc
     a2c:	06010402 	streq	r0, [r1], -r2, lsl #8
     a30:	3168062e 	cmncc	r8, lr, lsr #12
     a34:	324d4b2f 	subcc	r4, sp, #48128	; 0xbc00
     a38:	4c4b3031 	mcrrmi	0, 3, r3, fp, cr1
     a3c:	2f2f6a2f 	svccs	0x002f6a2f
     a40:	08022f84 	stmdaeq	r2, {r2, r7, r8, r9, sl, fp, sp}
     a44:	45010100 	strmi	r0, [r1, #-256]	; 0x100
     a48:	02000003 	andeq	r0, r0, #3
     a4c:	0001bd00 	andeq	fp, r1, r0, lsl #26
     a50:	fb010200 	blx	4125a <__bss_end__+0x3700a>
     a54:	01000d0e 	tsteq	r0, lr, lsl #26
     a58:	00010101 	andeq	r0, r1, r1, lsl #2
     a5c:	00010000 	andeq	r0, r1, r0
     a60:	796d0100 	stmdbvc	sp!, {r8}^
     a64:	6372732d 	cmnvs	r2, #-1275068416	; 0xb4000000
     a68:	73552f00 	cmpvc	r5, #0, 30
     a6c:	2f737265 	svccs	0x00737265
     a70:	61697262 	cmnvs	r9, r2, ror #4
     a74:	6e756a6e 	vsubvs.f32	s13, s10, s29
     a78:	7365442f 	cmnvc	r5, #788529152	; 0x2f000000
     a7c:	706f746b 	rsbvc	r7, pc, fp, ror #8
     a80:	6863732f 	stmdavs	r3!, {r0, r1, r2, r3, r5, r8, r9, ip, sp, lr}^
     a84:	2f6c6f6f 	svccs	0x006c6f6f
     a88:	746e6957 	strbtvc	r6, [lr], #-2391	; 0x957
     a8c:	39317265 	ldmdbcc	r1!, {r0, r2, r5, r6, r9, ip, sp, lr}
     a90:	432f3032 	teqmi	pc, #50	; 0x32
     a94:	30343153 	eorscc	r3, r4, r3, asr r1
     a98:	73632f45 	cmnvc	r3, #276	; 0x114
     a9c:	65303431 	ldrvs	r3, [r0, #-1073]!	; 0x431
     aa0:	7730322d 	ldrvc	r3, [r0, -sp, lsr #4]!
     aa4:	6c2f6e69 	stcvs	14, cr6, [pc], #-420	; 908 <_start-0x76f8>
     aa8:	69706269 	ldmdbvs	r0!, {r0, r3, r5, r6, r9, sp, lr}^
     aac:	3173632f 	cmncc	r3, pc, lsr #6
     ab0:	2d653034 	stclcs	0, cr3, [r5, #-208]!	; 0xffffff30
     ab4:	00637273 	rsbeq	r7, r3, r3, ror r2
     ab8:	7273752f 	rsbsvc	r7, r3, #197132288	; 0xbc00000
     abc:	636f6c2f 	cmnvs	pc, #12032	; 0x2f00
     ac0:	432f6c61 	teqmi	pc, #24832	; 0x6100
     ac4:	616c6c65 	cmnvs	ip, r5, ror #24
     ac8:	72612f72 	rsbvc	r2, r1, #456	; 0x1c8
     acc:	6f6e2d6d 	svcvs	0x006e2d6d
     ad0:	652d656e 	strvs	r6, [sp, #-1390]!	; 0x56e
     ad4:	2f696261 	svccs	0x00696261
     ad8:	2e382e34 	mrccs	14, 1, r2, cr8, cr4, {1}
     adc:	73632d33 	cmnvc	r3, #3264	; 0xcc0
     ae0:	65303731 	ldrvs	r3, [r0, #-1841]!	; 0x731
     ae4:	62696c2f 	rsbvs	r6, r9, #12032	; 0x2f00
     ae8:	6363672f 	cmnvs	r3, #12320768	; 0xbc0000
     aec:	6d72612f 	ldfvse	f6, [r2, #-188]!	; 0xffffff44
     af0:	6e6f6e2d 	cdpvs	14, 6, cr6, cr15, cr13, {1}
     af4:	61652d65 	cmnvs	r5, r5, ror #26
     af8:	342f6962 	strtcc	r6, [pc], #-2402	; b00 <_start-0x7500>
     afc:	332e382e 	teqcc	lr, #3014656	; 0x2e0000
     b00:	636e692f 	cmnvs	lr, #770048	; 0xbc000
     b04:	6564756c 	strbvs	r7, [r4, #-1388]!	; 0x56c
     b08:	73552f00 	cmpvc	r5, #0, 30
     b0c:	2f737265 	svccs	0x00737265
     b10:	61697262 	cmnvs	r9, r2, ror #4
     b14:	6e756a6e 	vsubvs.f32	s13, s10, s29
     b18:	7365442f 	cmnvc	r5, #788529152	; 0x2f000000
     b1c:	706f746b 	rsbvc	r7, pc, fp, ror #8
     b20:	6863732f 	stmdavs	r3!, {r0, r1, r2, r3, r5, r8, r9, ip, sp, lr}^
     b24:	2f6c6f6f 	svccs	0x006c6f6f
     b28:	746e6957 	strbtvc	r6, [lr], #-2391	; 0x957
     b2c:	39317265 	ldmdbcc	r1!, {r0, r2, r5, r6, r9, ip, sp, lr}
     b30:	432f3032 	teqmi	pc, #50	; 0x32
     b34:	30343153 	eorscc	r3, r4, r3, asr r1
     b38:	73632f45 	cmnvc	r3, #276	; 0x114
     b3c:	65303431 	ldrvs	r3, [r0, #-1073]!	; 0x431
     b40:	7730322d 	ldrvc	r3, [r0, -sp, lsr #4]!
     b44:	6c2f6e69 	stcvs	14, cr6, [pc], #-420	; 9a8 <_start-0x7658>
     b48:	69706269 	ldmdbvs	r0!, {r0, r3, r5, r6, r9, sp, lr}^
     b4c:	73552f00 	cmpvc	r5, #0, 30
     b50:	2f737265 	svccs	0x00737265
     b54:	61697262 	cmnvs	r9, r2, ror #4
     b58:	6e756a6e 	vsubvs.f32	s13, s10, s29
     b5c:	7365442f 	cmnvc	r5, #788529152	; 0x2f000000
     b60:	706f746b 	rsbvc	r7, pc, fp, ror #8
     b64:	6863732f 	stmdavs	r3!, {r0, r1, r2, r3, r5, r8, r9, ip, sp, lr}^
     b68:	2f6c6f6f 	svccs	0x006c6f6f
     b6c:	746e6957 	strbtvc	r6, [lr], #-2391	; 0x957
     b70:	39317265 	ldmdbcc	r1!, {r0, r2, r5, r6, r9, ip, sp, lr}
     b74:	432f3032 	teqmi	pc, #50	; 0x32
     b78:	30343153 	eorscc	r3, r4, r3, asr r1
     b7c:	73632f45 	cmnvc	r3, #276	; 0x114
     b80:	65303431 	ldrvs	r3, [r0, #-1073]!	; 0x431
     b84:	7730322d 	ldrvc	r3, [r0, -sp, lsr #4]!
     b88:	6c2f6e69 	stcvs	14, cr6, [pc], #-420	; 9ec <_start-0x7614>
     b8c:	69706269 	ldmdbvs	r0!, {r0, r3, r5, r6, r9, sp, lr}^
     b90:	62696c2f 	rsbvs	r6, r9, #12032	; 0x2f00
     b94:	73000063 	movwvc	r0, #99	; 0x63
     b98:	61752d77 	cmnvs	r5, r7, ror sp
     b9c:	632e7472 	teqvs	lr, #1912602624	; 0x72000000
     ba0:	00000100 	andeq	r0, r0, r0, lsl #2
     ba4:	6c637963 	stclvs	9, cr7, [r3], #-396	; 0xfffffe74
     ba8:	74752d65 	ldrbtvc	r2, [r5], #-3429	; 0xd65
     bac:	682e6c69 	stmdavs	lr!, {r0, r3, r5, r6, sl, fp, sp, lr}
     bb0:	00000200 	andeq	r0, r0, r0, lsl #4
     bb4:	69647473 	stmdbvs	r4!, {r0, r1, r4, r5, r6, sl, ip, sp, lr}^
     bb8:	672d746e 	strvs	r7, [sp, -lr, ror #8]!
     bbc:	682e6363 	stmdavs	lr!, {r0, r1, r5, r6, r8, r9, sp, lr}
     bc0:	00000300 	andeq	r0, r0, r0, lsl #6
     bc4:	752d7773 	strvc	r7, [sp, #-1907]!	; 0x773
     bc8:	2e747261 	cdpcs	2, 7, cr7, cr4, cr1, {3}
     bcc:	00020068 	andeq	r0, r2, r8, rrx
     bd0:	64747300 	ldrbtvs	r7, [r4], #-768	; 0x300
     bd4:	2e677261 	cdpcs	2, 6, cr7, cr7, cr1, {3}
     bd8:	00030068 	andeq	r0, r3, r8, rrx
     bdc:	69706700 	ldmdbvs	r0!, {r8, r9, sl, sp, lr}^
     be0:	00682e6f 	rsbeq	r2, r8, pc, ror #28
     be4:	72000002 	andvc	r0, r0, #2
     be8:	682e6970 	stmdavs	lr!, {r4, r5, r6, r8, fp, sp, lr}
     bec:	00000400 	andeq	r0, r0, r0, lsl #8
     bf0:	702d6176 	eorvc	r6, sp, r6, ror r1
     bf4:	746e6972 	strbtvc	r6, [lr], #-2418	; 0x972
     bf8:	00682e6b 	rsbeq	r2, r8, fp, ror #28
     bfc:	3c000005 	stccc	0, cr0, [r0], {5}
     c00:	6c697562 	cfstr64vs	mvdx7, [r9], #-392	; 0xfffffe78
     c04:	6e692d74 	mcrvs	13, 3, r2, cr9, cr4, {3}
     c08:	0000003e 	andeq	r0, r0, lr, lsr r0
     c0c:	05000000 	streq	r0, [r0, #-0]
     c10:	008ae402 	addeq	lr, sl, r2, lsl #8
     c14:	2f4c1a00 	svccs	0x004c1a00
     c18:	03020430 	movweq	r0, #9264	; 0x2430
     c1c:	73032e0b 	movwvc	r2, #15883	; 0x3e0b
     c20:	88010466 	stmdahi	r1, {r1, r2, r5, r6, sl}
     c24:	03350204 	teqeq	r5, #4, 4	; 0x40000000
     c28:	01046673 	tsteq	r4, r3, ror r6
     c2c:	3302048a 	movwcc	r0, #9354	; 0x248a
     c30:	04667303 	strbteq	r7, [r6], #-771	; 0x303
     c34:	820a0301 	andhi	r0, sl, #67108864	; 0x4000000
     c38:	03310204 	teqeq	r1, #4, 4	; 0x40000000
     c3c:	01046673 	tsteq	r4, r3, ror r6
     c40:	04820c03 	streq	r0, [r2], #3075	; 0xc03
     c44:	73032f02 	movwvc	r2, #16130	; 0x3f02
     c48:	03010466 	movweq	r0, #5222	; 0x1466
     c4c:	0204820e 	andeq	r8, r4, #-536870912	; 0xe0000000
     c50:	6673032d 	ldrbtvs	r0, [r3], -sp, lsr #6
     c54:	10030104 	andne	r0, r3, r4, lsl #2
     c58:	2b020482 	blcs	81e68 <__bss_end__+0x77c18>
     c5c:	04667303 	strbteq	r7, [r6], #-771	; 0x303
     c60:	82120301 	andshi	r0, r2, #67108864	; 0x4000000
     c64:	03290204 	teqeq	r9, #4, 4	; 0x40000000
     c68:	01046673 	tsteq	r4, r3, ror r6
     c6c:	04821403 	streq	r1, [r2], #1027	; 0x403
     c70:	2e790302 	cdpcs	3, 7, cr0, cr9, cr2, {0}
     c74:	04667303 	strbteq	r7, [r6], #-771	; 0x303
     c78:	82160301 	andshi	r0, r6, #67108864	; 0x4000000
     c7c:	77030204 	strvc	r0, [r3, -r4, lsl #4]
     c80:	6673032e 	ldrbtvs	r0, [r3], -lr, lsr #6
     c84:	18030104 	stmdane	r3, {r2, r8}
     c88:	2e100382 	cdpcs	3, 1, cr0, cr0, cr2, {4}
     c8c:	70034d4b 	andvc	r4, r3, fp, asr #26
     c90:	83844c2e 	orrhi	r4, r4, #11776	; 0x2e00
     c94:	2e0d0348 	cdpcs	3, 0, cr0, cr13, cr8, {2}
     c98:	0433314e 	ldrteq	r3, [r3], #-334	; 0x14e
     c9c:	2e480302 	cdpcs	3, 4, cr0, cr8, cr2, {0}
     ca0:	3a030104 	bcc	c10b8 <__bss_end__+0xb6e68>
     ca4:	02042f82 	andeq	r2, r4, #520	; 0x208
     ca8:	04664503 	strbteq	r4, [r6], #-1283	; 0x503
     cac:	823d0301 	eorshi	r0, sp, #67108864	; 0x4000000
     cb0:	0302042f 	movweq	r0, #9263	; 0x242f
     cb4:	01048242 	tsteq	r4, r2, asr #4
     cb8:	8200c003 	andhi	ip, r0, #3
     cbc:	0302042f 	movweq	r0, #9263	; 0x242f
     cc0:	04827fbf 	streq	r7, [r2], #4031	; 0xfbf
     cc4:	00c30301 	sbceq	r0, r3, r1, lsl #6
     cc8:	02042f82 	andeq	r2, r4, #520	; 0x208
     ccc:	827fbc03 	rsbshi	fp, pc, #768	; 0x300
     cd0:	c6030104 	strgt	r0, [r3], -r4, lsl #2
     cd4:	042f8200 	strteq	r8, [pc], #-512	; cdc <_start-0x7324>
     cd8:	7fb90302 	svcvc	0x00b90302
     cdc:	03010482 	movweq	r0, #5250	; 0x1482
     ce0:	2f8200c9 	svccs	0x008200c9
     ce4:	b6030204 	strlt	r0, [r3], -r4, lsl #4
     ce8:	0104827f 	tsteq	r4, pc, ror r2
     cec:	8200cc03 	andhi	ip, r0, #768	; 0x300
     cf0:	0302042f 	movweq	r0, #9263	; 0x242f
     cf4:	04827fb3 	streq	r7, [r2], #4019	; 0xfb3
     cf8:	00d00301 	sbcseq	r0, r0, r1, lsl #6
     cfc:	824c0382 	subhi	r0, ip, #134217730	; 0x8000002
     d00:	4883844c 	stmmi	r3, {r2, r3, r6, sl, pc}
     d04:	4e2e3603 	cfmadda32mi	mvax0, mvax3, mvfx14, mvfx3
     d08:	034a5403 	movteq	r5, #41987	; 0xa403
     d0c:	34324a29 	ldrtcc	r4, [r2], #-2601	; 0xa29
     d10:	0402009f 	streq	r0, [r2], #-159	; 0x9f
     d14:	064a0601 	strbeq	r0, [sl], -r1, lsl #12
     d18:	bb4b4ed7 	bllt	12d487c <__bss_end__+0x12ca62c>
     d1c:	0402002c 	streq	r0, [r2], #-44	; 0x2c
     d20:	062e0601 	strteq	r0, [lr], -r1, lsl #12
     d24:	84a44c6d 	strthi	r4, [r4], #3181	; 0xc6d
     d28:	01040200 	mrseq	r0, R12_usr
     d2c:	d7064a06 	strle	r4, [r6, -r6, lsl #20]
     d30:	0402004d 	streq	r0, [r2], #-77	; 0x4d
     d34:	02004b02 	andeq	r4, r0, #2048	; 0x800
     d38:	00810204 	addeq	r0, r1, r4, lsl #4
     d3c:	06010402 	streq	r0, [r1], -r2, lsl #8
     d40:	4c4d062e 	mcrrmi	6, 2, r0, sp, cr14
     d44:	4b4bbca5 	blmi	12effe0 <__bss_end__+0x12e5d90>
     d48:	002f6a4b 	eoreq	r6, pc, fp, asr #20
     d4c:	06010402 	streq	r0, [r1], -r2, lsl #8
     d50:	02008282 	andeq	r8, r0, #536870920	; 0x20000008
     d54:	009e0404 	addseq	r0, lr, r4, lsl #8
     d58:	4a010402 	bmi	41d68 <__bss_end__+0x37b18>
     d5c:	bd88d906 	stclt	9, cr13, [r8, #24]
     d60:	084b4b2f 	stmdaeq	fp, {r0, r1, r2, r3, r5, r8, r9, fp, lr}^
     d64:	02006740 	andeq	r6, r0, #64, 14	; 0x1000000
     d68:	002f0204 	eoreq	r0, pc, r4, lsl #4
     d6c:	49020402 	stmdbmi	r2, {r1, sl}
     d70:	01040200 	mrseq	r0, R12_usr
     d74:	68062e06 	stmdavs	r6, {r1, r2, r9, sl, fp, sp}
     d78:	a04b8634 	subge	r8, fp, r4, lsr r6
     d7c:	01040200 	mrseq	r0, R12_usr
     d80:	d7066606 	strle	r6, [r6, -r6, lsl #12]
     d84:	4b220868 	blmi	882f2c <__bss_end__+0x878cdc>
     d88:	02d84b67 	sbcseq	r4, r8, #105472	; 0x19c00
     d8c:	0101000a 	tsteq	r1, sl
     d90:	00000101 	andeq	r0, r0, r1, lsl #2
     d94:	00ca0002 	sbceq	r0, sl, r2
     d98:	01020000 	mrseq	r0, (UNDEF: 2)
     d9c:	000d0efb 	strdeq	r0, [sp], -fp
     da0:	01010101 	tsteq	r1, r1, lsl #2
     da4:	01000000 	mrseq	r0, (UNDEF: 0)
     da8:	6d010000 	stcvs	0, cr0, [r1, #-0]
     dac:	72732d79 	rsbsvc	r2, r3, #7744	; 0x1e40
     db0:	552f0063 	strpl	r0, [pc, #-99]!	; d55 <_start-0x72ab>
     db4:	73726573 	cmnvc	r2, #482344960	; 0x1cc00000
     db8:	6972622f 	ldmdbvs	r2!, {r0, r1, r2, r3, r5, r9, sp, lr}^
     dbc:	756a6e61 	strbvc	r6, [sl, #-3681]!	; 0xe61
     dc0:	65442f6e 	strbvs	r2, [r4, #-3950]	; 0xf6e
     dc4:	6f746b73 	svcvs	0x00746b73
     dc8:	63732f70 	cmnvs	r3, #112, 30	; 0x1c0
     dcc:	6c6f6f68 	stclvs	15, cr6, [pc], #-416	; c34 <_start-0x73cc>
     dd0:	6e69572f 	cdpvs	7, 6, cr5, cr9, cr15, {1}
     dd4:	31726574 	cmncc	r2, r4, ror r5
     dd8:	2f303239 	svccs	0x00303239
     ddc:	34315343 	ldrtcc	r5, [r1], #-835	; 0x343
     de0:	632f4530 	teqvs	pc, #48, 10	; 0xc000000
     de4:	30343173 	eorscc	r3, r4, r3, ror r1
     de8:	30322d65 	eorscc	r2, r2, r5, ror #26
     dec:	2f6e6977 	svccs	0x006e6977
     df0:	7062696c 	rsbvc	r6, r2, ip, ror #18
     df4:	73632f69 	cmnvc	r3, #420	; 0x1a4
     df8:	65303431 	ldrvs	r3, [r0, #-1073]!	; 0x431
     dfc:	6372732d 	cmnvs	r2, #-1275068416	; 0xb4000000
     e00:	73552f00 	cmpvc	r5, #0, 30
     e04:	2f737265 	svccs	0x00737265
     e08:	61697262 	cmnvs	r9, r2, ror #4
     e0c:	6e756a6e 	vsubvs.f32	s13, s10, s29
     e10:	7365442f 	cmnvc	r5, #788529152	; 0x2f000000
     e14:	706f746b 	rsbvc	r7, pc, fp, ror #8
     e18:	6863732f 	stmdavs	r3!, {r0, r1, r2, r3, r5, r8, r9, ip, sp, lr}^
     e1c:	2f6c6f6f 	svccs	0x006c6f6f
     e20:	746e6957 	strbtvc	r6, [lr], #-2391	; 0x957
     e24:	39317265 	ldmdbcc	r1!, {r0, r2, r5, r6, r9, ip, sp, lr}
     e28:	432f3032 	teqmi	pc, #50	; 0x32
     e2c:	30343153 	eorscc	r3, r4, r3, asr r1
     e30:	73632f45 	cmnvc	r3, #276	; 0x114
     e34:	65303431 	ldrvs	r3, [r0, #-1073]!	; 0x431
     e38:	7730322d 	ldrvc	r3, [r0, -sp, lsr #4]!
     e3c:	6c2f6e69 	stcvs	14, cr6, [pc], #-420	; ca0 <_start-0x7360>
     e40:	69706269 	ldmdbvs	r0!, {r0, r3, r5, r6, r9, sp, lr}^
     e44:	61750000 	cmnvs	r5, r0
     e48:	632e7472 	teqvs	lr, #1912602624	; 0x72000000
     e4c:	00000100 	andeq	r0, r0, r0, lsl #2
     e50:	6f697067 	svcvs	0x00697067
     e54:	0200682e 	andeq	r6, r0, #3014656	; 0x2e0000
     e58:	70720000 	rsbsvc	r0, r2, r0
     e5c:	00682e69 	rsbeq	r2, r8, r9, ror #28
     e60:	00000003 	andeq	r0, r0, r3
     e64:	04020500 	streq	r0, [r2], #-1280	; 0x500
     e68:	03000091 	movweq	r0, #145	; 0x91
     e6c:	33300136 	teqcc	r0, #-2147483635	; 0x8000000d
     e70:	d8306d67 	ldmdale	r0!, {r0, r1, r2, r5, r6, r8, sl, fp, sp, lr}
     e74:	67676730 			; <UNDEFINED> instruction: 0x67676730
     e78:	86686767 	strbthi	r6, [r8], -r7, ror #14
     e7c:	306a672f 	rsbcc	r6, sl, pc, lsr #14
     e80:	2f696767 	svccs	0x00696767
     e84:	674c6a67 	strbvs	r6, [ip, -r7, ror #20]
     e88:	302f2fc1 	eorcc	r2, pc, r1, asr #31
     e8c:	3049682f 	subcc	r6, r9, pc, lsr #16
     e90:	01000202 	tsteq	r0, r2, lsl #4
     e94:	00017801 	andeq	r7, r1, r1, lsl #16
     e98:	ca000200 	bgt	16a0 <_start-0x6960>
     e9c:	02000000 	andeq	r0, r0, #0
     ea0:	0d0efb01 	vstreq	d15, [lr, #-4]
     ea4:	01010100 	mrseq	r0, (UNDEF: 17)
     ea8:	00000001 	andeq	r0, r0, r1
     eac:	01000001 	tsteq	r0, r1
     eb0:	732d796d 	teqvc	sp, #1785856	; 0x1b4000
     eb4:	2f006372 	svccs	0x00006372
     eb8:	72657355 	rsbvc	r7, r5, #1409286145	; 0x54000001
     ebc:	72622f73 	rsbvc	r2, r2, #460	; 0x1cc
     ec0:	6a6e6169 	bvs	1b9946c <__bss_end__+0x1b8f21c>
     ec4:	442f6e75 	strtmi	r6, [pc], #-3701	; ecc <_start-0x7134>
     ec8:	746b7365 	strbtvc	r7, [fp], #-869	; 0x365
     ecc:	732f706f 	teqvc	pc, #111	; 0x6f
     ed0:	6f6f6863 	svcvs	0x006f6863
     ed4:	69572f6c 	ldmdbvs	r7, {r2, r3, r5, r6, r8, r9, sl, fp, sp}^
     ed8:	7265746e 	rsbvc	r7, r5, #1845493760	; 0x6e000000
     edc:	30323931 	eorscc	r3, r2, r1, lsr r9
     ee0:	3153432f 	cmpcc	r3, pc, lsr #6
     ee4:	2f453034 	svccs	0x00453034
     ee8:	34317363 	ldrtcc	r7, [r1], #-867	; 0x363
     eec:	322d6530 	eorcc	r6, sp, #48, 10	; 0xc000000
     ef0:	6e697730 	mcrvs	7, 3, r7, cr9, cr0, {1}
     ef4:	62696c2f 	rsbvs	r6, r9, #12032	; 0x2f00
     ef8:	632f6970 	teqvs	pc, #112, 18	; 0x1c0000
     efc:	30343173 	eorscc	r3, r4, r3, ror r1
     f00:	72732d65 	rsbsvc	r2, r3, #6464	; 0x1940
     f04:	552f0063 	strpl	r0, [pc, #-99]!	; ea9 <_start-0x7157>
     f08:	73726573 	cmnvc	r2, #482344960	; 0x1cc00000
     f0c:	6972622f 	ldmdbvs	r2!, {r0, r1, r2, r3, r5, r9, sp, lr}^
     f10:	756a6e61 	strbvc	r6, [sl, #-3681]!	; 0xe61
     f14:	65442f6e 	strbvs	r2, [r4, #-3950]	; 0xf6e
     f18:	6f746b73 	svcvs	0x00746b73
     f1c:	63732f70 	cmnvs	r3, #112, 30	; 0x1c0
     f20:	6c6f6f68 	stclvs	15, cr6, [pc], #-416	; d88 <_start-0x7278>
     f24:	6e69572f 	cdpvs	7, 6, cr5, cr9, cr15, {1}
     f28:	31726574 	cmncc	r2, r4, ror r5
     f2c:	2f303239 	svccs	0x00303239
     f30:	34315343 	ldrtcc	r5, [r1], #-835	; 0x343
     f34:	632f4530 	teqvs	pc, #48, 10	; 0xc000000
     f38:	30343173 	eorscc	r3, r4, r3, ror r1
     f3c:	30322d65 	eorscc	r2, r2, r5, ror #26
     f40:	2f6e6977 	svccs	0x006e6977
     f44:	7062696c 	rsbvc	r6, r2, ip, ror #18
     f48:	67000069 	strvs	r0, [r0, -r9, rrx]
     f4c:	2e6f6970 	mcrcs	9, 3, r6, cr15, cr0, {3}
     f50:	00010063 	andeq	r0, r1, r3, rrx
     f54:	69706700 	ldmdbvs	r0!, {r8, r9, sl, sp, lr}^
     f58:	00682e6f 	rsbeq	r2, r8, pc, ror #28
     f5c:	72000002 	andvc	r0, r0, #2
     f60:	682e6970 	stmdavs	lr!, {r4, r5, r6, r8, fp, sp, lr}
     f64:	00000300 	andeq	r0, r0, r0, lsl #6
     f68:	02050000 	andeq	r0, r5, #0
     f6c:	000092bc 			; <UNDEFINED> instruction: 0x000092bc
     f70:	4e013e03 	cdpmi	14, 0, cr3, cr1, cr3, {0}
     f74:	21086950 	tstcs	r8, r0, asr r9
     f78:	67676767 	strbvs	r6, [r7, -r7, ror #14]!
     f7c:	4b326767 	blmi	c9ad20 <__bss_end__+0xc90ad0>
     f80:	31dc2208 	bicscc	r2, ip, r8, lsl #4
     f84:	504e1351 	subpl	r1, lr, r1, asr r3
     f88:	5031be30 	eorspl	fp, r1, r0, lsr lr
     f8c:	304f4d13 	subcc	r4, pc, r3, lsl sp	; <UNPREDICTABLE>
     f90:	69504cc0 	ldmdbvs	r0, {r6, r7, sl, fp, lr}^
     f94:	67672108 	strbvs	r2, [r7, -r8, lsl #2]!
     f98:	67676767 	strbvs	r6, [r7, -r7, ror #14]!
     f9c:	21084b32 	tstcs	r8, r2, lsr fp
     fa0:	2f504ca4 	svccs	0x00504ca4
     fa4:	75036984 	strvc	r6, [r3, #-2436]	; 0x984
     fa8:	2e0c0382 	cdpcs	3, 0, cr0, cr12, cr2, {4}
     fac:	4b4e304d 	blmi	138d0e8 <__bss_end__+0x1382e98>
     fb0:	6b6a4d4c 	blvs	1a944e8 <__bss_end__+0x1a8a298>
     fb4:	67210869 	strvs	r0, [r1, -r9, ror #16]!
     fb8:	67676767 	strbvs	r6, [r7, -r7, ror #14]!
     fbc:	084b3267 	stmdaeq	fp, {r0, r1, r2, r5, r6, r9, ip, sp}^
     fc0:	ba1a0322 	blt	681c50 <__bss_end__+0x677a00>
     fc4:	2f4c9f31 	svccs	0x004c9f31
     fc8:	2f4e4d52 	svccs	0x004e4d52
     fcc:	684b674b 	stmdavs	fp, {r0, r1, r3, r6, r8, r9, sl, sp, lr}^
     fd0:	2f4c6767 	svccs	0x004c6767
     fd4:	6e4b2f67 	cdpvs	15, 4, cr2, cr11, cr7, {3}
     fd8:	4b2f4e4c 	blmi	bd4910 <__bss_end__+0xbca6c0>
     fdc:	67684b67 	strbvs	r4, [r8, -r7, ror #22]!
     fe0:	672f4c67 	strvs	r4, [pc, -r7, ror #24]!
     fe4:	4b6d4b2f 	blmi	1b53ca8 <__bss_end__+0x1b49a58>
     fe8:	674b2f4e 	strbvs	r2, [fp, -lr, asr #30]
     fec:	01040200 	mrseq	r0, R12_usr
     ff0:	68066606 	stmdavs	r6, {r1, r2, r9, sl, sp, lr}
     ff4:	02002f9f 	andeq	r2, r0, #636	; 0x27c
     ff8:	4a060104 	bmi	181410 <__bss_end__+0x1771c0>
     ffc:	032f6806 	teqeq	pc, #393216	; 0x60000
    1000:	0e034a73 	mcreq	10, 0, r4, cr3, cr3, {3}
    1004:	4e4c4d2e 	cdpmi	13, 4, cr4, cr12, cr14, {1}
    1008:	bcbc4b2f 	fldmiaxlt	ip!, {d4-d26}	;@ Deprecated
    100c:	01000602 	tsteq	r0, r2, lsl #12
    1010:	00012801 	andeq	r2, r1, r1, lsl #16
    1014:	0d000200 	sfmeq	f0, 4, [r0, #-0]
    1018:	02000001 	andeq	r0, r0, #1
    101c:	0d0efb01 	vstreq	d15, [lr, #-4]
    1020:	01010100 	mrseq	r0, (UNDEF: 17)
    1024:	00000001 	andeq	r0, r0, r1
    1028:	01000001 	tsteq	r0, r1
    102c:	34317363 	ldrtcc	r7, [r1], #-867	; 0x363
    1030:	732d6530 	teqvc	sp, #48, 10	; 0xc000000
    1034:	2f006372 	svccs	0x00006372
    1038:	2f727375 	svccs	0x00727375
    103c:	61636f6c 	cmnvs	r3, ip, ror #30
    1040:	65432f6c 	strbvs	r2, [r3, #-3948]	; 0xf6c
    1044:	72616c6c 	rsbvc	r6, r1, #108, 24	; 0x6c00
    1048:	6d72612f 	ldfvse	f6, [r2, #-188]!	; 0xffffff44
    104c:	6e6f6e2d 	cdpvs	14, 6, cr6, cr15, cr13, {1}
    1050:	61652d65 	cmnvs	r5, r5, ror #26
    1054:	342f6962 	strtcc	r6, [pc], #-2402	; 105c <_start-0x6fa4>
    1058:	332e382e 	teqcc	lr, #3014656	; 0x2e0000
    105c:	3173632d 	cmncc	r3, sp, lsr #6
    1060:	2f653037 	svccs	0x00653037
    1064:	2f62696c 	svccs	0x0062696c
    1068:	2f636367 	svccs	0x00636367
    106c:	2d6d7261 	sfmcs	f7, 2, [sp, #-388]!	; 0xfffffe7c
    1070:	656e6f6e 	strbvs	r6, [lr, #-3950]!	; 0xf6e
    1074:	6261652d 	rsbvs	r6, r1, #188743680	; 0xb400000
    1078:	2e342f69 	cdpcs	15, 3, cr2, cr4, cr9, {3}
    107c:	2f332e38 	svccs	0x00332e38
    1080:	6c636e69 	stclvs	14, cr6, [r3], #-420	; 0xfffffe5c
    1084:	00656475 	rsbeq	r6, r5, r5, ror r4
    1088:	7273752f 	rsbsvc	r7, r3, #197132288	; 0xbc00000
    108c:	636f6c2f 	cmnvs	pc, #12032	; 0x2f00
    1090:	432f6c61 	teqmi	pc, #24832	; 0x6100
    1094:	616c6c65 	cmnvs	ip, r5, ror #24
    1098:	72612f72 	rsbvc	r2, r1, #456	; 0x1c8
    109c:	6f6e2d6d 	svcvs	0x006e2d6d
    10a0:	652d656e 	strvs	r6, [sp, #-1390]!	; 0x56e
    10a4:	2f696261 	svccs	0x00696261
    10a8:	2e382e34 	mrccs	14, 1, r2, cr8, cr4, {1}
    10ac:	73632d33 	cmnvc	r3, #3264	; 0xcc0
    10b0:	65303731 	ldrvs	r3, [r0, #-1841]!	; 0x731
    10b4:	6d72612f 	ldfvse	f6, [r2, #-188]!	; 0xffffff44
    10b8:	6e6f6e2d 	cdpvs	14, 6, cr6, cr15, cr13, {1}
    10bc:	61652d65 	cmnvs	r5, r5, ror #26
    10c0:	692f6962 	stmdbvs	pc!, {r1, r5, r6, r8, fp, sp, lr}	; <UNPREDICTABLE>
    10c4:	756c636e 	strbvc	r6, [ip, #-878]!	; 0x36e
    10c8:	00006564 	andeq	r6, r0, r4, ror #10
    10cc:	746e6f63 	strbtvc	r6, [lr], #-3939	; 0xf63
    10d0:	2d6c6f72 	stclcs	15, cr6, [ip, #-456]!	; 0xfffffe38
    10d4:	636f6c62 	cmnvs	pc, #25088	; 0x6200
    10d8:	00632e6b 	rsbeq	r2, r3, fp, ror #28
    10dc:	73000001 	movwvc	r0, #1
    10e0:	65646474 	strbvs	r6, [r4, #-1140]!	; 0x474
    10e4:	00682e66 	rsbeq	r2, r8, r6, ror #28
    10e8:	73000002 	movwvc	r0, #2
    10ec:	6e696474 	mcrvs	4, 3, r6, cr9, cr4, {3}
    10f0:	63672d74 	cmnvs	r7, #116, 26	; 0x1d00
    10f4:	00682e63 	rsbeq	r2, r8, r3, ror #28
    10f8:	73000002 	movwvc	r0, #2
    10fc:	61752d77 	cmnvs	r5, r7, ror sp
    1100:	682e7472 	stmdavs	lr!, {r1, r4, r5, r6, sl, ip, sp, lr}
    1104:	00000100 	andeq	r0, r0, r0, lsl #2
    1108:	746e6f63 	strbtvc	r6, [lr], #-3939	; 0xf63
    110c:	2d6c6f72 	stclcs	15, cr6, [ip, #-456]!	; 0xfffffe38
    1110:	636f6c62 	cmnvs	pc, #25088	; 0x6200
    1114:	00682e6b 	rsbeq	r2, r8, fp, ror #28
    1118:	73000001 	movwvc	r0, #1
    111c:	6e697274 	mcrvs	2, 3, r7, cr9, cr4, {3}
    1120:	00682e67 	rsbeq	r2, r8, r7, ror #28
    1124:	00000003 	andeq	r0, r0, r3
    1128:	24020500 	strcs	r0, [r2], #-1280	; 0x500
    112c:	16000098 			; <UNDEFINED> instruction: 0x16000098
    1130:	4c688330 	stclmi	3, cr8, [r8], #-192	; 0xffffff40
    1134:	2f4b9f14 	svccs	0x004b9f14
    1138:	01000402 	tsteq	r0, r2, lsl #8
    113c:	Address 0x000000000000113c is out of bounds.


Disassembly of section .debug_str:

00000000 <.debug_str>:
   0:	6c616d6b 	stclvs	13, cr6, [r1], #-428	; 0xfffffe54
   4:	5f636f6c 	svcpl	0x00636f6c
   8:	67696c61 	strbvs	r6, [r9, -r1, ror #24]!
   c:	0064656e 	rsbeq	r6, r4, lr, ror #10
  10:	20554e47 	subscs	r4, r5, r7, asr #28
  14:	2e342043 	cdpcs	0, 3, cr2, cr4, cr3, {2}
  18:	20332e38 	eorscs	r2, r3, r8, lsr lr
  1c:	70636d2d 	rsbvc	r6, r3, sp, lsr #26
  20:	72613d75 	rsbvc	r3, r1, #7488	; 0x1d40
  24:	3731316d 	ldrcc	r3, [r1, -sp, ror #2]!
  28:	667a6a36 			; <UNDEFINED> instruction: 0x667a6a36
  2c:	2d20732d 	stccs	3, cr7, [r0, #-180]!	; 0xffffff4c
  30:	6e75746d 	cdpvs	4, 7, cr7, cr5, cr13, {3}
  34:	72613d65 	rsbvc	r3, r1, #6464	; 0x1940
  38:	3731316d 	ldrcc	r3, [r1, -sp, ror #2]!
  3c:	667a6a36 			; <UNDEFINED> instruction: 0x667a6a36
  40:	2d20732d 	stccs	3, cr7, [r0, #-180]!	; 0xffffff4c
  44:	62646767 	rsbvs	r6, r4, #27000832	; 0x19c0000
  48:	674f2d20 	strbvs	r2, [pc, -r0, lsr #26]
  4c:	74732d20 	ldrbtvc	r2, [r3], #-3360	; 0xd20
  50:	6e673d64 	cdpvs	13, 6, cr3, cr7, cr4, {3}
  54:	20393975 	eorscs	r3, r9, r5, ror r9
  58:	7266662d 	rsbvc	r6, r6, #47185920	; 0x2d00000
  5c:	74736565 	ldrbtvc	r6, [r3], #-1381	; 0x565
  60:	69646e61 	stmdbvs	r4!, {r0, r5, r6, r9, sl, fp, sp, lr}^
  64:	6b00676e 	blvs	19e24 <__bss_end__+0xfbd4>
  68:	65657266 	strbvs	r7, [r5, #-614]!	; 0x266
  6c:	6c6c615f 	stfvse	f6, [ip], #-380	; 0xfffffe84
  70:	746f6e00 	strbtvc	r6, [pc], #-3584	; 78 <_start-0x7f88>
  74:	6e69616d 	powvsez	f6, f1, #5.0
  78:	73552f00 	cmpvc	r5, #0, 30
  7c:	2f737265 	svccs	0x00737265
  80:	61697262 	cmnvs	r9, r2, ror #4
  84:	6e756a6e 	vsubvs.f32	s13, s10, s29
  88:	7365442f 	cmnvc	r5, #788529152	; 0x2f000000
  8c:	706f746b 	rsbvc	r7, pc, fp, ror #8
  90:	6863732f 	stmdavs	r3!, {r0, r1, r2, r3, r5, r8, r9, ip, sp, lr}^
  94:	2f6c6f6f 	svccs	0x006c6f6f
  98:	746e6957 	strbtvc	r6, [lr], #-2391	; 0x957
  9c:	39317265 	ldmdbcc	r1!, {r0, r2, r5, r6, r9, ip, sp, lr}
  a0:	432f3032 	teqmi	pc, #50	; 0x32
  a4:	30343153 	eorscc	r3, r4, r3, asr r1
  a8:	73632f45 	cmnvc	r3, #276	; 0x114
  ac:	65303431 	ldrvs	r3, [r0, #-1073]!	; 0x431
  b0:	7730322d 	ldrvc	r3, [r0, -sp, lsr #4]!
  b4:	6c2f6e69 	stcvs	14, cr6, [pc], #-420	; ffffff18 <__bss_end__+0xffff5cc8>
  b8:	2f736261 	svccs	0x00736261
  bc:	68742d36 	ldmdavs	r4!, {r1, r2, r4, r5, r8, sl, fp, sp}^
  c0:	64616572 	strbtvs	r6, [r1], #-1394	; 0x572
  c4:	2d312f73 	ldccs	15, cr2, [r1, #-460]!	; 0xfffffe34
  c8:	6c616d6b 	stclvs	13, cr6, [r1], #-428	; 0xfffffe54
  cc:	00636f6c 	rsbeq	r6, r3, ip, ror #30
  d0:	74726175 	ldrbtvc	r6, [r2], #-373	; 0x175
  d4:	696e695f 	stmdbvs	lr!, {r0, r1, r2, r3, r4, r6, r8, fp, sp, lr}^
  d8:	6e750074 	mrcvs	0, 3, r0, cr5, cr4, {3}
  dc:	6e676973 	mcrvs	9, 3, r6, cr7, cr3, {3}
  e0:	63206465 	teqvs	r0, #1694498816	; 0x65000000
  e4:	00726168 	rsbseq	r6, r2, r8, ror #2
  e8:	61656c63 	cmnvs	r5, r3, ror #24
  ec:	65725f6e 	ldrbvs	r5, [r2, #-3950]!	; 0xf6e
  f0:	746f6f62 	strbtvc	r6, [pc], #-3938	; f8 <_start-0x7f08>
  f4:	61656800 	cmnvs	r5, r0, lsl #16
  f8:	73003170 	movwvc	r3, #368	; 0x170
  fc:	74726f68 	ldrbtvc	r6, [r2], #-3944	; 0xf68
 100:	736e7520 	cmnvc	lr, #32, 10	; 0x8000000
 104:	656e6769 	strbvs	r6, [lr, #-1897]!	; 0x769
 108:	6e692064 	cdpvs	0, 6, cr2, cr9, cr4, {3}
 10c:	65740074 	ldrbvs	r0, [r4, #-116]!	; 0x74
 110:	6b2d7473 	blvs	b5d2e4 <__bss_end__+0xb53094>
 114:	6c6c616d 	stfvse	f6, [ip], #-436	; 0xfffffe4c
 118:	632e636f 	teqvs	lr, #-1140850687	; 0xbc000001
 11c:	465f5f00 	ldrbmi	r5, [pc], -r0, lsl #30
 120:	54434e55 	strbpl	r4, [r3], #-3669	; 0xe55
 124:	5f4e4f49 	svcpl	0x004e4f49
 128:	6568005f 	strbvs	r0, [r8, #-95]!	; 0x5f
 12c:	00307061 	eorseq	r7, r0, r1, rrx
 130:	676e6f6c 	strbvs	r6, [lr, -ip, ror #30]!
 134:	6e6f6c20 	cdpvs	12, 6, cr6, cr15, cr0, {1}
 138:	6e752067 	cdpvs	0, 7, cr2, cr5, cr7, {3}
 13c:	6e676973 	mcrvs	9, 3, r6, cr7, cr3, {3}
 140:	69206465 	stmdbvs	r0!, {r0, r2, r5, r6, sl, sp, lr}
 144:	7300746e 	movwvc	r7, #1134	; 0x46e
 148:	74657a69 	strbtvc	r7, [r5], #-2665	; 0xa69
 14c:	00657079 	rsbeq	r7, r5, r9, ror r0
 150:	676e6f6c 	strbvs	r6, [lr, -ip, ror #30]!
 154:	6e6f6c20 	cdpvs	12, 6, cr6, cr15, cr0, {1}
 158:	6e692067 	cdpvs	0, 6, cr2, cr9, cr7, {3}
 15c:	68730074 	ldmdavs	r3!, {r2, r4, r5, r6}^
 160:	2074726f 	rsbscs	r7, r4, pc, ror #4
 164:	00746e69 	rsbseq	r6, r4, r9, ror #28
 168:	6c616d6b 	stclvs	13, cr6, [r1], #-428	; 0xfffffe54
 16c:	5f636f6c 	svcpl	0x00636f6c
 170:	70616568 	rsbvc	r6, r1, r8, ror #10
 174:	7274705f 	rsbsvc	r7, r4, #95	; 0x5f
 178:	616d6b00 	cmnvs	sp, r0, lsl #22
 17c:	636f6c6c 	cmnvs	pc, #108, 24	; 0x6c00
 180:	696e695f 	stmdbvs	lr!, {r0, r1, r2, r3, r4, r6, r8, fp, sp, lr}^
 184:	70720074 	rsbsvc	r0, r2, r4, ror r0
 188:	65725f69 	ldrbvs	r5, [r2, #-3945]!	; 0xf69
 18c:	5f746573 	svcpl	0x00746573
 190:	63747570 	cmnvs	r4, #112, 10	; 0x1c000000
 194:	7a697300 	bvc	1a5cd9c <__bss_end__+0x1a52b4c>
 198:	00745f65 	rsbseq	r5, r4, r5, ror #30
 19c:	74696e69 	strbtvc	r6, [r9], #-3689	; 0xe69
 1a0:	6100705f 	qaddvs	r7, pc, r0	; <UNPREDICTABLE>
 1a4:	6e67696c 	cdpvs	9, 6, cr6, cr7, cr12, {3}
 1a8:	685f6465 	ldmdavs	pc, {r0, r2, r5, r6, sl, sp, lr}^	; <UNPREDICTABLE>
 1ac:	5f706165 	svcpl	0x00706165
 1b0:	00727470 	rsbseq	r7, r2, r0, ror r4
 1b4:	736d656d 	cmnvc	sp, #457179136	; 0x1b400000
 1b8:	61007465 	tstvs	r0, r5, ror #8
 1bc:	6e67696c 	cdpvs	9, 6, cr6, cr7, cr12, {3}
 1c0:	746e656d 	strbtvc	r6, [lr], #-1389	; 0x56d
 1c4:	756f7200 	strbvc	r7, [pc, #-512]!	; ffffffcc <__bss_end__+0xffff5d7c>
 1c8:	6465646e 	strbtvs	r6, [r5], #-1134	; 0x46e
 1cc:	79626e5f 	stmdbvc	r2!, {r0, r1, r2, r3, r4, r6, r9, sl, fp, sp, lr}^
 1d0:	00736574 	rsbseq	r6, r3, r4, ror r5
 1d4:	65685f5f 	strbvs	r5, [r8, #-3935]!	; 0xf5f
 1d8:	735f7061 	cmpvc	pc, #97	; 0x61
 1dc:	74726174 	ldrbtvc	r6, [r2], #-372	; 0x174
 1e0:	74005f5f 	strvc	r5, [r0], #-3935	; 0xf5f
 1e4:	6c615f6f 	stclvs	15, cr5, [r1], #-444	; 0xfffffe44
 1e8:	61636f6c 	cmnvs	r3, ip, ror #30
 1ec:	6c006574 	cfstr32vs	mvfx6, [r0], {116}	; 0x74
 1f0:	2f636269 	svccs	0x00636269
 1f4:	736d656d 	cmnvc	sp, #457179136	; 0x1b400000
 1f8:	632e7465 	teqvs	lr, #1694498816	; 0x65000000
 1fc:	73552f00 	cmpvc	r5, #0, 30
 200:	2f737265 	svccs	0x00737265
 204:	61697262 	cmnvs	r9, r2, ror #4
 208:	6e756a6e 	vsubvs.f32	s13, s10, s29
 20c:	7365442f 	cmnvc	r5, #788529152	; 0x2f000000
 210:	706f746b 	rsbvc	r7, pc, fp, ror #8
 214:	6863732f 	stmdavs	r3!, {r0, r1, r2, r3, r5, r8, r9, ip, sp, lr}^
 218:	2f6c6f6f 	svccs	0x006c6f6f
 21c:	746e6957 	strbtvc	r6, [lr], #-2391	; 0x957
 220:	39317265 	ldmdbcc	r1!, {r0, r2, r5, r6, r9, ip, sp, lr}
 224:	432f3032 	teqmi	pc, #50	; 0x32
 228:	30343153 	eorscc	r3, r4, r3, asr r1
 22c:	73632f45 	cmnvc	r3, #276	; 0x114
 230:	65303431 	ldrvs	r3, [r0, #-1073]!	; 0x431
 234:	7730322d 	ldrvc	r3, [r0, -sp, lsr #4]!
 238:	6c2f6e69 	stcvs	14, cr6, [pc], #-420	; 9c <_start-0x7f64>
 23c:	69706269 	ldmdbvs	r0!, {r0, r3, r5, r6, r9, sp, lr}^
 240:	675f5f00 	ldrbvs	r5, [pc, -r0, lsl #30]
 244:	5f63756e 	svcpl	0x0063756e
 248:	6c5f6176 	ldfvse	f6, [pc], {118}	; 0x76
 24c:	00747369 	rsbseq	r7, r4, r9, ror #6
 250:	6362696c 	cmnvs	r2, #108, 18	; 0x1b0000
 254:	6972702f 	ldmdbvs	r2!, {r0, r1, r2, r3, r5, ip, sp, lr}^
 258:	2e6b746e 	cdpcs	4, 6, cr7, cr11, cr14, {3}
 25c:	61760063 	cmnvs	r6, r3, rrx
 260:	6972705f 	ldmdbvs	r2!, {r0, r1, r2, r3, r4, r6, ip, sp, lr}^
 264:	006b746e 	rsbeq	r7, fp, lr, ror #8
 268:	61765f5f 	cmnvs	r6, pc, asr pc
 26c:	73696c5f 	cmnvc	r9, #24320	; 0x5f00
 270:	72610074 	rsbvc	r0, r1, #116	; 0x74
 274:	5f007367 	svcpl	0x00007367
 278:	0070615f 	rsbseq	r6, r0, pc, asr r1
 27c:	65746e69 	ldrbvs	r6, [r4, #-3689]!	; 0xe69
 280:	6c616e72 	stclvs	14, cr6, [r1], #-456	; 0xfffffe38
 284:	7475705f 	ldrbtvc	r7, [r5], #-95	; 0x5f
 288:	72616863 	rsbvc	r6, r1, #6488064	; 0x630000
 28c:	69707200 	ldmdbvs	r0!, {r9, ip, sp, lr}^
 290:	7475705f 	ldrbtvc	r7, [r5], #-95	; 0x5f
 294:	72616863 	rsbvc	r6, r1, #6488064	; 0x630000
 298:	62696c00 	rsbvs	r6, r9, #0, 24
 29c:	75702f63 	ldrbvc	r2, [r0, #-3939]!	; 0xf63
 2a0:	61686374 	smcvs	34356	; 0x8634
 2a4:	00632e72 	rsbeq	r2, r3, r2, ror lr
 2a8:	5f697072 	svcpl	0x00697072
 2ac:	5f746573 	svcpl	0x00746573
 2b0:	63747570 	cmnvs	r4, #112, 10	; 0x1c000000
 2b4:	62696c00 	rsbvs	r6, r9, #0, 24
 2b8:	75702f63 	ldrbvc	r2, [r0, #-3939]!	; 0xf63
 2bc:	632e6b74 	teqvs	lr, #116, 22	; 0x1d000
 2c0:	746e6900 	strbtvc	r6, [lr], #-2304	; 0x900
 2c4:	616e7265 	cmnvs	lr, r5, ror #4
 2c8:	75705f6c 	ldrbvc	r5, [r0, #-3948]!	; 0xf6c
 2cc:	6e006b74 	vmovvs.16	d0[1], r6
 2d0:	705f6765 	subsvc	r6, pc, r5, ror #14
 2d4:	76657200 	strbtvc	r7, [r5], -r0, lsl #4
 2d8:	65737265 	ldrbvs	r7, [r3, #-613]!	; 0x265
 2dc:	64736900 	ldrbtvs	r6, [r3], #-2304	; 0x900
 2e0:	74696769 	strbtvc	r6, [r9], #-1897	; 0x769
 2e4:	74757000 	ldrbtvc	r7, [r5], #-0
 2e8:	70665f73 	rsbvc	r5, r6, r3, ror pc
 2ec:	73616200 	cmnvc	r1, #0, 4
 2f0:	69730065 	ldmdbvs	r3!, {r0, r2, r5, r6}^
 2f4:	64656e67 	strbtvs	r6, [r5], #-3687	; 0xe67
 2f8:	6c00705f 	stcvs	0, cr7, [r0], {95}	; 0x5f
 2fc:	2f636269 	svccs	0x00636269
 300:	702d6176 	eorvc	r6, sp, r6, ror r1
 304:	746e6972 	strbtvc	r6, [lr], #-2418	; 0x972
 308:	00632e6b 	rsbeq	r2, r3, fp, ror #28
 30c:	5f697072 	svcpl	0x00697072
 310:	5f746573 	svcpl	0x00746573
 314:	7074756f 	rsbsvc	r7, r4, pc, ror #10
 318:	77007475 	smlsdxvc	r0, r5, r4, r7
 31c:	68746469 	ldmdavs	r4!, {r0, r3, r5, r6, sl, sp, lr}^
 320:	74757000 	ldrbtvc	r7, [r5], #-0
 324:	70665f63 	rsbvc	r5, r6, r3, ror #30
 328:	696d6500 	stmdbvs	sp!, {r8, sl, sp, lr}^
 32c:	70720074 	rsbsvc	r0, r2, r4, ror r0
 330:	65725f69 	ldrbvs	r5, [r2, #-3945]!	; 0xf69
 334:	746f6f62 	strbtvc	r6, [pc], #-3938	; 33c <_start-0x7cc4>
 338:	31736300 	cmncc	r3, r0, lsl #6
 33c:	2d653034 	stclcs	0, cr3, [r5, #-208]!	; 0xffffff30
 340:	2f637273 	svccs	0x00637273
 344:	61656c63 	cmnvs	r5, r3, ror #24
 348:	65722d6e 	ldrbvs	r2, [r2, #-3438]!	; 0xd6e
 34c:	746f6f62 	strbtvc	r6, [pc], #-3938	; 354 <_start-0x7cac>
 350:	6400632e 	strvs	r6, [r0], #-814	; 0x32e
 354:	79616c65 	stmdbvc	r1!, {r0, r2, r5, r6, sl, fp, sp, lr}^
 358:	00736d5f 	rsbseq	r6, r3, pc, asr sp
 35c:	65746e69 	ldrbvs	r6, [r4, #-3689]!	; 0xe69
 360:	6c616e72 	stclvs	14, cr6, [r1], #-456	; 0xfffffe38
 364:	5f77735f 	svcpl	0x0077735f
 368:	63747570 	cmnvs	r4, #112, 10	; 0x1c000000
 36c:	00726168 	rsbseq	r6, r2, r8, ror #2
 370:	73625f5f 	cmnvc	r2, #380	; 0x17c
 374:	74735f73 	ldrbtvc	r5, [r3], #-3955	; 0xf73
 378:	5f747261 	svcpl	0x00747261
 37c:	7362005f 	cmnvc	r2, #95	; 0x5f
 380:	6e655f73 	mcrvs	15, 3, r5, cr5, cr3, {3}
 384:	79630064 	stmdbvc	r3!, {r2, r5, r6}^
 388:	5f656c63 	svcpl	0x00656c63
 38c:	5f726570 	svcpl	0x00726570
 390:	00746962 	rsbseq	r6, r4, r2, ror #18
 394:	736e6f63 	cmnvc	lr, #396	; 0x18c
 398:	5f656c6f 	svcpl	0x00656c6f
 39c:	74726175 	ldrbtvc	r6, [r2], #-373	; 0x175
 3a0:	5f777300 	svcpl	0x00777300
 3a4:	74726175 	ldrbtvc	r6, [r2], #-373	; 0x175
 3a8:	6972705f 	ldmdbvs	r2!, {r0, r1, r2, r3, r4, r6, ip, sp, lr}^
 3ac:	006b746e 	rsbeq	r7, fp, lr, ror #8
 3b0:	43545550 	cmpmi	r4, #80, 10	; 0x14000000
 3b4:	5053455f 	subspl	r4, r3, pc, asr r5
 3b8:	5241555f 	subpl	r5, r1, #398458880	; 0x17c00000
 3bc:	77730054 			; <UNDEFINED> instruction: 0x77730054
 3c0:	7261755f 	rsbvc	r7, r1, #398458880	; 0x17c00000
 3c4:	00745f74 	rsbseq	r5, r4, r4, ror pc
 3c8:	43545550 	cmpmi	r4, #80, 10	; 0x14000000
 3cc:	5f57535f 	svcpl	0x0057535f
 3d0:	54524155 	ldrbpl	r4, [r2], #-341	; 0x155
 3d4:	75616200 	strbvc	r6, [r1, #-512]!	; 0x200
 3d8:	55500064 	ldrbpl	r0, [r0, #-100]	; 0x64
 3dc:	485f4354 	ldmdami	pc, {r2, r4, r6, r8, r9, lr}^	; <UNPREDICTABLE>
 3e0:	41555f57 	cmpmi	r5, r7, asr pc
 3e4:	5f005452 	svcpl	0x00005452
 3e8:	61747363 	cmnvs	r4, r3, ror #6
 3ec:	75007472 	strvc	r7, [r0, #-1138]	; 0x472
 3f0:	5f747261 	svcpl	0x00747261
 3f4:	5f766564 	svcpl	0x00766564
 3f8:	77730074 			; <UNDEFINED> instruction: 0x77730074
 3fc:	7261755f 	rsbvc	r7, r1, #398458880	; 0x17c00000
 400:	75705f74 	ldrbvc	r5, [r0, #-3956]!	; 0xf74
 404:	75006374 	strvc	r6, [r0, #-884]	; 0x374
 408:	38746e69 	ldmdacc	r4!, {r0, r3, r5, r6, r9, sl, fp, sp, lr}^
 40c:	6300745f 	movwvs	r7, #1119	; 0x45f
 410:	72746e6f 	rsbsvc	r6, r4, #1776	; 0x6f0
 414:	625f6c6f 	subsvs	r6, pc, #28416	; 0x6f00
 418:	745f6b6c 	ldrbvc	r6, [pc], #-2924	; 420 <_start-0x7be0>
 41c:	5f777300 	svcpl	0x00777300
 420:	74726175 	ldrbtvc	r6, [r2], #-373	; 0x175
 424:	5f626300 	svcpl	0x00626300
 428:	5f746567 	svcpl	0x00746567
 42c:	636f6c62 	cmnvs	pc, #25088	; 0x6200
 430:	5f5f006b 	svcpl	0x005f006b
 434:	5f737362 	svcpl	0x00737362
 438:	5f646e65 	svcpl	0x00646e65
 43c:	7363005f 	cmnvc	r3, #95	; 0x5f
 440:	65303431 	ldrvs	r3, [r0, #-1073]!	; 0x431
 444:	6372732d 	cmnvs	r2, #-1275068416	; 0xb4000000
 448:	7473632f 	ldrbtvc	r6, [r3], #-815	; 0x32f
 44c:	2e747261 	cdpcs	2, 7, cr7, cr4, cr1, {3}
 450:	6f630063 	svcvs	0x00630063
 454:	6c6f736e 	stclvs	3, cr7, [pc], #-440	; 2a4 <_start-0x7d5c>
 458:	65645f65 	strbvs	r5, [r4, #-3941]!	; 0xf65
 45c:	69750076 	ldmdbvs	r5!, {r1, r2, r4, r5, r6}^
 460:	3233746e 	eorscc	r7, r3, #1845493760	; 0x6e000000
 464:	6d00745f 	cfstrsvs	mvf7, [r0, #-380]	; 0xfffffe84
 468:	63696761 	cmnvs	r9, #25427968	; 0x1840000
 46c:	5f746100 	svcpl	0x00746100
 470:	72657375 	rsbvc	r7, r5, #-738197503	; 0xd4000001
 474:	76656c5f 			; <UNDEFINED> instruction: 0x76656c5f
 478:	50006c65 	andpl	r6, r0, r5, ror #24
 47c:	41505f4d 	cmpmi	r0, sp, asr #30
 480:	4f575353 	svcmi	0x00575353
 484:	63004452 	movwvs	r4, #1106	; 0x452
 488:	30343173 	eorscc	r3, r4, r3, ror r1
 48c:	72732d65 	rsbsvc	r2, r3, #6464	; 0x1940
 490:	65722f63 	ldrbvs	r2, [r2, #-3939]!	; 0xf63
 494:	746f6f62 	strbtvc	r6, [pc], #-3938	; 49c <_start-0x7b64>
 498:	5000632e 	andpl	r6, r0, lr, lsr #6
 49c:	53525f4d 	cmppl	r2, #308	; 0x134
 4a0:	575f4354 			; <UNDEFINED> instruction: 0x575f4354
 4a4:	47464352 	smlsldmi	r4, r6, r2, r3
 4a8:	4c55465f 	mrrcmi	6, 5, r4, r5, cr15
 4ac:	45525f4c 	ldrbmi	r5, [r2, #-3916]	; 0xf4c
 4b0:	00544553 	subseq	r4, r4, r3, asr r5
 4b4:	575f4d50 			; <UNDEFINED> instruction: 0x575f4d50
 4b8:	00474f44 	subeq	r4, r7, r4, asr #30
 4bc:	5f746573 	svcpl	0x00746573
 4c0:	72657375 	rsbvc	r7, r5, #-738197503	; 0xd4000001
 4c4:	76656c5f 			; <UNDEFINED> instruction: 0x76656c5f
 4c8:	50006c65 	andpl	r6, r0, r5, ror #24
 4cc:	32335455 	eorscc	r5, r3, #1426063360	; 0x55000000
 4d0:	5f4d5000 	svcpl	0x004d5000
 4d4:	43545352 	cmpmi	r4, #1207959553	; 0x48000001
 4d8:	73706300 	cmnvc	r0, #0, 6
 4dc:	69740072 	ldmdbvs	r4!, {r1, r4, r5, r6}^
 4e0:	5f72656d 	svcpl	0x0072656d
 4e4:	5f746567 	svcpl	0x00746567
 4e8:	63657375 	cmnvs	r5, #-738197503	; 0xd4000001
 4ec:	7761725f 			; <UNDEFINED> instruction: 0x7761725f
 4f0:	6c656400 	cfstrdvs	mvd6, [r5], #-0
 4f4:	735f7961 	cmpvc	pc, #1589248	; 0x184000
 4f8:	63006365 	movwvs	r6, #869	; 0x365
 4fc:	30343173 	eorscc	r3, r4, r3, ror r1
 500:	72732d65 	rsbsvc	r2, r3, #6464	; 0x1940
 504:	69742f63 	ldmdbvs	r4!, {r0, r1, r5, r6, r8, r9, sl, fp, sp}^
 508:	2e72656d 	cdpcs	5, 7, cr6, cr2, cr13, {3}
 50c:	45470063 	strbmi	r0, [r7, #-99]	; 0x63
 510:	00323354 	eorseq	r3, r2, r4, asr r3
 514:	6b636974 	blvs	18daaec <__bss_end__+0x18d089c>
 518:	65640073 	strbvs	r0, [r4, #-115]!	; 0x73
 51c:	5f79616c 	svcpl	0x0079616c
 520:	6c637963 	stclvs	9, cr7, [r3], #-396	; 0xfffffe74
 524:	64007365 	strvs	r7, [r0], #-869	; 0x365
 528:	79616c65 	stmdbvc	r1!, {r0, r2, r5, r6, sl, fp, sp, lr}^
 52c:	0073755f 	rsbseq	r7, r3, pc, asr r5
 530:	656d6974 	strbvs	r6, [sp, #-2420]!	; 0x974
 534:	65675f72 	strbvs	r5, [r7, #-3954]!	; 0xf72
 538:	73755f74 	cmnvc	r5, #116, 30	; 0x1d0
 53c:	63006365 	movwvs	r6, #869	; 0x365
 540:	705f6379 	subsvc	r6, pc, r9, ror r3	; <UNPREDICTABLE>
 544:	625f7265 	subsvs	r7, pc, #1342177286	; 0x50000006
 548:	77007469 	strvc	r7, [r0, -r9, ror #8]
 54c:	65746972 	ldrbvs	r6, [r4, #-2418]!	; 0x972
 550:	6379635f 	cmnvs	r9, #2080374785	; 0x7c000001
 554:	746e755f 	strbtvc	r7, [lr], #-1375	; 0x55f
 558:	73006c69 	movwvc	r6, #3177	; 0xc69
 55c:	61755f77 	cmnvs	r5, r7, ror pc
 560:	675f7472 			; <UNDEFINED> instruction: 0x675f7472
 564:	5f637465 	svcpl	0x00637465
 568:	656d6974 	strbvs	r6, [sp, #-2420]!	; 0x974
 56c:	0074756f 	rsbseq	r7, r4, pc, ror #10
 570:	755f7773 	ldrbvc	r7, [pc, #-1907]	; fffffe05 <__bss_end__+0xffff5bb5>
 574:	5f747261 	svcpl	0x00747261
 578:	73746567 	cmnvc	r4, #432013312	; 0x19c00000
 57c:	746e755f 	strbtvc	r7, [lr], #-1375	; 0x55f
 580:	73006c69 	movwvc	r6, #3177	; 0xc69
 584:	61755f77 	cmnvs	r5, r7, ror pc
 588:	675f7472 			; <UNDEFINED> instruction: 0x675f7472
 58c:	00637465 	rsbeq	r7, r3, r5, ror #8
 590:	69726564 	ldmdbvs	r2!, {r2, r5, r6, r8, sl, sp, lr}^
 594:	00646576 	rsbeq	r6, r4, r6, ror r5
 598:	616c6564 	cmnvs	ip, r4, ror #10
 59c:	636e5f79 	cmnvs	lr, #484	; 0x1e4
 5a0:	656c6379 	strbvs	r6, [ip, #-889]!	; 0x379
 5a4:	77730073 			; <UNDEFINED> instruction: 0x77730073
 5a8:	7261755f 	rsbvc	r7, r1, #398458880	; 0x17c00000
 5ac:	6e695f74 	mcrvs	15, 3, r5, cr9, cr4, {3}
 5b0:	685f7469 	ldmdavs	pc, {r0, r3, r5, r6, sl, ip, sp, lr}^	; <UNPREDICTABLE>
 5b4:	65706c65 	ldrbvs	r6, [r0, #-3173]!	; 0xc65
 5b8:	69740072 	ldmdbvs	r4!, {r1, r4, r5, r6}^
 5bc:	756f656d 	strbvc	r6, [pc, #-1389]!	; 57 <_start-0x7fa9>
 5c0:	73755f74 	cmnvc	r5, #116, 30	; 0x1d0
 5c4:	73006365 	movwvc	r6, #869	; 0x365
 5c8:	61755f77 	cmnvs	r5, r7, ror pc
 5cc:	705f7472 	subsvc	r7, pc, r2, ror r4	; <UNPREDICTABLE>
 5d0:	006b7475 	rsbeq	r7, fp, r5, ror r4
 5d4:	6f697067 	svcvs	0x00697067
 5d8:	6165725f 	cmnvs	r5, pc, asr r2
 5dc:	796d0064 	stmdbvc	sp!, {r2, r5, r6}^
 5e0:	6372732d 	cmnvs	r2, #-1275068416	; 0xb4000000
 5e4:	2d77732f 	ldclcs	3, cr7, [r7, #-188]!	; 0xffffff44
 5e8:	74726175 	ldrbtvc	r6, [r2], #-373	; 0x175
 5ec:	6300632e 	movwvs	r6, #814	; 0x32e
 5f0:	5f726168 	svcpl	0x00726168
 5f4:	73006e69 	movwvc	r6, #3689	; 0xe69
 5f8:	61755f77 	cmnvs	r5, r7, ror pc
 5fc:	675f7472 			; <UNDEFINED> instruction: 0x675f7472
 600:	5f737465 	svcpl	0x00737465
 604:	656d6974 	strbvs	r6, [sp, #-2420]!	; 0x974
 608:	0074756f 	rsbseq	r7, r4, pc, ror #10
 60c:	74756f5f 	ldrbtvc	r6, [r5], #-3935	; 0xf5f
 610:	69706700 	ldmdbvs	r0!, {r8, r9, sl, sp, lr}^
 614:	72775f6f 	rsbsvc	r5, r7, #444	; 0x1bc
 618:	00657469 	rsbeq	r7, r5, r9, ror #8
 61c:	63657375 	cmnvs	r5, #-738197503	; 0xd4000001
 620:	6d69745f 	cfstrdvs	mvd7, [r9, #-380]!	; 0xfffffe84
 624:	74756f65 	ldrbtvc	r6, [r5], #-3941	; 0xf65
 628:	69706700 	ldmdbvs	r0!, {r8, r9, sl, sp, lr}^
 62c:	65735f6f 	ldrbvs	r5, [r3, #-3951]!	; 0xf6f
 630:	6e695f74 	mcrvs	15, 3, r5, cr9, cr4, {3}
 634:	00747570 	rsbseq	r7, r4, r0, ror r5
 638:	755f7773 	ldrbvc	r7, [pc, #-1907]	; fffffecd <__bss_end__+0xffff5c7d>
 63c:	5f747261 	svcpl	0x00747261
 640:	73746567 	cmnvc	r4, #432013312	; 0x19c00000
 644:	746e755f 	strbtvc	r7, [lr], #-1375	; 0x55f
 648:	625f6c69 	subsvs	r6, pc, #26880	; 0x6900
 64c:	67006b6c 	strvs	r6, [r0, -ip, ror #22]
 650:	5f6f6970 	svcpl	0x006f6970
 654:	5f746573 	svcpl	0x00746573
 658:	7074756f 	rsbsvc	r7, r4, pc, ror #10
 65c:	77007475 	smlsdxvc	r0, r5, r4, r7
 660:	5f746961 	svcpl	0x00746961
 664:	69746e75 	ldmdbvs	r4!, {r0, r2, r4, r5, r6, r9, sl, fp, sp, lr}^
 668:	73755f6c 	cmnvc	r5, #108, 30	; 0x1b0
 66c:	41006365 	tstmi	r0, r5, ror #6
 670:	4d5f5855 	ldclmi	8, cr5, [pc, #-340]	; 524 <_start-0x7adc>
 674:	434d5f55 	movtmi	r5, #57173	; 0xdf55
 678:	45525f52 	ldrbmi	r5, [r2, #-3922]	; 0xf52
 67c:	55410047 	strbpl	r0, [r1, #-71]	; 0x47
 680:	554d5f58 	strbpl	r5, [sp, #-3928]	; 0xf58
 684:	5f4f495f 	svcpl	0x004f495f
 688:	00474552 	subeq	r4, r7, r2, asr r5
 68c:	5f585541 	svcpl	0x00585541
 690:	4d5f554d 	cfldr64mi	mvdx5, [pc, #-308]	; 564 <_start-0x7a9c>
 694:	525f5253 	subspl	r5, pc, #805306373	; 0x30000005
 698:	47004745 	strmi	r4, [r0, -r5, asr #14]
 69c:	5f4f4950 	svcpl	0x004f4950
 6a0:	434e5546 	movtmi	r5, #58694	; 0xe546
 6a4:	544c415f 	strbpl	r4, [ip], #-351	; 0x15f
 6a8:	61750030 	cmnvs	r5, r0, lsr r0
 6ac:	635f7472 	cmpvs	pc, #1912602624	; 0x72000000
 6b0:	675f6e61 	ldrbvs	r6, [pc, -r1, ror #28]
 6b4:	00637465 	rsbeq	r7, r3, r5, ror #8
 6b8:	5f585541 	svcpl	0x00585541
 6bc:	435f554d 	cmpmi	pc, #322961408	; 0x13400000
 6c0:	5f4c544e 	svcpl	0x004c544e
 6c4:	00474552 	subeq	r4, r7, r2, asr r5
 6c8:	74726175 	ldrbtvc	r6, [r2], #-373	; 0x175
 6cc:	7361685f 	cmnvc	r1, #6225920	; 0x5f0000
 6d0:	7461645f 	strbtvc	r6, [r1], #-1119	; 0x45f
 6d4:	65640061 	strbvs	r0, [r4, #-97]!	; 0x61
 6d8:	61625f76 	smcvs	9718	; 0x25f6
 6dc:	65697272 	strbvs	r7, [r9, #-626]!	; 0x272
 6e0:	50470072 	subpl	r0, r7, r2, ror r0
 6e4:	465f4f49 	ldrbmi	r4, [pc], -r9, asr #30
 6e8:	5f434e55 	svcpl	0x00434e55
 6ec:	5054554f 	subspl	r5, r4, pc, asr #10
 6f0:	47005455 	smlsdmi	r0, r5, r4, r5
 6f4:	5f4f4950 	svcpl	0x004f4950
 6f8:	434e5546 	movtmi	r5, #58694	; 0xe546
 6fc:	544c415f 	strbpl	r4, [ip], #-351	; 0x15f
 700:	50470031 	subpl	r0, r7, r1, lsr r0
 704:	465f4f49 	ldrbmi	r4, [pc], -r9, asr #30
 708:	5f434e55 	svcpl	0x00434e55
 70c:	32544c41 	subscc	r4, r4, #16640	; 0x4100
 710:	49504700 	ldmdbmi	r0, {r8, r9, sl, lr}^
 714:	55465f4f 	strbpl	r5, [r6, #-3919]	; 0xf4f
 718:	415f434e 	cmpmi	pc, lr, asr #6
 71c:	0033544c 	eorseq	r5, r3, ip, asr #8
 720:	4f495047 	svcmi	0x00495047
 724:	4e55465f 	mrcmi	6, 2, r4, cr5, cr15, {2}
 728:	4c415f43 	mcrrmi	15, 4, r5, r1, cr3
 72c:	41003554 	tstmi	r0, r4, asr r5
 730:	4d5f5855 	ldclmi	8, cr5, [pc, #-340]	; 5e4 <_start-0x7a1c>
 734:	45495f55 	strbmi	r5, [r9, #-3925]	; 0xf55
 738:	45525f52 	ldrbmi	r5, [r2, #-3922]	; 0xf52
 73c:	75700047 	ldrbvc	r0, [r0, #-71]!	; 0x47
 740:	00323374 	eorseq	r3, r2, r4, ror r3
 744:	5f585541 	svcpl	0x00585541
 748:	495f554d 	ldmdbmi	pc, {r0, r2, r3, r6, r8, sl, ip, lr}^	; <UNPREDICTABLE>
 74c:	525f5249 	subspl	r5, pc, #-1879048188	; 0x90000004
 750:	67004745 	strvs	r4, [r0, -r5, asr #14]
 754:	5f6f6970 	svcpl	0x006f6970
 758:	636e7566 	cmnvs	lr, #427819008	; 0x19800000
 75c:	7500745f 	strvc	r7, [r0, #-1119]	; 0x45f
 760:	5f747261 	svcpl	0x00747261
 764:	5f6e6163 	svcpl	0x006e6163
 768:	63747570 	cmnvs	r4, #112, 10	; 0x1c000000
 76c:	58554100 	ldmdapl	r5, {r8, lr}^
 770:	414e455f 	cmpmi	lr, pc, asr r5
 774:	53454c42 	movtpl	r4, #23618	; 0x5c42
 778:	58554100 	ldmdapl	r5, {r8, lr}^
 77c:	5152495f 	cmppl	r2, pc, asr r9
 780:	58554100 	ldmdapl	r5, {r8, lr}^
 784:	5f554d5f 	svcpl	0x00554d5f
 788:	44554142 	ldrbmi	r4, [r5], #-322	; 0x142
 78c:	4745525f 	smlsldmi	r5, r5, pc, r2	; <UNPREDICTABLE>
 790:	58554100 	ldmdapl	r5, {r8, lr}^
 794:	5f554d5f 	svcpl	0x00554d5f
 798:	54415453 	strbpl	r5, [r1], #-1107	; 0x453
 79c:	4745525f 	smlsldmi	r5, r5, pc, r2	; <UNPREDICTABLE>
 7a0:	49504700 	ldmdbmi	r0, {r8, r9, sl, lr}^
 7a4:	55465f4f 	strbpl	r5, [r6, #-3919]	; 0xf4f
 7a8:	415f434e 	cmpmi	pc, lr, asr #6
 7ac:	0034544c 	eorseq	r5, r4, ip, asr #8
 7b0:	6f697067 	svcvs	0x00697067
 7b4:	7465735f 	strbtvc	r7, [r5], #-863	; 0x35f
 7b8:	6e75665f 	mrcvs	6, 3, r6, cr5, cr15, {2}
 7bc:	6f697463 	svcvs	0x00697463
 7c0:	5541006e 	strbpl	r0, [r1, #-110]	; 0x6e
 7c4:	554d5f58 	strbpl	r5, [sp, #-3928]	; 0xf58
 7c8:	5243535f 	subpl	r5, r3, #2080374785	; 0x7c000001
 7cc:	48435441 	stmdami	r3, {r0, r6, sl, ip, lr}^
 7d0:	2d796d00 	ldclcs	13, cr6, [r9, #-0]
 7d4:	2f637273 	svccs	0x00637273
 7d8:	74726175 	ldrbtvc	r6, [r2], #-373	; 0x175
 7dc:	4100632e 	tstmi	r0, lr, lsr #6
 7e0:	4d5f5855 	ldclmi	8, cr5, [pc, #-340]	; 694 <_start-0x796c>
 7e4:	434c5f55 	movtmi	r5, #53077	; 0xcf55
 7e8:	45525f52 	ldrbmi	r5, [r2, #-3922]	; 0xf52
 7ec:	50470047 	subpl	r0, r7, r7, asr #32
 7f0:	465f4f49 	ldrbmi	r4, [pc], -r9, asr #30
 7f4:	5f434e55 	svcpl	0x00434e55
 7f8:	55504e49 	ldrbpl	r4, [r0, #-3657]	; 0xe49
 7fc:	55410054 	strbpl	r0, [r1, #-84]	; 0x54
 800:	554d5f58 	strbpl	r5, [sp, #-3928]	; 0xf58
 804:	52534c5f 	subspl	r4, r3, #24320	; 0x5f00
 808:	4745525f 	smlsldmi	r5, r5, pc, r2	; <UNPREDICTABLE>
 80c:	72617500 	rsbvc	r7, r1, #0, 10
 810:	65675f74 	strbvs	r5, [r7, #-3956]!	; 0xf74
 814:	615f6374 	cmpvs	pc, r4, ror r3	; <UNPREDICTABLE>
 818:	636e7973 	cmnvs	lr, #1884160	; 0x1cc000
 81c:	74656700 	strbtvc	r6, [r5], #-1792	; 0x700
 820:	67003233 	smladxvs	r0, r3, r2, r3
 824:	5f6f6970 	svcpl	0x006f6970
 828:	6e657665 	cdpvs	6, 6, cr7, cr5, cr5, {3}
 82c:	65645f74 	strbvs	r5, [r4, #-3956]!	; 0xf74
 830:	74636574 	strbtvc	r6, [r3], #-1396	; 0x574
 834:	47006465 	strmi	r6, [r0, -r5, ror #8]
 838:	45534650 	ldrbmi	r4, [r3, #-1616]	; 0x650
 83c:	4700324c 	strmi	r3, [r0, -ip, asr #4]
 840:	524c4350 	subpl	r4, ip, #80, 6	; 0x40000001
 844:	4e450030 	mcrmi	0, 2, r0, cr5, cr0, {1}
 848:	454c4241 	strbmi	r4, [ip, #-577]	; 0x241
 84c:	5152495f 	cmppl	r2, pc, asr r9
 850:	00325f53 	eorseq	r5, r2, r3, asr pc
 854:	675f7369 	ldrbvs	r7, [pc, -r9, ror #6]
 858:	5f6f6970 	svcpl	0x006f6970
 85c:	00746e69 	rsbseq	r6, r4, r9, ror #28
 860:	6f697067 	svcvs	0x00697067
 864:	7465735f 	strbtvc	r7, [r5], #-863	; 0x35f
 868:	66666f5f 	uqsaxvs	r6, r6, pc	; <UNPREDICTABLE>
 86c:	2d796d00 	ldclcs	13, cr6, [r9, #-0]
 870:	2f637273 	svccs	0x00637273
 874:	6f697067 	svcvs	0x00697067
 878:	6900632e 	stmdbvs	r0, {r1, r2, r3, r5, r8, r9, sp, lr}
 87c:	6d5f746e 	cfldrdvs	mvd7, [pc, #-440]	; 6cc <_start-0x7934>
 880:	006b7361 	rsbeq	r7, fp, r1, ror #6
 884:	45535047 	ldrbmi	r5, [r3, #-71]	; 0x47
 888:	47003054 	smlsdmi	r0, r4, r0, r3
 88c:	54455350 	strbpl	r5, [r5], #-848	; 0x350
 890:	65720031 	ldrbvs	r0, [r2, #-49]!	; 0x31
 894:	74735f67 	ldrbtvc	r5, [r3], #-3943	; 0xf67
 898:	47007461 	strmi	r7, [r0, -r1, ror #8]
 89c:	56454c50 			; <UNDEFINED> instruction: 0x56454c50
 8a0:	50470030 	subpl	r0, r7, r0, lsr r0
 8a4:	3156454c 	cmpcc	r6, ip, asr #10
 8a8:	69706700 	ldmdbvs	r0!, {r8, r9, sl, sp, lr}^
 8ac:	65725f6f 	ldrbvs	r5, [r2, #-3951]!	; 0xf6f
 8b0:	50470067 	subpl	r0, r7, r7, rrx
 8b4:	4c455346 	mcrrmi	3, 4, r5, r5, cr6
 8b8:	50470030 	subpl	r0, r7, r0, lsr r0
 8bc:	4c455346 	mcrrmi	3, 4, r5, r5, cr6
 8c0:	50470031 	subpl	r0, r7, r1, lsr r0
 8c4:	4c455346 	mcrrmi	3, 4, r5, r5, cr6
 8c8:	50470033 	subpl	r0, r7, r3, lsr r0
 8cc:	4c455346 	mcrrmi	3, 4, r5, r5, cr6
 8d0:	50470034 	subpl	r0, r7, r4, lsr r0
 8d4:	4c455346 	mcrrmi	3, 4, r5, r5, cr6
 8d8:	70670035 	rsbvc	r0, r7, r5, lsr r0
 8dc:	665f6f69 	ldrbvs	r6, [pc], -r9, ror #30
 8e0:	306c6573 	rsbcc	r6, ip, r3, ror r5
 8e4:	43504700 	cmpmi	r0, #0, 14
 8e8:	0031524c 	eorseq	r5, r1, ip, asr #4
 8ec:	6f697067 	svcvs	0x00697067
 8f0:	746e695f 	strbtvc	r6, [lr], #-2399	; 0x95f
 8f4:	7369725f 	cmnvc	r9, #-268435451	; 0xf0000005
 8f8:	5f676e69 	svcpl	0x00676e69
 8fc:	65676465 	strbvs	r6, [r7, #-1125]!	; 0x465
 900:	52504700 	subspl	r4, r0, #0, 14
 904:	00304e45 	eorseq	r4, r0, r5, asr #28
 908:	45525047 	ldrbmi	r5, [r2, #-71]	; 0x47
 90c:	6700314e 	strvs	r3, [r0, -lr, asr #2]
 910:	5f6f6970 	svcpl	0x006f6970
 914:	6e657665 	cdpvs	6, 6, cr7, cr5, cr5, {3}
 918:	6c635f74 	stclvs	15, cr5, [r3], #-464	; 0xfffffe30
 91c:	00726165 	rsbseq	r6, r2, r5, ror #2
 920:	5f515249 	svcpl	0x00515249
 924:	444e4550 	strbmi	r4, [lr], #-1360	; 0x550
 928:	5f474e49 	svcpl	0x00474e49
 92c:	52490031 	subpl	r0, r9, #49	; 0x31
 930:	45505f51 	ldrbmi	r5, [r0, #-3921]	; 0xf51
 934:	4e49444e 	cdpmi	4, 4, cr4, cr9, cr14, {2}
 938:	00325f47 	eorseq	r5, r2, r7, asr #30
 93c:	6d746962 	ldclvs	9, cr6, [r4, #-392]!	; 0xfffffe78
 940:	006b7361 	rsbeq	r7, fp, r1, ror #6
 944:	6f697067 	svcvs	0x00697067
 948:	7465735f 	strbtvc	r7, [r5], #-863	; 0x35f
 94c:	75660030 	strbvc	r0, [r6, #-48]!	; 0x30
 950:	4700636e 	strmi	r6, [r0, -lr, ror #6]
 954:	53444550 	movtpl	r4, #17744	; 0x4550
 958:	50470030 	subpl	r0, r7, r0, lsr r0
 95c:	31534445 	cmpcc	r3, r5, asr #8
 960:	69706700 	ldmdbvs	r0!, {r8, r9, sl, sp, lr}^
 964:	65735f6f 	ldrbvs	r5, [r3, #-3951]!	; 0xf6f
 968:	6e6f5f74 	mcrvs	15, 3, r5, cr15, cr4, {3}
 96c:	46504700 	ldrbmi	r4, [r0], -r0, lsl #14
 970:	00304e45 	eorseq	r4, r0, r5, asr #28
 974:	45465047 	strbmi	r5, [r6, #-71]	; 0x47
 978:	6700314e 	strvs	r3, [r0, -lr, asr #2]
 97c:	5f6f6970 	svcpl	0x006f6970
 980:	5f746e69 	svcpl	0x00746e69
 984:	6c6c6166 	stfvse	f6, [ip], #-408	; 0xfffffe68
 988:	5f676e69 	svcpl	0x00676e69
 98c:	65676465 	strbvs	r6, [r7, #-1125]!	; 0x465
 990:	67657200 	strbvs	r7, [r5, -r0, lsl #4]!
 994:	6c65735f 	stclvs	3, cr7, [r5], #-380	; 0xfffffe84
 998:	00746365 	rsbseq	r6, r4, r5, ror #6
 99c:	6f697067 	svcvs	0x00697067
 9a0:	726c635f 	rsbvc	r6, ip, #2080374785	; 0x7c000001
 9a4:	62630030 	rsbvs	r0, r3, #48	; 0x30
 9a8:	77656e5f 			; <UNDEFINED> instruction: 0x77656e5f
 9ac:	31736300 	cmncc	r3, r0, lsl #6
 9b0:	2d653034 	stclcs	0, cr3, [r5, #-208]!	; 0xffffff30
 9b4:	2f637273 	svccs	0x00637273
 9b8:	746e6f63 	strbtvc	r6, [lr], #-3939	; 0xf63
 9bc:	2d6c6f72 	stclcs	15, cr6, [ip, #-456]!	; 0xfffffe38
 9c0:	636f6c62 	cmnvs	pc, #25088	; 0x6200
 9c4:	00632e6b 	rsbeq	r2, r3, fp, ror #28

Disassembly of section .debug_frame:

00000000 <.debug_frame>:
   0:	0000000c 	andeq	r0, r0, ip
   4:	ffffffff 			; <UNDEFINED> instruction: 0xffffffff
   8:	7c020001 	stcvc	0, cr0, [r2], {1}
   c:	000d0c0e 	andeq	r0, sp, lr, lsl #24
  10:	0000001c 	andeq	r0, r0, ip, lsl r0
  14:	00000000 	andeq	r0, r0, r0
  18:	00008010 	andeq	r8, r0, r0, lsl r0
  1c:	00000198 	muleq	r0, r8, r1
  20:	84140e42 	ldrhi	r0, [r4], #-3650	; 0xe42
  24:	86048505 	strhi	r8, [r4], -r5, lsl #10
  28:	8e028703 	cdphi	7, 0, cr8, cr2, cr3, {0}
  2c:	200e4201 	andcs	r4, lr, r1, lsl #4
  30:	0000000c 	andeq	r0, r0, ip
  34:	ffffffff 			; <UNDEFINED> instruction: 0xffffffff
  38:	7c020001 	stcvc	0, cr0, [r2], {1}
  3c:	000d0c0e 	andeq	r0, sp, lr, lsl #24
  40:	00000014 	andeq	r0, r0, r4, lsl r0
  44:	00000030 	andeq	r0, r0, r0, lsr r0
  48:	000081a8 	andeq	r8, r0, r8, lsr #3
  4c:	00000068 	andeq	r0, r0, r8, rrx
  50:	84080e42 	strhi	r0, [r8], #-3650	; 0xe42
  54:	00018e02 	andeq	r8, r1, r2, lsl #28
  58:	00000014 	andeq	r0, r0, r4, lsl r0
  5c:	00000030 	andeq	r0, r0, r0, lsr r0
  60:	00008210 	andeq	r8, r0, r0, lsl r2
  64:	0000009c 	muleq	r0, ip, r0
  68:	83080e42 	movwhi	r0, #36418	; 0x8e42
  6c:	00018e02 	andeq	r8, r1, r2, lsl #28
  70:	00000014 	andeq	r0, r0, r4, lsl r0
  74:	00000030 	andeq	r0, r0, r0, lsr r0
  78:	000082ac 	andeq	r8, r0, ip, lsr #5
  7c:	0000005c 	andeq	r0, r0, ip, asr r0
  80:	83080e42 	movwhi	r0, #36418	; 0x8e42
  84:	00018e02 	andeq	r8, r1, r2, lsl #28
  88:	0000000c 	andeq	r0, r0, ip
  8c:	00000030 	andeq	r0, r0, r0, lsr r0
  90:	00008308 	andeq	r8, r0, r8, lsl #6
  94:	00000018 	andeq	r0, r0, r8, lsl r0
  98:	0000000c 	andeq	r0, r0, ip
  9c:	00000030 	andeq	r0, r0, r0, lsr r0
  a0:	00008320 	andeq	r8, r0, r0, lsr #6
  a4:	00000010 	andeq	r0, r0, r0, lsl r0
  a8:	0000000c 	andeq	r0, r0, ip
  ac:	ffffffff 			; <UNDEFINED> instruction: 0xffffffff
  b0:	7c020001 	stcvc	0, cr0, [r2], {1}
  b4:	000d0c0e 	andeq	r0, sp, lr, lsl #24
  b8:	0000000c 	andeq	r0, r0, ip
  bc:	000000a8 	andeq	r0, r0, r8, lsr #1
  c0:	00008330 	andeq	r8, r0, r0, lsr r3
  c4:	00000020 	andeq	r0, r0, r0, lsr #32
  c8:	0000000c 	andeq	r0, r0, ip
  cc:	ffffffff 			; <UNDEFINED> instruction: 0xffffffff
  d0:	7c020001 	stcvc	0, cr0, [r2], {1}
  d4:	000d0c0e 	andeq	r0, sp, lr, lsl #24
  d8:	00000024 	andeq	r0, r0, r4, lsr #32
  dc:	000000c8 	andeq	r0, r0, r8, asr #1
  e0:	00008350 	andeq	r8, r0, r0, asr r3
  e4:	00000058 	andeq	r0, r0, r8, asr r0
  e8:	80100e42 	andshi	r0, r0, r2, asr #28
  ec:	82038104 	andhi	r8, r3, #4, 2
  f0:	42018302 	andmi	r8, r1, #134217728	; 0x8000000
  f4:	07841c0e 	streq	r1, [r4, lr, lsl #24]
  f8:	058e0685 	streq	r0, [lr, #1669]	; 0x685
  fc:	00280e42 	eoreq	r0, r8, r2, asr #28
 100:	0000000c 	andeq	r0, r0, ip
 104:	ffffffff 			; <UNDEFINED> instruction: 0xffffffff
 108:	7c020001 	stcvc	0, cr0, [r2], {1}
 10c:	000d0c0e 	andeq	r0, sp, lr, lsl #24
 110:	00000014 	andeq	r0, r0, r4, lsl r0
 114:	00000100 	andeq	r0, r0, r0, lsl #2
 118:	000083a8 	andeq	r8, r0, r8, lsr #7
 11c:	00000014 	andeq	r0, r0, r4, lsl r0
 120:	84080e42 	strhi	r0, [r8], #-3650	; 0xe42
 124:	00018e02 	andeq	r8, r1, r2, lsl #28
 128:	0000000c 	andeq	r0, r0, ip
 12c:	00000100 	andeq	r0, r0, r0, lsl #2
 130:	000083bc 			; <UNDEFINED> instruction: 0x000083bc
 134:	00000018 	andeq	r0, r0, r8, lsl r0
 138:	0000000c 	andeq	r0, r0, ip
 13c:	00000100 	andeq	r0, r0, r0, lsl #2
 140:	000083d4 	ldrdeq	r8, [r0], -r4
 144:	00000010 	andeq	r0, r0, r0, lsl r0
 148:	0000000c 	andeq	r0, r0, ip
 14c:	ffffffff 			; <UNDEFINED> instruction: 0xffffffff
 150:	7c020001 	stcvc	0, cr0, [r2], {1}
 154:	000d0c0e 	andeq	r0, sp, lr, lsl #24
 158:	00000018 	andeq	r0, r0, r8, lsl r0
 15c:	00000148 	andeq	r0, r0, r8, asr #2
 160:	000083e4 	andeq	r8, r0, r4, ror #7
 164:	00000034 	andeq	r0, r0, r4, lsr r0
 168:	83100e42 	tsthi	r0, #1056	; 0x420
 16c:	85038404 	strhi	r8, [r3, #-1028]	; 0x404
 170:	00018e02 	andeq	r8, r1, r2, lsl #28
 174:	0000000c 	andeq	r0, r0, ip
 178:	ffffffff 			; <UNDEFINED> instruction: 0xffffffff
 17c:	7c020001 	stcvc	0, cr0, [r2], {1}
 180:	000d0c0e 	andeq	r0, sp, lr, lsl #24
 184:	0000000c 	andeq	r0, r0, ip
 188:	00000174 	andeq	r0, r0, r4, ror r1
 18c:	00008418 	andeq	r8, r0, r8, lsl r4
 190:	00000014 	andeq	r0, r0, r4, lsl r0
 194:	0000000c 	andeq	r0, r0, ip
 198:	00000174 	andeq	r0, r0, r4, ror r1
 19c:	0000842c 	andeq	r8, r0, ip, lsr #8
 1a0:	0000002c 	andeq	r0, r0, ip, lsr #32
 1a4:	0000000c 	andeq	r0, r0, ip
 1a8:	00000174 	andeq	r0, r0, r4, ror r1
 1ac:	00008458 	andeq	r8, r0, r8, asr r4
 1b0:	00000040 	andeq	r0, r0, r0, asr #32
 1b4:	00000020 	andeq	r0, r0, r0, lsr #32
 1b8:	00000174 	andeq	r0, r0, r4, ror r1
 1bc:	00008498 	muleq	r0, r8, r4
 1c0:	0000019c 	muleq	r0, ip, r1
 1c4:	84180e42 	ldrhi	r0, [r8], #-3650	; 0xe42
 1c8:	86058506 	strhi	r8, [r5], -r6, lsl #10
 1cc:	88038704 	stmdahi	r3, {r2, r8, r9, sl, pc}
 1d0:	42018e02 	andmi	r8, r1, #2, 28
 1d4:	0000580e 	andeq	r5, r0, lr, lsl #16
 1d8:	00000014 	andeq	r0, r0, r4, lsl r0
 1dc:	00000174 	andeq	r0, r0, r4, ror r1
 1e0:	00008634 	andeq	r8, r0, r4, lsr r6
 1e4:	00000054 	andeq	r0, r0, r4, asr r0
 1e8:	83080e42 	movwhi	r0, #36418	; 0x8e42
 1ec:	00018e02 	andeq	r8, r1, r2, lsl #28
 1f0:	00000028 	andeq	r0, r0, r8, lsr #32
 1f4:	00000174 	andeq	r0, r0, r4, ror r1
 1f8:	00008688 	andeq	r8, r0, r8, lsl #13
 1fc:	00000288 	andeq	r0, r0, r8, lsl #5
 200:	84240e42 	strthi	r0, [r4], #-3650	; 0xe42
 204:	86088509 	strhi	r8, [r8], -r9, lsl #10
 208:	88068707 	stmdahi	r6, {r0, r1, r2, r8, r9, sl, pc}
 20c:	8a048905 	bhi	122628 <__bss_end__+0x1183d8>
 210:	8e028b03 	vmlahi.f64	d8, d2, d3
 214:	b00e4201 	andlt	r4, lr, r1, lsl #4
 218:	00000001 	andeq	r0, r0, r1
 21c:	0000000c 	andeq	r0, r0, ip
 220:	ffffffff 			; <UNDEFINED> instruction: 0xffffffff
 224:	7c020001 	stcvc	0, cr0, [r2], {1}
 228:	000d0c0e 	andeq	r0, sp, lr, lsl #24
 22c:	00000014 	andeq	r0, r0, r4, lsl r0
 230:	0000021c 	andeq	r0, r0, ip, lsl r2
 234:	00008910 	andeq	r8, r0, r0, lsl r9
 238:	00000028 	andeq	r0, r0, r8, lsr #32
 23c:	83080e42 	movwhi	r0, #36418	; 0x8e42
 240:	00018e02 	andeq	r8, r1, r2, lsl #28
 244:	0000000c 	andeq	r0, r0, ip
 248:	ffffffff 			; <UNDEFINED> instruction: 0xffffffff
 24c:	7c020001 	stcvc	0, cr0, [r2], {1}
 250:	000d0c0e 	andeq	r0, sp, lr, lsl #24
 254:	00000014 	andeq	r0, r0, r4, lsl r0
 258:	00000244 	andeq	r0, r0, r4, asr #4
 25c:	00008938 	andeq	r8, r0, r8, lsr r9
 260:	00000020 	andeq	r0, r0, r0, lsr #32
 264:	84080e42 	strhi	r0, [r8], #-3650	; 0xe42
 268:	00018e02 	andeq	r8, r1, r2, lsl #28
 26c:	00000014 	andeq	r0, r0, r4, lsl r0
 270:	00000244 	andeq	r0, r0, r4, asr #4
 274:	00008958 	andeq	r8, r0, r8, asr r9
 278:	00000090 	muleq	r0, r0, r0
 27c:	83080e42 	movwhi	r0, #36418	; 0x8e42
 280:	00018e02 	andeq	r8, r1, r2, lsl #28
 284:	0000000c 	andeq	r0, r0, ip
 288:	ffffffff 			; <UNDEFINED> instruction: 0xffffffff
 28c:	7c020001 	stcvc	0, cr0, [r2], {1}
 290:	000d0c0e 	andeq	r0, sp, lr, lsl #24
 294:	0000000c 	andeq	r0, r0, ip
 298:	00000284 	andeq	r0, r0, r4, lsl #5
 29c:	000089e8 	andeq	r8, r0, r8, ror #19
 2a0:	00000018 	andeq	r0, r0, r8, lsl r0
 2a4:	0000000c 	andeq	r0, r0, ip
 2a8:	00000284 	andeq	r0, r0, r4, lsl #5
 2ac:	00008a00 	andeq	r8, r0, r0, lsl #20
 2b0:	00000014 	andeq	r0, r0, r4, lsl r0
 2b4:	00000014 	andeq	r0, r0, r4, lsl r0
 2b8:	00000284 	andeq	r0, r0, r4, lsl #5
 2bc:	00008a14 	andeq	r8, r0, r4, lsl sl
 2c0:	00000048 	andeq	r0, r0, r8, asr #32
 2c4:	83080e42 	movwhi	r0, #36418	; 0x8e42
 2c8:	00018e02 	andeq	r8, r1, r2, lsl #28
 2cc:	0000000c 	andeq	r0, r0, ip
 2d0:	ffffffff 			; <UNDEFINED> instruction: 0xffffffff
 2d4:	7c020001 	stcvc	0, cr0, [r2], {1}
 2d8:	000d0c0e 	andeq	r0, sp, lr, lsl #24
 2dc:	0000000c 	andeq	r0, r0, ip
 2e0:	000002cc 	andeq	r0, r0, ip, asr #5
 2e4:	00008a5c 	andeq	r8, r0, ip, asr sl
 2e8:	0000001c 	andeq	r0, r0, ip, lsl r0
 2ec:	00000014 	andeq	r0, r0, r4, lsl r0
 2f0:	000002cc 	andeq	r0, r0, ip, asr #5
 2f4:	00008a78 	andeq	r8, r0, r8, ror sl
 2f8:	00000014 	andeq	r0, r0, r4, lsl r0
 2fc:	83080e42 	movwhi	r0, #36418	; 0x8e42
 300:	00018e02 	andeq	r8, r1, r2, lsl #28
 304:	00000014 	andeq	r0, r0, r4, lsl r0
 308:	000002cc 	andeq	r0, r0, ip, asr #5
 30c:	00008a8c 	andeq	r8, r0, ip, lsl #21
 310:	0000000c 	andeq	r0, r0, ip
 314:	83080e42 	movwhi	r0, #36418	; 0x8e42
 318:	00018e02 	andeq	r8, r1, r2, lsl #28
 31c:	00000018 	andeq	r0, r0, r8, lsl r0
 320:	000002cc 	andeq	r0, r0, ip, asr #5
 324:	00008a98 	muleq	r0, r8, sl
 328:	00000024 	andeq	r0, r0, r4, lsr #32
 32c:	83100e42 	tsthi	r0, #1056	; 0x420
 330:	85038404 	strhi	r8, [r3, #-1028]	; 0x404
 334:	00018e02 	andeq	r8, r1, r2, lsl #28
 338:	00000014 	andeq	r0, r0, r4, lsl r0
 33c:	000002cc 	andeq	r0, r0, ip, asr #5
 340:	00008abc 			; <UNDEFINED> instruction: 0x00008abc
 344:	00000014 	andeq	r0, r0, r4, lsl r0
 348:	83080e42 	movwhi	r0, #36418	; 0x8e42
 34c:	00018e02 	andeq	r8, r1, r2, lsl #28
 350:	00000014 	andeq	r0, r0, r4, lsl r0
 354:	000002cc 	andeq	r0, r0, ip, asr #5
 358:	00008ad0 	ldrdeq	r8, [r0], -r0
 35c:	00000014 	andeq	r0, r0, r4, lsl r0
 360:	83080e42 	movwhi	r0, #36418	; 0x8e42
 364:	00018e02 	andeq	r8, r1, r2, lsl #28
 368:	0000000c 	andeq	r0, r0, ip
 36c:	ffffffff 			; <UNDEFINED> instruction: 0xffffffff
 370:	7c020001 	stcvc	0, cr0, [r2], {1}
 374:	000d0c0e 	andeq	r0, sp, lr, lsl #24
 378:	0000001c 	andeq	r0, r0, ip, lsl r0
 37c:	00000368 	andeq	r0, r0, r8, ror #6
 380:	00008ae4 	andeq	r8, r0, r4, ror #21
 384:	00000154 	andeq	r0, r0, r4, asr r1
 388:	84180e42 	ldrhi	r0, [r8], #-3650	; 0xe42
 38c:	86058506 	strhi	r8, [r5], -r6, lsl #10
 390:	88038704 	stmdahi	r3, {r2, r8, r9, sl, pc}
 394:	00018e02 	andeq	r8, r1, r2, lsl #28
 398:	00000020 	andeq	r0, r0, r0, lsr #32
 39c:	00000368 	andeq	r0, r0, r8, ror #6
 3a0:	00008c38 	andeq	r8, r0, r8, lsr ip
 3a4:	000001c8 	andeq	r0, r0, r8, asr #3
 3a8:	83200e42 	teqhi	r0, #1056	; 0x420
 3ac:	85078408 	strhi	r8, [r7, #-1032]	; 0x408
 3b0:	87058606 	strhi	r8, [r5, -r6, lsl #12]
 3b4:	89038804 	stmdbhi	r3, {r2, fp, pc}
 3b8:	00018e02 	andeq	r8, r1, r2, lsl #28
 3bc:	00000020 	andeq	r0, r0, r0, lsr #32
 3c0:	00000368 	andeq	r0, r0, r8, ror #6
 3c4:	00008e00 	andeq	r8, r0, r0, lsl #28
 3c8:	00000090 	muleq	r0, r0, r0
 3cc:	84200e42 	strthi	r0, [r0], #-3650	; 0xe42
 3d0:	86078508 	strhi	r8, [r7], -r8, lsl #10
 3d4:	88058706 	stmdahi	r5, {r1, r2, r8, r9, sl, pc}
 3d8:	8a038904 	bhi	e27f0 <__bss_end__+0xd85a0>
 3dc:	00018e02 	andeq	r8, r1, r2, lsl #28
 3e0:	0000001c 	andeq	r0, r0, ip, lsl r0
 3e4:	00000368 	andeq	r0, r0, r8, ror #6
 3e8:	00008e90 	muleq	r0, r0, lr
 3ec:	0000007c 	andeq	r0, r0, ip, ror r0
 3f0:	84180e42 	ldrhi	r0, [r8], #-3650	; 0xe42
 3f4:	86058506 	strhi	r8, [r5], -r6, lsl #10
 3f8:	88038704 	stmdahi	r3, {r2, r8, r9, sl, pc}
 3fc:	00018e02 	andeq	r8, r1, r2, lsl #28
 400:	0000001c 	andeq	r0, r0, ip, lsl r0
 404:	00000368 	andeq	r0, r0, r8, ror #6
 408:	00008f0c 	andeq	r8, r0, ip, lsl #30
 40c:	000000c0 	andeq	r0, r0, r0, asr #1
 410:	84180e42 	ldrhi	r0, [r8], #-3650	; 0xe42
 414:	86058506 	strhi	r8, [r5], -r6, lsl #10
 418:	88038704 	stmdahi	r3, {r2, r8, r9, sl, pc}
 41c:	00018e02 	andeq	r8, r1, r2, lsl #28
 420:	00000014 	andeq	r0, r0, r4, lsl r0
 424:	00000368 	andeq	r0, r0, r8, ror #6
 428:	00008fcc 	andeq	r8, r0, ip, asr #31
 42c:	0000003c 	andeq	r0, r0, ip, lsr r0
 430:	83080e42 	movwhi	r0, #36418	; 0x8e42
 434:	00018e02 	andeq	r8, r1, r2, lsl #28
 438:	00000018 	andeq	r0, r0, r8, lsl r0
 43c:	00000368 	andeq	r0, r0, r8, ror #6
 440:	00009008 	andeq	r9, r0, r8
 444:	0000002c 	andeq	r0, r0, ip, lsr #32
 448:	83100e42 	tsthi	r0, #1056	; 0x420
 44c:	85038404 	strhi	r8, [r3, #-1028]	; 0x404
 450:	00018e02 	andeq	r8, r1, r2, lsl #28
 454:	00000024 	andeq	r0, r0, r4, lsr #32
 458:	00000368 	andeq	r0, r0, r8, ror #6
 45c:	00009034 	andeq	r9, r0, r4, lsr r0
 460:	00000084 	andeq	r0, r0, r4, lsl #1
 464:	810c0e42 	tsthi	ip, r2, asr #28
 468:	83028203 	movwhi	r8, #8707	; 0x2203
 46c:	180e4201 	stmdane	lr, {r0, r9, lr}
 470:	05850684 	streq	r0, [r5, #1668]	; 0x684
 474:	0e42048e 	cdpeq	4, 4, cr0, cr2, cr14, {4}
 478:	000003e8 	andeq	r0, r0, r8, ror #7
 47c:	00000014 	andeq	r0, r0, r4, lsl r0
 480:	00000368 	andeq	r0, r0, r8, ror #6
 484:	000090b8 	strheq	r9, [r0], -r8
 488:	0000004c 	andeq	r0, r0, ip, asr #32
 48c:	8e040e42 	cdphi	14, 0, cr0, cr4, cr2, {2}
 490:	100e4201 	andne	r4, lr, r1, lsl #4
 494:	0000000c 	andeq	r0, r0, ip
 498:	ffffffff 			; <UNDEFINED> instruction: 0xffffffff
 49c:	7c020001 	stcvc	0, cr0, [r2], {1}
 4a0:	000d0c0e 	andeq	r0, sp, lr, lsl #24
 4a4:	00000018 	andeq	r0, r0, r8, lsl r0
 4a8:	00000494 	muleq	r0, r4, r4
 4ac:	00009104 	andeq	r9, r0, r4, lsl #2
 4b0:	0000009c 	muleq	r0, ip, r0
 4b4:	83100e42 	tsthi	r0, #1056	; 0x420
 4b8:	85038404 	strhi	r8, [r3, #-1028]	; 0x404
 4bc:	00018e02 	andeq	r8, r1, r2, lsl #28
 4c0:	00000014 	andeq	r0, r0, r4, lsl r0
 4c4:	00000494 	muleq	r0, r4, r4
 4c8:	000091a0 	andeq	r9, r0, r0, lsr #3
 4cc:	0000001c 	andeq	r0, r0, ip, lsl r0
 4d0:	83080e42 	movwhi	r0, #36418	; 0x8e42
 4d4:	00018e02 	andeq	r8, r1, r2, lsl #28
 4d8:	00000014 	andeq	r0, r0, r4, lsl r0
 4dc:	00000494 	muleq	r0, r4, r4
 4e0:	000091bc 			; <UNDEFINED> instruction: 0x000091bc
 4e4:	00000028 	andeq	r0, r0, r8, lsr #32
 4e8:	83080e42 	movwhi	r0, #36418	; 0x8e42
 4ec:	00018e02 	andeq	r8, r1, r2, lsl #28
 4f0:	00000014 	andeq	r0, r0, r4, lsl r0
 4f4:	00000494 	muleq	r0, r4, r4
 4f8:	000091e4 	andeq	r9, r0, r4, ror #3
 4fc:	0000001c 	andeq	r0, r0, ip, lsl r0
 500:	83080e42 	movwhi	r0, #36418	; 0x8e42
 504:	00018e02 	andeq	r8, r1, r2, lsl #28
 508:	00000014 	andeq	r0, r0, r4, lsl r0
 50c:	00000494 	muleq	r0, r4, r4
 510:	00009200 	andeq	r9, r0, r0, lsl #4
 514:	0000002c 	andeq	r0, r0, ip, lsr #32
 518:	84080e42 	strhi	r0, [r8], #-3650	; 0xe42
 51c:	00018e02 	andeq	r8, r1, r2, lsl #28
 520:	00000014 	andeq	r0, r0, r4, lsl r0
 524:	00000494 	muleq	r0, r4, r4
 528:	0000922c 	andeq	r9, r0, ip, lsr #4
 52c:	0000000c 	andeq	r0, r0, ip
 530:	83080e42 	movwhi	r0, #36418	; 0x8e42
 534:	00018e02 	andeq	r8, r1, r2, lsl #28
 538:	00000014 	andeq	r0, r0, r4, lsl r0
 53c:	00000494 	muleq	r0, r4, r4
 540:	00009238 	andeq	r9, r0, r8, lsr r2
 544:	00000020 	andeq	r0, r0, r0, lsr #32
 548:	83080e42 	movwhi	r0, #36418	; 0x8e42
 54c:	00018e02 	andeq	r8, r1, r2, lsl #28
 550:	0000000c 	andeq	r0, r0, ip
 554:	ffffffff 			; <UNDEFINED> instruction: 0xffffffff
 558:	7c020001 	stcvc	0, cr0, [r2], {1}
 55c:	000d0c0e 	andeq	r0, sp, lr, lsl #24
 560:	00000018 	andeq	r0, r0, r8, lsl r0
 564:	00000550 	andeq	r0, r0, r0, asr r5
 568:	000092bc 			; <UNDEFINED> instruction: 0x000092bc
 56c:	000000d4 	ldrdeq	r0, [r0], -r4
 570:	83100e42 	tsthi	r0, #1056	; 0x420
 574:	85038404 	strhi	r8, [r3, #-1028]	; 0x404
 578:	00018e02 	andeq	r8, r1, r2, lsl #28
 57c:	00000014 	andeq	r0, r0, r4, lsl r0
 580:	00000550 	andeq	r0, r0, r0, asr r5
 584:	00009390 	muleq	r0, r0, r3
 588:	00000038 	andeq	r0, r0, r8, lsr r0
 58c:	83080e42 	movwhi	r0, #36418	; 0x8e42
 590:	00018e02 	andeq	r8, r1, r2, lsl #28
 594:	00000014 	andeq	r0, r0, r4, lsl r0
 598:	00000550 	andeq	r0, r0, r0, asr r5
 59c:	000093c8 	andeq	r9, r0, r8, asr #7
 5a0:	00000038 	andeq	r0, r0, r8, lsr r0
 5a4:	83080e42 	movwhi	r0, #36418	; 0x8e42
 5a8:	00018e02 	andeq	r8, r1, r2, lsl #28
 5ac:	00000018 	andeq	r0, r0, r8, lsl r0
 5b0:	00000550 	andeq	r0, r0, r0, asr r5
 5b4:	00009400 	andeq	r9, r0, r0, lsl #8
 5b8:	000000cc 	andeq	r0, r0, ip, asr #1
 5bc:	83100e42 	tsthi	r0, #1056	; 0x420
 5c0:	85038404 	strhi	r8, [r3, #-1028]	; 0x404
 5c4:	00018e02 	andeq	r8, r1, r2, lsl #28
 5c8:	00000014 	andeq	r0, r0, r4, lsl r0
 5cc:	00000550 	andeq	r0, r0, r0, asr r5
 5d0:	000094cc 	andeq	r9, r0, ip, asr #9
 5d4:	0000004c 	andeq	r0, r0, ip, asr #32
 5d8:	84080e42 	strhi	r0, [r8], #-3650	; 0xe42
 5dc:	00018e02 	andeq	r8, r1, r2, lsl #28
 5e0:	00000014 	andeq	r0, r0, r4, lsl r0
 5e4:	00000550 	andeq	r0, r0, r0, asr r5
 5e8:	00009518 	andeq	r9, r0, r8, lsl r5
 5ec:	00000024 	andeq	r0, r0, r4, lsr #32
 5f0:	83080e42 	movwhi	r0, #36418	; 0x8e42
 5f4:	00018e02 	andeq	r8, r1, r2, lsl #28
 5f8:	00000018 	andeq	r0, r0, r8, lsl r0
 5fc:	00000550 	andeq	r0, r0, r0, asr r5
 600:	0000953c 	andeq	r9, r0, ip, lsr r5
 604:	000000d8 	ldrdeq	r0, [r0], -r8
 608:	84100e42 	ldrhi	r0, [r0], #-3650	; 0xe42
 60c:	86038504 	strhi	r8, [r3], -r4, lsl #10
 610:	00018e02 	andeq	r8, r1, r2, lsl #28
 614:	00000014 	andeq	r0, r0, r4, lsl r0
 618:	00000550 	andeq	r0, r0, r0, asr r5
 61c:	00009614 	andeq	r9, r0, r4, lsl r6
 620:	0000002c 	andeq	r0, r0, ip, lsr #32
 624:	83080e42 	movwhi	r0, #36418	; 0x8e42
 628:	00018e02 	andeq	r8, r1, r2, lsl #28
 62c:	00000018 	andeq	r0, r0, r8, lsl r0
 630:	00000550 	andeq	r0, r0, r0, asr r5
 634:	00009640 	andeq	r9, r0, r0, asr #12
 638:	00000084 	andeq	r0, r0, r4, lsl #1
 63c:	83100e42 	tsthi	r0, #1056	; 0x420
 640:	85038404 	strhi	r8, [r3, #-1028]	; 0x404
 644:	00018e02 	andeq	r8, r1, r2, lsl #28
 648:	00000018 	andeq	r0, r0, r8, lsl r0
 64c:	00000550 	andeq	r0, r0, r0, asr r5
 650:	000096c4 	andeq	r9, r0, r4, asr #13
 654:	00000084 	andeq	r0, r0, r4, lsl #1
 658:	83100e42 	tsthi	r0, #1056	; 0x420
 65c:	85038404 	strhi	r8, [r3, #-1028]	; 0x404
 660:	00018e02 	andeq	r8, r1, r2, lsl #28
 664:	00000014 	andeq	r0, r0, r4, lsl r0
 668:	00000550 	andeq	r0, r0, r0, asr r5
 66c:	00009748 	andeq	r9, r0, r8, asr #14
 670:	00000084 	andeq	r0, r0, r4, lsl #1
 674:	84080e42 	strhi	r0, [r8], #-3650	; 0xe42
 678:	00018e02 	andeq	r8, r1, r2, lsl #28
 67c:	00000014 	andeq	r0, r0, r4, lsl r0
 680:	00000550 	andeq	r0, r0, r0, asr r5
 684:	000097cc 	andeq	r9, r0, ip, asr #15
 688:	00000058 	andeq	r0, r0, r8, asr r0
 68c:	84080e42 	strhi	r0, [r8], #-3650	; 0xe42
 690:	00018e02 	andeq	r8, r1, r2, lsl #28
 694:	0000000c 	andeq	r0, r0, ip
 698:	ffffffff 			; <UNDEFINED> instruction: 0xffffffff
 69c:	7c020001 	stcvc	0, cr0, [r2], {1}
 6a0:	000d0c0e 	andeq	r0, sp, lr, lsl #24
 6a4:	00000014 	andeq	r0, r0, r4, lsl r0
 6a8:	00000694 	muleq	r0, r4, r6
 6ac:	00009824 	andeq	r9, r0, r4, lsr #16
 6b0:	00000028 	andeq	r0, r0, r8, lsr #32
 6b4:	83080e42 	movwhi	r0, #36418	; 0x8e42
 6b8:	00018e02 	andeq	r8, r1, r2, lsl #28
 6bc:	0000000c 	andeq	r0, r0, ip
 6c0:	00000694 	muleq	r0, r4, r6
 6c4:	0000984c 	andeq	r9, r0, ip, asr #16
 6c8:	00000028 	andeq	r0, r0, r8, lsr #32
