
pi-vmm.elf:     file format elf32-littlearm


Disassembly of section .text:

00008000 <_start>:
    8000:	e3a0d302 	mov	sp, #134217728	; 0x8000000
    8004:	e3a0b000 	mov	fp, #0
    8008:	eb00025e 	bl	8988 <_cstart>
    800c:	eb00028c 	bl	8a44 <rpi_reboot>

00008010 <read_exact>:
    8010:	e92d4070 	push	{r4, r5, r6, lr}
    8014:	e1a06000 	mov	r6, r0
    8018:	e1a05001 	mov	r5, r1
    801c:	e3a04000 	mov	r4, #0
    8020:	ea000002 	b	8030 <read_exact+0x20>
    8024:	eb00087f 	bl	a228 <uart_getc_int>
    8028:	e7c60004 	strb	r0, [r6, r4]
    802c:	e2844001 	add	r4, r4, #1
    8030:	e1540005 	cmp	r4, r5
    8034:	3afffffa 	bcc	8024 <read_exact+0x14>
    8038:	e8bd8070 	pop	{r4, r5, r6, pc}

0000803c <get_uint32>:
    803c:	e52de004 	push	{lr}		; (str lr, [sp, #-4]!)
    8040:	e24dd00c 	sub	sp, sp, #12
    8044:	e28d0004 	add	r0, sp, #4
    8048:	e3a01004 	mov	r1, #4
    804c:	ebffffef 	bl	8010 <read_exact>
    8050:	e59d0004 	ldr	r0, [sp, #4]
    8054:	e28dd00c 	add	sp, sp, #12
    8058:	e49df004 	pop	{pc}		; (ldr pc, [sp], #4)

0000805c <net_putchar>:
    805c:	e92d4010 	push	{r4, lr}
    8060:	e1a04000 	mov	r4, r0
    8064:	e3a00003 	mov	r0, #3
    8068:	eb00088b 	bl	a29c <uart_putc_int>
    806c:	e6ef0074 	uxtb	r0, r4
    8070:	eb000889 	bl	a29c <uart_putc_int>
    8074:	e1a00004 	mov	r0, r4
    8078:	e8bd8010 	pop	{r4, pc}

0000807c <write_exact>:
    807c:	e92d4070 	push	{r4, r5, r6, lr}
    8080:	e1a06000 	mov	r6, r0
    8084:	e1a05001 	mov	r5, r1
    8088:	e3a04000 	mov	r4, #0
    808c:	ea000002 	b	809c <write_exact+0x20>
    8090:	e7d60004 	ldrb	r0, [r6, r4]
    8094:	eb000880 	bl	a29c <uart_putc_int>
    8098:	e2844001 	add	r4, r4, #1
    809c:	e1540005 	cmp	r4, r5
    80a0:	3afffffa 	bcc	8090 <write_exact+0x14>
    80a4:	e8bd8070 	pop	{r4, r5, r6, pc}

000080a8 <put_uint32>:
    80a8:	e52de004 	push	{lr}		; (str lr, [sp, #-4]!)
    80ac:	e24dd00c 	sub	sp, sp, #12
    80b0:	e28d3008 	add	r3, sp, #8
    80b4:	e5230004 	str	r0, [r3, #-4]!
    80b8:	e1a00003 	mov	r0, r3
    80bc:	e3a01004 	mov	r1, #4
    80c0:	ebffffed 	bl	807c <write_exact>
    80c4:	e28dd00c 	add	sp, sp, #12
    80c8:	e49df004 	pop	{pc}		; (ldr pc, [sp], #4)

000080cc <send_ack>:
    80cc:	e92d4008 	push	{r3, lr}
    80d0:	e3100080 	tst	r0, #128	; 0x80
    80d4:	08bd8008 	popeq	{r3, pc}
    80d8:	e3a00001 	mov	r0, #1
    80dc:	eb00086e 	bl	a29c <uart_putc_int>
    80e0:	e8bd8008 	pop	{r3, pc}

000080e4 <interrupt_vector>:
    80e4:	e92d4008 	push	{r3, lr}
    80e8:	eb000814 	bl	a140 <uart_interrupt_handler>
    80ec:	e8bd8008 	pop	{r3, pc}

000080f0 <notmain>:
    80f0:	e92d4ff0 	push	{r4, r5, r6, r7, r8, r9, sl, fp, lr}
    80f4:	e24dd801 	sub	sp, sp, #65536	; 0x10000
    80f8:	e24dd00c 	sub	sp, sp, #12
    80fc:	eb0005bb 	bl	97f0 <int_init>
    8100:	eb00070f 	bl	9d44 <uart_init_with_interrupts>
    8104:	eb000653 	bl	9a58 <system_enable_interrupts>
    8108:	e59f0250 	ldr	r0, [pc, #592]	; 8360 <notmain+0x270>
    810c:	eb0000bc 	bl	8404 <rpi_set_putc>
    8110:	eb000844 	bl	a228 <uart_getc_int>
    8114:	e3500001 	cmp	r0, #1
    8118:	0a000006 	beq	8138 <notmain+0x48>
    811c:	eb0000b2 	bl	83ec <rpi_reset_putc>
    8120:	e59f023c 	ldr	r0, [pc, #572]	; 8364 <notmain+0x274>
    8124:	e59f123c 	ldr	r1, [pc, #572]	; 8368 <notmain+0x278>
    8128:	e59f223c 	ldr	r2, [pc, #572]	; 836c <notmain+0x27c>
    812c:	e3a03054 	mov	r3, #84	; 0x54
    8130:	eb000092 	bl	8380 <printk>
    8134:	eb000201 	bl	8940 <clean_reboot>
    8138:	e3a00001 	mov	r0, #1
    813c:	eb000856 	bl	a29c <uart_putc_int>
    8140:	e59f0228 	ldr	r0, [pc, #552]	; 8370 <notmain+0x280>
    8144:	eb00008d 	bl	8380 <printk>
    8148:	e3a0b012 	mov	fp, #18
    814c:	e3a08000 	mov	r8, #0
    8150:	e28d6008 	add	r6, sp, #8
    8154:	e59fa218 	ldr	sl, [pc, #536]	; 8374 <notmain+0x284>
    8158:	e59f9218 	ldr	r9, [pc, #536]	; 8378 <notmain+0x288>
    815c:	eb000831 	bl	a228 <uart_getc_int>
    8160:	e1a04000 	mov	r4, r0
    8164:	e200307f 	and	r3, r0, #127	; 0x7f
    8168:	e2433003 	sub	r3, r3, #3
    816c:	e353000e 	cmp	r3, #14
    8170:	979ff103 	ldrls	pc, [pc, r3, lsl #2]
    8174:	ea000070 	b	833c <notmain+0x24c>
    8178:	00008280 	andeq	r8, r0, r0, lsl #5
    817c:	000081b4 			; <UNDEFINED> instruction: 0x000081b4
    8180:	0000833c 	andeq	r8, r0, ip, lsr r3
    8184:	0000833c 	andeq	r8, r0, ip, lsr r3
    8188:	00008210 	andeq	r8, r0, r0, lsl r2
    818c:	0000833c 	andeq	r8, r0, ip, lsr r3
    8190:	000082ac 	andeq	r8, r0, ip, lsr #5
    8194:	0000833c 	andeq	r8, r0, ip, lsr r3
    8198:	000082e8 	andeq	r8, r0, r8, ror #5
    819c:	00008294 	muleq	r0, r4, r2
    81a0:	000082d0 	ldrdeq	r8, [r0], -r0
    81a4:	0000830c 	andeq	r8, r0, ip, lsl #6
    81a8:	00008324 	andeq	r8, r0, r4, lsr #6
    81ac:	000081ec 	andeq	r8, r0, ip, ror #3
    81b0:	000081cc 	andeq	r8, r0, ip, asr #3
    81b4:	eb0007c5 	bl	a0d0 <uart_int_flush_all>
    81b8:	e6ef0074 	uxtb	r0, r4
    81bc:	ebffffc2 	bl	80cc <send_ack>
    81c0:	e3a00064 	mov	r0, #100	; 0x64
    81c4:	eb000248 	bl	8aec <delay_ms>
    81c8:	eb00021d 	bl	8a44 <rpi_reboot>
    81cc:	ebffff9a 	bl	803c <get_uint32>
    81d0:	eb00061b 	bl	9a44 <GET32>
    81d4:	e1a04000 	mov	r4, r0
    81d8:	e1a0000b 	mov	r0, fp
    81dc:	eb00082e 	bl	a29c <uart_putc_int>
    81e0:	e1a00004 	mov	r0, r4
    81e4:	ebffffaf 	bl	80a8 <put_uint32>
    81e8:	eaffffdb 	b	815c <notmain+0x6c>
    81ec:	ebffff92 	bl	803c <get_uint32>
    81f0:	e1a05000 	mov	r5, r0
    81f4:	ebffff90 	bl	803c <get_uint32>
    81f8:	e1a01000 	mov	r1, r0
    81fc:	e1a00005 	mov	r0, r5
    8200:	eb000603 	bl	9a14 <PUT32>
    8204:	e6ef0074 	uxtb	r0, r4
    8208:	ebffffaf 	bl	80cc <send_ack>
    820c:	eaffffd2 	b	815c <notmain+0x6c>
    8210:	e6ef0070 	uxtb	r0, r0
    8214:	ebffffac 	bl	80cc <send_ack>
    8218:	ebffff87 	bl	803c <get_uint32>
    821c:	ebffff86 	bl	803c <get_uint32>
    8220:	ebffff85 	bl	803c <get_uint32>
    8224:	e1a07000 	mov	r7, r0
    8228:	ebffff83 	bl	803c <get_uint32>
    822c:	e1a05000 	mov	r5, r0
    8230:	ebffff81 	bl	803c <get_uint32>
    8234:	e1a04008 	mov	r4, r8
    8238:	ea000002 	b	8248 <notmain+0x158>
    823c:	eb0007f9 	bl	a228 <uart_getc_int>
    8240:	e7c60004 	strb	r0, [r6, r4]
    8244:	e2844001 	add	r4, r4, #1
    8248:	e1550004 	cmp	r5, r4
    824c:	8afffffa 	bhi	823c <notmain+0x14c>
    8250:	e1a04008 	mov	r4, r8
    8254:	ea000004 	b	826c <notmain+0x17c>
    8258:	e0870004 	add	r0, r7, r4
    825c:	e2800010 	add	r0, r0, #16
    8260:	e7d61004 	ldrb	r1, [r6, r4]
    8264:	eb0005f2 	bl	9a34 <PUT8>
    8268:	e2844001 	add	r4, r4, #1
    826c:	e1550004 	cmp	r5, r4
    8270:	8afffff8 	bhi	8258 <notmain+0x168>
    8274:	e2870010 	add	r0, r7, #16
    8278:	eb0005dc 	bl	99f0 <BRANCHTO>
    827c:	eaffffb6 	b	815c <notmain+0x6c>
    8280:	e1a0000a 	mov	r0, sl
    8284:	eb00003d 	bl	8380 <printk>
    8288:	e1a00009 	mov	r0, r9
    828c:	eb00003b 	bl	8380 <printk>
    8290:	eaffffb1 	b	815c <notmain+0x6c>
    8294:	eb0007e3 	bl	a228 <uart_getc_int>
    8298:	e6ef0070 	uxtb	r0, r0
    829c:	eb00026d 	bl	8c58 <gpio_set_input>
    82a0:	e6ef0074 	uxtb	r0, r4
    82a4:	ebffff88 	bl	80cc <send_ack>
    82a8:	eaffffab 	b	815c <notmain+0x6c>
    82ac:	eb0007dd 	bl	a228 <uart_getc_int>
    82b0:	e6ef0070 	uxtb	r0, r0
    82b4:	eb00029a 	bl	8d24 <gpio_read>
    82b8:	e1a04000 	mov	r4, r0
    82bc:	e3a0000a 	mov	r0, #10
    82c0:	eb0007f5 	bl	a29c <uart_putc_int>
    82c4:	e1a00004 	mov	r0, r4
    82c8:	ebffff76 	bl	80a8 <put_uint32>
    82cc:	eaffffa2 	b	815c <notmain+0x6c>
    82d0:	eb0007d4 	bl	a228 <uart_getc_int>
    82d4:	e6ef0070 	uxtb	r0, r0
    82d8:	eb00020d 	bl	8b14 <gpio_set_output>
    82dc:	e6ef0074 	uxtb	r0, r4
    82e0:	ebffff79 	bl	80cc <send_ack>
    82e4:	eaffff9c 	b	815c <notmain+0x6c>
    82e8:	eb0007ce 	bl	a228 <uart_getc_int>
    82ec:	e1a05000 	mov	r5, r0
    82f0:	ebffff51 	bl	803c <get_uint32>
    82f4:	e1a01000 	mov	r1, r0
    82f8:	e6ef0075 	uxtb	r0, r5
    82fc:	eb00029b 	bl	8d70 <gpio_write>
    8300:	e6ef0074 	uxtb	r0, r4
    8304:	ebffff70 	bl	80cc <send_ack>
    8308:	eaffff93 	b	815c <notmain+0x6c>
    830c:	eb0007c5 	bl	a228 <uart_getc_int>
    8310:	e6ef0070 	uxtb	r0, r0
    8314:	eb000233 	bl	8be8 <gpio_set_on>
    8318:	e6ef0074 	uxtb	r0, r4
    831c:	ebffff6a 	bl	80cc <send_ack>
    8320:	eaffff8d 	b	815c <notmain+0x6c>
    8324:	eb0007bf 	bl	a228 <uart_getc_int>
    8328:	e6ef0070 	uxtb	r0, r0
    832c:	eb00023b 	bl	8c20 <gpio_set_off>
    8330:	e6ef0074 	uxtb	r0, r4
    8334:	ebffff64 	bl	80cc <send_ack>
    8338:	eaffff87 	b	815c <notmain+0x6c>
    833c:	eb00002a 	bl	83ec <rpi_reset_putc>
    8340:	e6ef4074 	uxtb	r4, r4
    8344:	e58d4000 	str	r4, [sp]
    8348:	e59f002c 	ldr	r0, [pc, #44]	; 837c <notmain+0x28c>
    834c:	e59f1014 	ldr	r1, [pc, #20]	; 8368 <notmain+0x278>
    8350:	e59f2014 	ldr	r2, [pc, #20]	; 836c <notmain+0x27c>
    8354:	e3a030c6 	mov	r3, #198	; 0xc6
    8358:	eb000008 	bl	8380 <printk>
    835c:	eb000177 	bl	8940 <clean_reboot>
    8360:	0000805c 	andeq	r8, r0, ip, asr r0
    8364:	0000a470 	andeq	sl, r0, r0, ror r4
    8368:	0000a494 	muleq	r0, r4, r4
    836c:	0000a468 	andeq	sl, r0, r8, ror #8
    8370:	0000a4a0 	andeq	sl, r0, r0, lsr #9
    8374:	0000a4c0 	andeq	sl, r0, r0, asr #9
    8378:	0000a504 	andeq	sl, r0, r4, lsl #10
    837c:	0000a51c 	andeq	sl, r0, ip, lsl r5

00008380 <printk>:
    8380:	e92d000f 	push	{r0, r1, r2, r3}
    8384:	e92d4030 	push	{r4, r5, lr}
    8388:	e24dd00c 	sub	sp, sp, #12
    838c:	e28d301c 	add	r3, sp, #28
    8390:	e58d3004 	str	r3, [sp, #4]
    8394:	e59f4034 	ldr	r4, [pc, #52]	; 83d0 <printk+0x50>
    8398:	e1a00004 	mov	r0, r4
    839c:	e3a01b01 	mov	r1, #1024	; 0x400
    83a0:	e59d2018 	ldr	r2, [sp, #24]
    83a4:	eb0000c3 	bl	86b8 <va_printk>
    83a8:	e1a05000 	mov	r5, r0
    83ac:	e59f3020 	ldr	r3, [pc, #32]	; 83d4 <printk+0x54>
    83b0:	e5933000 	ldr	r3, [r3]
    83b4:	e1a00004 	mov	r0, r4
    83b8:	e12fff33 	blx	r3
    83bc:	e1a00005 	mov	r0, r5
    83c0:	e28dd00c 	add	sp, sp, #12
    83c4:	e8bd4030 	pop	{r4, r5, lr}
    83c8:	e28dd010 	add	sp, sp, #16
    83cc:	e12fff1e 	bx	lr
    83d0:	0000ab7c 	andeq	sl, r0, ip, ror fp
    83d4:	0000a3d0 	ldrdeq	sl, [r0], -r0

000083d8 <internal_putchar>:
    83d8:	e92d4010 	push	{r4, lr}
    83dc:	e1a04000 	mov	r4, r0
    83e0:	eb0004ec 	bl	9798 <uart_putc>
    83e4:	e1a00004 	mov	r0, r4
    83e8:	e8bd8010 	pop	{r4, pc}

000083ec <rpi_reset_putc>:
    83ec:	e59f2008 	ldr	r2, [pc, #8]	; 83fc <rpi_reset_putc+0x10>
    83f0:	e59f3008 	ldr	r3, [pc, #8]	; 8400 <rpi_reset_putc+0x14>
    83f4:	e5832000 	str	r2, [r3]
    83f8:	e12fff1e 	bx	lr
    83fc:	000083d8 	ldrdeq	r8, [r0], -r8	; <UNPREDICTABLE>
    8400:	0000a3cc 	andeq	sl, r0, ip, asr #7

00008404 <rpi_set_putc>:
    8404:	e59f3004 	ldr	r3, [pc, #4]	; 8410 <rpi_set_putc+0xc>
    8408:	e5830000 	str	r0, [r3]
    840c:	e12fff1e 	bx	lr
    8410:	0000a3cc 	andeq	sl, r0, ip, asr #7

00008414 <internal_putk>:
    8414:	e92d4038 	push	{r3, r4, r5, lr}
    8418:	e1a04000 	mov	r4, r0
    841c:	e59f5020 	ldr	r5, [pc, #32]	; 8444 <internal_putk+0x30>
    8420:	ea000002 	b	8430 <internal_putk+0x1c>
    8424:	e5953000 	ldr	r3, [r5]
    8428:	e12fff33 	blx	r3
    842c:	e2844001 	add	r4, r4, #1
    8430:	e5d40000 	ldrb	r0, [r4]
    8434:	e3500000 	cmp	r0, #0
    8438:	1afffff9 	bne	8424 <internal_putk+0x10>
    843c:	e3a00001 	mov	r0, #1
    8440:	e8bd8038 	pop	{r3, r4, r5, pc}
    8444:	0000a3cc 	andeq	sl, r0, ip, asr #7

00008448 <isdigit>:
    8448:	e2400030 	sub	r0, r0, #48	; 0x30
    844c:	e3500009 	cmp	r0, #9
    8450:	83a00000 	movhi	r0, #0
    8454:	93a00001 	movls	r0, #1
    8458:	e12fff1e 	bx	lr

0000845c <pad>:
    845c:	e0611000 	rsb	r1, r1, r0
    8460:	e3a03020 	mov	r3, #32
    8464:	ea000002 	b	8474 <pad+0x18>
    8468:	e5c03000 	strb	r3, [r0]
    846c:	e2811001 	add	r1, r1, #1
    8470:	e2800001 	add	r0, r0, #1
    8474:	e1510002 	cmp	r1, r2
    8478:	bafffffa 	blt	8468 <pad+0xc>
    847c:	e3a03000 	mov	r3, #0
    8480:	e5c03000 	strb	r3, [r0]
    8484:	e12fff1e 	bx	lr

00008488 <reverse>:
    8488:	e063c002 	rsb	ip, r3, r2
    848c:	e28cc001 	add	ip, ip, #1
    8490:	e15c0001 	cmp	ip, r1
    8494:	c061100c 	rsbgt	r1, r1, ip
    8498:	c0833001 	addgt	r3, r3, r1
    849c:	e2422001 	sub	r2, r2, #1
    84a0:	e1a01000 	mov	r1, r0
    84a4:	ea000002 	b	84b4 <reverse+0x2c>
    84a8:	e452c001 	ldrb	ip, [r2], #-1
    84ac:	e5c1c000 	strb	ip, [r1]
    84b0:	e2811001 	add	r1, r1, #1
    84b4:	e1520003 	cmp	r2, r3
    84b8:	2afffffa 	bcs	84a8 <reverse+0x20>
    84bc:	e3a03000 	mov	r3, #0
    84c0:	e5c13000 	strb	r3, [r1]
    84c4:	e12fff1e 	bx	lr

000084c8 <emit>:
    84c8:	e92d41f0 	push	{r4, r5, r6, r7, r8, lr}
    84cc:	e24dd040 	sub	sp, sp, #64	; 0x40
    84d0:	e1a05001 	mov	r5, r1
    84d4:	e1a04002 	mov	r4, r2
    84d8:	e59d2058 	ldr	r2, [sp, #88]	; 0x58
    84dc:	e1520004 	cmp	r2, r4
    84e0:	c2442001 	subgt	r2, r4, #1
    84e4:	e1a0c003 	mov	ip, r3
    84e8:	e2400002 	sub	r0, r0, #2
    84ec:	e350000e 	cmp	r0, #14
    84f0:	979ff100 	ldrls	pc, [pc, r0, lsl #2]
    84f4:	ea000042 	b	8604 <emit+0x13c>
    84f8:	000085dc 	ldrdeq	r8, [r0], -ip
    84fc:	00008604 	andeq	r8, r0, r4, lsl #12
    8500:	00008604 	andeq	r8, r0, r4, lsl #12
    8504:	00008604 	andeq	r8, r0, r4, lsl #12
    8508:	00008604 	andeq	r8, r0, r4, lsl #12
    850c:	00008604 	andeq	r8, r0, r4, lsl #12
    8510:	000085d0 	ldrdeq	r8, [r0], -r0
    8514:	00008604 	andeq	r8, r0, r4, lsl #12
    8518:	00008534 	andeq	r8, r0, r4, lsr r5
    851c:	00008604 	andeq	r8, r0, r4, lsl #12
    8520:	00008604 	andeq	r8, r0, r4, lsl #12
    8524:	00008604 	andeq	r8, r0, r4, lsl #12
    8528:	00008604 	andeq	r8, r0, r4, lsl #12
    852c:	00008604 	andeq	r8, r0, r4, lsl #12
    8530:	000085a8 	andeq	r8, r0, r8, lsr #11
    8534:	e59d105c 	ldr	r1, [sp, #92]	; 0x5c
    8538:	e2911000 	adds	r1, r1, #0
    853c:	13a01001 	movne	r1, #1
    8540:	e0111fa3 	ands	r1, r1, r3, lsr #31
    8544:	1263c000 	rsbne	ip, r3, #0
    8548:	13a08001 	movne	r8, #1
    854c:	03a08000 	moveq	r8, #0
    8550:	e1a0100d 	mov	r1, sp
    8554:	e59f70ec 	ldr	r7, [pc, #236]	; 8648 <emit+0x180>
    8558:	e59f60ec 	ldr	r6, [pc, #236]	; 864c <emit+0x184>
    855c:	ea000000 	b	8564 <emit+0x9c>
    8560:	e1a01003 	mov	r1, r3
    8564:	e2813001 	add	r3, r1, #1
    8568:	e08e0c97 	umull	r0, lr, r7, ip
    856c:	e1a0e1ae 	lsr	lr, lr, #3
    8570:	e1a0000e 	mov	r0, lr
    8574:	e08ee10e 	add	lr, lr, lr, lsl #2
    8578:	e1a0e08e 	lsl	lr, lr, #1
    857c:	e06ee00c 	rsb	lr, lr, ip
    8580:	e7d6c00e 	ldrb	ip, [r6, lr]
    8584:	e5c1c000 	strb	ip, [r1]
    8588:	e1a0c000 	mov	ip, r0
    858c:	e3500000 	cmp	r0, #0
    8590:	1afffff2 	bne	8560 <emit+0x98>
    8594:	e3580000 	cmp	r8, #0
    8598:	12813002 	addne	r3, r1, #2
    859c:	13a0002d 	movne	r0, #45	; 0x2d
    85a0:	15c10001 	strbne	r0, [r1, #1]
    85a4:	ea00001d 	b	8620 <emit+0x158>
    85a8:	e1a0e00d 	mov	lr, sp
    85ac:	e59f009c 	ldr	r0, [pc, #156]	; 8650 <emit+0x188>
    85b0:	e28e3001 	add	r3, lr, #1
    85b4:	e20c100f 	and	r1, ip, #15
    85b8:	e7d01001 	ldrb	r1, [r0, r1]
    85bc:	e5ce1000 	strb	r1, [lr]
    85c0:	e1a0e003 	mov	lr, r3
    85c4:	e1b0c22c 	lsrs	ip, ip, #4
    85c8:	1afffff8 	bne	85b0 <emit+0xe8>
    85cc:	ea000013 	b	8620 <emit+0x158>
    85d0:	e5cd3000 	strb	r3, [sp]
    85d4:	e28d3001 	add	r3, sp, #1
    85d8:	ea000010 	b	8620 <emit+0x158>
    85dc:	e1a0e00d 	mov	lr, sp
    85e0:	e59f006c 	ldr	r0, [pc, #108]	; 8654 <emit+0x18c>
    85e4:	e28e3001 	add	r3, lr, #1
    85e8:	e20c1001 	and	r1, ip, #1
    85ec:	e7d01001 	ldrb	r1, [r0, r1]
    85f0:	e5ce1000 	strb	r1, [lr]
    85f4:	e1a0e003 	mov	lr, r3
    85f8:	e1b0c0ac 	lsrs	ip, ip, #1
    85fc:	1afffff8 	bne	85e4 <emit+0x11c>
    8600:	ea000006 	b	8620 <emit+0x158>
    8604:	ebffff78 	bl	83ec <rpi_reset_putc>
    8608:	e59f0048 	ldr	r0, [pc, #72]	; 8658 <emit+0x190>
    860c:	e59f1048 	ldr	r1, [pc, #72]	; 865c <emit+0x194>
    8610:	e59f2048 	ldr	r2, [pc, #72]	; 8660 <emit+0x198>
    8614:	e3a03075 	mov	r3, #117	; 0x75
    8618:	ebffff58 	bl	8380 <printk>
    861c:	eb0000c7 	bl	8940 <clean_reboot>
    8620:	e1a00003 	mov	r0, r3
    8624:	e1a0100d 	mov	r1, sp
    8628:	ebffff8b 	bl	845c <pad>
    862c:	e1a02000 	mov	r2, r0
    8630:	e1a00005 	mov	r0, r5
    8634:	e1a01004 	mov	r1, r4
    8638:	e1a0300d 	mov	r3, sp
    863c:	ebffff91 	bl	8488 <reverse>
    8640:	e28dd040 	add	sp, sp, #64	; 0x40
    8644:	e8bd81f0 	pop	{r4, r5, r6, r7, r8, pc}
    8648:	cccccccd 	stclgt	12, cr12, [ip], {205}	; 0xcd
    864c:	0000a58c 	andeq	sl, r0, ip, lsl #11
    8650:	0000a598 	muleq	r0, r8, r5
    8654:	0000a5ac 	andeq	sl, r0, ip, lsr #11
    8658:	0000a564 	andeq	sl, r0, r4, ror #10
    865c:	0000a578 	andeq	sl, r0, r8, ror r5
    8660:	0000a540 	andeq	sl, r0, r0, asr #10

00008664 <rpi_set_output>:
    8664:	e92d4008 	push	{r3, lr}
    8668:	e3500000 	cmp	r0, #0
    866c:	1a000006 	bne	868c <rpi_set_output+0x28>
    8670:	ebffff5d 	bl	83ec <rpi_reset_putc>
    8674:	e59f0028 	ldr	r0, [pc, #40]	; 86a4 <rpi_set_output+0x40>
    8678:	e59f1028 	ldr	r1, [pc, #40]	; 86a8 <rpi_set_output+0x44>
    867c:	e59f2028 	ldr	r2, [pc, #40]	; 86ac <rpi_set_output+0x48>
    8680:	e3a03020 	mov	r3, #32
    8684:	ebffff3d 	bl	8380 <printk>
    8688:	eb0000ac 	bl	8940 <clean_reboot>
    868c:	e59f301c 	ldr	r3, [pc, #28]	; 86b0 <rpi_set_output+0x4c>
    8690:	e5830000 	str	r0, [r3]
    8694:	e3510000 	cmp	r1, #0
    8698:	159f3014 	ldrne	r3, [pc, #20]	; 86b4 <rpi_set_output+0x50>
    869c:	15831000 	strne	r1, [r3]
    86a0:	e8bd8008 	pop	{r3, pc}
    86a4:	0000a5b0 			; <UNDEFINED> instruction: 0x0000a5b0
    86a8:	0000a578 	andeq	sl, r0, r8, ror r5
    86ac:	0000a548 	andeq	sl, r0, r8, asr #10
    86b0:	0000a3cc 	andeq	sl, r0, ip, asr #7
    86b4:	0000a3d0 	ldrdeq	sl, [r0], -r0

000086b8 <va_printk>:
    86b8:	e92d4ff0 	push	{r4, r5, r6, r7, r8, r9, sl, fp, lr}
    86bc:	e24dd08c 	sub	sp, sp, #140	; 0x8c
    86c0:	e1a0a000 	mov	sl, r0
    86c4:	e1a09003 	mov	r9, r3
    86c8:	e2411001 	sub	r1, r1, #1
    86cc:	e0808001 	add	r8, r0, r1
    86d0:	e3a03000 	mov	r3, #0
    86d4:	e5c03000 	strb	r3, [r0]
    86d8:	e1a04000 	mov	r4, r0
    86dc:	e1a0b003 	mov	fp, r3
    86e0:	ea000086 	b	8900 <va_printk+0x248>
    86e4:	e3530025 	cmp	r3, #37	; 0x25
    86e8:	12822001 	addne	r2, r2, #1
    86ec:	15c43000 	strbne	r3, [r4]
    86f0:	12844001 	addne	r4, r4, #1
    86f4:	1a000081 	bne	8900 <va_printk+0x248>
    86f8:	e5d21001 	ldrb	r1, [r2, #1]
    86fc:	e3510025 	cmp	r1, #37	; 0x25
    8700:	05c43000 	strbeq	r3, [r4]
    8704:	02822002 	addeq	r2, r2, #2
    8708:	02844001 	addeq	r4, r4, #1
    870c:	0a00007b 	beq	8900 <va_printk+0x248>
    8710:	e2826001 	add	r6, r2, #1
    8714:	e1a0700b 	mov	r7, fp
    8718:	ea000004 	b	8730 <va_printk+0x78>
    871c:	e0877107 	add	r7, r7, r7, lsl #2
    8720:	e1a07087 	lsl	r7, r7, #1
    8724:	e0877005 	add	r7, r7, r5
    8728:	e2477030 	sub	r7, r7, #48	; 0x30
    872c:	e2866001 	add	r6, r6, #1
    8730:	e5d65000 	ldrb	r5, [r6]
    8734:	e1a00005 	mov	r0, r5
    8738:	ebffff42 	bl	8448 <isdigit>
    873c:	e3500000 	cmp	r0, #0
    8740:	1afffff5 	bne	871c <va_printk+0x64>
    8744:	e357001f 	cmp	r7, #31
    8748:	9a000006 	bls	8768 <va_printk+0xb0>
    874c:	ebffff26 	bl	83ec <rpi_reset_putc>
    8750:	e59f01d4 	ldr	r0, [pc, #468]	; 892c <va_printk+0x274>
    8754:	e59f11d4 	ldr	r1, [pc, #468]	; 8930 <va_printk+0x278>
    8758:	e59f21d4 	ldr	r2, [pc, #468]	; 8934 <va_printk+0x27c>
    875c:	e3a03092 	mov	r3, #146	; 0x92
    8760:	ebffff06 	bl	8380 <printk>
    8764:	eb000075 	bl	8940 <clean_reboot>
    8768:	e2455062 	sub	r5, r5, #98	; 0x62
    876c:	e3550016 	cmp	r5, #22
    8770:	979ff105 	ldrls	pc, [pc, r5, lsl #2]
    8774:	ea00004e 	b	88b4 <va_printk+0x1fc>
    8778:	00008860 	andeq	r8, r0, r0, ror #16
    877c:	00008890 	muleq	r0, r0, r8
    8780:	000087f0 	strdeq	r8, [r0], -r0
    8784:	000088b4 			; <UNDEFINED> instruction: 0x000088b4
    8788:	000087d4 	ldrdeq	r8, [r0], -r4
    878c:	000088b4 			; <UNDEFINED> instruction: 0x000088b4
    8790:	000088b4 			; <UNDEFINED> instruction: 0x000088b4
    8794:	000088b4 			; <UNDEFINED> instruction: 0x000088b4
    8798:	000088b4 			; <UNDEFINED> instruction: 0x000088b4
    879c:	000088b4 			; <UNDEFINED> instruction: 0x000088b4
    87a0:	000088b4 			; <UNDEFINED> instruction: 0x000088b4
    87a4:	000088b4 			; <UNDEFINED> instruction: 0x000088b4
    87a8:	000088b4 			; <UNDEFINED> instruction: 0x000088b4
    87ac:	000088b4 			; <UNDEFINED> instruction: 0x000088b4
    87b0:	0000883c 	andeq	r8, r0, ip, lsr r8
    87b4:	000088b4 			; <UNDEFINED> instruction: 0x000088b4
    87b8:	000088b4 			; <UNDEFINED> instruction: 0x000088b4
    87bc:	00008884 	andeq	r8, r0, r4, lsl #17
    87c0:	000088b4 			; <UNDEFINED> instruction: 0x000088b4
    87c4:	00008818 	andeq	r8, r0, r8, lsl r8
    87c8:	000088b4 			; <UNDEFINED> instruction: 0x000088b4
    87cc:	000088b4 			; <UNDEFINED> instruction: 0x000088b4
    87d0:	0000883c 	andeq	r8, r0, ip, lsr r8
    87d4:	ebffff04 	bl	83ec <rpi_reset_putc>
    87d8:	e59f0158 	ldr	r0, [pc, #344]	; 8938 <va_printk+0x280>
    87dc:	e59f114c 	ldr	r1, [pc, #332]	; 8930 <va_printk+0x278>
    87e0:	e59f214c 	ldr	r2, [pc, #332]	; 8934 <va_printk+0x27c>
    87e4:	e3a03098 	mov	r3, #152	; 0x98
    87e8:	ebfffee4 	bl	8380 <printk>
    87ec:	eb000053 	bl	8940 <clean_reboot>
    87f0:	e5993000 	ldr	r3, [r9]
    87f4:	e2899004 	add	r9, r9, #4
    87f8:	e58d7000 	str	r7, [sp]
    87fc:	e3a02001 	mov	r2, #1
    8800:	e58d2004 	str	r2, [sp, #4]
    8804:	e3a0000a 	mov	r0, #10
    8808:	e28d1008 	add	r1, sp, #8
    880c:	e3a02080 	mov	r2, #128	; 0x80
    8810:	ebffff2c 	bl	84c8 <emit>
    8814:	ea00002f 	b	88d8 <va_printk+0x220>
    8818:	e5993000 	ldr	r3, [r9]
    881c:	e2899004 	add	r9, r9, #4
    8820:	e58d7000 	str	r7, [sp]
    8824:	e58db004 	str	fp, [sp, #4]
    8828:	e3a0000a 	mov	r0, #10
    882c:	e28d1008 	add	r1, sp, #8
    8830:	e3a02080 	mov	r2, #128	; 0x80
    8834:	ebffff23 	bl	84c8 <emit>
    8838:	ea000026 	b	88d8 <va_printk+0x220>
    883c:	e5993000 	ldr	r3, [r9]
    8840:	e2899004 	add	r9, r9, #4
    8844:	e58d7000 	str	r7, [sp]
    8848:	e58db004 	str	fp, [sp, #4]
    884c:	e3a00010 	mov	r0, #16
    8850:	e28d1008 	add	r1, sp, #8
    8854:	e3a02080 	mov	r2, #128	; 0x80
    8858:	ebffff1a 	bl	84c8 <emit>
    885c:	ea00001d 	b	88d8 <va_printk+0x220>
    8860:	e5993000 	ldr	r3, [r9]
    8864:	e2899004 	add	r9, r9, #4
    8868:	e58d7000 	str	r7, [sp]
    886c:	e58db004 	str	fp, [sp, #4]
    8870:	e3a00002 	mov	r0, #2
    8874:	e28d1008 	add	r1, sp, #8
    8878:	e3a02080 	mov	r2, #128	; 0x80
    887c:	ebffff11 	bl	84c8 <emit>
    8880:	ea000014 	b	88d8 <va_printk+0x220>
    8884:	e5990000 	ldr	r0, [r9]
    8888:	e2899004 	add	r9, r9, #4
    888c:	ea000011 	b	88d8 <va_printk+0x220>
    8890:	e5993000 	ldr	r3, [r9]
    8894:	e2899004 	add	r9, r9, #4
    8898:	e58d7000 	str	r7, [sp]
    889c:	e58db004 	str	fp, [sp, #4]
    88a0:	e3a00008 	mov	r0, #8
    88a4:	e08d1000 	add	r1, sp, r0
    88a8:	e3a02080 	mov	r2, #128	; 0x80
    88ac:	ebffff05 	bl	84c8 <emit>
    88b0:	ea000008 	b	88d8 <va_printk+0x220>
    88b4:	ebfffecc 	bl	83ec <rpi_reset_putc>
    88b8:	e5d63000 	ldrb	r3, [r6]
    88bc:	e58d3000 	str	r3, [sp]
    88c0:	e59f0074 	ldr	r0, [pc, #116]	; 893c <va_printk+0x284>
    88c4:	e59f1064 	ldr	r1, [pc, #100]	; 8930 <va_printk+0x278>
    88c8:	e59f2064 	ldr	r2, [pc, #100]	; 8934 <va_printk+0x27c>
    88cc:	e3a030b9 	mov	r3, #185	; 0xb9
    88d0:	ebfffeaa 	bl	8380 <printk>
    88d4:	eb000019 	bl	8940 <clean_reboot>
    88d8:	e2862001 	add	r2, r6, #1
    88dc:	ea000002 	b	88ec <va_printk+0x234>
    88e0:	e2800001 	add	r0, r0, #1
    88e4:	e5c43000 	strb	r3, [r4]
    88e8:	e2844001 	add	r4, r4, #1
    88ec:	e1540008 	cmp	r4, r8
    88f0:	2a000002 	bcs	8900 <va_printk+0x248>
    88f4:	e5d03000 	ldrb	r3, [r0]
    88f8:	e3530000 	cmp	r3, #0
    88fc:	1afffff7 	bne	88e0 <va_printk+0x228>
    8900:	e5d23000 	ldrb	r3, [r2]
    8904:	e3530000 	cmp	r3, #0
    8908:	0a000001 	beq	8914 <va_printk+0x25c>
    890c:	e1540008 	cmp	r4, r8
    8910:	3affff73 	bcc	86e4 <va_printk+0x2c>
    8914:	e2840001 	add	r0, r4, #1
    8918:	e3a03000 	mov	r3, #0
    891c:	e5c43000 	strb	r3, [r4]
    8920:	e06a0000 	rsb	r0, sl, r0
    8924:	e28dd08c 	add	sp, sp, #140	; 0x8c
    8928:	e8bd8ff0 	pop	{r4, r5, r6, r7, r8, r9, sl, fp, pc}
    892c:	0000a5c8 	andeq	sl, r0, r8, asr #11
    8930:	0000a578 	andeq	sl, r0, r8, ror r5
    8934:	0000a558 	andeq	sl, r0, r8, asr r5
    8938:	0000a5e4 	andeq	sl, r0, r4, ror #11
    893c:	0000a60c 	andeq	sl, r0, ip, lsl #12

00008940 <clean_reboot>:
    8940:	e92d4008 	push	{r3, lr}
    8944:	e59f3014 	ldr	r3, [pc, #20]	; 8960 <clean_reboot+0x20>
    8948:	e5933000 	ldr	r3, [r3]
    894c:	e59f0010 	ldr	r0, [pc, #16]	; 8964 <clean_reboot+0x24>
    8950:	e12fff33 	blx	r3
    8954:	e3a00064 	mov	r0, #100	; 0x64
    8958:	eb000063 	bl	8aec <delay_ms>
    895c:	eb000038 	bl	8a44 <rpi_reboot>
    8960:	0000a3d0 	ldrdeq	sl, [r0], -r0
    8964:	0000a644 	andeq	sl, r0, r4, asr #12

00008968 <internal_sw_putchar>:
    8968:	e92d4010 	push	{r4, lr}
    896c:	e1a04000 	mov	r4, r0
    8970:	e59f000c 	ldr	r0, [pc, #12]	; 8984 <internal_sw_putchar+0x1c>
    8974:	e6ef1074 	uxtb	r1, r4
    8978:	eb0001bf 	bl	907c <sw_uart_putc>
    897c:	e1a00004 	mov	r0, r4
    8980:	e8bd8010 	pop	{r4, pc}
    8984:	0000af7c 	andeq	sl, r0, ip, ror pc

00008988 <_cstart>:
    8988:	e92d4008 	push	{r3, lr}
    898c:	e59f3068 	ldr	r3, [pc, #104]	; 89fc <_cstart+0x74>
    8990:	e59f2068 	ldr	r2, [pc, #104]	; 8a00 <_cstart+0x78>
    8994:	e3a01000 	mov	r1, #0
    8998:	ea000001 	b	89a4 <_cstart+0x1c>
    899c:	e5831000 	str	r1, [r3]
    89a0:	e2833004 	add	r3, r3, #4
    89a4:	e1530002 	cmp	r3, r2
    89a8:	3afffffb 	bcc	899c <_cstart+0x14>
    89ac:	eb00067c 	bl	a3a4 <cb_get_block>
    89b0:	e3500000 	cmp	r0, #0
    89b4:	0a00000e 	beq	89f4 <_cstart+0x6c>
    89b8:	e5d02004 	ldrb	r2, [r0, #4]
    89bc:	e3520002 	cmp	r2, #2
    89c0:	1a00000b 	bne	89f4 <_cstart+0x6c>
    89c4:	e59f1038 	ldr	r1, [pc, #56]	; 8a04 <_cstart+0x7c>
    89c8:	e59f2038 	ldr	r2, [pc, #56]	; 8a08 <_cstart+0x80>
    89cc:	e5821000 	str	r1, [r2]
    89d0:	e59fc034 	ldr	ip, [pc, #52]	; 8a0c <_cstart+0x84>
    89d4:	e2803008 	add	r3, r0, #8
    89d8:	e8930007 	ldm	r3, {r0, r1, r2}
    89dc:	e88c0007 	stm	ip, {r0, r1, r2}
    89e0:	e1a0000c 	mov	r0, ip
    89e4:	e59f1024 	ldr	r1, [pc, #36]	; 8a10 <_cstart+0x88>
    89e8:	eb0002f7 	bl	95cc <sw_uart_printk>
    89ec:	e59f0020 	ldr	r0, [pc, #32]	; 8a14 <_cstart+0x8c>
    89f0:	ebfffe62 	bl	8380 <printk>
    89f4:	ebfffdbd 	bl	80f0 <notmain>
    89f8:	eb000011 	bl	8a44 <rpi_reboot>
    89fc:	0000ab7c 	andeq	sl, r0, ip, ror fp
    8a00:	0000bfb8 			; <UNDEFINED> instruction: 0x0000bfb8
    8a04:	00008968 	andeq	r8, r0, r8, ror #18
    8a08:	0000a3cc 	andeq	sl, r0, ip, asr #7
    8a0c:	0000af7c 	andeq	sl, r0, ip, ror pc
    8a10:	0000a650 	andeq	sl, r0, r0, asr r6
    8a14:	0000a674 	andeq	sl, r0, r4, ror r6

00008a18 <at_user_level>:
    8a18:	e10f0000 	mrs	r0, CPSR
    8a1c:	e200001f 	and	r0, r0, #31
    8a20:	e3500010 	cmp	r0, #16
    8a24:	13a00000 	movne	r0, #0
    8a28:	03a00001 	moveq	r0, #1
    8a2c:	e12fff1e 	bx	lr

00008a30 <set_user_level>:
    8a30:	e10f3000 	mrs	r3, CPSR
    8a34:	e3c3301f 	bic	r3, r3, #31
    8a38:	e3833010 	orr	r3, r3, #16
    8a3c:	e129f003 	msr	CPSR_fc, r3
    8a40:	e12fff1e 	bx	lr

00008a44 <rpi_reboot>:
    8a44:	e92d4008 	push	{r3, lr}
    8a48:	ebfffff2 	bl	8a18 <at_user_level>
    8a4c:	e3500000 	cmp	r0, #0
    8a50:	0a000000 	beq	8a58 <rpi_reboot+0x14>
    8a54:	ebfffff5 	bl	8a30 <set_user_level>
    8a58:	e3a0001e 	mov	r0, #30
    8a5c:	eb000022 	bl	8aec <delay_ms>
    8a60:	e59f0014 	ldr	r0, [pc, #20]	; 8a7c <rpi_reboot+0x38>
    8a64:	e59f1014 	ldr	r1, [pc, #20]	; 8a80 <rpi_reboot+0x3c>
    8a68:	eb0003e9 	bl	9a14 <PUT32>
    8a6c:	e59f0010 	ldr	r0, [pc, #16]	; 8a84 <rpi_reboot+0x40>
    8a70:	e59f1010 	ldr	r1, [pc, #16]	; 8a88 <rpi_reboot+0x44>
    8a74:	eb0003e6 	bl	9a14 <PUT32>
    8a78:	eafffffe 	b	8a78 <rpi_reboot+0x34>
    8a7c:	20100024 	andscs	r0, r0, r4, lsr #32
    8a80:	5a000001 	bpl	8a8c <delay_cycles>
    8a84:	2010001c 	andscs	r0, r0, ip, lsl r0
    8a88:	5a000020 	bpl	8b10 <delay_sec+0x10>

00008a8c <delay_cycles>:
    8a8c:	ea000001 	b	8a98 <delay_cycles+0xc>
    8a90:	e2811000 	add	r1, r1, #0
    8a94:	e1a00003 	mov	r0, r3
    8a98:	e2403001 	sub	r3, r0, #1
    8a9c:	e3500000 	cmp	r0, #0
    8aa0:	1afffffa 	bne	8a90 <delay_cycles+0x4>
    8aa4:	e12fff1e 	bx	lr

00008aa8 <timer_get_usec_raw>:
    8aa8:	e92d4008 	push	{r3, lr}
    8aac:	e59f0004 	ldr	r0, [pc, #4]	; 8ab8 <timer_get_usec_raw+0x10>
    8ab0:	eb0003e3 	bl	9a44 <GET32>
    8ab4:	e8bd8008 	pop	{r3, pc}
    8ab8:	20003004 	andcs	r3, r0, r4

00008abc <timer_get_usec>:
    8abc:	e92d4008 	push	{r3, lr}
    8ac0:	ebfffff8 	bl	8aa8 <timer_get_usec_raw>
    8ac4:	e8bd8008 	pop	{r3, pc}

00008ac8 <delay_us>:
    8ac8:	e92d4038 	push	{r3, r4, r5, lr}
    8acc:	e1a05000 	mov	r5, r0
    8ad0:	ebfffff9 	bl	8abc <timer_get_usec>
    8ad4:	e1a04000 	mov	r4, r0
    8ad8:	ebfffff7 	bl	8abc <timer_get_usec>
    8adc:	e0640000 	rsb	r0, r4, r0
    8ae0:	e1500005 	cmp	r0, r5
    8ae4:	3afffffb 	bcc	8ad8 <delay_us+0x10>
    8ae8:	e8bd8038 	pop	{r3, r4, r5, pc}

00008aec <delay_ms>:
    8aec:	e92d4008 	push	{r3, lr}
    8af0:	e3a03ffa 	mov	r3, #1000	; 0x3e8
    8af4:	e0000093 	mul	r0, r3, r0
    8af8:	ebfffff2 	bl	8ac8 <delay_us>
    8afc:	e8bd8008 	pop	{r3, pc}

00008b00 <delay_sec>:
    8b00:	e92d4008 	push	{r3, lr}
    8b04:	e3a03ffa 	mov	r3, #1000	; 0x3e8
    8b08:	e0000093 	mul	r0, r3, r0
    8b0c:	ebfffff6 	bl	8aec <delay_ms>
    8b10:	e8bd8008 	pop	{r3, pc}

00008b14 <gpio_set_output>:
    8b14:	e92d4038 	push	{r3, r4, r5, lr}
    8b18:	e1a04000 	mov	r4, r0
    8b1c:	e350001f 	cmp	r0, #31
    8b20:	88bd8038 	pophi	{r3, r4, r5, pc}
    8b24:	e59f30b4 	ldr	r3, [pc, #180]	; 8be0 <gpio_set_output+0xcc>
    8b28:	e0832093 	umull	r2, r3, r3, r0
    8b2c:	e1a031a3 	lsr	r3, r3, #3
    8b30:	e3530005 	cmp	r3, #5
    8b34:	979ff103 	ldrls	pc, [pc, r3, lsl #2]
    8b38:	ea000017 	b	8b9c <gpio_set_output+0x88>
    8b3c:	00008b54 	andeq	r8, r0, r4, asr fp
    8b40:	00008b60 	andeq	r8, r0, r0, ror #22
    8b44:	00008b6c 	andeq	r8, r0, ip, ror #22
    8b48:	00008b78 	andeq	r8, r0, r8, ror fp
    8b4c:	00008b84 	andeq	r8, r0, r4, lsl #23
    8b50:	00008b90 	muleq	r0, r0, fp
    8b54:	e59f3088 	ldr	r3, [pc, #136]	; 8be4 <gpio_set_output+0xd0>
    8b58:	e5935000 	ldr	r5, [r3]
    8b5c:	ea00000f 	b	8ba0 <gpio_set_output+0x8c>
    8b60:	e59f307c 	ldr	r3, [pc, #124]	; 8be4 <gpio_set_output+0xd0>
    8b64:	e5935004 	ldr	r5, [r3, #4]
    8b68:	ea00000c 	b	8ba0 <gpio_set_output+0x8c>
    8b6c:	e59f3070 	ldr	r3, [pc, #112]	; 8be4 <gpio_set_output+0xd0>
    8b70:	e5935008 	ldr	r5, [r3, #8]
    8b74:	ea000009 	b	8ba0 <gpio_set_output+0x8c>
    8b78:	e59f3064 	ldr	r3, [pc, #100]	; 8be4 <gpio_set_output+0xd0>
    8b7c:	e593500c 	ldr	r5, [r3, #12]
    8b80:	ea000006 	b	8ba0 <gpio_set_output+0x8c>
    8b84:	e59f3058 	ldr	r3, [pc, #88]	; 8be4 <gpio_set_output+0xd0>
    8b88:	e5935010 	ldr	r5, [r3, #16]
    8b8c:	ea000003 	b	8ba0 <gpio_set_output+0x8c>
    8b90:	e59f304c 	ldr	r3, [pc, #76]	; 8be4 <gpio_set_output+0xd0>
    8b94:	e5935014 	ldr	r5, [r3, #20]
    8b98:	ea000000 	b	8ba0 <gpio_set_output+0x8c>
    8b9c:	e3a05000 	mov	r5, #0
    8ba0:	e1a00005 	mov	r0, r5
    8ba4:	eb0003a4 	bl	9a3c <get32>
    8ba8:	e59f1030 	ldr	r1, [pc, #48]	; 8be0 <gpio_set_output+0xcc>
    8bac:	e0813491 	umull	r3, r1, r1, r4
    8bb0:	e1a011a1 	lsr	r1, r1, #3
    8bb4:	e0811101 	add	r1, r1, r1, lsl #2
    8bb8:	e1a01081 	lsl	r1, r1, #1
    8bbc:	e0611004 	rsb	r1, r1, r4
    8bc0:	e0811081 	add	r1, r1, r1, lsl #1
    8bc4:	e3a03007 	mov	r3, #7
    8bc8:	e1c03113 	bic	r3, r0, r3, lsl r1
    8bcc:	e1a00005 	mov	r0, r5
    8bd0:	e3a02001 	mov	r2, #1
    8bd4:	e1831112 	orr	r1, r3, r2, lsl r1
    8bd8:	eb00038b 	bl	9a0c <put32>
    8bdc:	e8bd8038 	pop	{r3, r4, r5, pc}
    8be0:	cccccccd 	stclgt	12, cr12, [ip], {205}	; 0xcd
    8be4:	0000a3d4 	ldrdeq	sl, [r0], -r4

00008be8 <gpio_set_on>:
    8be8:	e92d4008 	push	{r3, lr}
    8bec:	e350001f 	cmp	r0, #31
    8bf0:	88bd8008 	pophi	{r3, pc}
    8bf4:	959f3020 	ldrls	r3, [pc, #32]	; 8c1c <gpio_set_on+0x34>
    8bf8:	95932018 	ldrls	r2, [r3, #24]
    8bfc:	859f3018 	ldrhi	r3, [pc, #24]	; 8c1c <gpio_set_on+0x34>
    8c00:	8593201c 	ldrhi	r2, [r3, #28]
    8c04:	e200301f 	and	r3, r0, #31
    8c08:	e1a00002 	mov	r0, r2
    8c0c:	e3a01001 	mov	r1, #1
    8c10:	e1a01311 	lsl	r1, r1, r3
    8c14:	eb00037c 	bl	9a0c <put32>
    8c18:	e8bd8008 	pop	{r3, pc}
    8c1c:	0000a3d4 	ldrdeq	sl, [r0], -r4

00008c20 <gpio_set_off>:
    8c20:	e92d4008 	push	{r3, lr}
    8c24:	e350001f 	cmp	r0, #31
    8c28:	88bd8008 	pophi	{r3, pc}
    8c2c:	959f3020 	ldrls	r3, [pc, #32]	; 8c54 <gpio_set_off+0x34>
    8c30:	95932020 	ldrls	r2, [r3, #32]
    8c34:	859f3018 	ldrhi	r3, [pc, #24]	; 8c54 <gpio_set_off+0x34>
    8c38:	85932024 	ldrhi	r2, [r3, #36]	; 0x24
    8c3c:	e200301f 	and	r3, r0, #31
    8c40:	e1a00002 	mov	r0, r2
    8c44:	e3a01001 	mov	r1, #1
    8c48:	e1a01311 	lsl	r1, r1, r3
    8c4c:	eb00036e 	bl	9a0c <put32>
    8c50:	e8bd8008 	pop	{r3, pc}
    8c54:	0000a3d4 	ldrdeq	sl, [r0], -r4

00008c58 <gpio_set_input>:
    8c58:	e92d4038 	push	{r3, r4, r5, lr}
    8c5c:	e1a04000 	mov	r4, r0
    8c60:	e350001f 	cmp	r0, #31
    8c64:	88bd8038 	pophi	{r3, r4, r5, pc}
    8c68:	e59f30ac 	ldr	r3, [pc, #172]	; 8d1c <gpio_set_input+0xc4>
    8c6c:	e0832093 	umull	r2, r3, r3, r0
    8c70:	e1a031a3 	lsr	r3, r3, #3
    8c74:	e3530005 	cmp	r3, #5
    8c78:	979ff103 	ldrls	pc, [pc, r3, lsl #2]
    8c7c:	ea000017 	b	8ce0 <gpio_set_input+0x88>
    8c80:	00008c98 	muleq	r0, r8, ip
    8c84:	00008ca4 	andeq	r8, r0, r4, lsr #25
    8c88:	00008cb0 			; <UNDEFINED> instruction: 0x00008cb0
    8c8c:	00008cbc 			; <UNDEFINED> instruction: 0x00008cbc
    8c90:	00008cc8 	andeq	r8, r0, r8, asr #25
    8c94:	00008cd4 	ldrdeq	r8, [r0], -r4
    8c98:	e59f3080 	ldr	r3, [pc, #128]	; 8d20 <gpio_set_input+0xc8>
    8c9c:	e5935000 	ldr	r5, [r3]
    8ca0:	ea00000f 	b	8ce4 <gpio_set_input+0x8c>
    8ca4:	e59f3074 	ldr	r3, [pc, #116]	; 8d20 <gpio_set_input+0xc8>
    8ca8:	e5935004 	ldr	r5, [r3, #4]
    8cac:	ea00000c 	b	8ce4 <gpio_set_input+0x8c>
    8cb0:	e59f3068 	ldr	r3, [pc, #104]	; 8d20 <gpio_set_input+0xc8>
    8cb4:	e5935008 	ldr	r5, [r3, #8]
    8cb8:	ea000009 	b	8ce4 <gpio_set_input+0x8c>
    8cbc:	e59f305c 	ldr	r3, [pc, #92]	; 8d20 <gpio_set_input+0xc8>
    8cc0:	e593500c 	ldr	r5, [r3, #12]
    8cc4:	ea000006 	b	8ce4 <gpio_set_input+0x8c>
    8cc8:	e59f3050 	ldr	r3, [pc, #80]	; 8d20 <gpio_set_input+0xc8>
    8ccc:	e5935010 	ldr	r5, [r3, #16]
    8cd0:	ea000003 	b	8ce4 <gpio_set_input+0x8c>
    8cd4:	e59f3044 	ldr	r3, [pc, #68]	; 8d20 <gpio_set_input+0xc8>
    8cd8:	e5935014 	ldr	r5, [r3, #20]
    8cdc:	ea000000 	b	8ce4 <gpio_set_input+0x8c>
    8ce0:	e3a05000 	mov	r5, #0
    8ce4:	e1a00005 	mov	r0, r5
    8ce8:	eb000353 	bl	9a3c <get32>
    8cec:	e59f1028 	ldr	r1, [pc, #40]	; 8d1c <gpio_set_input+0xc4>
    8cf0:	e0813491 	umull	r3, r1, r1, r4
    8cf4:	e1a011a1 	lsr	r1, r1, #3
    8cf8:	e0811101 	add	r1, r1, r1, lsl #2
    8cfc:	e1a01081 	lsl	r1, r1, #1
    8d00:	e0611004 	rsb	r1, r1, r4
    8d04:	e0811081 	add	r1, r1, r1, lsl #1
    8d08:	e3a03007 	mov	r3, #7
    8d0c:	e1c01113 	bic	r1, r0, r3, lsl r1
    8d10:	e1a00005 	mov	r0, r5
    8d14:	eb00033c 	bl	9a0c <put32>
    8d18:	e8bd8038 	pop	{r3, r4, r5, pc}
    8d1c:	cccccccd 	stclgt	12, cr12, [ip], {205}	; 0xcd
    8d20:	0000a3d4 	ldrdeq	sl, [r0], -r4

00008d24 <gpio_read>:
    8d24:	e92d4010 	push	{r4, lr}
    8d28:	e1a04000 	mov	r4, r0
    8d2c:	e350001f 	cmp	r0, #31
    8d30:	8a00000b 	bhi	8d64 <gpio_read+0x40>
    8d34:	8a000003 	bhi	8d48 <gpio_read+0x24>
    8d38:	e59f302c 	ldr	r3, [pc, #44]	; 8d6c <gpio_read+0x48>
    8d3c:	e5930028 	ldr	r0, [r3, #40]	; 0x28
    8d40:	eb00033d 	bl	9a3c <get32>
    8d44:	ea000002 	b	8d54 <gpio_read+0x30>
    8d48:	e59f301c 	ldr	r3, [pc, #28]	; 8d6c <gpio_read+0x48>
    8d4c:	e593002c 	ldr	r0, [r3, #44]	; 0x2c
    8d50:	eb000339 	bl	9a3c <get32>
    8d54:	e204401f 	and	r4, r4, #31
    8d58:	e3a03001 	mov	r3, #1
    8d5c:	e0000413 	and	r0, r0, r3, lsl r4
    8d60:	e8bd8010 	pop	{r4, pc}
    8d64:	e3e00000 	mvn	r0, #0
    8d68:	e8bd8010 	pop	{r4, pc}
    8d6c:	0000a3d4 	ldrdeq	sl, [r0], -r4

00008d70 <gpio_write>:
    8d70:	e92d4008 	push	{r3, lr}
    8d74:	e350001f 	cmp	r0, #31
    8d78:	88bd8008 	pophi	{r3, pc}
    8d7c:	e3510000 	cmp	r1, #0
    8d80:	0a000001 	beq	8d8c <gpio_write+0x1c>
    8d84:	ebffff97 	bl	8be8 <gpio_set_on>
    8d88:	e8bd8008 	pop	{r3, pc}
    8d8c:	ebffffa3 	bl	8c20 <gpio_set_off>
    8d90:	e8bd8008 	pop	{r3, pc}

00008d94 <gpio_set_function>:
    8d94:	e92d4070 	push	{r4, r5, r6, lr}
    8d98:	e1a04000 	mov	r4, r0
    8d9c:	e1a05001 	mov	r5, r1
    8da0:	e3510007 	cmp	r1, #7
    8da4:	9350001f 	cmpls	r0, #31
    8da8:	88bd8070 	pophi	{r4, r5, r6, pc}
    8dac:	e59f30b0 	ldr	r3, [pc, #176]	; 8e64 <gpio_set_function+0xd0>
    8db0:	e0832093 	umull	r2, r3, r3, r0
    8db4:	e1a031a3 	lsr	r3, r3, #3
    8db8:	e3530005 	cmp	r3, #5
    8dbc:	979ff103 	ldrls	pc, [pc, r3, lsl #2]
    8dc0:	ea000017 	b	8e24 <gpio_set_function+0x90>
    8dc4:	00008ddc 	ldrdeq	r8, [r0], -ip
    8dc8:	00008de8 	andeq	r8, r0, r8, ror #27
    8dcc:	00008df4 	strdeq	r8, [r0], -r4
    8dd0:	00008e00 	andeq	r8, r0, r0, lsl #28
    8dd4:	00008e0c 	andeq	r8, r0, ip, lsl #28
    8dd8:	00008e18 	andeq	r8, r0, r8, lsl lr
    8ddc:	e59f3084 	ldr	r3, [pc, #132]	; 8e68 <gpio_set_function+0xd4>
    8de0:	e5936000 	ldr	r6, [r3]
    8de4:	ea00000f 	b	8e28 <gpio_set_function+0x94>
    8de8:	e59f3078 	ldr	r3, [pc, #120]	; 8e68 <gpio_set_function+0xd4>
    8dec:	e5936004 	ldr	r6, [r3, #4]
    8df0:	ea00000c 	b	8e28 <gpio_set_function+0x94>
    8df4:	e59f306c 	ldr	r3, [pc, #108]	; 8e68 <gpio_set_function+0xd4>
    8df8:	e5936008 	ldr	r6, [r3, #8]
    8dfc:	ea000009 	b	8e28 <gpio_set_function+0x94>
    8e00:	e59f3060 	ldr	r3, [pc, #96]	; 8e68 <gpio_set_function+0xd4>
    8e04:	e593600c 	ldr	r6, [r3, #12]
    8e08:	ea000006 	b	8e28 <gpio_set_function+0x94>
    8e0c:	e59f3054 	ldr	r3, [pc, #84]	; 8e68 <gpio_set_function+0xd4>
    8e10:	e5936010 	ldr	r6, [r3, #16]
    8e14:	ea000003 	b	8e28 <gpio_set_function+0x94>
    8e18:	e59f3048 	ldr	r3, [pc, #72]	; 8e68 <gpio_set_function+0xd4>
    8e1c:	e5936014 	ldr	r6, [r3, #20]
    8e20:	ea000000 	b	8e28 <gpio_set_function+0x94>
    8e24:	e3a06000 	mov	r6, #0
    8e28:	e1a00006 	mov	r0, r6
    8e2c:	eb000302 	bl	9a3c <get32>
    8e30:	e59f302c 	ldr	r3, [pc, #44]	; 8e64 <gpio_set_function+0xd0>
    8e34:	e0832493 	umull	r2, r3, r3, r4
    8e38:	e1a031a3 	lsr	r3, r3, #3
    8e3c:	e0833103 	add	r3, r3, r3, lsl #2
    8e40:	e1a03083 	lsl	r3, r3, #1
    8e44:	e0633004 	rsb	r3, r3, r4
    8e48:	e0833083 	add	r3, r3, r3, lsl #1
    8e4c:	e3a01007 	mov	r1, #7
    8e50:	e1c01311 	bic	r1, r0, r1, lsl r3
    8e54:	e1a00006 	mov	r0, r6
    8e58:	e1811315 	orr	r1, r1, r5, lsl r3
    8e5c:	eb0002ea 	bl	9a0c <put32>
    8e60:	e8bd8070 	pop	{r4, r5, r6, pc}
    8e64:	cccccccd 	stclgt	12, cr12, [ip], {205}	; 0xcd
    8e68:	0000a3d4 	ldrdeq	sl, [r0], -r4

00008e6c <is_gpio_int>:
    8e6c:	e92d4008 	push	{r3, lr}
    8e70:	e59f301c 	ldr	r3, [pc, #28]	; 8e94 <is_gpio_int+0x28>
    8e74:	e5930030 	ldr	r0, [r3, #48]	; 0x30
    8e78:	eb0002ef 	bl	9a3c <get32>
    8e7c:	e3500000 	cmp	r0, #0
    8e80:	0a000001 	beq	8e8c <is_gpio_int+0x20>
    8e84:	e3a00001 	mov	r0, #1
    8e88:	e8bd8008 	pop	{r3, pc}
    8e8c:	e3a00000 	mov	r0, #0
    8e90:	e8bd8008 	pop	{r3, pc}
    8e94:	0000a3d4 	ldrdeq	sl, [r0], -r4

00008e98 <gpio_int_rising_edge>:
    8e98:	e92d4038 	push	{r3, r4, r5, lr}
    8e9c:	e1a04000 	mov	r4, r0
    8ea0:	e350001f 	cmp	r0, #31
    8ea4:	88bd8038 	pophi	{r3, r4, r5, pc}
    8ea8:	eb0002d1 	bl	99f4 <dev_barrier>
    8eac:	e354001f 	cmp	r4, #31
    8eb0:	8a000007 	bhi	8ed4 <gpio_int_rising_edge+0x3c>
    8eb4:	e59f505c 	ldr	r5, [pc, #92]	; 8f18 <gpio_int_rising_edge+0x80>
    8eb8:	e5950034 	ldr	r0, [r5, #52]	; 0x34
    8ebc:	eb0002de 	bl	9a3c <get32>
    8ec0:	e3a01001 	mov	r1, #1
    8ec4:	e1801411 	orr	r1, r0, r1, lsl r4
    8ec8:	e5950034 	ldr	r0, [r5, #52]	; 0x34
    8ecc:	eb0002ce 	bl	9a0c <put32>
    8ed0:	ea000007 	b	8ef4 <gpio_int_rising_edge+0x5c>
    8ed4:	e59f503c 	ldr	r5, [pc, #60]	; 8f18 <gpio_int_rising_edge+0x80>
    8ed8:	e5950038 	ldr	r0, [r5, #56]	; 0x38
    8edc:	eb0002d6 	bl	9a3c <get32>
    8ee0:	e204401f 	and	r4, r4, #31
    8ee4:	e3a01001 	mov	r1, #1
    8ee8:	e1801411 	orr	r1, r0, r1, lsl r4
    8eec:	e5950038 	ldr	r0, [r5, #56]	; 0x38
    8ef0:	eb0002c5 	bl	9a0c <put32>
    8ef4:	eb0002be 	bl	99f4 <dev_barrier>
    8ef8:	e59f4018 	ldr	r4, [pc, #24]	; 8f18 <gpio_int_rising_edge+0x80>
    8efc:	e594003c 	ldr	r0, [r4, #60]	; 0x3c
    8f00:	eb0002cd 	bl	9a3c <get32>
    8f04:	e3801802 	orr	r1, r0, #131072	; 0x20000
    8f08:	e594003c 	ldr	r0, [r4, #60]	; 0x3c
    8f0c:	eb0002be 	bl	9a0c <put32>
    8f10:	eb0002b7 	bl	99f4 <dev_barrier>
    8f14:	e8bd8038 	pop	{r3, r4, r5, pc}
    8f18:	0000a3d4 	ldrdeq	sl, [r0], -r4

00008f1c <gpio_int_falling_edge>:
    8f1c:	e92d4038 	push	{r3, r4, r5, lr}
    8f20:	e1a04000 	mov	r4, r0
    8f24:	e350001f 	cmp	r0, #31
    8f28:	88bd8038 	pophi	{r3, r4, r5, pc}
    8f2c:	eb0002b0 	bl	99f4 <dev_barrier>
    8f30:	e354001f 	cmp	r4, #31
    8f34:	8a000007 	bhi	8f58 <gpio_int_falling_edge+0x3c>
    8f38:	e59f505c 	ldr	r5, [pc, #92]	; 8f9c <gpio_int_falling_edge+0x80>
    8f3c:	e5950040 	ldr	r0, [r5, #64]	; 0x40
    8f40:	eb0002bd 	bl	9a3c <get32>
    8f44:	e3a01001 	mov	r1, #1
    8f48:	e1801411 	orr	r1, r0, r1, lsl r4
    8f4c:	e5950040 	ldr	r0, [r5, #64]	; 0x40
    8f50:	eb0002ad 	bl	9a0c <put32>
    8f54:	ea000007 	b	8f78 <gpio_int_falling_edge+0x5c>
    8f58:	e59f503c 	ldr	r5, [pc, #60]	; 8f9c <gpio_int_falling_edge+0x80>
    8f5c:	e5950044 	ldr	r0, [r5, #68]	; 0x44
    8f60:	eb0002b5 	bl	9a3c <get32>
    8f64:	e204401f 	and	r4, r4, #31
    8f68:	e3a01001 	mov	r1, #1
    8f6c:	e1801411 	orr	r1, r0, r1, lsl r4
    8f70:	e5950044 	ldr	r0, [r5, #68]	; 0x44
    8f74:	eb0002a4 	bl	9a0c <put32>
    8f78:	eb00029d 	bl	99f4 <dev_barrier>
    8f7c:	e59f4018 	ldr	r4, [pc, #24]	; 8f9c <gpio_int_falling_edge+0x80>
    8f80:	e594003c 	ldr	r0, [r4, #60]	; 0x3c
    8f84:	eb0002ac 	bl	9a3c <get32>
    8f88:	e3801601 	orr	r1, r0, #1048576	; 0x100000
    8f8c:	e594003c 	ldr	r0, [r4, #60]	; 0x3c
    8f90:	eb00029d 	bl	9a0c <put32>
    8f94:	eb000296 	bl	99f4 <dev_barrier>
    8f98:	e8bd8038 	pop	{r3, r4, r5, pc}
    8f9c:	0000a3d4 	ldrdeq	sl, [r0], -r4

00008fa0 <gpio_event_detected>:
    8fa0:	e92d4010 	push	{r4, lr}
    8fa4:	e1a04000 	mov	r4, r0
    8fa8:	e350001f 	cmp	r0, #31
    8fac:	8a000019 	bhi	9018 <gpio_event_detected+0x78>
    8fb0:	eb00028f 	bl	99f4 <dev_barrier>
    8fb4:	e354001f 	cmp	r4, #31
    8fb8:	8a000008 	bhi	8fe0 <gpio_event_detected+0x40>
    8fbc:	e59f305c 	ldr	r3, [pc, #92]	; 9020 <gpio_event_detected+0x80>
    8fc0:	e5930048 	ldr	r0, [r3, #72]	; 0x48
    8fc4:	eb00029c 	bl	9a3c <get32>
    8fc8:	e3a03001 	mov	r3, #1
    8fcc:	e0103413 	ands	r3, r0, r3, lsl r4
    8fd0:	0a00000d 	beq	900c <gpio_event_detected+0x6c>
    8fd4:	eb000286 	bl	99f4 <dev_barrier>
    8fd8:	e3a00001 	mov	r0, #1
    8fdc:	e8bd8010 	pop	{r4, pc}
    8fe0:	e59f3038 	ldr	r3, [pc, #56]	; 9020 <gpio_event_detected+0x80>
    8fe4:	e593004c 	ldr	r0, [r3, #76]	; 0x4c
    8fe8:	eb000293 	bl	9a3c <get32>
    8fec:	e3a03001 	mov	r3, #1
    8ff0:	e0004413 	and	r4, r0, r3, lsl r4
    8ff4:	eb00027e 	bl	99f4 <dev_barrier>
    8ff8:	e3540000 	cmp	r4, #0
    8ffc:	0a000002 	beq	900c <gpio_event_detected+0x6c>
    9000:	eb00027b 	bl	99f4 <dev_barrier>
    9004:	e3a00001 	mov	r0, #1
    9008:	e8bd8010 	pop	{r4, pc}
    900c:	eb000278 	bl	99f4 <dev_barrier>
    9010:	e3a00000 	mov	r0, #0
    9014:	e8bd8010 	pop	{r4, pc}
    9018:	e3e00000 	mvn	r0, #0
    901c:	e8bd8010 	pop	{r4, pc}
    9020:	0000a3d4 	ldrdeq	sl, [r0], -r4

00009024 <gpio_event_clear>:
    9024:	e92d4010 	push	{r4, lr}
    9028:	e1a04000 	mov	r4, r0
    902c:	e350001f 	cmp	r0, #31
    9030:	88bd8010 	pophi	{r4, pc}
    9034:	eb00026e 	bl	99f4 <dev_barrier>
    9038:	e354001f 	cmp	r4, #31
    903c:	8a000005 	bhi	9058 <gpio_event_clear+0x34>
    9040:	e59f3030 	ldr	r3, [pc, #48]	; 9078 <gpio_event_clear+0x54>
    9044:	e5930048 	ldr	r0, [r3, #72]	; 0x48
    9048:	e3a01001 	mov	r1, #1
    904c:	e1a01411 	lsl	r1, r1, r4
    9050:	eb00026d 	bl	9a0c <put32>
    9054:	ea000005 	b	9070 <gpio_event_clear+0x4c>
    9058:	e204401f 	and	r4, r4, #31
    905c:	e59f3014 	ldr	r3, [pc, #20]	; 9078 <gpio_event_clear+0x54>
    9060:	e593004c 	ldr	r0, [r3, #76]	; 0x4c
    9064:	e3a01001 	mov	r1, #1
    9068:	e1a01411 	lsl	r1, r1, r4
    906c:	eb000266 	bl	9a0c <put32>
    9070:	eb00025f 	bl	99f4 <dev_barrier>
    9074:	e8bd8010 	pop	{r4, pc}
    9078:	0000a3d4 	ldrdeq	sl, [r0], -r4

0000907c <sw_uart_putc>:
    907c:	e92d41f0 	push	{r4, r5, r6, r7, r8, lr}
    9080:	e1a07001 	mov	r7, r1
    9084:	e5d06000 	ldrb	r6, [r0]
    9088:	e5905008 	ldr	r5, [r0, #8]
    908c:	ee1f4f3c 	mrc	15, 0, r4, cr15, cr12, {1}
    9090:	e1a00006 	mov	r0, r6
    9094:	e3a01000 	mov	r1, #0
    9098:	ebffff34 	bl	8d70 <gpio_write>
    909c:	ee1f3f3c 	mrc	15, 0, r3, cr15, cr12, {1}
    90a0:	e0643003 	rsb	r3, r4, r3
    90a4:	e1550003 	cmp	r5, r3
    90a8:	8afffffb 	bhi	909c <sw_uart_putc+0x20>
    90ac:	e1a08085 	lsl	r8, r5, #1
    90b0:	e1a00006 	mov	r0, r6
    90b4:	e2071001 	and	r1, r7, #1
    90b8:	ebffff2c 	bl	8d70 <gpio_write>
    90bc:	ee1f3f3c 	mrc	15, 0, r3, cr15, cr12, {1}
    90c0:	e0643003 	rsb	r3, r4, r3
    90c4:	e1580003 	cmp	r8, r3
    90c8:	8afffffb 	bhi	90bc <sw_uart_putc+0x40>
    90cc:	e0888005 	add	r8, r8, r5
    90d0:	e1a00006 	mov	r0, r6
    90d4:	e2071002 	and	r1, r7, #2
    90d8:	ebffff24 	bl	8d70 <gpio_write>
    90dc:	ee1f3f3c 	mrc	15, 0, r3, cr15, cr12, {1}
    90e0:	e0643003 	rsb	r3, r4, r3
    90e4:	e1580003 	cmp	r8, r3
    90e8:	8afffffb 	bhi	90dc <sw_uart_putc+0x60>
    90ec:	e0888005 	add	r8, r8, r5
    90f0:	e1a00006 	mov	r0, r6
    90f4:	e2071004 	and	r1, r7, #4
    90f8:	ebffff1c 	bl	8d70 <gpio_write>
    90fc:	ee1f3f3c 	mrc	15, 0, r3, cr15, cr12, {1}
    9100:	e0643003 	rsb	r3, r4, r3
    9104:	e1580003 	cmp	r8, r3
    9108:	8afffffb 	bhi	90fc <sw_uart_putc+0x80>
    910c:	e0888005 	add	r8, r8, r5
    9110:	e1a00006 	mov	r0, r6
    9114:	e2071008 	and	r1, r7, #8
    9118:	ebffff14 	bl	8d70 <gpio_write>
    911c:	ee1f3f3c 	mrc	15, 0, r3, cr15, cr12, {1}
    9120:	e0643003 	rsb	r3, r4, r3
    9124:	e1580003 	cmp	r8, r3
    9128:	8afffffb 	bhi	911c <sw_uart_putc+0xa0>
    912c:	e0888005 	add	r8, r8, r5
    9130:	e1a00006 	mov	r0, r6
    9134:	e2071010 	and	r1, r7, #16
    9138:	ebffff0c 	bl	8d70 <gpio_write>
    913c:	ee1f3f3c 	mrc	15, 0, r3, cr15, cr12, {1}
    9140:	e0643003 	rsb	r3, r4, r3
    9144:	e1580003 	cmp	r8, r3
    9148:	8afffffb 	bhi	913c <sw_uart_putc+0xc0>
    914c:	e0888005 	add	r8, r8, r5
    9150:	e1a00006 	mov	r0, r6
    9154:	e2071020 	and	r1, r7, #32
    9158:	ebffff04 	bl	8d70 <gpio_write>
    915c:	ee1f3f3c 	mrc	15, 0, r3, cr15, cr12, {1}
    9160:	e0643003 	rsb	r3, r4, r3
    9164:	e1580003 	cmp	r8, r3
    9168:	8afffffb 	bhi	915c <sw_uart_putc+0xe0>
    916c:	e0888005 	add	r8, r8, r5
    9170:	e1a00006 	mov	r0, r6
    9174:	e2071040 	and	r1, r7, #64	; 0x40
    9178:	ebfffefc 	bl	8d70 <gpio_write>
    917c:	ee1f3f3c 	mrc	15, 0, r3, cr15, cr12, {1}
    9180:	e0643003 	rsb	r3, r4, r3
    9184:	e1580003 	cmp	r8, r3
    9188:	8afffffb 	bhi	917c <sw_uart_putc+0x100>
    918c:	e0888005 	add	r8, r8, r5
    9190:	e1a00006 	mov	r0, r6
    9194:	e2071080 	and	r1, r7, #128	; 0x80
    9198:	ebfffef4 	bl	8d70 <gpio_write>
    919c:	ee1f3f3c 	mrc	15, 0, r3, cr15, cr12, {1}
    91a0:	e0643003 	rsb	r3, r4, r3
    91a4:	e1580003 	cmp	r8, r3
    91a8:	8afffffb 	bhi	919c <sw_uart_putc+0x120>
    91ac:	e0885005 	add	r5, r8, r5
    91b0:	e1a00006 	mov	r0, r6
    91b4:	e3a01001 	mov	r1, #1
    91b8:	ebfffeec 	bl	8d70 <gpio_write>
    91bc:	ee1f3f3c 	mrc	15, 0, r3, cr15, cr12, {1}
    91c0:	e0643003 	rsb	r3, r4, r3
    91c4:	e1550003 	cmp	r5, r3
    91c8:	8afffffb 	bhi	91bc <sw_uart_putc+0x140>
    91cc:	e8bd81f0 	pop	{r4, r5, r6, r7, r8, pc}

000091d0 <sw_uart_getc_timeout>:
    91d0:	e92d43f8 	push	{r3, r4, r5, r6, r7, r8, r9, lr}
    91d4:	e1a09000 	mov	r9, r0
    91d8:	e5d07001 	ldrb	r7, [r0, #1]
    91dc:	e1a05007 	mov	r5, r7
    91e0:	e1a06001 	mov	r6, r1
    91e4:	ebfffe2f 	bl	8aa8 <timer_get_usec_raw>
    91e8:	e1a04000 	mov	r4, r0
    91ec:	e1a00005 	mov	r0, r5
    91f0:	ebfffecb 	bl	8d24 <gpio_read>
    91f4:	e3500000 	cmp	r0, #0
    91f8:	0a000005 	beq	9214 <sw_uart_getc_timeout+0x44>
    91fc:	ebfffe29 	bl	8aa8 <timer_get_usec_raw>
    9200:	e0640000 	rsb	r0, r4, r0
    9204:	e1560000 	cmp	r6, r0
    9208:	2afffff7 	bcs	91ec <sw_uart_getc_timeout+0x1c>
    920c:	e3a03000 	mov	r3, #0
    9210:	ea000000 	b	9218 <sw_uart_getc_timeout+0x48>
    9214:	e3a03001 	mov	r3, #1
    9218:	e3530000 	cmp	r3, #0
    921c:	0a000059 	beq	9388 <sw_uart_getc_timeout+0x1b8>
    9220:	ee1f8f3c 	mrc	15, 0, r8, cr15, cr12, {1}
    9224:	e5994008 	ldr	r4, [r9, #8]
    9228:	e08420a4 	add	r2, r4, r4, lsr #1
    922c:	ee1f3f3c 	mrc	15, 0, r3, cr15, cr12, {1}
    9230:	e0683003 	rsb	r3, r8, r3
    9234:	e1520003 	cmp	r2, r3
    9238:	8afffffb 	bhi	922c <sw_uart_getc_timeout+0x5c>
    923c:	e0888004 	add	r8, r8, r4
    9240:	e1a00007 	mov	r0, r7
    9244:	ebfffeb6 	bl	8d24 <gpio_read>
    9248:	e1a09750 	asr	r9, r0, r7
    924c:	ee1f3f3c 	mrc	15, 0, r3, cr15, cr12, {1}
    9250:	e0683003 	rsb	r3, r8, r3
    9254:	e1540003 	cmp	r4, r3
    9258:	8afffffb 	bhi	924c <sw_uart_getc_timeout+0x7c>
    925c:	e0888004 	add	r8, r8, r4
    9260:	e1a00007 	mov	r0, r7
    9264:	ebfffeae 	bl	8d24 <gpio_read>
    9268:	e1a00750 	asr	r0, r0, r7
    926c:	e1899080 	orr	r9, r9, r0, lsl #1
    9270:	ee1f3f3c 	mrc	15, 0, r3, cr15, cr12, {1}
    9274:	e0683003 	rsb	r3, r8, r3
    9278:	e1540003 	cmp	r4, r3
    927c:	8afffffb 	bhi	9270 <sw_uart_getc_timeout+0xa0>
    9280:	e0888004 	add	r8, r8, r4
    9284:	e1a00007 	mov	r0, r7
    9288:	ebfffea5 	bl	8d24 <gpio_read>
    928c:	e1a00750 	asr	r0, r0, r7
    9290:	e1899100 	orr	r9, r9, r0, lsl #2
    9294:	ee1f3f3c 	mrc	15, 0, r3, cr15, cr12, {1}
    9298:	e0683003 	rsb	r3, r8, r3
    929c:	e1540003 	cmp	r4, r3
    92a0:	8afffffb 	bhi	9294 <sw_uart_getc_timeout+0xc4>
    92a4:	e0888004 	add	r8, r8, r4
    92a8:	e1a00007 	mov	r0, r7
    92ac:	ebfffe9c 	bl	8d24 <gpio_read>
    92b0:	e1a00750 	asr	r0, r0, r7
    92b4:	e1899180 	orr	r9, r9, r0, lsl #3
    92b8:	ee1f3f3c 	mrc	15, 0, r3, cr15, cr12, {1}
    92bc:	e0683003 	rsb	r3, r8, r3
    92c0:	e1540003 	cmp	r4, r3
    92c4:	8afffffb 	bhi	92b8 <sw_uart_getc_timeout+0xe8>
    92c8:	e0888004 	add	r8, r8, r4
    92cc:	e1a00007 	mov	r0, r7
    92d0:	ebfffe93 	bl	8d24 <gpio_read>
    92d4:	e1a00750 	asr	r0, r0, r7
    92d8:	e1899200 	orr	r9, r9, r0, lsl #4
    92dc:	ee1f3f3c 	mrc	15, 0, r3, cr15, cr12, {1}
    92e0:	e0683003 	rsb	r3, r8, r3
    92e4:	e1540003 	cmp	r4, r3
    92e8:	8afffffb 	bhi	92dc <sw_uart_getc_timeout+0x10c>
    92ec:	e0888004 	add	r8, r8, r4
    92f0:	e1a00007 	mov	r0, r7
    92f4:	ebfffe8a 	bl	8d24 <gpio_read>
    92f8:	e1a00750 	asr	r0, r0, r7
    92fc:	e1899280 	orr	r9, r9, r0, lsl #5
    9300:	ee1f3f3c 	mrc	15, 0, r3, cr15, cr12, {1}
    9304:	e0683003 	rsb	r3, r8, r3
    9308:	e1540003 	cmp	r4, r3
    930c:	8afffffb 	bhi	9300 <sw_uart_getc_timeout+0x130>
    9310:	e0888004 	add	r8, r8, r4
    9314:	e1a00007 	mov	r0, r7
    9318:	ebfffe81 	bl	8d24 <gpio_read>
    931c:	e1a00750 	asr	r0, r0, r7
    9320:	e1899300 	orr	r9, r9, r0, lsl #6
    9324:	ee1f3f3c 	mrc	15, 0, r3, cr15, cr12, {1}
    9328:	e0683003 	rsb	r3, r8, r3
    932c:	e1540003 	cmp	r4, r3
    9330:	8afffffb 	bhi	9324 <sw_uart_getc_timeout+0x154>
    9334:	e1a00007 	mov	r0, r7
    9338:	ebfffe79 	bl	8d24 <gpio_read>
    933c:	e1a00750 	asr	r0, r0, r7
    9340:	e1899380 	orr	r9, r9, r0, lsl #7
    9344:	ebfffdd7 	bl	8aa8 <timer_get_usec_raw>
    9348:	e1a04000 	mov	r4, r0
    934c:	e1a00005 	mov	r0, r5
    9350:	ebfffe73 	bl	8d24 <gpio_read>
    9354:	e3500000 	cmp	r0, #0
    9358:	0a000005 	beq	9374 <sw_uart_getc_timeout+0x1a4>
    935c:	ebfffdd1 	bl	8aa8 <timer_get_usec_raw>
    9360:	e0640000 	rsb	r0, r4, r0
    9364:	e1560000 	cmp	r6, r0
    9368:	2afffff7 	bcs	934c <sw_uart_getc_timeout+0x17c>
    936c:	e3a03000 	mov	r3, #0
    9370:	ea000000 	b	9378 <sw_uart_getc_timeout+0x1a8>
    9374:	e3a03001 	mov	r3, #1
    9378:	e3530000 	cmp	r3, #0
    937c:	0a000003 	beq	9390 <sw_uart_getc_timeout+0x1c0>
    9380:	e1a00009 	mov	r0, r9
    9384:	e8bd83f8 	pop	{r3, r4, r5, r6, r7, r8, r9, pc}
    9388:	e3e00000 	mvn	r0, #0
    938c:	e8bd83f8 	pop	{r3, r4, r5, r6, r7, r8, r9, pc}
    9390:	e3e00000 	mvn	r0, #0
    9394:	e8bd83f8 	pop	{r3, r4, r5, r6, r7, r8, r9, pc}

00009398 <sw_uart_gets_until>:
    9398:	e92d47f0 	push	{r4, r5, r6, r7, r8, r9, sl, lr}
    939c:	e1a08000 	mov	r8, r0
    93a0:	e1a06001 	mov	r6, r1
    93a4:	e1a09003 	mov	r9, r3
    93a8:	e59da020 	ldr	sl, [sp, #32]
    93ac:	e3520000 	cmp	r2, #0
    93b0:	1a000006 	bne	93d0 <sw_uart_gets_until+0x38>
    93b4:	ebfffc0c 	bl	83ec <rpi_reset_putc>
    93b8:	e59f005c 	ldr	r0, [pc, #92]	; 941c <sw_uart_gets_until+0x84>
    93bc:	e59f105c 	ldr	r1, [pc, #92]	; 9420 <sw_uart_gets_until+0x88>
    93c0:	e59f205c 	ldr	r2, [pc, #92]	; 9424 <sw_uart_gets_until+0x8c>
    93c4:	e3a0306d 	mov	r3, #109	; 0x6d
    93c8:	ebfffbec 	bl	8380 <printk>
    93cc:	ebfffd5b 	bl	8940 <clean_reboot>
    93d0:	e3a04000 	mov	r4, #0
    93d4:	e5c14000 	strb	r4, [r1]
    93d8:	e2427001 	sub	r7, r2, #1
    93dc:	ea000007 	b	9400 <sw_uart_gets_until+0x68>
    93e0:	e1a00008 	mov	r0, r8
    93e4:	e1a0100a 	mov	r1, sl
    93e8:	ebffff78 	bl	91d0 <sw_uart_getc_timeout>
    93ec:	e6ef0070 	uxtb	r0, r0
    93f0:	e1500009 	cmp	r0, r9
    93f4:	0a000004 	beq	940c <sw_uart_gets_until+0x74>
    93f8:	e7c60005 	strb	r0, [r6, r5]
    93fc:	e2844001 	add	r4, r4, #1
    9400:	e1a05004 	mov	r5, r4
    9404:	e1540007 	cmp	r4, r7
    9408:	3afffff4 	bcc	93e0 <sw_uart_gets_until+0x48>
    940c:	e3a03000 	mov	r3, #0
    9410:	e7c63005 	strb	r3, [r6, r5]
    9414:	e1a00004 	mov	r0, r4
    9418:	e8bd87f0 	pop	{r4, r5, r6, r7, r8, r9, sl, pc}
    941c:	0000a6f8 	strdeq	sl, [r0], -r8
    9420:	0000a714 	andeq	sl, r0, r4, lsl r7
    9424:	0000a680 	andeq	sl, r0, r0, lsl #13

00009428 <sw_uart_gets_timeout>:
    9428:	e92d41f0 	push	{r4, r5, r6, r7, r8, lr}
    942c:	e1a07000 	mov	r7, r0
    9430:	e1a05001 	mov	r5, r1
    9434:	e1a08003 	mov	r8, r3
    9438:	e3520000 	cmp	r2, #0
    943c:	1a000006 	bne	945c <sw_uart_gets_timeout+0x34>
    9440:	ebfffbe9 	bl	83ec <rpi_reset_putc>
    9444:	e59f004c 	ldr	r0, [pc, #76]	; 9498 <sw_uart_gets_timeout+0x70>
    9448:	e59f104c 	ldr	r1, [pc, #76]	; 949c <sw_uart_gets_timeout+0x74>
    944c:	e59f204c 	ldr	r2, [pc, #76]	; 94a0 <sw_uart_gets_timeout+0x78>
    9450:	e3a03083 	mov	r3, #131	; 0x83
    9454:	ebfffbc9 	bl	8380 <printk>
    9458:	ebfffd38 	bl	8940 <clean_reboot>
    945c:	e3a04000 	mov	r4, #0
    9460:	e5c14000 	strb	r4, [r1]
    9464:	e2426001 	sub	r6, r2, #1
    9468:	ea000004 	b	9480 <sw_uart_gets_timeout+0x58>
    946c:	e1a00007 	mov	r0, r7
    9470:	e1a01008 	mov	r1, r8
    9474:	ebffff55 	bl	91d0 <sw_uart_getc_timeout>
    9478:	e7c50004 	strb	r0, [r5, r4]
    947c:	e2844001 	add	r4, r4, #1
    9480:	e1540006 	cmp	r4, r6
    9484:	3afffff8 	bcc	946c <sw_uart_gets_timeout+0x44>
    9488:	e3a03000 	mov	r3, #0
    948c:	e7c53004 	strb	r3, [r5, r4]
    9490:	e1a00004 	mov	r0, r4
    9494:	e8bd81f0 	pop	{r4, r5, r6, r7, r8, pc}
    9498:	0000a6f8 	strdeq	sl, [r0], -r8
    949c:	0000a714 	andeq	sl, r0, r4, lsl r7
    94a0:	0000a694 	muleq	r0, r4, r6

000094a4 <sw_uart_init_helper>:
    94a4:	e92d41f0 	push	{r4, r5, r6, r7, r8, lr}
    94a8:	e1a04000 	mov	r4, r0
    94ac:	e1a06001 	mov	r6, r1
    94b0:	e1a08002 	mov	r8, r2
    94b4:	e1a05003 	mov	r5, r3
    94b8:	e59d7018 	ldr	r7, [sp, #24]
    94bc:	e1a00001 	mov	r0, r1
    94c0:	ebfffd93 	bl	8b14 <gpio_set_output>
    94c4:	e1a00008 	mov	r0, r8
    94c8:	ebfffde2 	bl	8c58 <gpio_set_input>
    94cc:	e3a03001 	mov	r3, #1
    94d0:	ee0f3f1c 	mcr	15, 0, r3, cr15, cr12, {0}
    94d4:	e1a00006 	mov	r0, r6
    94d8:	e3a01001 	mov	r1, #1
    94dc:	ebfffe23 	bl	8d70 <gpio_write>
    94e0:	e0020795 	mul	r2, r5, r7
    94e4:	e59f3068 	ldr	r3, [pc, #104]	; 9554 <sw_uart_init_helper+0xb0>
    94e8:	e0653003 	rsb	r3, r5, r3
    94ec:	e1530002 	cmp	r3, r2
    94f0:	8a000005 	bhi	950c <sw_uart_init_helper+0x68>
    94f4:	e59f3058 	ldr	r3, [pc, #88]	; 9554 <sw_uart_init_helper+0xb0>
    94f8:	e0853003 	add	r3, r5, r3
    94fc:	e1530002 	cmp	r3, r2
    9500:	2a000003 	bcs	9514 <sw_uart_init_helper+0x70>
    9504:	e3a03000 	mov	r3, #0
    9508:	ea000002 	b	9518 <sw_uart_init_helper+0x74>
    950c:	e3a03000 	mov	r3, #0
    9510:	ea000000 	b	9518 <sw_uart_init_helper+0x74>
    9514:	e3a03001 	mov	r3, #1
    9518:	e3530000 	cmp	r3, #0
    951c:	1a000006 	bne	953c <sw_uart_init_helper+0x98>
    9520:	ebfffbb1 	bl	83ec <rpi_reset_putc>
    9524:	e59f002c 	ldr	r0, [pc, #44]	; 9558 <sw_uart_init_helper+0xb4>
    9528:	e59f102c 	ldr	r1, [pc, #44]	; 955c <sw_uart_init_helper+0xb8>
    952c:	e59f202c 	ldr	r2, [pc, #44]	; 9560 <sw_uart_init_helper+0xbc>
    9530:	e3a0309d 	mov	r3, #157	; 0x9d
    9534:	ebfffb91 	bl	8380 <printk>
    9538:	ebfffd00 	bl	8940 <clean_reboot>
    953c:	e5c46000 	strb	r6, [r4]
    9540:	e5c48001 	strb	r8, [r4, #1]
    9544:	e5845004 	str	r5, [r4, #4]
    9548:	e5847008 	str	r7, [r4, #8]
    954c:	e1a00004 	mov	r0, r4
    9550:	e8bd81f0 	pop	{r4, r5, r6, r7, r8, pc}
    9554:	29b92700 	ldmibcs	r9!, {r8, r9, sl, sp}
    9558:	0000a728 	andeq	sl, r0, r8, lsr #14
    955c:	0000a714 	andeq	sl, r0, r4, lsl r7
    9560:	0000a6ac 	andeq	sl, r0, ip, lsr #13

00009564 <sw_uart_getc>:
    9564:	e92d4008 	push	{r3, lr}
    9568:	e3e01000 	mvn	r1, #0
    956c:	ebffff17 	bl	91d0 <sw_uart_getc_timeout>
    9570:	e3500000 	cmp	r0, #0
    9574:	a8bd8008 	popge	{r3, pc}
    9578:	ebfffb9b 	bl	83ec <rpi_reset_putc>
    957c:	e59f0010 	ldr	r0, [pc, #16]	; 9594 <sw_uart_getc+0x30>
    9580:	e59f1010 	ldr	r1, [pc, #16]	; 9598 <sw_uart_getc+0x34>
    9584:	e59f2010 	ldr	r2, [pc, #16]	; 959c <sw_uart_getc+0x38>
    9588:	e3a030ac 	mov	r3, #172	; 0xac
    958c:	ebfffb7b 	bl	8380 <printk>
    9590:	ebfffcea 	bl	8940 <clean_reboot>
    9594:	0000a76c 	andeq	sl, r0, ip, ror #14
    9598:	0000a714 	andeq	sl, r0, r4, lsl r7
    959c:	0000a6c0 	andeq	sl, r0, r0, asr #13

000095a0 <sw_uart_putk>:
    95a0:	e92d4038 	push	{r3, r4, r5, lr}
    95a4:	e1a05000 	mov	r5, r0
    95a8:	e1a04001 	mov	r4, r1
    95ac:	ea000002 	b	95bc <sw_uart_putk+0x1c>
    95b0:	e1a00005 	mov	r0, r5
    95b4:	ebfffeb0 	bl	907c <sw_uart_putc>
    95b8:	e2844001 	add	r4, r4, #1
    95bc:	e5d41000 	ldrb	r1, [r4]
    95c0:	e3510000 	cmp	r1, #0
    95c4:	1afffff9 	bne	95b0 <sw_uart_putk+0x10>
    95c8:	e8bd8038 	pop	{r3, r4, r5, pc}

000095cc <sw_uart_printk>:
    95cc:	e92d000e 	push	{r1, r2, r3}
    95d0:	e92d4030 	push	{r4, r5, lr}
    95d4:	e24dde1d 	sub	sp, sp, #464	; 0x1d0
    95d8:	e1a05000 	mov	r5, r0
    95dc:	e28d3e1e 	add	r3, sp, #480	; 0x1e0
    95e0:	e58d3000 	str	r3, [sp]
    95e4:	e28d0004 	add	r0, sp, #4
    95e8:	e3a01f73 	mov	r1, #460	; 0x1cc
    95ec:	e59d21dc 	ldr	r2, [sp, #476]	; 0x1dc
    95f0:	ebfffc30 	bl	86b8 <va_printk>
    95f4:	e1a04000 	mov	r4, r0
    95f8:	e59f3040 	ldr	r3, [pc, #64]	; 9640 <sw_uart_printk+0x74>
    95fc:	e1500003 	cmp	r0, r3
    9600:	9a000006 	bls	9620 <sw_uart_printk+0x54>
    9604:	ebfffb78 	bl	83ec <rpi_reset_putc>
    9608:	e59f0034 	ldr	r0, [pc, #52]	; 9644 <sw_uart_printk+0x78>
    960c:	e59f1034 	ldr	r1, [pc, #52]	; 9648 <sw_uart_printk+0x7c>
    9610:	e59f2034 	ldr	r2, [pc, #52]	; 964c <sw_uart_printk+0x80>
    9614:	e3a030c0 	mov	r3, #192	; 0xc0
    9618:	ebfffb58 	bl	8380 <printk>
    961c:	ebfffcc7 	bl	8940 <clean_reboot>
    9620:	e1a00005 	mov	r0, r5
    9624:	e28d1004 	add	r1, sp, #4
    9628:	ebffffdc 	bl	95a0 <sw_uart_putk>
    962c:	e1a00004 	mov	r0, r4
    9630:	e28dde1d 	add	sp, sp, #464	; 0x1d0
    9634:	e8bd4030 	pop	{r4, r5, lr}
    9638:	e28dd00c 	add	sp, sp, #12
    963c:	e12fff1e 	bx	lr
    9640:	000001ca 	andeq	r0, r0, sl, asr #3
    9644:	0000a7a4 	andeq	sl, r0, r4, lsr #15
    9648:	0000a714 	andeq	sl, r0, r4, lsl r7
    964c:	0000a6d0 	ldrdeq	sl, [r0], -r0

00009650 <sw_uart_gets_until_blk>:
    9650:	e52de004 	push	{lr}		; (str lr, [sp, #-4]!)
    9654:	e24dd00c 	sub	sp, sp, #12
    9658:	e3e0c000 	mvn	ip, #0
    965c:	e58dc000 	str	ip, [sp]
    9660:	ebffff4c 	bl	9398 <sw_uart_gets_until>
    9664:	e3500000 	cmp	r0, #0
    9668:	aa000006 	bge	9688 <sw_uart_gets_until_blk+0x38>
    966c:	ebfffb5e 	bl	83ec <rpi_reset_putc>
    9670:	e59f0018 	ldr	r0, [pc, #24]	; 9690 <sw_uart_gets_until_blk+0x40>
    9674:	e59f1018 	ldr	r1, [pc, #24]	; 9694 <sw_uart_gets_until_blk+0x44>
    9678:	e59f2018 	ldr	r2, [pc, #24]	; 9698 <sw_uart_gets_until_blk+0x48>
    967c:	e3a030c8 	mov	r3, #200	; 0xc8
    9680:	ebfffb3e 	bl	8380 <printk>
    9684:	ebfffcad 	bl	8940 <clean_reboot>
    9688:	e28dd00c 	add	sp, sp, #12
    968c:	e49df004 	pop	{pc}		; (ldr pc, [sp], #4)
    9690:	0000a76c 	andeq	sl, r0, ip, ror #14
    9694:	0000a714 	andeq	sl, r0, r4, lsl r7
    9698:	0000a6e0 	andeq	sl, r0, r0, ror #13

0000969c <uart_init>:
    969c:	e92d4038 	push	{r3, r4, r5, lr}
    96a0:	eb0000d3 	bl	99f4 <dev_barrier>
    96a4:	e3a0000e 	mov	r0, #14
    96a8:	e3a01002 	mov	r1, #2
    96ac:	ebfffdb8 	bl	8d94 <gpio_set_function>
    96b0:	e3a0000f 	mov	r0, #15
    96b4:	e3a01002 	mov	r1, #2
    96b8:	ebfffdb5 	bl	8d94 <gpio_set_function>
    96bc:	eb0000cc 	bl	99f4 <dev_barrier>
    96c0:	e59f4068 	ldr	r4, [pc, #104]	; 9730 <uart_init+0x94>
    96c4:	e5945000 	ldr	r5, [r4]
    96c8:	e1a00005 	mov	r0, r5
    96cc:	eb0000da 	bl	9a3c <get32>
    96d0:	e3801001 	orr	r1, r0, #1
    96d4:	e1a00005 	mov	r0, r5
    96d8:	eb0000cb 	bl	9a0c <put32>
    96dc:	eb0000c4 	bl	99f4 <dev_barrier>
    96e0:	e5940004 	ldr	r0, [r4, #4]
    96e4:	e3a01000 	mov	r1, #0
    96e8:	eb0000c7 	bl	9a0c <put32>
    96ec:	e5940008 	ldr	r0, [r4, #8]
    96f0:	e3a01000 	mov	r1, #0
    96f4:	eb0000c4 	bl	9a0c <put32>
    96f8:	e594000c 	ldr	r0, [r4, #12]
    96fc:	e3a01006 	mov	r1, #6
    9700:	eb0000c1 	bl	9a0c <put32>
    9704:	e5940010 	ldr	r0, [r4, #16]
    9708:	e3a01003 	mov	r1, #3
    970c:	eb0000be 	bl	9a0c <put32>
    9710:	e5940014 	ldr	r0, [r4, #20]
    9714:	e59f1018 	ldr	r1, [pc, #24]	; 9734 <uart_init+0x98>
    9718:	eb0000bb 	bl	9a0c <put32>
    971c:	e5940004 	ldr	r0, [r4, #4]
    9720:	e3a01003 	mov	r1, #3
    9724:	eb0000b8 	bl	9a0c <put32>
    9728:	eb0000b1 	bl	99f4 <dev_barrier>
    972c:	e8bd8038 	pop	{r3, r4, r5, pc}
    9730:	0000a434 	andeq	sl, r0, r4, lsr r4
    9734:	0000010e 	andeq	r0, r0, lr, lsl #2

00009738 <uart_can_getc>:
    9738:	e92d4008 	push	{r3, lr}
    973c:	e59f300c 	ldr	r3, [pc, #12]	; 9750 <uart_can_getc+0x18>
    9740:	e5930018 	ldr	r0, [r3, #24]
    9744:	eb0000bc 	bl	9a3c <get32>
    9748:	e2000001 	and	r0, r0, #1
    974c:	e8bd8008 	pop	{r3, pc}
    9750:	0000a434 	andeq	sl, r0, r4, lsr r4

00009754 <uart_getc>:
    9754:	e92d4008 	push	{r3, lr}
    9758:	ebfffff6 	bl	9738 <uart_can_getc>
    975c:	e3500000 	cmp	r0, #0
    9760:	0afffffc 	beq	9758 <uart_getc+0x4>
    9764:	e59f300c 	ldr	r3, [pc, #12]	; 9778 <uart_getc+0x24>
    9768:	e593001c 	ldr	r0, [r3, #28]
    976c:	eb0000b2 	bl	9a3c <get32>
    9770:	e6ef0070 	uxtb	r0, r0
    9774:	e8bd8008 	pop	{r3, pc}
    9778:	0000a434 	andeq	sl, r0, r4, lsr r4

0000977c <uart_can_putc>:
    977c:	e92d4008 	push	{r3, lr}
    9780:	e59f300c 	ldr	r3, [pc, #12]	; 9794 <uart_can_putc+0x18>
    9784:	e5930018 	ldr	r0, [r3, #24]
    9788:	eb0000ab 	bl	9a3c <get32>
    978c:	e2000020 	and	r0, r0, #32
    9790:	e8bd8008 	pop	{r3, pc}
    9794:	0000a434 	andeq	sl, r0, r4, lsr r4

00009798 <uart_putc>:
    9798:	e92d4010 	push	{r4, lr}
    979c:	e1a04000 	mov	r4, r0
    97a0:	ebfffff5 	bl	977c <uart_can_putc>
    97a4:	e3500000 	cmp	r0, #0
    97a8:	0afffffc 	beq	97a0 <uart_putc+0x8>
    97ac:	e59f300c 	ldr	r3, [pc, #12]	; 97c0 <uart_putc+0x28>
    97b0:	e593001c 	ldr	r0, [r3, #28]
    97b4:	e1a01004 	mov	r1, r4
    97b8:	eb000093 	bl	9a0c <put32>
    97bc:	e8bd8010 	pop	{r4, pc}
    97c0:	0000a434 	andeq	sl, r0, r4, lsr r4

000097c4 <uart_has_data>:
    97c4:	e92d4008 	push	{r3, lr}
    97c8:	ebffffda 	bl	9738 <uart_can_getc>
    97cc:	e8bd8008 	pop	{r3, pc}

000097d0 <uart_getc_async>:
    97d0:	e92d4008 	push	{r3, lr}
    97d4:	ebfffffa 	bl	97c4 <uart_has_data>
    97d8:	e3500000 	cmp	r0, #0
    97dc:	0a000001 	beq	97e8 <uart_getc_async+0x18>
    97e0:	ebffffdb 	bl	9754 <uart_getc>
    97e4:	e8bd8008 	pop	{r3, pc}
    97e8:	e3e00000 	mvn	r0, #0
    97ec:	e8bd8008 	pop	{r3, pc}

000097f0 <int_init>:
    97f0:	e92d4008 	push	{r3, lr}
    97f4:	e59f004c 	ldr	r0, [pc, #76]	; 9848 <int_init+0x58>
    97f8:	e3e01000 	mvn	r1, #0
    97fc:	eb000084 	bl	9a14 <PUT32>
    9800:	e59f0044 	ldr	r0, [pc, #68]	; 984c <int_init+0x5c>
    9804:	e3e01000 	mvn	r1, #0
    9808:	eb000081 	bl	9a14 <PUT32>
    980c:	eb000078 	bl	99f4 <dev_barrier>
    9810:	e59f3038 	ldr	r3, [pc, #56]	; 9850 <int_init+0x60>
    9814:	e59f0038 	ldr	r0, [pc, #56]	; 9854 <int_init+0x64>
    9818:	e0630000 	rsb	r0, r3, r0
    981c:	e1a00140 	asr	r0, r0, #2
    9820:	e3a03000 	mov	r3, #0
    9824:	e59fc024 	ldr	ip, [pc, #36]	; 9850 <int_init+0x60>
    9828:	ea000003 	b	983c <int_init+0x4c>
    982c:	e1a02103 	lsl	r2, r3, #2
    9830:	e79c1103 	ldr	r1, [ip, r3, lsl #2]
    9834:	e5821000 	str	r1, [r2]
    9838:	e2833001 	add	r3, r3, #1
    983c:	e1530000 	cmp	r3, r0
    9840:	3afffff9 	bcc	982c <int_init+0x3c>
    9844:	e8bd8008 	pop	{r3, pc}
    9848:	2000b21c 	andcs	fp, r0, ip, lsl r2
    984c:	2000b220 	andcs	fp, r0, r0, lsr #4
    9850:	00009a78 	andeq	r9, r0, r8, ror sl
    9854:	00009ac8 	andeq	r9, r0, r8, asr #21

00009858 <fast_interrupt_vector>:
    9858:	e52de004 	push	{lr}		; (str lr, [sp, #-4]!)
    985c:	e24dd00c 	sub	sp, sp, #12
    9860:	e1a04000 	mov	r4, r0
    9864:	ebfffae0 	bl	83ec <rpi_reset_putc>
    9868:	e59f301c 	ldr	r3, [pc, #28]	; 988c <fast_interrupt_vector+0x34>
    986c:	e58d3000 	str	r3, [sp]
    9870:	e58d4004 	str	r4, [sp, #4]
    9874:	e59f0014 	ldr	r0, [pc, #20]	; 9890 <fast_interrupt_vector+0x38>
    9878:	e59f1014 	ldr	r1, [pc, #20]	; 9894 <fast_interrupt_vector+0x3c>
    987c:	e59f2014 	ldr	r2, [pc, #20]	; 9898 <fast_interrupt_vector+0x40>
    9880:	e3a03020 	mov	r3, #32
    9884:	ebfffabd 	bl	8380 <printk>
    9888:	ebfffc2c 	bl	8940 <clean_reboot>
    988c:	0000a8b4 			; <UNDEFINED> instruction: 0x0000a8b4
    9890:	0000a858 	andeq	sl, r0, r8, asr r8
    9894:	0000a894 	muleq	r0, r4, r8
    9898:	0000a7c8 	andeq	sl, r0, r8, asr #15

0000989c <software_interrupt_vector>:
    989c:	e52de004 	push	{lr}		; (str lr, [sp, #-4]!)
    98a0:	e24dd00c 	sub	sp, sp, #12
    98a4:	e1a04000 	mov	r4, r0
    98a8:	ebfffacf 	bl	83ec <rpi_reset_putc>
    98ac:	e59f301c 	ldr	r3, [pc, #28]	; 98d0 <software_interrupt_vector+0x34>
    98b0:	e58d3000 	str	r3, [sp]
    98b4:	e58d4004 	str	r4, [sp, #4]
    98b8:	e59f0014 	ldr	r0, [pc, #20]	; 98d4 <software_interrupt_vector+0x38>
    98bc:	e59f1014 	ldr	r1, [pc, #20]	; 98d8 <software_interrupt_vector+0x3c>
    98c0:	e59f2014 	ldr	r2, [pc, #20]	; 98dc <software_interrupt_vector+0x40>
    98c4:	e3a03025 	mov	r3, #37	; 0x25
    98c8:	ebfffaac 	bl	8380 <printk>
    98cc:	ebfffc1b 	bl	8940 <clean_reboot>
    98d0:	0000a8bc 			; <UNDEFINED> instruction: 0x0000a8bc
    98d4:	0000a858 	andeq	sl, r0, r8, asr r8
    98d8:	0000a894 	muleq	r0, r4, r8
    98dc:	0000a7e0 	andeq	sl, r0, r0, ror #15

000098e0 <reset_vector>:
    98e0:	e52de004 	push	{lr}		; (str lr, [sp, #-4]!)
    98e4:	e24dd00c 	sub	sp, sp, #12
    98e8:	e1a04000 	mov	r4, r0
    98ec:	ebfffabe 	bl	83ec <rpi_reset_putc>
    98f0:	e59f301c 	ldr	r3, [pc, #28]	; 9914 <reset_vector+0x34>
    98f4:	e58d3000 	str	r3, [sp]
    98f8:	e58d4004 	str	r4, [sp, #4]
    98fc:	e59f0014 	ldr	r0, [pc, #20]	; 9918 <reset_vector+0x38>
    9900:	e59f1014 	ldr	r1, [pc, #20]	; 991c <reset_vector+0x3c>
    9904:	e59f2014 	ldr	r2, [pc, #20]	; 9920 <reset_vector+0x40>
    9908:	e3a03028 	mov	r3, #40	; 0x28
    990c:	ebfffa9b 	bl	8380 <printk>
    9910:	ebfffc0a 	bl	8940 <clean_reboot>
    9914:	0000a8cc 	andeq	sl, r0, ip, asr #17
    9918:	0000a858 	andeq	sl, r0, r8, asr r8
    991c:	0000a894 	muleq	r0, r4, r8
    9920:	0000a7fc 	strdeq	sl, [r0], -ip

00009924 <undefined_instruction_vector>:
    9924:	e52de004 	push	{lr}		; (str lr, [sp, #-4]!)
    9928:	e24dd00c 	sub	sp, sp, #12
    992c:	e1a04000 	mov	r4, r0
    9930:	ebfffaad 	bl	83ec <rpi_reset_putc>
    9934:	e59f301c 	ldr	r3, [pc, #28]	; 9958 <undefined_instruction_vector+0x34>
    9938:	e58d3000 	str	r3, [sp]
    993c:	e58d4004 	str	r4, [sp, #4]
    9940:	e59f0014 	ldr	r0, [pc, #20]	; 995c <undefined_instruction_vector+0x38>
    9944:	e59f1014 	ldr	r1, [pc, #20]	; 9960 <undefined_instruction_vector+0x3c>
    9948:	e59f2014 	ldr	r2, [pc, #20]	; 9964 <undefined_instruction_vector+0x40>
    994c:	e3a0302b 	mov	r3, #43	; 0x2b
    9950:	ebfffa8a 	bl	8380 <printk>
    9954:	ebfffbf9 	bl	8940 <clean_reboot>
    9958:	0000a8dc 	ldrdeq	sl, [r0], -ip
    995c:	0000a858 	andeq	sl, r0, r8, asr r8
    9960:	0000a894 	muleq	r0, r4, r8
    9964:	0000a80c 	andeq	sl, r0, ip, lsl #16

00009968 <prefetch_abort_vector>:
    9968:	e52de004 	push	{lr}		; (str lr, [sp, #-4]!)
    996c:	e24dd00c 	sub	sp, sp, #12
    9970:	e1a04000 	mov	r4, r0
    9974:	ebfffa9c 	bl	83ec <rpi_reset_putc>
    9978:	e59f301c 	ldr	r3, [pc, #28]	; 999c <prefetch_abort_vector+0x34>
    997c:	e58d3000 	str	r3, [sp]
    9980:	e58d4004 	str	r4, [sp, #4]
    9984:	e59f0014 	ldr	r0, [pc, #20]	; 99a0 <prefetch_abort_vector+0x38>
    9988:	e59f1014 	ldr	r1, [pc, #20]	; 99a4 <prefetch_abort_vector+0x3c>
    998c:	e59f2014 	ldr	r2, [pc, #20]	; 99a8 <prefetch_abort_vector+0x40>
    9990:	e3a0302e 	mov	r3, #46	; 0x2e
    9994:	ebfffa79 	bl	8380 <printk>
    9998:	ebfffbe8 	bl	8940 <clean_reboot>
    999c:	0000a8f4 	strdeq	sl, [r0], -r4
    99a0:	0000a858 	andeq	sl, r0, r8, asr r8
    99a4:	0000a894 	muleq	r0, r4, r8
    99a8:	0000a82c 	andeq	sl, r0, ip, lsr #16

000099ac <data_abort_vector>:
    99ac:	e52de004 	push	{lr}		; (str lr, [sp, #-4]!)
    99b0:	e24dd00c 	sub	sp, sp, #12
    99b4:	e1a04000 	mov	r4, r0
    99b8:	ebfffa8b 	bl	83ec <rpi_reset_putc>
    99bc:	e59f301c 	ldr	r3, [pc, #28]	; 99e0 <data_abort_vector+0x34>
    99c0:	e58d3000 	str	r3, [sp]
    99c4:	e58d4004 	str	r4, [sp, #4]
    99c8:	e59f0014 	ldr	r0, [pc, #20]	; 99e4 <data_abort_vector+0x38>
    99cc:	e59f1014 	ldr	r1, [pc, #20]	; 99e8 <data_abort_vector+0x3c>
    99d0:	e59f2014 	ldr	r2, [pc, #20]	; 99ec <data_abort_vector+0x40>
    99d4:	e3a03031 	mov	r3, #49	; 0x31
    99d8:	ebfffa68 	bl	8380 <printk>
    99dc:	ebfffbd7 	bl	8940 <clean_reboot>
    99e0:	0000a904 	andeq	sl, r0, r4, lsl #18
    99e4:	0000a858 	andeq	sl, r0, r8, asr r8
    99e8:	0000a894 	muleq	r0, r4, r8
    99ec:	0000a844 	andeq	sl, r0, r4, asr #16

000099f0 <BRANCHTO>:
    99f0:	e12fff10 	bx	r0

000099f4 <dev_barrier>:
    99f4:	ea000002 	b	9a04 <dsb>

000099f8 <dmb>:
    99f8:	e3a00000 	mov	r0, #0
    99fc:	ee070fba 	mcr	15, 0, r0, cr7, cr10, {5}
    9a00:	e12fff1e 	bx	lr

00009a04 <dsb>:
    9a04:	ee070f9a 	mcr	15, 0, r0, cr7, cr10, {4}
    9a08:	e12fff1e 	bx	lr

00009a0c <put32>:
    9a0c:	e5801000 	str	r1, [r0]
    9a10:	e12fff1e 	bx	lr

00009a14 <PUT32>:
    9a14:	e5801000 	str	r1, [r0]
    9a18:	e12fff1e 	bx	lr

00009a1c <put16>:
    9a1c:	e1c010b0 	strh	r1, [r0]
    9a20:	e12fff1e 	bx	lr

00009a24 <PUT16>:
    9a24:	e1c010b0 	strh	r1, [r0]
    9a28:	e12fff1e 	bx	lr

00009a2c <put8>:
    9a2c:	e5c01000 	strb	r1, [r0]
    9a30:	e12fff1e 	bx	lr

00009a34 <PUT8>:
    9a34:	e5c01000 	strb	r1, [r0]
    9a38:	e12fff1e 	bx	lr

00009a3c <get32>:
    9a3c:	e5900000 	ldr	r0, [r0]
    9a40:	e12fff1e 	bx	lr

00009a44 <GET32>:
    9a44:	e5900000 	ldr	r0, [r0]
    9a48:	e12fff1e 	bx	lr

00009a4c <GETPC>:
    9a4c:	e1a0000e 	mov	r0, lr
    9a50:	e12fff1e 	bx	lr

00009a54 <dummy>:
    9a54:	e12fff1e 	bx	lr

00009a58 <system_enable_interrupts>:
    9a58:	e10f0000 	mrs	r0, CPSR
    9a5c:	e3c00080 	bic	r0, r0, #128	; 0x80
    9a60:	e121f000 	msr	CPSR_c, r0
    9a64:	e12fff1e 	bx	lr

00009a68 <system_disable_interrupts>:
    9a68:	e10f0000 	mrs	r0, CPSR
    9a6c:	e3800080 	orr	r0, r0, #128	; 0x80
    9a70:	e121f000 	msr	CPSR_c, r0
    9a74:	e12fff1e 	bx	lr

00009a78 <_interrupt_table>:
    9a78:	e59ff030 	ldr	pc, [pc, #48]	; 9ab0 <_reset_asm>
    9a7c:	e59ff030 	ldr	pc, [pc, #48]	; 9ab4 <_undefined_instruction_asm>
    9a80:	e59ff030 	ldr	pc, [pc, #48]	; 9ab8 <_software_interrupt_asm>
    9a84:	e59ff030 	ldr	pc, [pc, #48]	; 9abc <_prefetch_abort_asm>
    9a88:	e59ff030 	ldr	pc, [pc, #48]	; 9ac0 <_data_abort_asm>
    9a8c:	e59ff01c 	ldr	pc, [pc, #28]	; 9ab0 <_reset_asm>
    9a90:	e59ff02c 	ldr	pc, [pc, #44]	; 9ac4 <_interrupt_asm>

00009a94 <fast_interrupt_asm>:
    9a94:	e24ee004 	sub	lr, lr, #4
    9a98:	e52de004 	push	{lr}		; (str lr, [sp, #-4]!)
    9a9c:	e92d1fff 	push	{r0, r1, r2, r3, r4, r5, r6, r7, r8, r9, sl, fp, ip}
    9aa0:	e1a0000e 	mov	r0, lr
    9aa4:	ebffff6b 	bl	9858 <fast_interrupt_vector>
    9aa8:	e8bd1fff 	pop	{r0, r1, r2, r3, r4, r5, r6, r7, r8, r9, sl, fp, ip}
    9aac:	e8fd8000 	ldm	sp!, {pc}^

00009ab0 <_reset_asm>:
    9ab0:	00009b10 	andeq	r9, r0, r0, lsl fp

00009ab4 <_undefined_instruction_asm>:
    9ab4:	00009b18 	andeq	r9, r0, r8, lsl fp

00009ab8 <_software_interrupt_asm>:
    9ab8:	00009ae4 	andeq	r9, r0, r4, ror #21

00009abc <_prefetch_abort_asm>:
    9abc:	00009b20 	andeq	r9, r0, r0, lsr #22

00009ac0 <_data_abort_asm>:
    9ac0:	00009b28 	andeq	r9, r0, r8, lsr #22

00009ac4 <_interrupt_asm>:
    9ac4:	00009ac8 	andeq	r9, r0, r8, asr #21

00009ac8 <_interrupt_table_end>:
    9ac8:	e3a0d409 	mov	sp, #150994944	; 0x9000000
    9acc:	e24ee004 	sub	lr, lr, #4
    9ad0:	e92d5fff 	push	{r0, r1, r2, r3, r4, r5, r6, r7, r8, r9, sl, fp, ip, lr}
    9ad4:	e1a0000e 	mov	r0, lr
    9ad8:	ebfff981 	bl	80e4 <interrupt_vector>
    9adc:	e8bd5fff 	pop	{r0, r1, r2, r3, r4, r5, r6, r7, r8, r9, sl, fp, ip, lr}
    9ae0:	e1b0f00e 	movs	pc, lr

00009ae4 <software_interrupt_asm>:
    9ae4:	e52de004 	push	{lr}		; (str lr, [sp, #-4]!)
    9ae8:	e92d1ffe 	push	{r1, r2, r3, r4, r5, r6, r7, r8, r9, sl, fp, ip}
    9aec:	e24ee004 	sub	lr, lr, #4
    9af0:	e1a0200e 	mov	r2, lr
    9af4:	e1a01000 	mov	r1, r0
    9af8:	e1a0000e 	mov	r0, lr
    9afc:	eb000003 	bl	9b10 <reset_asm>
    9b00:	e8bd1ffe 	pop	{r1, r2, r3, r4, r5, r6, r7, r8, r9, sl, fp, ip}
    9b04:	e49de004 	pop	{lr}		; (ldr lr, [sp], #4)
    9b08:	e8fd8000 	ldm	sp!, {pc}^
    9b0c:	e1b0f00e 	movs	pc, lr

00009b10 <reset_asm>:
    9b10:	e24ee004 	sub	lr, lr, #4
    9b14:	ebffff71 	bl	98e0 <reset_vector>

00009b18 <undefined_instruction_asm>:
    9b18:	e24ee004 	sub	lr, lr, #4
    9b1c:	ebffff80 	bl	9924 <undefined_instruction_vector>

00009b20 <prefetch_abort_asm>:
    9b20:	e24ee004 	sub	lr, lr, #4
    9b24:	ebffff8f 	bl	9968 <prefetch_abort_vector>

00009b28 <data_abort_asm>:
    9b28:	e24ee004 	sub	lr, lr, #4
    9b2c:	ebffff9e 	bl	99ac <data_abort_vector>

00009b30 <or32>:
    9b30:	e92d4070 	push	{r4, r5, r6, lr}
    9b34:	e1a04000 	mov	r4, r0
    9b38:	e1a05001 	mov	r5, r1
    9b3c:	ebffffac 	bl	99f4 <dev_barrier>
    9b40:	e1a00004 	mov	r0, r4
    9b44:	ebffffbc 	bl	9a3c <get32>
    9b48:	e1801005 	orr	r1, r0, r5
    9b4c:	e1a00004 	mov	r0, r4
    9b50:	ebffffad 	bl	9a0c <put32>
    9b54:	ebffffa6 	bl	99f4 <dev_barrier>
    9b58:	e8bd8070 	pop	{r4, r5, r6, pc}

00009b5c <OR32>:
    9b5c:	e92d4010 	push	{r4, lr}
    9b60:	ebfffff2 	bl	9b30 <or32>
    9b64:	e8bd8010 	pop	{r4, pc}

00009b68 <uart_enable_gpu_int>:
    9b68:	e92d4010 	push	{r4, lr}
    9b6c:	e3a01202 	mov	r1, #536870912	; 0x20000000
    9b70:	e59f0004 	ldr	r0, [pc, #4]	; 9b7c <uart_enable_gpu_int+0x14>
    9b74:	ebfffff8 	bl	9b5c <OR32>
    9b78:	e8bd8010 	pop	{r4, pc}
    9b7c:	2000b210 	andcs	fp, r0, r0, lsl r2

00009b80 <uart_get_aux_irq>:
    9b80:	e59f0000 	ldr	r0, [pc]	; 9b88 <uart_get_aux_irq+0x8>
    9b84:	e12fff1e 	bx	lr
    9b88:	20215000 	eorcs	r5, r1, r0

00009b8c <uart_disable_rx_int>:
    9b8c:	e92d4010 	push	{r4, lr}
    9b90:	e2804004 	add	r4, r0, #4
    9b94:	e1a00004 	mov	r0, r4
    9b98:	ebffffa7 	bl	9a3c <get32>
    9b9c:	e3c01001 	bic	r1, r0, #1
    9ba0:	e1a00004 	mov	r0, r4
    9ba4:	ebffffe1 	bl	9b30 <or32>
    9ba8:	e8bd8010 	pop	{r4, pc}

00009bac <uart_enable_rx_int>:
    9bac:	e92d4010 	push	{r4, lr}
    9bb0:	e3a01001 	mov	r1, #1
    9bb4:	e2800004 	add	r0, r0, #4
    9bb8:	ebffffdc 	bl	9b30 <or32>
    9bbc:	e8bd8010 	pop	{r4, pc}

00009bc0 <uart_disable_tx_int>:
    9bc0:	e92d4010 	push	{r4, lr}
    9bc4:	e2804004 	add	r4, r0, #4
    9bc8:	e1a00004 	mov	r0, r4
    9bcc:	ebffff9a 	bl	9a3c <get32>
    9bd0:	e3c01002 	bic	r1, r0, #2
    9bd4:	e1a00004 	mov	r0, r4
    9bd8:	ebffff8b 	bl	9a0c <put32>
    9bdc:	e8bd8010 	pop	{r4, pc}

00009be0 <uart_enable_tx_int>:
    9be0:	e92d4010 	push	{r4, lr}
    9be4:	e3a01002 	mov	r1, #2
    9be8:	e2800004 	add	r0, r0, #4
    9bec:	ebffffcf 	bl	9b30 <or32>
    9bf0:	e8bd8010 	pop	{r4, pc}

00009bf4 <uart_enable_ints>:
    9bf4:	e92d4010 	push	{r4, lr}
    9bf8:	e1a04000 	mov	r4, r0
    9bfc:	ebfffff7 	bl	9be0 <uart_enable_tx_int>
    9c00:	e1a00004 	mov	r0, r4
    9c04:	ebffffe8 	bl	9bac <uart_enable_rx_int>
    9c08:	e8bd8010 	pop	{r4, pc}

00009c0c <uart_tx_int_enabled>:
    9c0c:	e92d4010 	push	{r4, lr}
    9c10:	e2800004 	add	r0, r0, #4
    9c14:	ebffff88 	bl	9a3c <get32>
    9c18:	e3100002 	tst	r0, #2
    9c1c:	13a00001 	movne	r0, #1
    9c20:	03a00000 	moveq	r0, #0
    9c24:	e8bd8010 	pop	{r4, pc}

00009c28 <uart_has_int>:
    9c28:	e92d4010 	push	{r4, lr}
    9c2c:	e24dd008 	sub	sp, sp, #8
    9c30:	e1a04000 	mov	r4, r0
    9c34:	ebffff6e 	bl	99f4 <dev_barrier>
    9c38:	e2840008 	add	r0, r4, #8
    9c3c:	ebffff7e 	bl	9a3c <get32>
    9c40:	e3100001 	tst	r0, #1
    9c44:	1a000022 	bne	9cd4 <uart_has_int+0xac>
    9c48:	e1a04000 	mov	r4, r0
    9c4c:	e1a030a0 	lsr	r3, r0, #1
    9c50:	e2033003 	and	r3, r3, #3
    9c54:	e3530003 	cmp	r3, #3
    9c58:	0a000007 	beq	9c7c <uart_has_int+0x54>
    9c5c:	e3530000 	cmp	r3, #0
    9c60:	0a00000c 	beq	9c98 <uart_has_int+0x70>
    9c64:	e3530002 	cmp	r3, #2
    9c68:	0a00001c 	beq	9ce0 <uart_has_int+0xb8>
    9c6c:	e3530001 	cmp	r3, #1
    9c70:	1a00000f 	bne	9cb4 <uart_has_int+0x8c>
    9c74:	e59f006c 	ldr	r0, [pc, #108]	; 9ce8 <uart_has_int+0xc0>
    9c78:	ea000016 	b	9cd8 <uart_has_int+0xb0>
    9c7c:	ebfff9da 	bl	83ec <rpi_reset_putc>
    9c80:	e3a03051 	mov	r3, #81	; 0x51
    9c84:	e59f2060 	ldr	r2, [pc, #96]	; 9cec <uart_has_int+0xc4>
    9c88:	e59f1060 	ldr	r1, [pc, #96]	; 9cf0 <uart_has_int+0xc8>
    9c8c:	e59f0060 	ldr	r0, [pc, #96]	; 9cf4 <uart_has_int+0xcc>
    9c90:	ebfff9ba 	bl	8380 <printk>
    9c94:	ebfffb29 	bl	8940 <clean_reboot>
    9c98:	ebfff9d3 	bl	83ec <rpi_reset_putc>
    9c9c:	e3a03052 	mov	r3, #82	; 0x52
    9ca0:	e59f2044 	ldr	r2, [pc, #68]	; 9cec <uart_has_int+0xc4>
    9ca4:	e59f1044 	ldr	r1, [pc, #68]	; 9cf0 <uart_has_int+0xc8>
    9ca8:	e59f0048 	ldr	r0, [pc, #72]	; 9cf8 <uart_has_int+0xd0>
    9cac:	ebfff9b3 	bl	8380 <printk>
    9cb0:	ebfffb22 	bl	8940 <clean_reboot>
    9cb4:	ebfff9cc 	bl	83ec <rpi_reset_putc>
    9cb8:	e58d4000 	str	r4, [sp]
    9cbc:	e3a03059 	mov	r3, #89	; 0x59
    9cc0:	e59f2024 	ldr	r2, [pc, #36]	; 9cec <uart_has_int+0xc4>
    9cc4:	e59f1024 	ldr	r1, [pc, #36]	; 9cf0 <uart_has_int+0xc8>
    9cc8:	e59f002c 	ldr	r0, [pc, #44]	; 9cfc <uart_has_int+0xd4>
    9ccc:	ebfff9ab 	bl	8380 <printk>
    9cd0:	ebfffb1a 	bl	8940 <clean_reboot>
    9cd4:	e3a00000 	mov	r0, #0
    9cd8:	e28dd008 	add	sp, sp, #8
    9cdc:	e8bd8010 	pop	{r4, pc}
    9ce0:	e59f0018 	ldr	r0, [pc, #24]	; 9d00 <uart_has_int+0xd8>
    9ce4:	eafffffb 	b	9cd8 <uart_has_int+0xb0>
    9ce8:	00000457 	andeq	r0, r0, r7, asr r4
    9cec:	0000a910 	andeq	sl, r0, r0, lsl r9
    9cf0:	0000a964 	andeq	sl, r0, r4, ror #18
    9cf4:	0000a970 	andeq	sl, r0, r0, ror r9
    9cf8:	0000a9b8 			; <UNDEFINED> instruction: 0x0000a9b8
    9cfc:	0000aa00 	andeq	sl, r0, r0, lsl #20
    9d00:	000008ae 	andeq	r0, r0, lr, lsr #17

00009d04 <uart_clear_int>:
    9d04:	e92d4010 	push	{r4, lr}
    9d08:	e1a04000 	mov	r4, r0
    9d0c:	ebffff38 	bl	99f4 <dev_barrier>
    9d10:	e3a01007 	mov	r1, #7
    9d14:	e2840008 	add	r0, r4, #8
    9d18:	ebffff84 	bl	9b30 <or32>
    9d1c:	ebffff34 	bl	99f4 <dev_barrier>
    9d20:	e59f4018 	ldr	r4, [pc, #24]	; 9d40 <uart_clear_int+0x3c>
    9d24:	e1a00004 	mov	r0, r4
    9d28:	ebffff43 	bl	9a3c <get32>
    9d2c:	e3c01001 	bic	r1, r0, #1
    9d30:	e1a00004 	mov	r0, r4
    9d34:	ebffff34 	bl	9a0c <put32>
    9d38:	ebffff2d 	bl	99f4 <dev_barrier>
    9d3c:	e8bd8010 	pop	{r4, pc}
    9d40:	20215000 	eorcs	r5, r1, r0

00009d44 <uart_init_with_interrupts>:
    9d44:	e92d4010 	push	{r4, lr}
    9d48:	e59f4280 	ldr	r4, [pc, #640]	; 9fd0 <uart_init_with_interrupts+0x28c>
    9d4c:	e59f2280 	ldr	r2, [pc, #640]	; 9fd4 <uart_init_with_interrupts+0x290>
    9d50:	e3a01000 	mov	r1, #0
    9d54:	e1a00004 	mov	r0, r4
    9d58:	eb00017f 	bl	a35c <memset>
    9d5c:	e59f3274 	ldr	r3, [pc, #628]	; 9fd8 <uart_init_with_interrupts+0x294>
    9d60:	e5843800 	str	r3, [r4, #2048]	; 0x800
    9d64:	e3a03000 	mov	r3, #0
    9d68:	e5843808 	str	r3, [r4, #2056]	; 0x808
    9d6c:	e5843804 	str	r3, [r4, #2052]	; 0x804
    9d70:	e584380c 	str	r3, [r4, #2060]	; 0x80c
    9d74:	e5d43810 	ldrb	r3, [r4, #2064]	; 0x810
    9d78:	e3833001 	orr	r3, r3, #1
    9d7c:	e5c43810 	strb	r3, [r4, #2064]	; 0x810
    9d80:	e5942804 	ldr	r2, [r4, #2052]	; 0x804
    9d84:	e5943808 	ldr	r3, [r4, #2056]	; 0x808
    9d88:	e1520003 	cmp	r2, r3
    9d8c:	1a000047 	bne	9eb0 <uart_init_with_interrupts+0x16c>
    9d90:	e59f2238 	ldr	r2, [pc, #568]	; 9fd0 <uart_init_with_interrupts+0x28c>
    9d94:	e5923804 	ldr	r3, [r2, #2052]	; 0x804
    9d98:	e2833001 	add	r3, r3, #1
    9d9c:	e1a03a83 	lsl	r3, r3, #21
    9da0:	e1a03aa3 	lsr	r3, r3, #21
    9da4:	e5922808 	ldr	r2, [r2, #2056]	; 0x808
    9da8:	e1530002 	cmp	r3, r2
    9dac:	0a000046 	beq	9ecc <uart_init_with_interrupts+0x188>
    9db0:	e59f2218 	ldr	r2, [pc, #536]	; 9fd0 <uart_init_with_interrupts+0x28c>
    9db4:	e5923804 	ldr	r3, [r2, #2052]	; 0x804
    9db8:	e5922808 	ldr	r2, [r2, #2056]	; 0x808
    9dbc:	e0433002 	sub	r3, r3, r2
    9dc0:	e1a03a83 	lsl	r3, r3, #21
    9dc4:	e1a03aa3 	lsr	r3, r3, #21
    9dc8:	e3530000 	cmp	r3, #0
    9dcc:	1a000045 	bne	9ee8 <uart_init_with_interrupts+0x1a4>
    9dd0:	e59f31f8 	ldr	r3, [pc, #504]	; 9fd0 <uart_init_with_interrupts+0x28c>
    9dd4:	e5932804 	ldr	r2, [r3, #2052]	; 0x804
    9dd8:	e5933808 	ldr	r3, [r3, #2056]	; 0x808
    9ddc:	e1520003 	cmp	r2, r3
    9de0:	1a000047 	bne	9f04 <uart_init_with_interrupts+0x1c0>
    9de4:	e59f41e4 	ldr	r4, [pc, #484]	; 9fd0 <uart_init_with_interrupts+0x28c>
    9de8:	e59f21e4 	ldr	r2, [pc, #484]	; 9fd4 <uart_init_with_interrupts+0x290>
    9dec:	e3a01000 	mov	r1, #0
    9df0:	e2840e81 	add	r0, r4, #2064	; 0x810
    9df4:	e2800004 	add	r0, r0, #4
    9df8:	eb000157 	bl	a35c <memset>
    9dfc:	e2843a01 	add	r3, r4, #4096	; 0x1000
    9e00:	e59f21d0 	ldr	r2, [pc, #464]	; 9fd8 <uart_init_with_interrupts+0x294>
    9e04:	e5832014 	str	r2, [r3, #20]
    9e08:	e3a02000 	mov	r2, #0
    9e0c:	e583201c 	str	r2, [r3, #28]
    9e10:	e5832018 	str	r2, [r3, #24]
    9e14:	e5832020 	str	r2, [r3, #32]
    9e18:	e5d32024 	ldrb	r2, [r3, #36]	; 0x24
    9e1c:	e3822001 	orr	r2, r2, #1
    9e20:	e5c32024 	strb	r2, [r3, #36]	; 0x24
    9e24:	e5932018 	ldr	r2, [r3, #24]
    9e28:	e593301c 	ldr	r3, [r3, #28]
    9e2c:	e1520003 	cmp	r2, r3
    9e30:	1a000041 	bne	9f3c <uart_init_with_interrupts+0x1f8>
    9e34:	e59f21a0 	ldr	r2, [pc, #416]	; 9fdc <uart_init_with_interrupts+0x298>
    9e38:	e5923018 	ldr	r3, [r2, #24]
    9e3c:	e2833001 	add	r3, r3, #1
    9e40:	e1a03a83 	lsl	r3, r3, #21
    9e44:	e1a03aa3 	lsr	r3, r3, #21
    9e48:	e592201c 	ldr	r2, [r2, #28]
    9e4c:	e1530002 	cmp	r3, r2
    9e50:	0a000040 	beq	9f58 <uart_init_with_interrupts+0x214>
    9e54:	e59f2180 	ldr	r2, [pc, #384]	; 9fdc <uart_init_with_interrupts+0x298>
    9e58:	e5923018 	ldr	r3, [r2, #24]
    9e5c:	e592201c 	ldr	r2, [r2, #28]
    9e60:	e0433002 	sub	r3, r3, r2
    9e64:	e1a03a83 	lsl	r3, r3, #21
    9e68:	e1a03aa3 	lsr	r3, r3, #21
    9e6c:	e3530000 	cmp	r3, #0
    9e70:	1a00003f 	bne	9f74 <uart_init_with_interrupts+0x230>
    9e74:	e59f3160 	ldr	r3, [pc, #352]	; 9fdc <uart_init_with_interrupts+0x298>
    9e78:	e5932018 	ldr	r2, [r3, #24]
    9e7c:	e593301c 	ldr	r3, [r3, #28]
    9e80:	e1520003 	cmp	r2, r3
    9e84:	1a000041 	bne	9f90 <uart_init_with_interrupts+0x24c>
    9e88:	ebfffe03 	bl	969c <uart_init>
    9e8c:	e59f414c 	ldr	r4, [pc, #332]	; 9fe0 <uart_init_with_interrupts+0x29c>
    9e90:	e1a00004 	mov	r0, r4
    9e94:	ebffff9a 	bl	9d04 <uart_clear_int>
    9e98:	e1a00004 	mov	r0, r4
    9e9c:	ebffff54 	bl	9bf4 <uart_enable_ints>
    9ea0:	ebfffed3 	bl	99f4 <dev_barrier>
    9ea4:	ebffff2f 	bl	9b68 <uart_enable_gpu_int>
    9ea8:	ebfffed1 	bl	99f4 <dev_barrier>
    9eac:	e8bd8010 	pop	{r4, pc}
    9eb0:	ebfff94d 	bl	83ec <rpi_reset_putc>
    9eb4:	e3a0309f 	mov	r3, #159	; 0x9f
    9eb8:	e59f2124 	ldr	r2, [pc, #292]	; 9fe4 <uart_init_with_interrupts+0x2a0>
    9ebc:	e59f1124 	ldr	r1, [pc, #292]	; 9fe8 <uart_init_with_interrupts+0x2a4>
    9ec0:	e59f0124 	ldr	r0, [pc, #292]	; 9fec <uart_init_with_interrupts+0x2a8>
    9ec4:	ebfff92d 	bl	8380 <printk>
    9ec8:	ebfffa9c 	bl	8940 <clean_reboot>
    9ecc:	ebfff946 	bl	83ec <rpi_reset_putc>
    9ed0:	e3a030a0 	mov	r3, #160	; 0xa0
    9ed4:	e59f2108 	ldr	r2, [pc, #264]	; 9fe4 <uart_init_with_interrupts+0x2a0>
    9ed8:	e59f1108 	ldr	r1, [pc, #264]	; 9fe8 <uart_init_with_interrupts+0x2a4>
    9edc:	e59f010c 	ldr	r0, [pc, #268]	; 9ff0 <uart_init_with_interrupts+0x2ac>
    9ee0:	ebfff926 	bl	8380 <printk>
    9ee4:	ebfffa95 	bl	8940 <clean_reboot>
    9ee8:	ebfff93f 	bl	83ec <rpi_reset_putc>
    9eec:	e3a030a1 	mov	r3, #161	; 0xa1
    9ef0:	e59f20ec 	ldr	r2, [pc, #236]	; 9fe4 <uart_init_with_interrupts+0x2a0>
    9ef4:	e59f10ec 	ldr	r1, [pc, #236]	; 9fe8 <uart_init_with_interrupts+0x2a4>
    9ef8:	e59f00f4 	ldr	r0, [pc, #244]	; 9ff4 <uart_init_with_interrupts+0x2b0>
    9efc:	ebfff91f 	bl	8380 <printk>
    9f00:	ebfffa8e 	bl	8940 <clean_reboot>
    9f04:	e59f20c4 	ldr	r2, [pc, #196]	; 9fd0 <uart_init_with_interrupts+0x28c>
    9f08:	e5923808 	ldr	r3, [r2, #2056]	; 0x808
    9f0c:	e7d21003 	ldrb	r1, [r2, r3]
    9f10:	e2833001 	add	r3, r3, #1
    9f14:	e1a03a83 	lsl	r3, r3, #21
    9f18:	e1a03aa3 	lsr	r3, r3, #21
    9f1c:	e5823808 	str	r3, [r2, #2056]	; 0x808
    9f20:	ebfff931 	bl	83ec <rpi_reset_putc>
    9f24:	e3a030a3 	mov	r3, #163	; 0xa3
    9f28:	e59f20b4 	ldr	r2, [pc, #180]	; 9fe4 <uart_init_with_interrupts+0x2a0>
    9f2c:	e59f10b4 	ldr	r1, [pc, #180]	; 9fe8 <uart_init_with_interrupts+0x2a4>
    9f30:	e59f00c0 	ldr	r0, [pc, #192]	; 9ff8 <uart_init_with_interrupts+0x2b4>
    9f34:	ebfff911 	bl	8380 <printk>
    9f38:	ebfffa80 	bl	8940 <clean_reboot>
    9f3c:	ebfff92a 	bl	83ec <rpi_reset_putc>
    9f40:	e3a0309f 	mov	r3, #159	; 0x9f
    9f44:	e59f2098 	ldr	r2, [pc, #152]	; 9fe4 <uart_init_with_interrupts+0x2a0>
    9f48:	e59f1098 	ldr	r1, [pc, #152]	; 9fe8 <uart_init_with_interrupts+0x2a4>
    9f4c:	e59f0098 	ldr	r0, [pc, #152]	; 9fec <uart_init_with_interrupts+0x2a8>
    9f50:	ebfff90a 	bl	8380 <printk>
    9f54:	ebfffa79 	bl	8940 <clean_reboot>
    9f58:	ebfff923 	bl	83ec <rpi_reset_putc>
    9f5c:	e3a030a0 	mov	r3, #160	; 0xa0
    9f60:	e59f207c 	ldr	r2, [pc, #124]	; 9fe4 <uart_init_with_interrupts+0x2a0>
    9f64:	e59f107c 	ldr	r1, [pc, #124]	; 9fe8 <uart_init_with_interrupts+0x2a4>
    9f68:	e59f0080 	ldr	r0, [pc, #128]	; 9ff0 <uart_init_with_interrupts+0x2ac>
    9f6c:	ebfff903 	bl	8380 <printk>
    9f70:	ebfffa72 	bl	8940 <clean_reboot>
    9f74:	ebfff91c 	bl	83ec <rpi_reset_putc>
    9f78:	e3a030a1 	mov	r3, #161	; 0xa1
    9f7c:	e59f2060 	ldr	r2, [pc, #96]	; 9fe4 <uart_init_with_interrupts+0x2a0>
    9f80:	e59f1060 	ldr	r1, [pc, #96]	; 9fe8 <uart_init_with_interrupts+0x2a4>
    9f84:	e59f0068 	ldr	r0, [pc, #104]	; 9ff4 <uart_init_with_interrupts+0x2b0>
    9f88:	ebfff8fc 	bl	8380 <printk>
    9f8c:	ebfffa6b 	bl	8940 <clean_reboot>
    9f90:	e59f2038 	ldr	r2, [pc, #56]	; 9fd0 <uart_init_with_interrupts+0x28c>
    9f94:	e2821a01 	add	r1, r2, #4096	; 0x1000
    9f98:	e591301c 	ldr	r3, [r1, #28]
    9f9c:	e0822003 	add	r2, r2, r3
    9fa0:	e5d22814 	ldrb	r2, [r2, #2068]	; 0x814
    9fa4:	e2833001 	add	r3, r3, #1
    9fa8:	e1a03a83 	lsl	r3, r3, #21
    9fac:	e1a03aa3 	lsr	r3, r3, #21
    9fb0:	e581301c 	str	r3, [r1, #28]
    9fb4:	ebfff90c 	bl	83ec <rpi_reset_putc>
    9fb8:	e3a030a3 	mov	r3, #163	; 0xa3
    9fbc:	e59f2020 	ldr	r2, [pc, #32]	; 9fe4 <uart_init_with_interrupts+0x2a0>
    9fc0:	e59f1020 	ldr	r1, [pc, #32]	; 9fe8 <uart_init_with_interrupts+0x2a4>
    9fc4:	e59f002c 	ldr	r0, [pc, #44]	; 9ff8 <uart_init_with_interrupts+0x2b4>
    9fc8:	ebfff8ec 	bl	8380 <printk>
    9fcc:	ebfffa5b 	bl	8940 <clean_reboot>
    9fd0:	0000af88 	andeq	sl, r0, r8, lsl #31
    9fd4:	00000814 	andeq	r0, r0, r4, lsl r8
    9fd8:	12345678 	eorsne	r5, r4, #120, 12	; 0x7800000
    9fdc:	0000bf88 	andeq	fp, r0, r8, lsl #31
    9fe0:	20215040 	eorcs	r5, r1, r0, asr #32
    9fe4:	0000a920 	andeq	sl, r0, r0, lsr #18
    9fe8:	0000aa28 	andeq	sl, r0, r8, lsr #20
    9fec:	0000aa60 	andeq	sl, r0, r0, ror #20
    9ff0:	0000aa7c 	andeq	sl, r0, ip, ror sl
    9ff4:	0000aa98 	muleq	r0, r8, sl
    9ff8:	0000aabc 			; <UNDEFINED> instruction: 0x0000aabc

00009ffc <uart_int_flush>:
    9ffc:	e92d4010 	push	{r4, lr}
    a000:	e10f3000 	mrs	r3, CPSR
    a004:	e3130080 	tst	r3, #128	; 0x80
    a008:	0a00001a 	beq	a078 <uart_int_flush+0x7c>
    a00c:	e59f209c 	ldr	r2, [pc, #156]	; a0b0 <uart_int_flush+0xb4>
    a010:	e5923018 	ldr	r3, [r2, #24]
    a014:	e592201c 	ldr	r2, [r2, #28]
    a018:	e0433002 	sub	r3, r3, r2
    a01c:	e1a03a83 	lsl	r3, r3, #21
    a020:	e1a03aa3 	lsr	r3, r3, #21
    a024:	e3530000 	cmp	r3, #0
    a028:	08bd8010 	popeq	{r4, pc}
    a02c:	ebfffdd2 	bl	977c <uart_can_putc>
    a030:	e3500000 	cmp	r0, #0
    a034:	08bd8010 	popeq	{r4, pc}
    a038:	e59f3070 	ldr	r3, [pc, #112]	; a0b0 <uart_int_flush+0xb4>
    a03c:	e5932018 	ldr	r2, [r3, #24]
    a040:	e593301c 	ldr	r3, [r3, #28]
    a044:	e1520003 	cmp	r2, r3
    a048:	0a000011 	beq	a094 <uart_int_flush+0x98>
    a04c:	e59f2060 	ldr	r2, [pc, #96]	; a0b4 <uart_int_flush+0xb8>
    a050:	e2821a01 	add	r1, r2, #4096	; 0x1000
    a054:	e591301c 	ldr	r3, [r1, #28]
    a058:	e0822003 	add	r2, r2, r3
    a05c:	e5d20814 	ldrb	r0, [r2, #2068]	; 0x814
    a060:	e2833001 	add	r3, r3, #1
    a064:	e1a03a83 	lsl	r3, r3, #21
    a068:	e1a03aa3 	lsr	r3, r3, #21
    a06c:	e581301c 	str	r3, [r1, #28]
    a070:	ebfffdc8 	bl	9798 <uart_putc>
    a074:	eaffffe4 	b	a00c <uart_int_flush+0x10>
    a078:	ebfff8db 	bl	83ec <rpi_reset_putc>
    a07c:	e3a03080 	mov	r3, #128	; 0x80
    a080:	e59f2030 	ldr	r2, [pc, #48]	; a0b8 <uart_int_flush+0xbc>
    a084:	e59f1030 	ldr	r1, [pc, #48]	; a0bc <uart_int_flush+0xc0>
    a088:	e59f0030 	ldr	r0, [pc, #48]	; a0c0 <uart_int_flush+0xc4>
    a08c:	ebfff8bb 	bl	8380 <printk>
    a090:	ebfffa2a 	bl	8940 <clean_reboot>
    a094:	ebfff8d4 	bl	83ec <rpi_reset_putc>
    a098:	e3a03051 	mov	r3, #81	; 0x51
    a09c:	e59f2020 	ldr	r2, [pc, #32]	; a0c4 <uart_int_flush+0xc8>
    a0a0:	e59f1020 	ldr	r1, [pc, #32]	; a0c8 <uart_int_flush+0xcc>
    a0a4:	e59f0020 	ldr	r0, [pc, #32]	; a0cc <uart_int_flush+0xd0>
    a0a8:	ebfff8b4 	bl	8380 <printk>
    a0ac:	ebfffa23 	bl	8940 <clean_reboot>
    a0b0:	0000bf88 	andeq	fp, r0, r8, lsl #31
    a0b4:	0000af88 	andeq	sl, r0, r8, lsl #31
    a0b8:	0000a928 	andeq	sl, r0, r8, lsr #18
    a0bc:	0000a964 	andeq	sl, r0, r4, ror #18
    a0c0:	0000aaf4 	strdeq	sl, [r0], -r4
    a0c4:	0000a938 	andeq	sl, r0, r8, lsr r9
    a0c8:	0000aa28 	andeq	sl, r0, r8, lsr #20
    a0cc:	0000ab18 	andeq	sl, r0, r8, lsl fp

0000a0d0 <uart_int_flush_all>:
    a0d0:	e92d4010 	push	{r4, lr}
    a0d4:	e10f3000 	mrs	r3, CPSR
    a0d8:	e3130080 	tst	r3, #128	; 0x80
    a0dc:	1a000001 	bne	a0e8 <uart_int_flush_all+0x18>
    a0e0:	ebfffe60 	bl	9a68 <system_disable_interrupts>
    a0e4:	ea000007 	b	a108 <uart_int_flush_all+0x38>
    a0e8:	ebfff8bf 	bl	83ec <rpi_reset_putc>
    a0ec:	e3a03087 	mov	r3, #135	; 0x87
    a0f0:	e59f2038 	ldr	r2, [pc, #56]	; a130 <uart_int_flush_all+0x60>
    a0f4:	e59f1038 	ldr	r1, [pc, #56]	; a134 <uart_int_flush_all+0x64>
    a0f8:	e59f0038 	ldr	r0, [pc, #56]	; a138 <uart_int_flush_all+0x68>
    a0fc:	ebfff89f 	bl	8380 <printk>
    a100:	ebfffa0e 	bl	8940 <clean_reboot>
    a104:	ebffffbc 	bl	9ffc <uart_int_flush>
    a108:	e59f202c 	ldr	r2, [pc, #44]	; a13c <uart_int_flush_all+0x6c>
    a10c:	e5923018 	ldr	r3, [r2, #24]
    a110:	e592201c 	ldr	r2, [r2, #28]
    a114:	e0433002 	sub	r3, r3, r2
    a118:	e1a03a83 	lsl	r3, r3, #21
    a11c:	e1a03aa3 	lsr	r3, r3, #21
    a120:	e3530000 	cmp	r3, #0
    a124:	1afffff6 	bne	a104 <uart_int_flush_all+0x34>
    a128:	ebfffe4a 	bl	9a58 <system_enable_interrupts>
    a12c:	e8bd8010 	pop	{r4, pc}
    a130:	0000a940 	andeq	sl, r0, r0, asr #18
    a134:	0000a964 	andeq	sl, r0, r4, ror #18
    a138:	0000ab58 	andeq	sl, r0, r8, asr fp
    a13c:	0000bf88 	andeq	fp, r0, r8, lsl #31

0000a140 <uart_interrupt_handler>:
    a140:	e92d4010 	push	{r4, lr}
    a144:	ebfffe2a 	bl	99f4 <dev_barrier>
    a148:	e59f00a8 	ldr	r0, [pc, #168]	; a1f8 <uart_interrupt_handler+0xb8>
    a14c:	ebfffeb5 	bl	9c28 <uart_has_int>
    a150:	e3500000 	cmp	r0, #0
    a154:	0a000023 	beq	a1e8 <uart_interrupt_handler+0xa8>
    a158:	e59f209c 	ldr	r2, [pc, #156]	; a1fc <uart_interrupt_handler+0xbc>
    a15c:	e5123fd0 	ldr	r3, [r2, #-4048]	; 0xfd0
    a160:	e2833001 	add	r3, r3, #1
    a164:	e5023fd0 	str	r3, [r2, #-4048]	; 0xfd0
    a168:	ebfffd95 	bl	97c4 <uart_has_data>
    a16c:	e3500000 	cmp	r0, #0
    a170:	0a000011 	beq	a1bc <uart_interrupt_handler+0x7c>
    a174:	ebfffd76 	bl	9754 <uart_getc>
    a178:	e6ef0070 	uxtb	r0, r0
    a17c:	e59f207c 	ldr	r2, [pc, #124]	; a200 <uart_interrupt_handler+0xc0>
    a180:	e5921804 	ldr	r1, [r2, #2052]	; 0x804
    a184:	e5923804 	ldr	r3, [r2, #2052]	; 0x804
    a188:	e2833001 	add	r3, r3, #1
    a18c:	e1a03a83 	lsl	r3, r3, #21
    a190:	e1a03aa3 	lsr	r3, r3, #21
    a194:	e5922808 	ldr	r2, [r2, #2056]	; 0x808
    a198:	e1530002 	cmp	r3, r2
    a19c:	0afffff1 	beq	a168 <uart_interrupt_handler+0x28>
    a1a0:	e59f3058 	ldr	r3, [pc, #88]	; a200 <uart_interrupt_handler+0xc0>
    a1a4:	e7c30001 	strb	r0, [r3, r1]
    a1a8:	e2811001 	add	r1, r1, #1
    a1ac:	e1a01a81 	lsl	r1, r1, #21
    a1b0:	e1a01aa1 	lsr	r1, r1, #21
    a1b4:	e5831804 	str	r1, [r3, #2052]	; 0x804
    a1b8:	eaffffea 	b	a168 <uart_interrupt_handler+0x28>
    a1bc:	e59f2040 	ldr	r2, [pc, #64]	; a204 <uart_interrupt_handler+0xc4>
    a1c0:	e5923018 	ldr	r3, [r2, #24]
    a1c4:	e592201c 	ldr	r2, [r2, #28]
    a1c8:	e0433002 	sub	r3, r3, r2
    a1cc:	e1a03a83 	lsl	r3, r3, #21
    a1d0:	e1a03aa3 	lsr	r3, r3, #21
    a1d4:	e3530000 	cmp	r3, #0
    a1d8:	1a000004 	bne	a1f0 <uart_interrupt_handler+0xb0>
    a1dc:	e59f0014 	ldr	r0, [pc, #20]	; a1f8 <uart_interrupt_handler+0xb8>
    a1e0:	ebfffe76 	bl	9bc0 <uart_disable_tx_int>
    a1e4:	ebfffe02 	bl	99f4 <dev_barrier>
    a1e8:	e3a00000 	mov	r0, #0
    a1ec:	e8bd8010 	pop	{r4, pc}
    a1f0:	ebffff81 	bl	9ffc <uart_int_flush>
    a1f4:	eafffffa 	b	a1e4 <uart_interrupt_handler+0xa4>
    a1f8:	20215040 	eorcs	r5, r1, r0, asr #32
    a1fc:	0000cf80 	andeq	ip, r0, r0, lsl #31
    a200:	0000af88 	andeq	sl, r0, r8, lsl #31
    a204:	0000bf88 	andeq	fp, r0, r8, lsl #31

0000a208 <uart_has_data_int>:
    a208:	e59f3014 	ldr	r3, [pc, #20]	; a224 <uart_has_data_int+0x1c>
    a20c:	e5930804 	ldr	r0, [r3, #2052]	; 0x804
    a210:	e5933808 	ldr	r3, [r3, #2056]	; 0x808
    a214:	e0400003 	sub	r0, r0, r3
    a218:	e1b00a80 	lsls	r0, r0, #21
    a21c:	13a00001 	movne	r0, #1
    a220:	e12fff1e 	bx	lr
    a224:	0000af88 	andeq	sl, r0, r8, lsl #31

0000a228 <uart_getc_int>:
    a228:	e92d4010 	push	{r4, lr}
    a22c:	ebfffdf0 	bl	99f4 <dev_barrier>
    a230:	ebfffff4 	bl	a208 <uart_has_data_int>
    a234:	e3500000 	cmp	r0, #0
    a238:	0afffffc 	beq	a230 <uart_getc_int+0x8>
    a23c:	e59f3048 	ldr	r3, [pc, #72]	; a28c <uart_getc_int+0x64>
    a240:	e5932804 	ldr	r2, [r3, #2052]	; 0x804
    a244:	e5933808 	ldr	r3, [r3, #2056]	; 0x808
    a248:	e1520003 	cmp	r2, r3
    a24c:	0a000007 	beq	a270 <uart_getc_int+0x48>
    a250:	e59f2034 	ldr	r2, [pc, #52]	; a28c <uart_getc_int+0x64>
    a254:	e5923808 	ldr	r3, [r2, #2056]	; 0x808
    a258:	e7d20003 	ldrb	r0, [r2, r3]
    a25c:	e2833001 	add	r3, r3, #1
    a260:	e1a03a83 	lsl	r3, r3, #21
    a264:	e1a03aa3 	lsr	r3, r3, #21
    a268:	e5823808 	str	r3, [r2, #2056]	; 0x808
    a26c:	e8bd8010 	pop	{r4, pc}
    a270:	ebfff85d 	bl	83ec <rpi_reset_putc>
    a274:	e3a03051 	mov	r3, #81	; 0x51
    a278:	e59f2010 	ldr	r2, [pc, #16]	; a290 <uart_getc_int+0x68>
    a27c:	e59f1010 	ldr	r1, [pc, #16]	; a294 <uart_getc_int+0x6c>
    a280:	e59f0010 	ldr	r0, [pc, #16]	; a298 <uart_getc_int+0x70>
    a284:	ebfff83d 	bl	8380 <printk>
    a288:	ebfff9ac 	bl	8940 <clean_reboot>
    a28c:	0000af88 	andeq	sl, r0, r8, lsl #31
    a290:	0000a938 	andeq	sl, r0, r8, lsr r9
    a294:	0000aa28 	andeq	sl, r0, r8, lsr #20
    a298:	0000ab18 	andeq	sl, r0, r8, lsl fp

0000a29c <uart_putc_int>:
    a29c:	e92d4010 	push	{r4, lr}
    a2a0:	e59f109c 	ldr	r1, [pc, #156]	; a344 <uart_putc_int+0xa8>
    a2a4:	e5912018 	ldr	r2, [r1, #24]
    a2a8:	e5913018 	ldr	r3, [r1, #24]
    a2ac:	e2833001 	add	r3, r3, #1
    a2b0:	e1a03a83 	lsl	r3, r3, #21
    a2b4:	e1a03aa3 	lsr	r3, r3, #21
    a2b8:	e591101c 	ldr	r1, [r1, #28]
    a2bc:	e1530001 	cmp	r3, r1
    a2c0:	0a000008 	beq	a2e8 <uart_putc_int+0x4c>
    a2c4:	e6ef0070 	uxtb	r0, r0
    a2c8:	e59f1078 	ldr	r1, [pc, #120]	; a348 <uart_putc_int+0xac>
    a2cc:	e0813002 	add	r3, r1, r2
    a2d0:	e5c30814 	strb	r0, [r3, #2068]	; 0x814
    a2d4:	e2823001 	add	r3, r2, #1
    a2d8:	e1a03a83 	lsl	r3, r3, #21
    a2dc:	e1a03aa3 	lsr	r3, r3, #21
    a2e0:	e2811a01 	add	r1, r1, #4096	; 0x1000
    a2e4:	e5813018 	str	r3, [r1, #24]
    a2e8:	e10f3000 	mrs	r3, CPSR
    a2ec:	e3130080 	tst	r3, #128	; 0x80
    a2f0:	1a000008 	bne	a318 <uart_putc_int+0x7c>
    a2f4:	ebfffdbe 	bl	99f4 <dev_barrier>
    a2f8:	ebfffdda 	bl	9a68 <system_disable_interrupts>
    a2fc:	e59f0048 	ldr	r0, [pc, #72]	; a34c <uart_putc_int+0xb0>
    a300:	ebfffe41 	bl	9c0c <uart_tx_int_enabled>
    a304:	e3500000 	cmp	r0, #0
    a308:	0a000009 	beq	a334 <uart_putc_int+0x98>
    a30c:	ebfffdd1 	bl	9a58 <system_enable_interrupts>
    a310:	e3a00001 	mov	r0, #1
    a314:	e8bd8010 	pop	{r4, pc}
    a318:	ebfff833 	bl	83ec <rpi_reset_putc>
    a31c:	e3a030d4 	mov	r3, #212	; 0xd4
    a320:	e59f2028 	ldr	r2, [pc, #40]	; a350 <uart_putc_int+0xb4>
    a324:	e59f1028 	ldr	r1, [pc, #40]	; a354 <uart_putc_int+0xb8>
    a328:	e59f0028 	ldr	r0, [pc, #40]	; a358 <uart_putc_int+0xbc>
    a32c:	ebfff813 	bl	8380 <printk>
    a330:	ebfff982 	bl	8940 <clean_reboot>
    a334:	e59f0010 	ldr	r0, [pc, #16]	; a34c <uart_putc_int+0xb0>
    a338:	ebfffe28 	bl	9be0 <uart_enable_tx_int>
    a33c:	ebfffdac 	bl	99f4 <dev_barrier>
    a340:	eafffff1 	b	a30c <uart_putc_int+0x70>
    a344:	0000bf88 	andeq	fp, r0, r8, lsl #31
    a348:	0000af88 	andeq	sl, r0, r8, lsl #31
    a34c:	20215040 	eorcs	r5, r1, r0, asr #32
    a350:	0000a954 	andeq	sl, r0, r4, asr r9
    a354:	0000a964 	andeq	sl, r0, r4, ror #18
    a358:	0000ab58 	andeq	sl, r0, r8, asr fp

0000a35c <memset>:
    a35c:	e0802002 	add	r2, r0, r2
    a360:	e1a03000 	mov	r3, r0
    a364:	ea000001 	b	a370 <memset+0x14>
    a368:	e5c31000 	strb	r1, [r3]
    a36c:	e2833001 	add	r3, r3, #1
    a370:	e1530002 	cmp	r3, r2
    a374:	3afffffb 	bcc	a368 <memset+0xc>
    a378:	e12fff1e 	bx	lr

0000a37c <cb_new>:
    a37c:	e92d4008 	push	{r3, lr}
    a380:	e3a00409 	mov	r0, #150994944	; 0x9000000
    a384:	e3a01000 	mov	r1, #0
    a388:	e3a02004 	mov	r2, #4
    a38c:	ebfffff2 	bl	a35c <memset>
    a390:	e3a00409 	mov	r0, #150994944	; 0x9000000
    a394:	e59f3004 	ldr	r3, [pc, #4]	; a3a0 <cb_new+0x24>
    a398:	e5803000 	str	r3, [r0]
    a39c:	e8bd8008 	pop	{r3, pc}
    a3a0:	12345678 	eorsne	r5, r4, #120, 12	; 0x7800000

0000a3a4 <cb_get_block>:
    a3a4:	e3a03409 	mov	r3, #150994944	; 0x9000000
    a3a8:	e5932000 	ldr	r2, [r3]
    a3ac:	e59f3014 	ldr	r3, [pc, #20]	; a3c8 <cb_get_block+0x24>
    a3b0:	e1520003 	cmp	r2, r3
    a3b4:	0a000001 	beq	a3c0 <cb_get_block+0x1c>
    a3b8:	e3a00000 	mov	r0, #0
    a3bc:	e12fff1e 	bx	lr
    a3c0:	e3a00409 	mov	r0, #150994944	; 0x9000000
    a3c4:	e12fff1e 	bx	lr
    a3c8:	12345678 	eorsne	r5, r4, #120, 12	; 0x7800000

Disassembly of section .data:

0000a3cc <rpi_putchar>:
    a3cc:	000083d8 	ldrdeq	r8, [r0], -r8	; <UNPREDICTABLE>

0000a3d0 <putk>:
    a3d0:	00008414 	andeq	r8, r0, r4, lsl r4

0000a3d4 <GPFSEL0>:
    a3d4:	20200000 	eorcs	r0, r0, r0

0000a3d8 <GPFSEL1>:
    a3d8:	20200004 	eorcs	r0, r0, r4

0000a3dc <GPFSEL2>:
    a3dc:	20200008 	eorcs	r0, r0, r8

0000a3e0 <GPFSEL3>:
    a3e0:	2020000c 	eorcs	r0, r0, ip

0000a3e4 <GPFSEL4>:
    a3e4:	20200010 	eorcs	r0, r0, r0, lsl r0

0000a3e8 <GPFSEL5>:
    a3e8:	20200014 	eorcs	r0, r0, r4, lsl r0

0000a3ec <GPSET0>:
    a3ec:	2020001c 	eorcs	r0, r0, ip, lsl r0

0000a3f0 <GPSET1>:
    a3f0:	20200020 	eorcs	r0, r0, r0, lsr #32

0000a3f4 <GPCLR0>:
    a3f4:	20200028 	eorcs	r0, r0, r8, lsr #32

0000a3f8 <GPCLR1>:
    a3f8:	2020002c 	eorcs	r0, r0, ip, lsr #32

0000a3fc <GPLEV0>:
    a3fc:	20200034 	eorcs	r0, r0, r4, lsr r0

0000a400 <GPLEV1>:
    a400:	20200038 	eorcs	r0, r0, r8, lsr r0

0000a404 <IRQ_PENDING_2>:
    a404:	2000b208 	andcs	fp, r0, r8, lsl #4

0000a408 <GPREN0>:
    a408:	2020004c 	eorcs	r0, r0, ip, asr #32

0000a40c <GPREN1>:
    a40c:	20200050 	eorcs	r0, r0, r0, asr r0

0000a410 <ENABLE_IRQS_2>:
    a410:	2000b214 	andcs	fp, r0, r4, lsl r2

0000a414 <GPFEN0>:
    a414:	20200058 	eorcs	r0, r0, r8, asr r0

0000a418 <GPFEN1>:
    a418:	2020005c 	eorcs	r0, r0, ip, asr r0

0000a41c <GPEDS0>:
    a41c:	20200040 	eorcs	r0, r0, r0, asr #32

0000a420 <GPEDS1>:
    a420:	20200044 	eorcs	r0, r0, r4, asr #32

0000a424 <IRQ_PENDING_1>:
    a424:	2000b204 	andcs	fp, r0, r4, lsl #4

0000a428 <gpio_clr0>:
    a428:	20200028 	eorcs	r0, r0, r8, lsr #32

0000a42c <gpio_set0>:
    a42c:	2020001c 	eorcs	r0, r0, ip, lsl r0

0000a430 <gpio_fsel0>:
    a430:	20200000 	eorcs	r0, r0, r0

0000a434 <AUX_ENABLES>:
    a434:	20215004 	eorcs	r5, r1, r4

0000a438 <AUX_MU_CNTL_REG>:
    a438:	20215060 	eorcs	r5, r1, r0, rrx

0000a43c <AUX_MU_IER_REG>:
    a43c:	20215044 	eorcs	r5, r1, r4, asr #32

0000a440 <AUX_MU_IIR_REG>:
    a440:	20215048 	eorcs	r5, r1, r8, asr #32

0000a444 <AUX_MU_LCR_REG>:
    a444:	2021504c 	eorcs	r5, r1, ip, asr #32

0000a448 <AUX_MU_BAUD_REG>:
    a448:	20215068 	eorcs	r5, r1, r8, rrx

0000a44c <AUX_MU_LSR_REG>:
    a44c:	20215054 	eorcs	r5, r1, r4, asr r0

0000a450 <AUX_MU_IO_REG>:
    a450:	20215040 	eorcs	r5, r1, r0, asr #32

0000a454 <AUX_MU_STAT_REG>:
    a454:	20215064 	eorcs	r5, r1, r4, rrx

0000a458 <AUX_MU_SCRATCH>:
    a458:	2021505c 	eorcs	r5, r1, ip, asr r0

0000a45c <AUX_MU_MSR_REG>:
    a45c:	20215058 	eorcs	r5, r1, r8, asr r0

0000a460 <AUX_MU_MCR_REG>:
    a460:	20215050 	eorcs	r5, r1, r0, asr r0

0000a464 <AUX_IRQ>:
    a464:	20215000 	eorcs	r5, r1, r0

Disassembly of section .rodata:

0000a468 <__FUNCTION__.4319>:
    a468:	6d746f6e 	ldclvs	15, cr6, [r4, #-440]!	; 0xfffffe48
    a46c:	006e6961 	rsbeq	r6, lr, r1, ror #18
    a470:	494e4150 	stmdbmi	lr, {r4, r6, r8, lr}^
    a474:	73253a43 	teqvc	r5, #274432	; 0x43000
    a478:	3a73253a 	bcc	1cd3968 <__bss_end__+0x1cc79b0>
    a47c:	773a6425 	ldrvc	r6, [sl, -r5, lsr #8]!
    a480:	20746168 	rsbscs	r6, r4, r8, ror #2
    a484:	67207369 	strvs	r7, [r0, -r9, ror #6]!
    a488:	676e696f 	strbvs	r6, [lr, -pc, ror #18]!
    a48c:	3f6e6f20 	svccc	0x006e6f20
    a490:	00000a0a 	andeq	r0, r0, sl, lsl #20
    a494:	762d6970 			; <UNDEFINED> instruction: 0x762d6970
    a498:	632e6d6d 	teqvs	lr, #6976	; 0x1b40
    a49c:	00000000 	andeq	r0, r0, r0
    a4a0:	56204950 			; <UNDEFINED> instruction: 0x56204950
    a4a4:	203a4d4d 	eorscs	r4, sl, sp, asr #26
    a4a8:	756f6261 	strbvc	r6, [pc, #-609]!	; a24f <uart_getc_int+0x27>
    a4ac:	6f742074 	svcvs	0x00742074
    a4b0:	61747320 	cmnvs	r4, r0, lsr #6
    a4b4:	70207472 	eorvc	r7, r0, r2, ror r4
    a4b8:	6d762069 	ldclvs	0, cr2, [r6, #-420]!	; 0xfffffe5c
    a4bc:	00000a6d 	andeq	r0, r0, sp, ror #20
    a4c0:	2a2a2a2a 	bcs	a94d70 <__bss_end__+0xa88db8>
    a4c4:	2a2a2a2a 	bcs	a94d74 <__bss_end__+0xa88dbc>
    a4c8:	2a2a2a2a 	bcs	a94d78 <__bss_end__+0xa88dc0>
    a4cc:	2a2a2a2a 	bcs	a94d7c <__bss_end__+0xa88dc4>
    a4d0:	2a2a2a2a 	bcs	a94d80 <__bss_end__+0xa88dc8>
    a4d4:	2a2a2a2a 	bcs	a94d84 <__bss_end__+0xa88dcc>
    a4d8:	2a2a2a2a 	bcs	a94d88 <__bss_end__+0xa88dd0>
    a4dc:	2a2a2a2a 	bcs	a94d8c <__bss_end__+0xa88dd4>
    a4e0:	2a2a2a2a 	bcs	a94d90 <__bss_end__+0xa88dd8>
    a4e4:	2a2a2a2a 	bcs	a94d94 <__bss_end__+0xa88ddc>
    a4e8:	2a2a2a2a 	bcs	a94d98 <__bss_end__+0xa88de0>
    a4ec:	2a2a2a2a 	bcs	a94d9c <__bss_end__+0xa88de4>
    a4f0:	2a2a2a2a 	bcs	a94da0 <__bss_end__+0xa88de8>
    a4f4:	2a2a2a2a 	bcs	a94da4 <__bss_end__+0xa88dec>
    a4f8:	2a2a2a2a 	bcs	a94da8 <__bss_end__+0xa88df0>
    a4fc:	0a2a2a2a 	beq	a94dac <__bss_end__+0xa88df4>
    a500:	00000000 	andeq	r0, r0, r0
    a504:	203a4950 	eorscs	r4, sl, r0, asr r9
    a508:	6e697270 	mcrvs	2, 3, r7, cr9, cr0, {3}
    a50c:	676e6974 			; <UNDEFINED> instruction: 0x676e6974
    a510:	61686320 	cmnvs	r8, r0, lsr #6
    a514:	6f6e2072 	svcvs	0x006e2072
    a518:	00000a77 	andeq	r0, r0, r7, ror sl
    a51c:	494e4150 	stmdbmi	lr, {r4, r6, r8, lr}^
    a520:	73253a43 	teqvc	r5, #274432	; 0x43000
    a524:	3a73253a 	bcc	1cd3a14 <__bss_end__+0x1cc7a5c>
    a528:	753a6425 	ldrvc	r6, [sl, #-1061]!	; 0x425
    a52c:	7078656e 	rsbsvc	r6, r8, lr, ror #10
    a530:	65746365 	ldrbvs	r6, [r4, #-869]!	; 0x365
    a534:	706f2064 	rsbvc	r2, pc, r4, rrx
    a538:	6425203a 	strtvs	r2, [r5], #-58	; 0x3a
    a53c:	00000a0a 	andeq	r0, r0, sl, lsl #20

0000a540 <__FUNCTION__.4216>:
    a540:	74696d65 	strbtvc	r6, [r9], #-3429	; 0xd65
    a544:	00000000 	andeq	r0, r0, r0

0000a548 <__FUNCTION__.4164>:
    a548:	5f697072 	svcpl	0x00697072
    a54c:	5f746573 	svcpl	0x00746573
    a550:	7074756f 	rsbsvc	r7, r4, pc, ror #10
    a554:	00007475 	andeq	r7, r0, r5, ror r4

0000a558 <__FUNCTION__.4238>:
    a558:	705f6176 	subsvc	r6, pc, r6, ror r1	; <UNPREDICTABLE>
    a55c:	746e6972 	strbtvc	r6, [lr], #-2418	; 0x972
    a560:	0000006b 	andeq	r0, r0, fp, rrx
    a564:	494e4150 	stmdbmi	lr, {r4, r6, r8, lr}^
    a568:	73253a43 	teqvc	r5, #274432	; 0x43000
    a56c:	3a73253a 	bcc	1cd3a5c <__bss_end__+0x1cc7aa4>
    a570:	303a6425 	eorscc	r6, sl, r5, lsr #8
    a574:	0000000a 	andeq	r0, r0, sl
    a578:	6362696c 	cmnvs	r2, #108, 18	; 0x1b0000
    a57c:	2d61762f 	stclcs	6, cr7, [r1, #-188]!	; 0xffffff44
    a580:	6e697270 	mcrvs	2, 3, r7, cr9, cr0, {3}
    a584:	632e6b74 	teqvs	lr, #116, 22	; 0x1d000
    a588:	00000000 	andeq	r0, r0, r0
    a58c:	33323130 	teqcc	r2, #48, 2
    a590:	37363534 			; <UNDEFINED> instruction: 0x37363534
    a594:	00003938 	andeq	r3, r0, r8, lsr r9
    a598:	33323130 	teqcc	r2, #48, 2
    a59c:	37363534 			; <UNDEFINED> instruction: 0x37363534
    a5a0:	62613938 	rsbvs	r3, r1, #56, 18	; 0xe0000
    a5a4:	66656463 	strbtvs	r6, [r5], -r3, ror #8
    a5a8:	00000000 	andeq	r0, r0, r0
    a5ac:	00003130 	andeq	r3, r0, r0, lsr r1
    a5b0:	494e4150 	stmdbmi	lr, {r4, r6, r8, lr}^
    a5b4:	73253a43 	teqvc	r5, #274432	; 0x43000
    a5b8:	3a73253a 	bcc	1cd3aa8 <__bss_end__+0x1cc7af0>
    a5bc:	703a6425 	eorsvc	r6, sl, r5, lsr #8
    a5c0:	5f637475 	svcpl	0x00637475
    a5c4:	000a7066 	andeq	r7, sl, r6, rrx
    a5c8:	494e4150 	stmdbmi	lr, {r4, r6, r8, lr}^
    a5cc:	73253a43 	teqvc	r5, #274432	; 0x43000
    a5d0:	3a73253a 	bcc	1cd3ac0 <__bss_end__+0x1cc7b08>
    a5d4:	773a6425 	ldrvc	r6, [sl, -r5, lsr #8]!
    a5d8:	68746469 	ldmdavs	r4!, {r0, r3, r5, r6, sl, sp, lr}^
    a5dc:	33203c20 	teqcc	r0, #32, 24	; 0x2000
    a5e0:	00000a32 	andeq	r0, r0, r2, lsr sl
    a5e4:	494e4150 	stmdbmi	lr, {r4, r6, r8, lr}^
    a5e8:	73253a43 	teqvc	r5, #274432	; 0x43000
    a5ec:	3a73253a 	bcc	1cd3adc <__bss_end__+0x1cc7b24>
    a5f0:	663a6425 	ldrtvs	r6, [sl], -r5, lsr #8
    a5f4:	74616f6c 	strbtvc	r6, [r1], #-3948	; 0xf6c
    a5f8:	746f6e20 	strbtvc	r6, [pc], #-3616	; a600 <__FUNCTION__.4238+0xa8>
    a5fc:	616e6520 	cmnvs	lr, r0, lsr #10
    a600:	64656c62 	strbtvs	r6, [r5], #-3170	; 0xc62
    a604:	0a212121 	beq	852a90 <__bss_end__+0x846ad8>
    a608:	00000000 	andeq	r0, r0, r0
    a60c:	494e4150 	stmdbmi	lr, {r4, r6, r8, lr}^
    a610:	73253a43 	teqvc	r5, #274432	; 0x43000
    a614:	3a73253a 	bcc	1cd3b04 <__bss_end__+0x1cc7b4c>
    a618:	703a6425 	eorsvc	r6, sl, r5, lsr #8
    a61c:	746e6972 	strbtvc	r6, [lr], #-2418	; 0x972
    a620:	6e203a6b 	vnmulvs.f32	s6, s0, s23
    a624:	6820746f 	stmdavs	r0!, {r0, r1, r2, r3, r5, r6, sl, ip, sp, lr}
    a628:	6c646e61 	stclvs	14, cr6, [r4], #-388	; 0xfffffe7c
    a62c:	20676e69 	rsbcs	r6, r7, r9, ror #28
    a630:	63657073 	cmnvs	r5, #115	; 0x73
    a634:	65696669 	strbvs	r6, [r9, #-1641]!	; 0x669
    a638:	25272072 	strcs	r2, [r7, #-114]!	; 0x72
    a63c:	0a0a2763 	beq	2943d0 <__bss_end__+0x288418>
    a640:	00000000 	andeq	r0, r0, r0
    a644:	454e4f44 	strbmi	r4, [lr, #-3908]	; 0xf44
    a648:	0a212121 	beq	852ad4 <__bss_end__+0x846b1c>
    a64c:	00000000 	andeq	r0, r0, r0
    a650:	756f6261 	strbvc	r6, [pc, #-609]!	; a3f7 <GPCLR0+0x3>
    a654:	6f742074 	svcvs	0x00742074
    a658:	69727020 	ldmdbvs	r2!, {r5, ip, sp, lr}^
    a65c:	6f20746e 	svcvs	0x0020746e
    a660:	6572206e 	ldrbvs	r2, [r2, #-110]!	; 0x6e
    a664:	616c7567 	cmnvs	ip, r7, ror #10
    a668:	72702072 	rsbsvc	r2, r0, #114	; 0x72
    a66c:	66746e69 	ldrbtvs	r6, [r4], -r9, ror #28
    a670:	0000000a 	andeq	r0, r0, sl
    a674:	63637573 	cmnvs	r3, #482344960	; 0x1cc00000
    a678:	21737365 	cmncs	r3, r5, ror #6
    a67c:	0000000a 	andeq	r0, r0, sl

0000a680 <__FUNCTION__.4265>:
    a680:	755f7773 	ldrbvc	r7, [pc, #-1907]	; 9f15 <uart_init_with_interrupts+0x1d1>
    a684:	5f747261 	svcpl	0x00747261
    a688:	73746567 	cmnvc	r4, #432013312	; 0x19c00000
    a68c:	746e755f 	strbtvc	r7, [lr], #-1375	; 0x55f
    a690:	00006c69 	andeq	r6, r0, r9, ror #24

0000a694 <__FUNCTION__.4277>:
    a694:	755f7773 	ldrbvc	r7, [pc, #-1907]	; 9f29 <uart_init_with_interrupts+0x1e5>
    a698:	5f747261 	svcpl	0x00747261
    a69c:	73746567 	cmnvc	r4, #432013312	; 0x19c00000
    a6a0:	6d69745f 	cfstrdvs	mvd7, [r9, #-380]!	; 0xfffffe84
    a6a4:	74756f65 	ldrbtvc	r6, [r5], #-3941	; 0xf65
    a6a8:	00000000 	andeq	r0, r0, r0

0000a6ac <__FUNCTION__.4291>:
    a6ac:	755f7773 	ldrbvc	r7, [pc, #-1907]	; 9f41 <uart_init_with_interrupts+0x1fd>
    a6b0:	5f747261 	svcpl	0x00747261
    a6b4:	74696e69 	strbtvc	r6, [r9], #-3689	; 0xe69
    a6b8:	6c65685f 	stclvs	8, cr6, [r5], #-380	; 0xfffffe84
    a6bc:	00726570 	rsbseq	r6, r2, r0, ror r5

0000a6c0 <__FUNCTION__.4297>:
    a6c0:	755f7773 	ldrbvc	r7, [pc, #-1907]	; 9f55 <uart_init_with_interrupts+0x211>
    a6c4:	5f747261 	svcpl	0x00747261
    a6c8:	63746567 	cmnvs	r4, #432013312	; 0x19c00000
    a6cc:	00000000 	andeq	r0, r0, r0

0000a6d0 <__FUNCTION__.4319>:
    a6d0:	755f7773 	ldrbvc	r7, [pc, #-1907]	; 9f65 <uart_init_with_interrupts+0x221>
    a6d4:	5f747261 	svcpl	0x00747261
    a6d8:	6e697270 	mcrvs	2, 3, r7, cr9, cr0, {3}
    a6dc:	00006b74 	andeq	r6, r0, r4, ror fp

0000a6e0 <__FUNCTION__.4327>:
    a6e0:	755f7773 	ldrbvc	r7, [pc, #-1907]	; 9f75 <uart_init_with_interrupts+0x231>
    a6e4:	5f747261 	svcpl	0x00747261
    a6e8:	73746567 	cmnvc	r4, #432013312	; 0x19c00000
    a6ec:	746e755f 	strbtvc	r7, [lr], #-1375	; 0x55f
    a6f0:	625f6c69 	subsvs	r6, pc, #26880	; 0x6900
    a6f4:	00006b6c 	andeq	r6, r0, ip, ror #22
    a6f8:	494e4150 	stmdbmi	lr, {r4, r6, r8, lr}^
    a6fc:	73253a43 	teqvc	r5, #274432	; 0x43000
    a700:	3a73253a 	bcc	1cd3bf0 <__bss_end__+0x1cc7c38>
    a704:	6e3a6425 	cdpvs	4, 3, cr6, cr10, cr5, {1}
    a708:	65747962 	ldrbvs	r7, [r4, #-2402]!	; 0x962
    a70c:	0a303e73 	beq	c1a0e0 <__bss_end__+0xc0e128>
    a710:	00000000 	andeq	r0, r0, r0
    a714:	732d796d 	teqvc	sp, #1785856	; 0x1b4000
    a718:	732f6372 	teqvc	pc, #-939524095	; 0xc8000001
    a71c:	61752d77 	cmnvs	r5, r7, ror sp
    a720:	632e7472 	teqvs	lr, #1912602624	; 0x72000000
    a724:	00000000 	andeq	r0, r0, r0
    a728:	494e4150 	stmdbmi	lr, {r4, r6, r8, lr}^
    a72c:	73253a43 	teqvc	r5, #274432	; 0x43000
    a730:	3a73253a 	bcc	1cd3c20 <__bss_end__+0x1cc7c68>
    a734:	283a6425 	ldmdacs	sl!, {r0, r2, r5, sl, sp, lr}
    a738:	207a686d 	rsbscs	r6, sl, sp, ror #16
    a73c:	6162202d 	cmnvs	r2, sp, lsr #32
    a740:	20296475 	eorcs	r6, r9, r5, ror r4
    a744:	64203d3c 	strtvs	r3, [r0], #-3388	; 0xd3c
    a748:	76697265 	strbtvc	r7, [r9], -r5, ror #4
    a74c:	26206465 	strtcs	r6, [r0], -r5, ror #8
    a750:	65642026 	strbvs	r2, [r4, #-38]!	; 0x26
    a754:	65766972 	ldrbvs	r6, [r6, #-2418]!	; 0x972
    a758:	3d3c2064 	ldccc	0, cr2, [ip, #-400]!	; 0xfffffe70
    a75c:	686d2820 	stmdavs	sp!, {r5, fp, sp}^
    a760:	202b207a 	eorcs	r2, fp, sl, ror r0
    a764:	64756162 	ldrbtvs	r6, [r5], #-354	; 0x162
    a768:	00000a29 	andeq	r0, r0, r9, lsr #20
    a76c:	494e4150 	stmdbmi	lr, {r4, r6, r8, lr}^
    a770:	73253a43 	teqvc	r5, #274432	; 0x43000
    a774:	3a73253a 	bcc	1cd3c64 <__bss_end__+0x1cc7cac>
    a778:	693a6425 	ldmdbvs	sl!, {r0, r2, r5, sl, sp, lr}
    a77c:	736f706d 	cmnvc	pc, #109	; 0x6d
    a780:	6c626973 	stclvs	9, cr6, [r2], #-460	; 0xfffffe34
    a784:	68203a65 	stmdavs	r0!, {r0, r2, r5, r6, r9, fp, ip, sp}
    a788:	20657661 	rsbcs	r7, r5, r1, ror #12
    a78c:	69206e61 	stmdbvs	r0!, {r0, r5, r6, r9, sl, fp, sp, lr}
    a790:	6e69666e 	cdpvs	6, 6, cr6, cr9, cr14, {3}
    a794:	20657469 	rsbcs	r7, r5, r9, ror #8
    a798:	656d6974 	strbvs	r6, [sp, #-2420]!	; 0x974
    a79c:	2174756f 	cmncs	r4, pc, ror #10
    a7a0:	00000a0a 	andeq	r0, r0, sl, lsl #20
    a7a4:	494e4150 	stmdbmi	lr, {r4, r6, r8, lr}^
    a7a8:	73253a43 	teqvc	r5, #274432	; 0x43000
    a7ac:	3a73253a 	bcc	1cd3c9c <__bss_end__+0x1cc7ce4>
    a7b0:	733a6425 	teqvc	sl, #620756992	; 0x25000000
    a7b4:	203c207a 	eorscs	r2, ip, sl, ror r0
    a7b8:	657a6973 	ldrbvs	r6, [sl, #-2419]!	; 0x973
    a7bc:	6220666f 	eorvs	r6, r0, #116391936	; 0x6f00000
    a7c0:	312d6675 	teqcc	sp, r5, ror r6
    a7c4:	0000000a 	andeq	r0, r0, sl

0000a7c8 <__FUNCTION__.4196>:
    a7c8:	74736166 	ldrbtvc	r6, [r3], #-358	; 0x166
    a7cc:	746e695f 	strbtvc	r6, [lr], #-2399	; 0x95f
    a7d0:	75727265 	ldrbvc	r7, [r2, #-613]!	; 0x265
    a7d4:	765f7470 			; <UNDEFINED> instruction: 0x765f7470
    a7d8:	6f746365 	svcvs	0x00746365
    a7dc:	00000072 	andeq	r0, r0, r2, ror r0

0000a7e0 <__FUNCTION__.4200>:
    a7e0:	74666f73 	strbtvc	r6, [r6], #-3955	; 0xf73
    a7e4:	65726177 	ldrbvs	r6, [r2, #-375]!	; 0x177
    a7e8:	746e695f 	strbtvc	r6, [lr], #-2399	; 0x95f
    a7ec:	75727265 	ldrbvc	r7, [r2, #-613]!	; 0x265
    a7f0:	765f7470 			; <UNDEFINED> instruction: 0x765f7470
    a7f4:	6f746365 	svcvs	0x00746365
    a7f8:	00000072 	andeq	r0, r0, r2, ror r0

0000a7fc <__FUNCTION__.4204>:
    a7fc:	65736572 	ldrbvs	r6, [r3, #-1394]!	; 0x572
    a800:	65765f74 	ldrbvs	r5, [r6, #-3956]!	; 0xf74
    a804:	726f7463 	rsbvc	r7, pc, #1660944384	; 0x63000000
    a808:	00000000 	andeq	r0, r0, r0

0000a80c <__FUNCTION__.4208>:
    a80c:	65646e75 	strbvs	r6, [r4, #-3701]!	; 0xe75
    a810:	656e6966 	strbvs	r6, [lr, #-2406]!	; 0x966
    a814:	6e695f64 	cdpvs	15, 6, cr5, cr9, cr4, {3}
    a818:	75727473 	ldrbvc	r7, [r2, #-1139]!	; 0x473
    a81c:	6f697463 	svcvs	0x00697463
    a820:	65765f6e 	ldrbvs	r5, [r6, #-3950]!	; 0xf6e
    a824:	726f7463 	rsbvc	r7, pc, #1660944384	; 0x63000000
    a828:	00000000 	andeq	r0, r0, r0

0000a82c <__FUNCTION__.4212>:
    a82c:	66657270 			; <UNDEFINED> instruction: 0x66657270
    a830:	68637465 	stmdavs	r3!, {r0, r2, r5, r6, sl, ip, sp, lr}^
    a834:	6f62615f 	svcvs	0x0062615f
    a838:	765f7472 			; <UNDEFINED> instruction: 0x765f7472
    a83c:	6f746365 	svcvs	0x00746365
    a840:	00000072 	andeq	r0, r0, r2, ror r0

0000a844 <__FUNCTION__.4216>:
    a844:	61746164 	cmnvs	r4, r4, ror #2
    a848:	6f62615f 	svcvs	0x0062615f
    a84c:	765f7472 			; <UNDEFINED> instruction: 0x765f7472
    a850:	6f746365 	svcvs	0x00746365
    a854:	00000072 	andeq	r0, r0, r2, ror r0
    a858:	494e4150 	stmdbmi	lr, {r4, r6, r8, lr}^
    a85c:	73253a43 	teqvc	r5, #274432	; 0x43000
    a860:	3a73253a 	bcc	1cd3d50 <__bss_end__+0x1cc7d98>
    a864:	453a6425 	ldrmi	r6, [sl, #-1061]!	; 0x425
    a868:	524f5252 	subpl	r5, pc, #536870917	; 0x20000005
    a86c:	6e75203a 	mrcvs	0, 3, r2, cr5, cr10, {1}
    a870:	646e6168 	strbtvs	r6, [lr], #-360	; 0x168
    a874:	2064656c 	rsbcs	r6, r4, ip, ror #10
    a878:	65637865 	strbvs	r7, [r3, #-2149]!	; 0x865
    a87c:	6f697470 	svcvs	0x00697470
    a880:	253c206e 	ldrcs	r2, [ip, #-110]!	; 0x6e
    a884:	61203e73 	teqvs	r0, r3, ror lr
    a888:	43502074 	cmpmi	r0, #116	; 0x74
    a88c:	0a78253d 	beq	1e13d88 <__bss_end__+0x1e07dd0>
    a890:	0000000a 	andeq	r0, r0, sl
    a894:	34317363 	ldrtcc	r7, [r1], #-867	; 0x363
    a898:	692d6530 	pushvs	{r4, r5, r8, sl, sp, lr}
    a89c:	7265746e 	rsbvc	r7, r5, #1845493760	; 0x6e000000
    a8a0:	74707572 	ldrbtvc	r7, [r0], #-1394	; 0x572
    a8a4:	746e692f 	strbtvc	r6, [lr], #-2351	; 0x92f
    a8a8:	75727265 	ldrbvc	r7, [r2, #-613]!	; 0x265
    a8ac:	2d737470 	cfldrdcs	mvd7, [r3, #-448]!	; 0xfffffe40
    a8b0:	00632e63 	rsbeq	r2, r3, r3, ror #28
    a8b4:	74736166 	ldrbtvc	r6, [r3], #-358	; 0x166
    a8b8:	00000000 	andeq	r0, r0, r0
    a8bc:	74666f73 	strbtvc	r6, [r6], #-3955	; 0xf73
    a8c0:	746e6920 	strbtvc	r6, [lr], #-2336	; 0x920
    a8c4:	75727265 	ldrbvc	r7, [r2, #-613]!	; 0x265
    a8c8:	00007470 	andeq	r7, r0, r0, ror r4
    a8cc:	65736572 	ldrbvs	r6, [r3, #-1394]!	; 0x572
    a8d0:	65762074 	ldrbvs	r2, [r6, #-116]!	; 0x74
    a8d4:	726f7463 	rsbvc	r7, pc, #1660944384	; 0x63000000
    a8d8:	00000000 	andeq	r0, r0, r0
    a8dc:	65646e75 	strbvs	r6, [r4, #-3701]!	; 0xe75
    a8e0:	656e6966 	strbvs	r6, [lr, #-2406]!	; 0x966
    a8e4:	6e692064 	cdpvs	0, 6, cr2, cr9, cr4, {3}
    a8e8:	75727473 	ldrbvc	r7, [r2, #-1139]!	; 0x473
    a8ec:	6f697463 	svcvs	0x00697463
    a8f0:	0000006e 	andeq	r0, r0, lr, rrx
    a8f4:	66657270 			; <UNDEFINED> instruction: 0x66657270
    a8f8:	68637465 	stmdavs	r3!, {r0, r2, r5, r6, sl, ip, sp, lr}^
    a8fc:	6f626120 	svcvs	0x00626120
    a900:	00007472 	andeq	r7, r0, r2, ror r4
    a904:	61746164 	cmnvs	r4, r4, ror #2
    a908:	6f626120 	svcvs	0x00626120
    a90c:	00007472 	andeq	r7, r0, r2, ror r4

0000a910 <__FUNCTION__.4439>:
    a910:	74726175 	ldrbtvc	r6, [r2], #-373	; 0x175
    a914:	7361685f 	cmnvc	r1, #6225920	; 0x5f0000
    a918:	746e695f 	strbtvc	r6, [lr], #-2399	; 0x95f
    a91c:	00000000 	andeq	r0, r0, r0

0000a920 <__FUNCTION__.4400>:
    a920:	695f7163 	ldmdbvs	pc, {r0, r1, r5, r6, r8, ip, sp, lr}^	; <UNPREDICTABLE>
    a924:	0074696e 	rsbseq	r6, r4, lr, ror #18

0000a928 <__FUNCTION__.4450>:
    a928:	74726175 	ldrbtvc	r6, [r2], #-373	; 0x175
    a92c:	746e695f 	strbtvc	r6, [lr], #-2399	; 0x95f
    a930:	756c665f 	strbvc	r6, [ip, #-1631]!	; 0x65f
    a934:	00006873 	andeq	r6, r0, r3, ror r8

0000a938 <__FUNCTION__.4341>:
    a938:	705f7163 	subsvc	r7, pc, r3, ror #2
    a93c:	0000706f 	andeq	r7, r0, pc, rrx

0000a940 <__FUNCTION__.4457>:
    a940:	74726175 	ldrbtvc	r6, [r2], #-373	; 0x175
    a944:	746e695f 	strbtvc	r6, [lr], #-2399	; 0x95f
    a948:	756c665f 	strbvc	r6, [ip, #-1631]!	; 0x65f
    a94c:	615f6873 	cmpvs	pc, r3, ror r8	; <UNPREDICTABLE>
    a950:	00006c6c 	andeq	r6, r0, ip, ror #24

0000a954 <__FUNCTION__.4480>:
    a954:	74726175 	ldrbtvc	r6, [r2], #-373	; 0x175
    a958:	7475705f 	ldrbtvc	r7, [r5], #-95	; 0x5f
    a95c:	6e695f63 	cdpvs	15, 6, cr5, cr9, cr3, {3}
    a960:	00000074 	andeq	r0, r0, r4, ror r0
    a964:	74726175 	ldrbtvc	r6, [r2], #-373	; 0x175
    a968:	746e692d 	strbtvc	r6, [lr], #-2349	; 0x92d
    a96c:	0000632e 	andeq	r6, r0, lr, lsr #6
    a970:	4f525245 	svcmi	0x00525245
    a974:	73253a52 	teqvc	r5, #335872	; 0x52000
    a978:	3a73253a 	bcc	1cd3e68 <__bss_end__+0x1cc7eb0>
    a97c:	203a6425 	eorscs	r6, sl, r5, lsr #8
    a980:	534c4146 	movtpl	r4, #49478	; 0xc146
    a984:	763c2845 	ldrtvc	r2, [ip], -r5, asr #16
    a988:	203d2120 	eorscs	r2, sp, r0, lsr #2
    a98c:	31316230 	teqcc	r1, r0, lsr r2
    a990:	203a293e 	eorscs	r2, sl, lr, lsr r9
    a994:	6f706d69 	svcvs	0x00706d69
    a998:	62697373 	rsbvs	r7, r9, #-872415231	; 0xcc000001
    a99c:	6620656c 	strtvs	r6, [r0], -ip, ror #10
    a9a0:	206d6f72 	rsbcs	r6, sp, r2, ror pc
    a9a4:	616f7262 	cmnvs	pc, r2, ror #4
    a9a8:	6d6f6364 	stclvs	3, cr6, [pc, #-400]!	; a820 <__FUNCTION__.4208+0x14>
    a9ac:	67617020 	strbvs	r7, [r1, -r0, lsr #32]!
    a9b0:	33312065 	teqcc	r1, #101	; 0x65
    a9b4:	0000000a 	andeq	r0, r0, sl
    a9b8:	4f525245 	svcmi	0x00525245
    a9bc:	73253a52 	teqvc	r5, #335872	; 0x52000
    a9c0:	3a73253a 	bcc	1cd3eb0 <__bss_end__+0x1cc7ef8>
    a9c4:	203a6425 	eorscs	r6, sl, r5, lsr #8
    a9c8:	534c4146 	movtpl	r4, #49478	; 0xc146
    a9cc:	763c2845 	ldrtvc	r2, [ip], -r5, asr #16
    a9d0:	203d2120 	eorscs	r2, sp, r0, lsr #2
    a9d4:	30306230 	eorscc	r6, r0, r0, lsr r2
    a9d8:	203a293e 	eorscs	r2, sl, lr, lsr r9
    a9dc:	6f706d69 	svcvs	0x00706d69
    a9e0:	62697373 	rsbvs	r7, r9, #-872415231	; 0xcc000001
    a9e4:	6620656c 	strtvs	r6, [r0], -ip, ror #10
    a9e8:	206d6f72 	rsbcs	r6, sp, r2, ror pc
    a9ec:	616f7262 	cmnvs	pc, r2, ror #4
    a9f0:	6d6f6364 	stclvs	3, cr6, [pc, #-400]!	; a868 <__FUNCTION__.4216+0x24>
    a9f4:	67617020 	strbvs	r7, [r1, -r0, lsr #32]!
    a9f8:	33312065 	teqcc	r1, #101	; 0x65
    a9fc:	0000000a 	andeq	r0, r0, sl
    aa00:	494e4150 	stmdbmi	lr, {r4, r6, r8, lr}^
    aa04:	73253a43 	teqvc	r5, #274432	; 0x43000
    aa08:	3a73253a 	bcc	1cd3ef8 <__bss_end__+0x1cc7f40>
    aa0c:	693a6425 	ldmdbvs	sl!, {r0, r2, r5, sl, sp, lr}
    aa10:	736f706d 	cmnvc	pc, #109	; 0x6d
    aa14:	6c626973 	stclvs	9, cr6, [r2], #-460	; 0xfffffe34
    aa18:	61762065 	cmnvs	r6, r5, rrx
    aa1c:	3a65756c 	bcc	1967fd4 <__bss_end__+0x195c01c>
    aa20:	0a622520 	beq	1893ea8 <__bss_end__+0x1887ef0>
    aa24:	0000000a 	andeq	r0, r0, sl
    aa28:	6d6f682f 	stclvs	8, cr6, [pc, #-188]!	; a974 <__FUNCTION__.4480+0x20>
    aa2c:	6e652f65 	cdpvs	15, 6, cr2, cr5, cr5, {3}
    aa30:	72656c67 	rsbvc	r6, r5, #26368	; 0x6700
    aa34:	616c632f 	cmnvs	ip, pc, lsr #6
    aa38:	632f7373 	teqvs	pc, #-872415231	; 0xcc000001
    aa3c:	30343173 	eorscc	r3, r4, r3, ror r1
    aa40:	30322d65 	eorscc	r2, r2, r5, ror #26
    aa44:	2f6e6977 	svccs	0x006e6977
    aa48:	7062696c 	rsbvc	r6, r2, ip, ror #18
    aa4c:	696c2f69 	stmdbvs	ip!, {r0, r3, r5, r6, r8, r9, sl, fp, sp}^
    aa50:	632f6362 	teqvs	pc, #-2013265919	; 0x88000001
    aa54:	75637269 	strbvc	r7, [r3, #-617]!	; 0x269
    aa58:	2e72616c 	rpwcssz	f6, f2, #4.0
    aa5c:	00000068 	andeq	r0, r0, r8, rrx
    aa60:	494e4150 	stmdbmi	lr, {r4, r6, r8, lr}^
    aa64:	73253a43 	teqvc	r5, #274432	; 0x43000
    aa68:	3a73253a 	bcc	1cd3f58 <__bss_end__+0x1cc7fa0>
    aa6c:	633a6425 	teqvs	sl, #620756992	; 0x25000000
    aa70:	6d655f71 	stclvs	15, cr5, [r5, #-452]!	; 0xfffffe3c
    aa74:	28797470 	ldmdacs	r9!, {r4, r5, r6, sl, ip, sp, lr}^
    aa78:	000a2963 	andeq	r2, sl, r3, ror #18
    aa7c:	494e4150 	stmdbmi	lr, {r4, r6, r8, lr}^
    aa80:	73253a43 	teqvc	r5, #274432	; 0x43000
    aa84:	3a73253a 	bcc	1cd3f74 <__bss_end__+0x1cc7fbc>
    aa88:	213a6425 	teqcs	sl, r5, lsr #8
    aa8c:	665f7163 	ldrbvs	r7, [pc], -r3, ror #2
    aa90:	286c6c75 	stmdacs	ip!, {r0, r2, r4, r5, r6, sl, fp, sp, lr}^
    aa94:	000a2963 	andeq	r2, sl, r3, ror #18
    aa98:	494e4150 	stmdbmi	lr, {r4, r6, r8, lr}^
    aa9c:	73253a43 	teqvc	r5, #274432	; 0x43000
    aaa0:	3a73253a 	bcc	1cd3f90 <__bss_end__+0x1cc7fd8>
    aaa4:	633a6425 	teqvs	sl, #620756992	; 0x25000000
    aaa8:	656e5f71 	strbvs	r5, [lr, #-3953]!	; 0xf71
    aaac:	286d656c 	stmdacs	sp!, {r2, r3, r5, r6, r8, sl, sp, lr}^
    aab0:	3d202963 	stccc	9, cr2, [r0, #-396]!	; 0xfffffe74
    aab4:	0a30203d 	beq	c12bb0 <__bss_end__+0xc06bf8>
    aab8:	00000000 	andeq	r0, r0, r0
    aabc:	494e4150 	stmdbmi	lr, {r4, r6, r8, lr}^
    aac0:	73253a43 	teqvc	r5, #274432	; 0x43000
    aac4:	3a73253a 	bcc	1cd3fb4 <__bss_end__+0x1cc7ffc>
    aac8:	633a6425 	teqvs	sl, #620756992	; 0x25000000
    aacc:	6f705f71 	svcvs	0x00705f71
    aad0:	6f6e5f70 	svcvs	0x006e5f70
    aad4:	6f6c626e 	svcvs	0x006c626e
    aad8:	63286b63 	teqvs	r8, #101376	; 0x18c00
    aadc:	2965262c 	stmdbcs	r5!, {r2, r3, r5, r9, sl, sp}^
    aae0:	203d3d20 	eorscs	r3, sp, r0, lsr #26
    aae4:	26262030 			; <UNDEFINED> instruction: 0x26262030
    aae8:	3d206520 	cfstr32cc	mvfx6, [r0, #-128]!	; 0xffffff80
    aaec:	7830203d 	ldmdavc	r0!, {r0, r2, r3, r4, r5, sp}
    aaf0:	000a3231 	andeq	r3, sl, r1, lsr r2
    aaf4:	494e4150 	stmdbmi	lr, {r4, r6, r8, lr}^
    aaf8:	73253a43 	teqvc	r5, #274432	; 0x43000
    aafc:	3a73253a 	bcc	1cd3fec <__bss_end__+0x1cc8034>
    ab00:	213a6425 	teqcs	sl, r5, lsr #8
    ab04:	5f746e69 	svcpl	0x00746e69
    ab08:	655f7369 	ldrbvs	r7, [pc, #-873]	; a7a7 <__FUNCTION__.4327+0xc7>
    ab0c:	6c62616e 	stfvse	f6, [r2], #-440	; 0xfffffe48
    ab10:	29286465 	stmdbcs	r8!, {r0, r2, r5, r6, sl, sp, lr}
    ab14:	0000000a 	andeq	r0, r0, sl
    ab18:	494e4150 	stmdbmi	lr, {r4, r6, r8, lr}^
    ab1c:	73253a43 	teqvc	r5, #274432	; 0x43000
    ab20:	3a73253a 	bcc	1cd4010 <__bss_end__+0x1cc8058>
    ab24:	773a6425 	ldrvc	r6, [sl, -r5, lsr #8]!
    ab28:	206c6c69 	rsbcs	r6, ip, r9, ror #24
    ab2c:	64616564 	strbtvs	r6, [r1], #-1380	; 0x564
    ab30:	6b636f6c 	blvs	18e68e8 <__bss_end__+0x18da930>
    ab34:	6e69203a 	mcrvs	0, 3, r2, cr9, cr10, {1}
    ab38:	72726574 	rsbsvc	r6, r2, #116, 10	; 0x1d000000
    ab3c:	73747075 	cmnvc	r4, #117	; 0x75
    ab40:	746f6e20 	strbtvc	r6, [pc], #-3616	; ab48 <__FUNCTION__.4480+0x1f4>
    ab44:	616e6520 	cmnvs	lr, r0, lsr #10
    ab48:	64656c62 	strbtvs	r6, [r5], #-3170	; 0xc62
    ab4c:	49465b20 	stmdbmi	r6, {r5, r8, r9, fp, ip, lr}^
    ab50:	5d454d58 	stclpl	13, cr4, [r5, #-352]	; 0xfffffea0
    ab54:	00000a0a 	andeq	r0, r0, sl, lsl #20
    ab58:	494e4150 	stmdbmi	lr, {r4, r6, r8, lr}^
    ab5c:	73253a43 	teqvc	r5, #274432	; 0x43000
    ab60:	3a73253a 	bcc	1cd4050 <__bss_end__+0x1cc8098>
    ab64:	693a6425 	ldmdbvs	sl!, {r0, r2, r5, sl, sp, lr}
    ab68:	695f746e 	ldmdbvs	pc, {r1, r2, r3, r5, r6, sl, ip, sp, lr}^	; <UNPREDICTABLE>
    ab6c:	6e655f73 	mcrvs	15, 3, r5, cr5, cr3, {3}
    ab70:	656c6261 	strbvs	r6, [ip, #-609]!	; 0x261
    ab74:	0a292864 	beq	a54d0c <__bss_end__+0xa48d54>
    ab78:	00000000 	andeq	r0, r0, r0

Disassembly of section .bss:

0000ab7c <__bss_start__>:
	...

0000af7c <console_uart>:
	...

0000af88 <getQ>:
	...

0000b79c <putQ>:
	...

0000bfb0 <n_uart_interrupts>:
    bfb0:	00000000 	andeq	r0, r0, r0

0000bfb4 <rpi_arm_timer_t>:
    bfb4:	00000000 	andeq	r0, r0, r0

Disassembly of section .ARM.attributes:

00000000 <.ARM.attributes>:
   0:	00002a41 	andeq	r2, r0, r1, asr #20
   4:	61656100 	cmnvs	r5, r0, lsl #2
   8:	01006962 	tsteq	r0, r2, ror #18
   c:	00000020 	andeq	r0, r0, r0, lsr #32
  10:	4b5a3605 	blmi	168d82c <__bss_end__+0x1681874>
  14:	08070600 	stmdaeq	r7, {r9, sl}
  18:	12010901 	andne	r0, r1, #16384	; 0x4000
  1c:	15011404 	strne	r1, [r1, #-1028]	; 0x404
  20:	18031701 	stmdane	r3, {r0, r8, r9, sl, ip}
  24:	22011a01 	andcs	r1, r1, #4096	; 0x1000
  28:	Address 0x0000000000000028 is out of bounds.


Disassembly of section .comment:

00000000 <.comment>:
   0:	3a434347 	bcc	10d0d24 <__bss_end__+0x10c4d6c>
   4:	4e472820 	cdpmi	8, 4, cr2, cr7, cr0, {1}
   8:	34202955 	strtcc	r2, [r0], #-2389	; 0x955
   c:	332e382e 	teqcc	lr, #3014656	; 0x2e0000
  10:	43434700 	movtmi	r4, #14080	; 0x3700
  14:	4728203a 			; <UNDEFINED> instruction: 0x4728203a
  18:	5420554e 	strtpl	r5, [r0], #-1358	; 0x54e
  1c:	736c6f6f 	cmnvc	ip, #444	; 0x1bc
  20:	726f6620 	rsbvc	r6, pc, #32, 12	; 0x2000000
  24:	6d724120 	ldfvse	f4, [r2, #-128]!	; 0xffffff80
  28:	626d4520 	rsbvs	r4, sp, #32, 10	; 0x8000000
  2c:	65646465 	strbvs	r6, [r4, #-1125]!	; 0x465
  30:	72502064 	subsvc	r2, r0, #100	; 0x64
  34:	7365636f 	cmnvc	r5, #-1140850687	; 0xbc000001
  38:	73726f73 	cmnvc	r2, #460	; 0x1cc
  3c:	322d3720 	eorcc	r3, sp, #32, 14	; 0x800000
  40:	2d383130 	ldfcss	f3, [r8, #-192]!	; 0xffffff40
  44:	752d3371 	strvc	r3, [sp, #-881]!	; 0x371
  48:	74616470 	strbtvc	r6, [r1], #-1136	; 0x470
  4c:	37202965 	strcc	r2, [r0, -r5, ror #18]!
  50:	312e332e 	teqcc	lr, lr, lsr #6
  54:	31303220 	teqcc	r0, r0, lsr #4
  58:	32363038 	eorscc	r3, r6, #56	; 0x38
  5c:	72282032 	eorvc	r2, r8, #50	; 0x32
  60:	61656c65 	cmnvs	r5, r5, ror #24
  64:	20296573 	eorcs	r6, r9, r3, ror r5
  68:	4d52415b 	ldfmie	f4, [r2, #-364]	; 0xfffffe94
  6c:	626d652f 	rsbvs	r6, sp, #197132288	; 0xbc00000
  70:	65646465 	strbvs	r6, [r4, #-1125]!	; 0x465
  74:	2d372d64 	ldccs	13, cr2, [r7, #-400]!	; 0xfffffe70
  78:	6e617262 	cdpvs	2, 6, cr7, cr1, cr2, {3}
  7c:	72206863 	eorvc	r6, r0, #6488064	; 0x630000
  80:	73697665 	cmnvc	r9, #105906176	; 0x6500000
  84:	206e6f69 	rsbcs	r6, lr, r9, ror #30
  88:	39313632 	ldmdbcc	r1!, {r1, r4, r5, r9, sl, ip, sp}
  8c:	005d3730 	subseq	r3, sp, r0, lsr r7

Disassembly of section .debug_info:

00000000 <.debug_info>:
       0:	0000099a 	muleq	r0, sl, r9
       4:	00000004 	andeq	r0, r0, r4
       8:	01040000 	mrseq	r0, (UNDEF: 4)
       c:	0000034e 	andeq	r0, r0, lr, asr #6
      10:	0002f501 	andeq	pc, r2, r1, lsl #10
      14:	0003d500 	andeq	sp, r3, r0, lsl #10
      18:	00801000 	addeq	r1, r0, r0
      1c:	00037000 	andeq	r7, r3, r0
      20:	00000000 	andeq	r0, r0, r0
      24:	05040200 	streq	r0, [r4, #-512]	; 0x200
      28:	00746e69 	rsbseq	r6, r4, r9, ror #28
      2c:	46070403 	strmi	r0, [r7], -r3, lsl #8
      30:	03000000 	movweq	r0, #0
      34:	02a80601 	adceq	r0, r8, #1048576	; 0x100000
      38:	02030000 	andeq	r0, r3, #0
      3c:	0002cd05 	andeq	ip, r2, r5, lsl #26
      40:	05040300 	streq	r0, [r4, #-768]	; 0x300
      44:	0000009d 	muleq	r0, sp, r0
      48:	98050803 	stmdals	r5, {r0, r1, fp}
      4c:	04000000 	streq	r0, [r0], #-0
      50:	00000463 	andeq	r0, r0, r3, ror #8
      54:	005a2e02 	subseq	r2, sl, r2, lsl #28
      58:	01030000 	mrseq	r0, (UNDEF: 3)
      5c:	0002a608 	andeq	sl, r2, r8, lsl #12
      60:	07020300 	streq	r0, [r2, -r0, lsl #6]
      64:	000001a2 	andeq	r0, r0, r2, lsr #3
      68:	00031304 	andeq	r1, r3, r4, lsl #6
      6c:	73340200 	teqvc	r4, #0, 4
      70:	03000000 	movweq	r0, #0
      74:	00410704 	subeq	r0, r1, r4, lsl #14
      78:	08030000 	stmdaeq	r3, {}	; <UNPREDICTABLE>
      7c:	00003c07 	andeq	r3, r0, r7, lsl #24
      80:	07040300 	streq	r0, [r4, -r0, lsl #6]
      84:	00000233 	andeq	r0, r0, r3, lsr r2
      88:	01030405 	tsteq	r3, r5, lsl #8
      8c:	0002af08 	andeq	sl, r2, r8, lsl #30
      90:	97040600 	strls	r0, [r4, -r0, lsl #12]
      94:	07000000 	streq	r0, [r0, -r0]
      98:	0000008a 	andeq	r0, r0, sl, lsl #1
      9c:	00008a08 	andeq	r8, r0, r8, lsl #20
      a0:	0000ac00 	andeq	sl, r0, r0, lsl #24
      a4:	00810900 	addeq	r0, r1, r0, lsl #18
      a8:	00070000 	andeq	r0, r7, r0
      ac:	3303040a 	movwcc	r0, #13322	; 0x340a
      b0:	00000119 	andeq	r0, r0, r9, lsl r1
      b4:	0000fe0b 	andeq	pc, r0, fp, lsl #28
      b8:	82e88000 	rschi	r8, r8, #0
      bc:	ef0b0280 	svc	0x000b0280
      c0:	80000000 	andhi	r0, r0, r0
      c4:	028082e8 	addeq	r8, r0, #232, 4	; 0x8000000e
      c8:	0000610b 	andeq	r6, r0, fp, lsl #2
      cc:	82e88400 	rschi	r8, r8, #0, 8
      d0:	d00b0280 	andle	r0, fp, r0, lsl #5
      d4:	88000000 	stmdahi	r0, {}	; <UNPREDICTABLE>
      d8:	028082e8 	addeq	r8, r0, #232, 4	; 0x8000000e
      dc:	0004300b 	andeq	r3, r4, fp
      e0:	82e88c00 	rschi	r8, r8, #0, 24
      e4:	110b0280 	smlabbne	fp, r0, r2, r0
      e8:	90000000 	andls	r0, r0, r0
      ec:	028082e8 	addeq	r8, r0, #232, 4	; 0x8000000e
      f0:	0001560b 	andeq	r5, r1, fp, lsl #12
      f4:	82e89400 	rschi	r9, r8, #0, 8
      f8:	480b0280 	stmdami	fp, {r7, r9}
      fc:	98000002 	stmdals	r0, {r1}
     100:	028082e8 	addeq	r8, r0, #232, 4	; 0x8000000e
     104:	0003c00b 	andeq	ip, r3, fp
     108:	82e89c00 	rschi	r9, r8, #0, 24
     10c:	880b0280 	stmdahi	fp, {r7, r9}
     110:	a0000004 	andge	r0, r0, r4
     114:	028082e8 	addeq	r8, r0, #232, 4	; 0x8000000e
     118:	04010a00 	streq	r0, [r1], #-2560	; 0xa00
     11c:	0001a111 	andeq	sl, r1, r1, lsl r1
     120:	01160b00 	tsteq	r6, r0, lsl #22
     124:	0b000000 	bleq	12c <_start-0x7ed4>
     128:	000001c3 	andeq	r0, r0, r3, asr #3
     12c:	02b40b01 	adcseq	r0, r4, #1024	; 0x400
     130:	0b020000 	bleq	80138 <__bss_end__+0x74180>
     134:	0000032e 	andeq	r0, r0, lr, lsr #6
     138:	01cc0b03 	biceq	r0, ip, r3, lsl #22
     13c:	0b040000 	bleq	100144 <__bss_end__+0xf418c>
     140:	00000186 	andeq	r0, r0, r6, lsl #3
     144:	027b0b05 	rsbseq	r0, fp, #5120	; 0x1400
     148:	0b060000 	bleq	180150 <__bss_end__+0x174198>
     14c:	0000029a 	muleq	r0, sl, r2
     150:	023c0b07 	eorseq	r0, ip, #7168	; 0x1c00
     154:	0b080000 	bleq	20015c <__bss_end__+0x1f41a4>
     158:	0000046b 	andeq	r0, r0, fp, ror #8
     15c:	00b80b09 	adcseq	r0, r8, r9, lsl #22
     160:	0b0a0000 	bleq	280168 <__bss_end__+0x2741b0>
     164:	00000071 	andeq	r0, r0, r1, ror r0
     168:	033c0b0b 	teqeq	ip, #11264	; 0x2c00
     16c:	0b0c0000 	bleq	300174 <__bss_end__+0x2f41bc>
     170:	00000220 	andeq	r0, r0, r0, lsr #4
     174:	02110b0d 	andseq	r0, r1, #13312	; 0x3400
     178:	0b0e0000 	bleq	380180 <__bss_end__+0x3741c8>
     17c:	00000478 	andeq	r0, r0, r8, ror r4
     180:	02590b0f 	subseq	r0, r9, #15360	; 0x3c00
     184:	0b100000 	bleq	40018c <__bss_end__+0x3f41d4>
     188:	000002c4 	andeq	r0, r0, r4, asr #5
     18c:	01d60b11 	bicseq	r0, r6, r1, lsl fp
     190:	0b120000 	bleq	480198 <__bss_end__+0x4741e0>
     194:	00000327 	andeq	r0, r0, r7, lsr #6
     198:	02fe0b13 	rscseq	r0, lr, #19456	; 0x4c00
     19c:	01800000 	orreq	r0, r0, r0
     1a0:	028c0c00 	addeq	r0, ip, #0, 24
     1a4:	04100000 	ldreq	r0, [r0], #-0
     1a8:	0001de4b 	andeq	sp, r1, fp, asr #28
     1ac:	0e270d00 	cdpeq	13, 2, cr0, cr7, cr0, {0}
     1b0:	4c040000 	stcmi	0, cr0, [r4], {-0}
     1b4:	00000068 	andeq	r0, r0, r8, rrx
     1b8:	01370d00 	teqeq	r7, r0, lsl #26
     1bc:	4c040000 	stcmi	0, cr0, [r4], {-0}
     1c0:	00000068 	andeq	r0, r0, r8, rrx
     1c4:	005c0d04 	subseq	r0, ip, r4, lsl #26
     1c8:	4c040000 	stcmi	0, cr0, [r4], {-0}
     1cc:	00000068 	andeq	r0, r0, r8, rrx
     1d0:	00a60d08 	adceq	r0, r6, r8, lsl #26
     1d4:	4c040000 	stcmi	0, cr0, [r4], {-0}
     1d8:	00000068 	andeq	r0, r0, r8, rrx
     1dc:	ad0e000c 	stcge	0, cr0, [lr, #-48]	; 0xffffffd0
     1e0:	01000000 	mrseq	r0, (UNDEF: 0)
     1e4:	00801025 	addeq	r1, r0, r5, lsr #32
     1e8:	00002c00 	andeq	r2, r0, r0, lsl #24
     1ec:	3d9c0100 	ldfccs	f0, [ip]
     1f0:	0f000002 	svceq	0x00000002
     1f4:	00000b04 	andeq	r0, r0, r4, lsl #22
     1f8:	00882501 	addeq	r2, r8, r1, lsl #10
     1fc:	00000000 	andeq	r0, r0, r0
     200:	6e100000 	cdpvs	0, 1, cr0, cr0, cr0, {0}
     204:	2c250100 	stfcss	f0, [r5], #-0
     208:	1e000000 	cdpne	0, 0, cr0, cr0, cr0, {0}
     20c:	11000000 	mrsne	r0, (UNDEF: 0)
     210:	26010070 			; <UNDEFINED> instruction: 0x26010070
     214:	0000023d 	andeq	r0, r0, sp, lsr r2
     218:	0000003c 	andeq	r0, r0, ip, lsr r0
     21c:	00801c12 	addeq	r1, r0, r2, lsl ip
     220:	00001c00 	andeq	r1, r0, r0, lsl #24
     224:	00691100 	rsbeq	r1, r9, r0, lsl #2
     228:	00252701 	eoreq	r2, r5, r1, lsl #14
     22c:	005a0000 	subseq	r0, sl, r0
     230:	28130000 	ldmdacs	r3, {}	; <UNPREDICTABLE>
     234:	37000080 	strcc	r0, [r0, -r0, lsl #1]
     238:	00000008 	andeq	r0, r0, r8
     23c:	4f040600 	svcmi	0x00040600
     240:	14000000 	strne	r0, [r0], #-0
     244:	0000011e 	andeq	r0, r0, lr, lsl r1
     248:	002c2f01 	eoreq	r2, ip, r1, lsl #30
     24c:	803c0000 	eorshi	r0, ip, r0
     250:	00200000 	eoreq	r0, r0, r0
     254:	9c010000 	stcls	0, cr0, [r1], {-0}
     258:	0000027e 	andeq	r0, r0, lr, ror r2
     25c:	01007515 	tsteq	r0, r5, lsl r5
     260:	00002c30 	andeq	r2, r0, r0, lsr ip
     264:	74910200 	ldrvc	r0, [r1], #512	; 0x200
     268:	00805016 	addeq	r5, r0, r6, lsl r0
     26c:	0001de00 	andeq	sp, r1, r0, lsl #28
     270:	51011700 	tstpl	r1, r0, lsl #14
     274:	01173401 	tsteq	r7, r1, lsl #8
     278:	6c910250 	lfmvs	f0, 4, [r1], {80}	; 0x50
     27c:	7f140000 	svcvc	0x00140000
     280:	01000000 	mrseq	r0, (UNDEF: 0)
     284:	0000253f 	andeq	r2, r0, pc, lsr r5
     288:	00805c00 	addeq	r5, r0, r0, lsl #24
     28c:	00002000 	andeq	r2, r0, r0
     290:	d99c0100 	ldmible	ip, {r8}
     294:	10000002 	andne	r0, r0, r2
     298:	01006863 	tsteq	r0, r3, ror #16
     29c:	0000253f 	andeq	r2, r0, pc, lsr r5
     2a0:	00007900 	andeq	r7, r0, r0, lsl #18
     2a4:	00631100 	rsbeq	r1, r3, r0, lsl #2
     2a8:	004f4001 	subeq	r4, pc, r1
     2ac:	00970000 	addseq	r0, r7, r0
     2b0:	6c180000 	ldcvs	0, cr0, [r8], {-0}
     2b4:	42000080 	andmi	r0, r0, #128	; 0x80
     2b8:	c5000008 	strgt	r0, [r0, #-8]
     2bc:	17000002 	strne	r0, [r0, -r2]
     2c0:	33015001 	movwcc	r5, #4097	; 0x1001
     2c4:	80741600 	rsbshi	r1, r4, r0, lsl #12
     2c8:	08420000 	stmdaeq	r2, {}^	; <UNPREDICTABLE>
     2cc:	01170000 	tsteq	r7, r0
     2d0:	00740550 	rsbseq	r0, r4, r0, asr r5
     2d4:	001aff08 	andseq	pc, sl, r8, lsl #30
     2d8:	01e50e00 	mvneq	r0, r0, lsl #28
     2dc:	2a010000 	bcs	402e4 <__bss_end__+0x3432c>
     2e0:	0000807c 	andeq	r8, r0, ip, ror r0
     2e4:	0000002c 	andeq	r0, r0, ip, lsr #32
     2e8:	03389c01 	teqeq	r8, #256	; 0x100
     2ec:	040f0000 	streq	r0, [pc], #-0	; 2f4 <_start-0x7d0c>
     2f0:	0100000b 	tsteq	r0, fp
     2f4:	0003382a 	andeq	r3, r3, sl, lsr #16
     2f8:	0000b500 	andeq	fp, r0, r0, lsl #10
     2fc:	006e1000 	rsbeq	r1, lr, r0
     300:	002c2a01 	eoreq	r2, ip, r1, lsl #20
     304:	00d30000 	sbcseq	r0, r3, r0
     308:	70110000 	andsvc	r0, r1, r0
     30c:	3f2b0100 	svccc	0x002b0100
     310:	f1000003 	cps	#3
     314:	12000000 	andne	r0, r0, #0
     318:	00008088 	andeq	r8, r0, r8, lsl #1
     31c:	0000001c 	andeq	r0, r0, ip, lsl r0
     320:	01006911 	tsteq	r0, r1, lsl r9
     324:	0000252c 	andeq	r2, r0, ip, lsr #10
     328:	00010f00 	andeq	r0, r1, r0, lsl #30
     32c:	80981300 	addshi	r1, r8, r0, lsl #6
     330:	08420000 	stmdaeq	r2, {}^	; <UNPREDICTABLE>
     334:	00000000 	andeq	r0, r0, r0
     338:	033e0406 	teqeq	lr, #100663296	; 0x6000000
     33c:	06190000 	ldreq	r0, [r9], -r0
     340:	00034504 	andeq	r4, r3, r4, lsl #10
     344:	004f0700 	subeq	r0, pc, r0, lsl #14
     348:	970e0000 	strls	r0, [lr, -r0]
     34c:	01000001 	tsteq	r0, r1
     350:	0080a834 	addeq	sl, r0, r4, lsr r8
     354:	00002400 	andeq	r2, r0, r0, lsl #8
     358:	829c0100 	addshi	r0, ip, #0, 2
     35c:	10000003 	andne	r0, r0, r3
     360:	34010075 	strcc	r0, [r1], #-117	; 0x75
     364:	0000002c 	andeq	r0, r0, ip, lsr #32
     368:	0000012e 	andeq	r0, r0, lr, lsr #2
     36c:	0080c416 	addeq	ip, r0, r6, lsl r4
     370:	0002d900 	andeq	sp, r2, r0, lsl #18
     374:	51011700 	tstpl	r1, r0, lsl #14
     378:	01173401 	tsteq	r7, r1, lsl #8
     37c:	6c910250 	lfmvs	f0, 4, [r1], {80}	; 0x50
     380:	530e0000 	movwpl	r0, #57344	; 0xe000
     384:	01000000 	mrseq	r0, (UNDEF: 0)
     388:	0080cc20 	addeq	ip, r0, r0, lsr #24
     38c:	00001800 	andeq	r1, r0, r0, lsl #16
     390:	b59c0100 	ldrlt	r0, [ip, #256]	; 0x100
     394:	10000003 	andne	r0, r0, r3
     398:	0100706f 	tsteq	r0, pc, rrx
     39c:	00002c20 	andeq	r2, r0, r0, lsr #24
     3a0:	00015900 	andeq	r5, r1, r0, lsl #18
     3a4:	80e01600 	rschi	r1, r0, r0, lsl #12
     3a8:	08420000 	stmdaeq	r2, {}^	; <UNPREDICTABLE>
     3ac:	01170000 	tsteq	r7, r0
     3b0:	00310150 	eorseq	r0, r1, r0, asr r1
     3b4:	0cda1a00 	vldmiaeq	sl, {s3-s2}
     3b8:	16010000 	strne	r0, [r1], -r0
     3bc:	000080e4 	andeq	r8, r0, r4, ror #1
     3c0:	0000000c 	andeq	r0, r0, ip
     3c4:	03e29c01 	mvneq	r9, #256	; 0x100
     3c8:	70100000 	andsvc	r0, r0, r0
     3cc:	16010063 	strne	r0, [r1], -r3, rrx
     3d0:	0000002c 	andeq	r0, r0, ip, lsr #32
     3d4:	0000017a 	andeq	r0, r0, sl, ror r1
     3d8:	0080ec13 	addeq	lr, r0, r3, lsl ip
     3dc:	00085700 	andeq	r5, r8, r0, lsl #14
     3e0:	091a0000 	ldmdbeq	sl, {}	; <UNPREDICTABLE>
     3e4:	01000000 	mrseq	r0, (UNDEF: 0)
     3e8:	0080f046 	addeq	pc, r0, r6, asr #32
     3ec:	00029000 	andeq	r9, r2, r0
     3f0:	109c0100 	addsne	r0, ip, r0, lsl #2
     3f4:	1b000008 	blne	41c <_start-0x7be4>
     3f8:	00000179 	andeq	r0, r0, r9, ror r1
     3fc:	00000810 	andeq	r0, r0, r0, lsl r8
     400:	a4680305 	strbtge	r0, [r8], #-773	; 0x305
     404:	481c0000 	ldmdami	ip, {}	; <UNPREDICTABLE>
     408:	38000081 	stmdacc	r0, {r0, r7}
     40c:	6d000002 	stcvs	0, cr0, [r0, #-8]
     410:	11000007 	tstne	r0, r7
     414:	0100706f 	tsteq	r0, pc, rrx
     418:	00004f5c 	andeq	r4, r0, ip, asr pc
     41c:	00019b00 	andeq	r9, r1, r0, lsl #22
     420:	69701100 	ldmdbvs	r0!, {r8, ip}^
     424:	5c01006e 	stcpl	0, cr0, [r1], {110}	; 0x6e
     428:	0000004f 	andeq	r0, r0, pc, asr #32
     42c:	000002ab 	andeq	r0, r0, fp, lsr #5
     430:	00005c1d 	andeq	r5, r0, sp, lsl ip
     434:	685d0100 	ldmdavs	sp, {r8}^
     438:	00000000 	andeq	r0, r0, r0
     43c:	11000003 	tstne	r0, r3
     440:	006c6176 	rsbeq	r6, ip, r6, ror r1
     444:	00685d01 	rsbeq	r5, r8, r1, lsl #26
     448:	03290000 	teqeq	r9, #0
     44c:	461e0000 	ldrmi	r0, [lr], -r0
     450:	0100000d 	tsteq	r0, sp
     454:	0000685e 	andeq	r6, r0, lr, asr r8
     458:	72631f00 	rsbvc	r1, r3, #0, 30
     45c:	60010063 	andvs	r0, r1, r3, rrx
     460:	00000068 	andeq	r0, r0, r8, rrx
     464:	0100681f 	tsteq	r0, pc, lsl r8
     468:	0001a162 	andeq	sl, r1, r2, ror #2
     46c:	01fb2000 	mvnseq	r2, r0
     470:	63010000 	movwvs	r0, #4096	; 0x1000
     474:	00000815 	andeq	r0, r0, r5, lsl r8
     478:	ffd89104 			; <UNDEFINED> instruction: 0xffd89104
     47c:	0000217b 	andeq	r2, r0, fp, ror r1
     480:	049d0000 	ldreq	r0, [sp], #0
     484:	69110000 	ldmdbvs	r1, {}	; <UNPREDICTABLE>
     488:	25930100 	ldrcs	r0, [r3, #256]	; 0x100
     48c:	89000000 	stmdbhi	r0, {}	; <UNPREDICTABLE>
     490:	13000003 	movwne	r0, #3
     494:	00008240 	andeq	r8, r0, r0, asr #4
     498:	00000837 	andeq	r0, r0, r7, lsr r8
     49c:	82581c00 	subshi	r1, r8, #0, 24
     4a0:	001c0000 	andseq	r0, ip, r0
     4a4:	04d80000 	ldrbeq	r0, [r8], #0
     4a8:	6a110000 	bvs	4404b0 <__bss_end__+0x4344f8>
     4ac:	25970100 	ldrcs	r0, [r7, #256]	; 0x100
     4b0:	a8000000 	stmdage	r0, {}	; <UNPREDICTABLE>
     4b4:	16000003 	strne	r0, [r0], -r3
     4b8:	00008268 	andeq	r8, r0, r8, ror #4
     4bc:	00000862 	andeq	r0, r0, r2, ror #16
     4c0:	07510117 	smmlaeq	r1, r7, r1, r0
     4c4:	00740076 	rsbseq	r0, r4, r6, ror r0
     4c8:	17019422 	strne	r9, [r1, -r2, lsr #8]
     4cc:	74075001 	strvc	r5, [r7], #-1
     4d0:	22007700 	andcs	r7, r0, #0, 14
     4d4:	00001023 	andeq	r1, r0, r3, lsr #32
     4d8:	00816013 	addeq	r6, r1, r3, lsl r0
     4dc:	00083700 	andeq	r3, r8, r0, lsl #14
     4e0:	81b81300 			; <UNDEFINED> instruction: 0x81b81300
     4e4:	08780000 	ldmdaeq	r8!, {}^	; <UNPREDICTABLE>
     4e8:	c0180000 	andsgt	r0, r8, r0
     4ec:	82000081 	andhi	r0, r0, #129	; 0x81
     4f0:	01000003 	tsteq	r0, r3
     4f4:	17000005 	strne	r0, [r0, -r5]
     4f8:	74055001 	strvc	r5, [r5], #-1
     4fc:	1aff0800 	bne	fffc2504 <__bss_end__+0xfffb654c>
     500:	81c81800 	bichi	r1, r8, r0, lsl #16
     504:	087f0000 	ldmdaeq	pc!, {}^	; <UNPREDICTABLE>
     508:	05150000 	ldreq	r0, [r5, #-0]
     50c:	01170000 	tsteq	r7, r0
     510:	64080250 	strvs	r0, [r8], #-592	; 0x250
     514:	81cc1300 	bichi	r1, ip, r0, lsl #6
     518:	08900000 	ldmeq	r0, {}	; <UNPREDICTABLE>
     51c:	d0130000 	andsle	r0, r3, r0
     520:	43000081 	movwmi	r0, #129	; 0x81
     524:	13000002 	movwne	r0, #2
     528:	000081d4 	ldrdeq	r8, [r0], -r4
     52c:	00000897 	muleq	r0, r7, r8
     530:	0081e018 	addeq	lr, r1, r8, lsl r0
     534:	00084200 	andeq	r4, r8, r0, lsl #4
     538:	00054400 	andeq	r4, r5, r0, lsl #8
     53c:	50011700 	andpl	r1, r1, r0, lsl #14
     540:	00007b02 	andeq	r7, r0, r2, lsl #22
     544:	0081e818 	addeq	lr, r1, r8, lsl r8
     548:	00034a00 	andeq	r4, r3, r0, lsl #20
     54c:	00055800 	andeq	r5, r5, r0, lsl #16
     550:	50011700 	andpl	r1, r1, r0, lsl #14
     554:	00007402 	andeq	r7, r0, r2, lsl #8
     558:	0081f013 	addeq	pc, r1, r3, lsl r0	; <UNPREDICTABLE>
     55c:	00024300 	andeq	r4, r2, r0, lsl #6
     560:	81f81300 	mvnshi	r1, r0, lsl #6
     564:	02430000 	subeq	r0, r3, #0
     568:	04180000 	ldreq	r0, [r8], #-0
     56c:	ac000082 	stcge	0, cr0, [r0], {130}	; 0x82
     570:	7e000008 	cdpvc	0, 0, cr0, cr0, cr8, {0}
     574:	17000005 	strne	r0, [r0, -r5]
     578:	75025001 	strvc	r5, [r2, #-1]
     57c:	0c180000 	ldceq	0, cr0, [r8], {-0}
     580:	82000082 	andhi	r0, r0, #130	; 0x82
     584:	95000003 	strls	r0, [r0, #-3]
     588:	17000005 	strne	r0, [r0, -r5]
     58c:	74055001 	strvc	r5, [r5], #-1
     590:	1aff0800 	bne	fffc2598 <__bss_end__+0xfffb65e0>
     594:	82181300 	andshi	r1, r8, #0, 6
     598:	03820000 	orreq	r0, r2, #0
     59c:	1c130000 	ldcne	0, cr0, [r3], {-0}
     5a0:	43000082 	movwmi	r0, #130	; 0x82
     5a4:	13000002 	movwne	r0, #2
     5a8:	00008220 	andeq	r8, r0, r0, lsr #4
     5ac:	00000243 	andeq	r0, r0, r3, asr #4
     5b0:	00822413 	addeq	r2, r2, r3, lsl r4
     5b4:	00024300 	andeq	r4, r2, r0, lsl #6
     5b8:	822c1300 	eorhi	r1, ip, #0, 6
     5bc:	02430000 	subeq	r0, r3, #0
     5c0:	34130000 	ldrcc	r0, [r3], #-0
     5c4:	43000082 	movwmi	r0, #130	; 0x82
     5c8:	18000002 	stmdane	r0, {r1}
     5cc:	0000827c 	andeq	r8, r0, ip, ror r2
     5d0:	000008c2 	andeq	r0, r0, r2, asr #17
     5d4:	000005df 	ldrdeq	r0, [r0], -pc	; <UNPREDICTABLE>
     5d8:	02500117 	subseq	r0, r0, #-1073741819	; 0xc0000005
     5dc:	18001077 	stmdane	r0, {r0, r1, r2, r4, r5, r6, ip}
     5e0:	00008288 	andeq	r8, r0, r8, lsl #5
     5e4:	000008d3 	ldrdeq	r0, [r0], -r3
     5e8:	000005f3 	strdeq	r0, [r0], -r3
     5ec:	02500117 	subseq	r0, r0, #-1073741819	; 0xc0000005
     5f0:	1800007a 	stmdane	r0, {r1, r3, r4, r5, r6}
     5f4:	00008290 	muleq	r0, r0, r2
     5f8:	000008d3 	ldrdeq	r0, [r0], -r3
     5fc:	00000607 	andeq	r0, r0, r7, lsl #12
     600:	02500117 	subseq	r0, r0, #-1073741819	; 0xc0000005
     604:	13000079 	movwne	r0, #121	; 0x79
     608:	00008298 	muleq	r0, r8, r2
     60c:	00000837 	andeq	r0, r0, r7, lsr r8
     610:	0082a013 	addeq	sl, r2, r3, lsl r0
     614:	0008e900 	andeq	lr, r8, r0, lsl #18
     618:	82a81800 	adchi	r1, r8, #0, 16
     61c:	03820000 	orreq	r0, r2, #0
     620:	06300000 	ldrteq	r0, [r0], -r0
     624:	01170000 	tsteq	r7, r0
     628:	00740550 	rsbseq	r0, r4, r0, asr r5
     62c:	001aff08 	andseq	pc, sl, r8, lsl #30
     630:	0082b013 	addeq	fp, r2, r3, lsl r0
     634:	00083700 	andeq	r3, r8, r0, lsl #14
     638:	82b81300 	adcshi	r1, r8, #0, 6
     63c:	08fa0000 	ldmeq	sl!, {}^	; <UNPREDICTABLE>
     640:	c4180000 	ldrgt	r0, [r8], #-0
     644:	42000082 	andmi	r0, r0, #130	; 0x82
     648:	55000008 	strpl	r0, [r0, #-8]
     64c:	17000006 	strne	r0, [r0, -r6]
     650:	3a015001 	bcc	5465c <__bss_end__+0x486a4>
     654:	82cc1800 	sbchi	r1, ip, #0, 16
     658:	034a0000 	movteq	r0, #40960	; 0xa000
     65c:	06690000 	strbteq	r0, [r9], -r0
     660:	01170000 	tsteq	r7, r0
     664:	00740250 	rsbseq	r0, r4, r0, asr r2
     668:	82d41300 	sbcshi	r1, r4, #0, 6
     66c:	08370000 	ldmdaeq	r7!, {}	; <UNPREDICTABLE>
     670:	dc130000 	ldcle	0, cr0, [r3], {-0}
     674:	0f000082 	svceq	0x00000082
     678:	18000009 	stmdane	r0, {r0, r3}
     67c:	000082e4 	andeq	r8, r0, r4, ror #5
     680:	00000382 	andeq	r0, r0, r2, lsl #7
     684:	00000692 	muleq	r0, r2, r6
     688:	05500117 	ldrbeq	r0, [r0, #-279]	; 0x117
     68c:	ff080074 			; <UNDEFINED> instruction: 0xff080074
     690:	ec13001a 	ldc	0, cr0, [r3], {26}
     694:	37000082 	strcc	r0, [r0, -r2, lsl #1]
     698:	13000008 	movwne	r0, #8
     69c:	000082f4 	strdeq	r8, [r0], -r4
     6a0:	00000243 	andeq	r0, r0, r3, asr #4
     6a4:	00830018 	addeq	r0, r3, r8, lsl r0
     6a8:	00092000 	andeq	r2, r9, r0
     6ac:	0006bb00 	andeq	fp, r6, r0, lsl #22
     6b0:	50011700 	andpl	r1, r1, r0, lsl #14
     6b4:	08007505 	stmdaeq	r0, {r0, r2, r8, sl, ip, sp, lr}
     6b8:	18001aff 	stmdane	r0, {r0, r1, r2, r3, r4, r5, r6, r7, r9, fp, ip}
     6bc:	00008308 	andeq	r8, r0, r8, lsl #6
     6c0:	00000382 	andeq	r0, r0, r2, lsl #7
     6c4:	000006d2 	ldrdeq	r0, [r0], -r2
     6c8:	05500117 	ldrbeq	r0, [r0, #-279]	; 0x117
     6cc:	ff080074 			; <UNDEFINED> instruction: 0xff080074
     6d0:	1013001a 	andsne	r0, r3, sl, lsl r0
     6d4:	37000083 	strcc	r0, [r0, -r3, lsl #1]
     6d8:	13000008 	movwne	r0, #8
     6dc:	00008318 	andeq	r8, r0, r8, lsl r3
     6e0:	00000936 	andeq	r0, r0, r6, lsr r9
     6e4:	00832018 	addeq	r2, r3, r8, lsl r0
     6e8:	00038200 	andeq	r8, r3, r0, lsl #4
     6ec:	0006fb00 	andeq	pc, r6, r0, lsl #22
     6f0:	50011700 	andpl	r1, r1, r0, lsl #14
     6f4:	08007405 	stmdaeq	r0, {r0, r2, sl, ip, sp, lr}
     6f8:	13001aff 	movwne	r1, #2815	; 0xaff
     6fc:	00008328 	andeq	r8, r0, r8, lsr #6
     700:	00000837 	andeq	r0, r0, r7, lsr r8
     704:	00833013 	addeq	r3, r3, r3, lsl r0
     708:	00094700 	andeq	r4, r9, r0, lsl #14
     70c:	83381800 	teqhi	r8, #0, 16
     710:	03820000 	orreq	r0, r2, #0
     714:	07240000 	streq	r0, [r4, -r0]!
     718:	01170000 	tsteq	r7, r0
     71c:	00740550 	rsbseq	r0, r4, r0, asr r5
     720:	001aff08 	andseq	pc, sl, r8, lsl #30
     724:	00834013 	addeq	r4, r3, r3, lsl r0
     728:	00095800 	andeq	r5, r9, r0, lsl #16
     72c:	835c1800 	cmphi	ip, #0, 16
     730:	08d30000 	ldmeq	r3, {}^	; <UNPREDICTABLE>
     734:	07630000 	strbeq	r0, [r3, -r0]!
     738:	01170000 	tsteq	r7, r0
     73c:	c6080253 			; <UNDEFINED> instruction: 0xc6080253
     740:	05520117 	ldrbeq	r0, [r2, #-279]	; 0x117
     744:	00a46803 	adceq	r6, r4, r3, lsl #16
     748:	51011700 	tstpl	r1, r0, lsl #14
     74c:	a4940305 	ldrge	r0, [r4], #773	; 0x305
     750:	01170000 	tsteq	r7, r0
     754:	1c030550 	cfstr32ne	mvfx0, [r3], {80}	; 0x50
     758:	170000a5 	strne	r0, [r0, -r5, lsr #1]
     75c:	02007d02 	andeq	r7, r0, #2, 26	; 0x80
     760:	13000074 	movwne	r0, #116	; 0x74
     764:	00008360 	andeq	r8, r0, r0, ror #6
     768:	0000095f 	andeq	r0, r0, pc, asr r9
     76c:	81001300 	mrshi	r1, LR_irq
     770:	09660000 	stmdbeq	r6!, {}^	; <UNPREDICTABLE>
     774:	04130000 	ldreq	r0, [r3], #-0
     778:	6d000081 	stcvs	0, cr0, [r0, #-516]	; 0xfffffdfc
     77c:	13000009 	movwne	r0, #9
     780:	00008108 	andeq	r8, r0, r8, lsl #2
     784:	00000974 	andeq	r0, r0, r4, ror r9
     788:	00811018 	addeq	r1, r1, r8, lsl r0
     78c:	00097b00 	andeq	r7, r9, r0, lsl #22
     790:	00079f00 	andeq	r9, r7, r0, lsl #30
     794:	50011700 	andpl	r1, r1, r0, lsl #14
     798:	805c0305 	subshi	r0, ip, r5, lsl #6
     79c:	13000000 	movwne	r0, #0
     7a0:	00008114 	andeq	r8, r0, r4, lsl r1
     7a4:	00000837 	andeq	r0, r0, r7, lsr r8
     7a8:	00812013 	addeq	r2, r1, r3, lsl r0
     7ac:	00095800 	andeq	r5, r9, r0, lsl #16
     7b0:	81341800 	teqhi	r4, r0, lsl #16
     7b4:	08d30000 	ldmeq	r3, {}^	; <UNPREDICTABLE>
     7b8:	07e00000 	strbeq	r0, [r0, r0]!
     7bc:	01170000 	tsteq	r7, r0
     7c0:	54080253 	strpl	r0, [r8], #-595	; 0x253
     7c4:	05520117 	ldrbeq	r0, [r2, #-279]	; 0x117
     7c8:	00a46803 	adceq	r6, r4, r3, lsl #16
     7cc:	51011700 	tstpl	r1, r0, lsl #14
     7d0:	a4940305 	ldrge	r0, [r4], #773	; 0x305
     7d4:	01170000 	tsteq	r7, r0
     7d8:	70030550 	andvc	r0, r3, r0, asr r5
     7dc:	000000a4 	andeq	r0, r0, r4, lsr #1
     7e0:	00813813 	addeq	r3, r1, r3, lsl r8
     7e4:	00095f00 	andeq	r5, r9, r0, lsl #30
     7e8:	81401800 	cmphi	r0, r0, lsl #16
     7ec:	08420000 	stmdaeq	r2, {}^	; <UNPREDICTABLE>
     7f0:	07fc0000 	ldrbeq	r0, [ip, r0]!
     7f4:	01170000 	tsteq	r7, r0
     7f8:	00310150 	eorseq	r0, r1, r0, asr r1
     7fc:	00814816 	addeq	r4, r1, r6, lsl r8
     800:	0008d300 	andeq	sp, r8, r0, lsl #6
     804:	50011700 	andpl	r1, r1, r0, lsl #14
     808:	a4a00305 	strtge	r0, [r0], #773	; 0x305
     80c:	00000000 	andeq	r0, r0, r0
     810:	00009c07 	andeq	r9, r0, r7, lsl #24
     814:	008a0800 	addeq	r0, sl, r0, lsl #16
     818:	08260000 	stmdaeq	r6!, {}	; <UNPREDICTABLE>
     81c:	81220000 	teqhi	r2, r0
     820:	ff000000 			; <UNDEFINED> instruction: 0xff000000
     824:	532300ff 	teqpl	r3, #255	; 0xff
     828:	03000004 	movweq	r0, #4
     82c:	0000ac80 	andeq	sl, r0, r0, lsl #25
     830:	b4030500 	strlt	r0, [r3], #-1280	; 0x500
     834:	240000bf 	strcs	r0, [r0], #-191	; 0xbf
     838:	00000129 	andeq	r0, r0, r9, lsr #2
     83c:	00251105 	eoreq	r1, r5, r5, lsl #2
     840:	b5250000 	strlt	r0, [r5, #-0]!
     844:	05000001 	streq	r0, [r0, #-1]
     848:	00002512 	andeq	r2, r0, r2, lsl r5
     84c:	00085700 	andeq	r5, r8, r0, lsl #14
     850:	00252600 	eoreq	r2, r5, r0, lsl #12
     854:	24000000 	strcs	r0, [r0], #-0
     858:	0000013f 	andeq	r0, r0, pc, lsr r1
     85c:	00251405 	eoreq	r1, r5, r5, lsl #8
     860:	cb270000 	blgt	9c0868 <__bss_end__+0x9b48b0>
     864:	06000000 	streq	r0, [r0], -r0
     868:	000878a1 	andeq	r7, r8, r1, lsr #17
     86c:	002c2600 	eoreq	r2, ip, r0, lsl #12
     870:	5a260000 	bpl	980878 <__bss_end__+0x9748c0>
     874:	00000000 	andeq	r0, r0, r0
     878:	0002e228 	andeq	lr, r2, r8, lsr #4
     87c:	271c0500 	ldrcs	r0, [ip, -r0, lsl #10]
     880:	0000030a 	andeq	r0, r0, sl, lsl #6
     884:	08905006 	ldmeq	r0, {r1, r2, ip, lr}
     888:	2c260000 	stccs	0, cr0, [r6], #-0
     88c:	00000000 	andeq	r0, r0, r0
     890:	00031c28 	andeq	r1, r3, r8, lsr #24
     894:	25630600 	strbcs	r0, [r3, #-1536]!	; 0x600
     898:	000002c7 	andeq	r0, r0, r7, asr #5
     89c:	002ca506 	eoreq	sl, ip, r6, lsl #10
     8a0:	08ac0000 	stmiaeq	ip!, {}	; <UNPREDICTABLE>
     8a4:	2c260000 	stccs	0, cr0, [r6], #-0
     8a8:	00000000 	andeq	r0, r0, r0
     8ac:	00025c27 	andeq	r5, r2, r7, lsr #24
     8b0:	c2990600 	addsgt	r0, r9, #0, 12
     8b4:	26000008 	strcs	r0, [r0], -r8
     8b8:	0000002c 	andeq	r0, r0, ip, lsr #32
     8bc:	00002c26 	andeq	r2, r0, r6, lsr #24
     8c0:	00270000 	eoreq	r0, r7, r0
     8c4:	06000000 	streq	r0, [r0], -r0
     8c8:	0008d3b1 			; <UNDEFINED> instruction: 0x0008d3b1
     8cc:	002c2600 	eoreq	r2, ip, r0, lsl #12
     8d0:	25000000 	strcs	r0, [r0, #-0]
     8d4:	000004c5 	andeq	r0, r0, r5, asr #9
     8d8:	00252906 	eoreq	r2, r5, r6, lsl #18
     8dc:	08e90000 	stmiaeq	r9!, {}^	; <UNPREDICTABLE>
     8e0:	91260000 	teqls	r6, r0
     8e4:	29000000 	stmdbcs	r0, {}	; <UNPREDICTABLE>
     8e8:	03a52700 			; <UNDEFINED> instruction: 0x03a52700
     8ec:	1c070000 	stcne	0, cr0, [r7], {-0}
     8f0:	000008fa 	strdeq	r0, [r0], -sl
     8f4:	00002c26 	andeq	r2, r0, r6, lsr #24
     8f8:	f1250000 			; <UNDEFINED> instruction: 0xf1250000
     8fc:	07000001 	streq	r0, [r0, -r1]
     900:	00002524 	andeq	r2, r0, r4, lsr #10
     904:	00090f00 	andeq	r0, r9, r0, lsl #30
     908:	002c2600 	eoreq	r2, ip, r0, lsl #12
     90c:	27000000 	strcs	r0, [r0, -r0]
     910:	00000443 	andeq	r0, r0, r3, asr #8
     914:	09201d07 	stmdbeq	r0!, {r0, r1, r2, r8, sl, fp, ip}
     918:	2c260000 	stccs	0, cr0, [r6], #-0
     91c:	00000000 	andeq	r0, r0, r0
     920:	0002d727 	andeq	sp, r2, r7, lsr #14
     924:	36210700 	strtcc	r0, [r1], -r0, lsl #14
     928:	26000009 	strcs	r0, [r0], -r9
     92c:	0000002c 	andeq	r0, r0, ip, lsr #32
     930:	00002c26 	andeq	r2, r0, r6, lsr #24
     934:	b4270000 	strtlt	r0, [r7], #-0
     938:	07000003 	streq	r0, [r0, -r3]
     93c:	00094727 	andeq	r4, r9, r7, lsr #14
     940:	002c2600 	eoreq	r2, ip, r0, lsl #12
     944:	27000000 	strcs	r0, [r0, -r0]
     948:	0000008b 	andeq	r0, r0, fp, lsl #1
     94c:	09582a07 	ldmdbeq	r8, {r0, r1, r2, r9, fp, sp}^
     950:	2c260000 	stccs	0, cr0, [r6], #-0
     954:	00000000 	andeq	r0, r0, r0
     958:	00016a28 	andeq	r6, r1, r8, lsr #20
     95c:	281e0600 	ldmdacs	lr, {r9, sl}
     960:	00000204 	andeq	r0, r0, r4, lsl #4
     964:	0d286606 	stceq	6, cr6, [r8, #-24]!	; 0xffffffe8
     968:	08000001 	stmdaeq	r0, {r0}
     96c:	00222833 	eoreq	r2, r2, r3, lsr r8
     970:	0a050000 	beq	140978 <__bss_end__+0x1349c0>
     974:	00026228 	andeq	r6, r2, r8, lsr #4
     978:	27310800 	ldrcs	r0, [r1, -r0, lsl #16]!
     97c:	000000e2 	andeq	r0, r0, r2, ror #1
     980:	098c1f06 	stmibeq	ip, {r1, r2, r8, r9, sl, fp, ip}
     984:	8c260000 	stchi	0, cr0, [r6], #-0
     988:	00000009 	andeq	r0, r0, r9
     98c:	09920406 	ldmibeq	r2, {r1, r2, sl}
     990:	252a0000 	strcs	r0, [sl, #-0]!
     994:	26000000 	strcs	r0, [r0], -r0
     998:	00000025 	andeq	r0, r0, r5, lsr #32
     99c:	01910000 	orrseq	r0, r1, r0
     9a0:	00040000 	andeq	r0, r4, r0
     9a4:	0000022d 	andeq	r0, r0, sp, lsr #4
     9a8:	034e0104 	movteq	r0, #57604	; 0xe104
     9ac:	b4010000 	strlt	r0, [r1], #-0
     9b0:	d6000004 	strle	r0, [r0], -r4
     9b4:	80000004 	andhi	r0, r0, r4
     9b8:	58000083 	stmdapl	r0, {r0, r1, r7}
     9bc:	8b000000 	blhi	9c4 <_start-0x763c>
     9c0:	02000002 	andeq	r0, r0, #2
     9c4:	000004a5 	andeq	r0, r0, r5, lsr #9
     9c8:	00302802 	eorseq	r2, r0, r2, lsl #16
     9cc:	cc030000 	stcgt	0, cr0, [r3], {-0}
     9d0:	04000004 	streq	r0, [r0], #-4
     9d4:	00470003 	subeq	r0, r7, r3
     9d8:	1a040000 	bne	1009e0 <__bss_end__+0xf4a28>
     9dc:	47000005 	strmi	r0, [r0, -r5]
     9e0:	00000000 	andeq	r0, r0, r0
     9e4:	02040500 	andeq	r0, r4, #0, 10
     9e8:	000004ce 	andeq	r0, r0, lr, asr #9
     9ec:	00256202 	eoreq	r6, r5, r2, lsl #4
     9f0:	04060000 	streq	r0, [r6], #-0
     9f4:	746e6905 	strbtvc	r6, [lr], #-2309	; 0x905
     9f8:	07040700 	streq	r0, [r4, -r0, lsl #14]
     9fc:	00000046 	andeq	r0, r0, r6, asr #32
     a00:	a8060107 	stmdage	r6, {r0, r1, r2, r8}
     a04:	07000002 	streq	r0, [r0, -r2]
     a08:	02cd0502 	sbceq	r0, sp, #8388608	; 0x800000
     a0c:	04070000 	streq	r0, [r7], #-0
     a10:	00009d05 	andeq	r9, r0, r5, lsl #26
     a14:	05080700 	streq	r0, [r8, #-1792]	; 0x700
     a18:	00000098 	muleq	r0, r8, r0
     a1c:	a6080107 	strge	r0, [r8], -r7, lsl #2
     a20:	07000002 	streq	r0, [r0, -r2]
     a24:	01a20702 			; <UNDEFINED> instruction: 0x01a20702
     a28:	04070000 	streq	r0, [r7], #-0
     a2c:	00004107 	andeq	r4, r0, r7, lsl #2
     a30:	07080700 	streq	r0, [r8, -r0, lsl #14]
     a34:	0000003c 	andeq	r0, r0, ip, lsr r0
     a38:	33070407 	movwcc	r0, #29703	; 0x7407
     a3c:	08000002 	stmdaeq	r0, {r1}
     a40:	0000a704 	andeq	sl, r0, r4, lsl #14
     a44:	08010700 	stmdaeq	r1, {r8, r9, sl}
     a48:	000002af 	andeq	r0, r0, pc, lsr #5
     a4c:	00b40408 	adcseq	r0, r4, r8, lsl #8
     a50:	a7090000 	strge	r0, [r9, -r0]
     a54:	0a000000 	beq	a5c <_start-0x75a4>
     a58:	000004c5 	andeq	r0, r0, r5, asr #9
     a5c:	00540601 	subseq	r0, r4, r1, lsl #12
     a60:	83800000 	orrhi	r0, r0, #0
     a64:	00580000 	subseq	r0, r8, r0
     a68:	9c010000 	stcls	0, cr0, [r1], {-0}
     a6c:	00000143 	andeq	r0, r0, r3, asr #2
     a70:	746d660b 	strbtvc	r6, [sp], #-1547	; 0x60b
     a74:	ae060100 	adfges	f0, f6, f0
     a78:	02000000 	andeq	r0, r0, #0
     a7c:	0d0c7091 	stceq	0, cr7, [ip, #-580]	; 0xfffffdbc
     a80:	00667562 	rsbeq	r7, r6, r2, ror #10
     a84:	01430801 	cmpeq	r3, r1, lsl #16
     a88:	03050000 	movweq	r0, #20480	; 0x5000
     a8c:	0000ab7c 	andeq	sl, r0, ip, ror fp
     a90:	000e210e 	andeq	r2, lr, lr, lsl #2
     a94:	49090100 	stmdbmi	r9, {r8}
     a98:	02000000 	andeq	r0, r0, #0
     a9c:	730f5c91 	movwvc	r5, #64657	; 0xfc91
     aa0:	0c01007a 	stceq	0, cr0, [r1], {122}	; 0x7a
     aa4:	00000054 	andeq	r0, r0, r4, asr r0
     aa8:	000003bb 			; <UNDEFINED> instruction: 0x000003bb
     aac:	0083a810 	addeq	sl, r3, r0, lsl r8
     ab0:	00017400 	andeq	r7, r1, r0, lsl #8
     ab4:	00013600 	andeq	r3, r1, r0, lsl #12
     ab8:	53011100 	movwpl	r1, #4352	; 0x1100
     abc:	114c9102 	cmpne	ip, r2, lsl #2
     ac0:	91035201 	tstls	r3, r1, lsl #4
     ac4:	01110648 	tsteq	r1, r8, asr #12
     ac8:	000a0351 	andeq	r0, sl, r1, asr r3
     acc:	50011104 	andpl	r1, r1, r4, lsl #2
     ad0:	00007402 	andeq	r7, r0, r2, lsl #8
     ad4:	0083bc12 	addeq	fp, r3, r2, lsl ip
     ad8:	50011100 	andpl	r1, r1, r0, lsl #2
     adc:	00007402 	andeq	r7, r0, r2, lsl #8
     ae0:	00a71300 	adceq	r1, r7, r0, lsl #6
     ae4:	01540000 	cmpeq	r4, r0
     ae8:	9a140000 	bls	500af0 <__bss_end__+0x4f4b38>
     aec:	ff000000 			; <UNDEFINED> instruction: 0xff000000
     af0:	54150003 	ldrpl	r0, [r5], #-3
     af4:	63000000 	movwvs	r0, #0
     af8:	16000001 	strne	r0, [r0], -r1
     afc:	000000ae 	andeq	r0, r0, lr, lsr #1
     b00:	05601700 	strbeq	r1, [r0, #-1792]!	; 0x700
     b04:	22040000 	andcs	r0, r4, #0
     b08:	0000016e 	andeq	r0, r0, lr, ror #2
     b0c:	01540408 	cmpeq	r4, r8, lsl #8
     b10:	c2180000 	andsgt	r0, r8, #0
     b14:	05000004 	streq	r0, [r0, #-4]
     b18:	00005402 	andeq	r5, r0, r2, lsl #8
     b1c:	00a11600 	adceq	r1, r1, r0, lsl #12
     b20:	54160000 	ldrpl	r0, [r6], #-0
     b24:	16000000 	strne	r0, [r0], -r0
     b28:	000000ae 	andeq	r0, r0, lr, lsr #1
     b2c:	00004916 	andeq	r4, r0, r6, lsl r9
     b30:	13000000 	movwne	r0, #0
     b34:	04000001 	streq	r0, [r0], #-1
     b38:	00035e00 	andeq	r5, r3, r0, lsl #28
     b3c:	4e010400 	cfcpysmi	mvf0, mvf1
     b40:	01000003 	tsteq	r0, r3
     b44:	0000053c 	andeq	r0, r0, ip, lsr r5
     b48:	000004d6 	ldrdeq	r0, [r0], -r6
     b4c:	000083d8 	ldrdeq	r8, [r0], -r8	; <UNPREDICTABLE>
     b50:	0000003c 	andeq	r0, r0, ip, lsr r0
     b54:	00000391 	muleq	r0, r1, r3
     b58:	69050402 	stmdbvs	r5, {r1, sl}
     b5c:	0300746e 	movweq	r7, #1134	; 0x46e
     b60:	00460704 	subeq	r0, r6, r4, lsl #14
     b64:	01030000 	mrseq	r0, (UNDEF: 3)
     b68:	0002a806 	andeq	sl, r2, r6, lsl #16
     b6c:	05020300 	streq	r0, [r2, #-768]	; 0x300
     b70:	000002cd 	andeq	r0, r0, sp, asr #5
     b74:	9d050403 	cfstrsls	mvf0, [r5, #-12]
     b78:	03000000 	movweq	r0, #0
     b7c:	00980508 	addseq	r0, r8, r8, lsl #10
     b80:	01030000 	mrseq	r0, (UNDEF: 3)
     b84:	0002a608 	andeq	sl, r2, r8, lsl #12
     b88:	07020300 	streq	r0, [r2, -r0, lsl #6]
     b8c:	000001a2 	andeq	r0, r0, r2, lsr #3
     b90:	41070403 	tstmi	r7, r3, lsl #8
     b94:	03000000 	movweq	r0, #0
     b98:	003c0708 	eorseq	r0, ip, r8, lsl #14
     b9c:	04030000 	streq	r0, [r3], #-0
     ba0:	00023307 	andeq	r3, r2, r7, lsl #6
     ba4:	08010300 	stmdaeq	r1, {r8, r9}
     ba8:	000002af 	andeq	r0, r0, pc, lsr #5
     bac:	00051f04 	andeq	r1, r5, r4, lsl #30
     bb0:	25030100 	strcs	r0, [r3, #-256]	; 0x100
     bb4:	d8000000 	stmdale	r0, {}	; <UNPREDICTABLE>
     bb8:	14000083 	strne	r0, [r0], #-131	; 0x83
     bbc:	01000000 	mrseq	r0, (UNDEF: 0)
     bc0:	0000b09c 	muleq	r0, ip, r0
     bc4:	00630500 	rsbeq	r0, r3, r0, lsl #10
     bc8:	00250301 	eoreq	r0, r5, r1, lsl #6
     bcc:	03e40000 	mvneq	r0, #0
     bd0:	e4060000 	str	r0, [r6], #-0
     bd4:	09000083 	stmdbeq	r0, {r0, r1, r7}
     bd8:	07000001 	streq	r0, [r0, -r1]
     bdc:	74025001 	strvc	r5, [r2], #-1
     be0:	08000000 	stmdaeq	r0, {}	; <UNPREDICTABLE>
     be4:	0000016a 	andeq	r0, r0, sl, ror #2
     be8:	83ec0801 	mvnhi	r0, #65536	; 0x10000
     bec:	00180000 	andseq	r0, r8, r0
     bf0:	9c010000 	stcls	0, cr0, [r1], {-0}
     bf4:	0000e209 	andeq	lr, r0, r9, lsl #4
     bf8:	040b0100 	streq	r0, [fp], #-256	; 0x100
     bfc:	10000084 	andne	r0, r0, r4, lsl #1
     c00:	01000000 	mrseq	r0, (UNDEF: 0)
     c04:	0000e39c 	muleq	r0, ip, r3
     c08:	70660a00 	rsbvc	r0, r6, r0, lsl #20
     c0c:	f20b0100 	vrhadd.s8	d0, d11, d0
     c10:	01000000 	mrseq	r0, (UNDEF: 0)
     c14:	250b0050 	strcs	r0, [fp, #-80]	; 0x50
     c18:	f2000000 	vhadd.s8	d0, d0, d0
     c1c:	0c000000 	stceq	0, cr0, [r0], {-0}
     c20:	00000025 	andeq	r0, r0, r5, lsr #32
     c24:	e3040d00 	movw	r0, #19712	; 0x4d00
     c28:	0e000000 	cdpeq	0, 0, cr0, cr0, cr0, {0}
     c2c:	00000530 	andeq	r0, r0, r0, lsr r5
     c30:	00f20601 	rscseq	r0, r2, r1, lsl #12
     c34:	03050000 	movweq	r0, #20480	; 0x5000
     c38:	0000a3cc 	andeq	sl, r0, ip, asr #7
     c3c:	00067a0f 	andeq	r7, r6, pc, lsl #20
     c40:	0c3c0200 	lfmeq	f0, 4, [ip], #-0
     c44:	0000002c 	andeq	r0, r0, ip, lsr #32
     c48:	00ee0000 	rsceq	r0, lr, r0
     c4c:	00040000 	andeq	r0, r4, r0
     c50:	00000446 	andeq	r0, r0, r6, asr #8
     c54:	034e0104 	movteq	r0, #57604	; 0xe104
     c58:	4b010000 	blmi	40c60 <__bss_end__+0x34ca8>
     c5c:	d6000005 	strle	r0, [r0], -r5
     c60:	14000004 	strne	r0, [r0], #-4
     c64:	34000084 	strcc	r0, [r0], #-132	; 0x84
     c68:	1f000000 	svcne	0x00000000
     c6c:	02000004 	andeq	r0, r0, #4
     c70:	6e690504 	cdpvs	5, 6, cr0, cr9, cr4, {0}
     c74:	04030074 	streq	r0, [r3], #-116	; 0x74
     c78:	00004607 	andeq	r4, r0, r7, lsl #12
     c7c:	06010300 	streq	r0, [r1], -r0, lsl #6
     c80:	000002a8 	andeq	r0, r0, r8, lsr #5
     c84:	cd050203 	sfmgt	f0, 4, [r5, #-12]
     c88:	03000002 	movweq	r0, #2
     c8c:	009d0504 	addseq	r0, sp, r4, lsl #10
     c90:	08030000 	stmdaeq	r3, {}	; <UNPREDICTABLE>
     c94:	00009805 	andeq	r9, r0, r5, lsl #16
     c98:	08010300 	stmdaeq	r1, {r8, r9}
     c9c:	000002a6 	andeq	r0, r0, r6, lsr #5
     ca0:	a2070203 	andge	r0, r7, #805306368	; 0x30000000
     ca4:	03000001 	movweq	r0, #1
     ca8:	00410704 	subeq	r0, r1, r4, lsl #14
     cac:	08030000 	stmdaeq	r3, {}	; <UNPREDICTABLE>
     cb0:	00003c07 	andeq	r3, r0, r7, lsl #24
     cb4:	07040300 	streq	r0, [r4, -r0, lsl #6]
     cb8:	00000233 	andeq	r0, r0, r3, lsr r2
     cbc:	af080103 	svcge	0x00080103
     cc0:	04000002 	streq	r0, [r0], #-2
     cc4:	00007f04 	andeq	r7, r0, r4, lsl #30
     cc8:	00720500 	rsbseq	r0, r2, r0, lsl #10
     ccc:	57060000 	strpl	r0, [r6, -r0]
     cd0:	01000005 	tsteq	r0, r5
     cd4:	00002504 	andeq	r2, r0, r4, lsl #10
     cd8:	00841400 	addeq	r1, r4, r0, lsl #8
     cdc:	00003400 	andeq	r3, r0, r0, lsl #8
     ce0:	ab9c0100 	blge	fe7010e8 <__bss_end__+0xfe6f5130>
     ce4:	07000000 	streq	r0, [r0, -r0]
     ce8:	04010070 	streq	r0, [r1], #-112	; 0x70
     cec:	00000079 	andeq	r0, r0, r9, ror r0
     cf0:	00000402 	andeq	r0, r0, r2, lsl #8
     cf4:	00250800 	eoreq	r0, r5, r0, lsl #16
     cf8:	00ba0000 	adcseq	r0, sl, r0
     cfc:	25090000 	strcs	r0, [r9, #-0]
     d00:	00000000 	andeq	r0, r0, r0
     d04:	0005300a 	andeq	r3, r5, sl
     d08:	c51d0200 	ldrgt	r0, [sp, #-512]	; 0x200
     d0c:	04000000 	streq	r0, [r0], #-0
     d10:	0000ab04 	andeq	sl, r0, r4, lsl #22
     d14:	00250800 	eoreq	r0, r5, r0, lsl #16
     d18:	00da0000 	sbcseq	r0, sl, r0
     d1c:	79090000 	stmdbvc	r9, {}	; <UNPREDICTABLE>
     d20:	00000000 	andeq	r0, r0, r0
     d24:	0005600b 	andeq	r6, r5, fp
     d28:	eb0c0100 	bl	301130 <__bss_end__+0x2f5178>
     d2c:	05000000 	streq	r0, [r0, #-0]
     d30:	00a3d003 	adceq	sp, r3, r3
     d34:	cb040400 	blgt	101d3c <__bss_end__+0xf5d84>
     d38:	00000000 	andeq	r0, r0, r0
     d3c:	00000681 	andeq	r0, r0, r1, lsl #13
     d40:	04df0004 	ldrbeq	r0, [pc], #4	; d48 <_start-0x72b8>
     d44:	01040000 	mrseq	r0, (UNDEF: 4)
     d48:	0000034e 	andeq	r0, r0, lr, asr #6
     d4c:	00058c01 	andeq	r8, r5, r1, lsl #24
     d50:	0004d600 	andeq	sp, r4, r0, lsl #12
     d54:	00844800 	addeq	r4, r4, r0, lsl #16
     d58:	0004f800 	andeq	pc, r4, r0, lsl #16
     d5c:	0004b900 	andeq	fp, r4, r0, lsl #18
     d60:	05040200 	streq	r0, [r4, #-512]	; 0x200
     d64:	00746e69 	rsbseq	r6, r4, r9, ror #28
     d68:	46070403 	strmi	r0, [r7], -r3, lsl #8
     d6c:	03000000 	movweq	r0, #0
     d70:	02a80601 	adceq	r0, r8, #1048576	; 0x100000
     d74:	02030000 	andeq	r0, r3, #0
     d78:	0002cd05 	andeq	ip, r2, r5, lsl #26
     d7c:	05040300 	streq	r0, [r4, #-768]	; 0x300
     d80:	0000009d 	muleq	r0, sp, r0
     d84:	98050803 	stmdals	r5, {r0, r1, fp}
     d88:	03000000 	movweq	r0, #0
     d8c:	02a60801 	adceq	r0, r6, #65536	; 0x10000
     d90:	02030000 	andeq	r0, r3, #0
     d94:	0001a207 	andeq	sl, r1, r7, lsl #4
     d98:	07040300 	streq	r0, [r4, -r0, lsl #6]
     d9c:	00000041 	andeq	r0, r0, r1, asr #32
     da0:	3c070803 	stccc	8, cr0, [r7], {3}
     da4:	03000000 	movweq	r0, #0
     da8:	02330704 	eorseq	r0, r3, #4, 14	; 0x100000
     dac:	04040000 	streq	r0, [r4], #-0
     db0:	007a0405 	rsbseq	r0, sl, r5, lsl #8
     db4:	01030000 	mrseq	r0, (UNDEF: 3)
     db8:	0002af08 	andeq	sl, r2, r8, lsl #30
     dbc:	87040500 	strhi	r0, [r4, -r0, lsl #10]
     dc0:	06000000 	streq	r0, [r0], -r0
     dc4:	0000007a 	andeq	r0, r0, sl, ror r0
     dc8:	0004a507 	andeq	sl, r4, r7, lsl #10
     dcc:	97280200 	strls	r0, [r8, -r0, lsl #4]!
     dd0:	08000000 	stmdaeq	r0, {}	; <UNPREDICTABLE>
     dd4:	000004cc 	andeq	r0, r0, ip, asr #9
     dd8:	ae000404 	cdpge	4, 0, cr0, cr0, cr4, {0}
     ddc:	09000000 	stmdbeq	r0, {}	; <UNPREDICTABLE>
     de0:	0000051a 	andeq	r0, r0, sl, lsl r5
     de4:	00000072 	andeq	r0, r0, r2, ror r0
     de8:	ce070000 	cdpgt	0, 0, cr0, cr7, cr0, {0}
     dec:	02000004 	andeq	r0, r0, #4
     df0:	00008c62 	andeq	r8, r0, r2, ror #24
     df4:	05730a00 	ldrbeq	r0, [r3, #-2560]!	; 0xa00
     df8:	27010000 	strcs	r0, [r1, -r0]
     dfc:	00000025 	andeq	r0, r0, r5, lsr #32
     e00:	00008448 	andeq	r8, r0, r8, asr #8
     e04:	00000014 	andeq	r0, r0, r4, lsl r0
     e08:	00e09c01 	rsceq	r9, r0, r1, lsl #24
     e0c:	630b0000 	movwvs	r0, #45056	; 0xb000
     e10:	25270100 	strcs	r0, [r7, #-256]!	; 0x100
     e14:	20000000 	andcs	r0, r0, r0
     e18:	00000004 	andeq	r0, r0, r4
     e1c:	6461700c 	strbtvs	r7, [r1], #-12
     e20:	742e0100 	strtvc	r0, [lr], #-256	; 0x100
     e24:	5c000000 	stcpl	0, cr0, [r0], {-0}
     e28:	2c000084 	stccs	0, cr0, [r0], {132}	; 0x84
     e2c:	01000000 	mrseq	r0, (UNDEF: 0)
     e30:	0001309c 	muleq	r1, ip, r0
     e34:	00700b00 	rsbseq	r0, r0, r0, lsl #22
     e38:	00742e01 	rsbseq	r2, r4, r1, lsl #28
     e3c:	044e0000 	strbeq	r0, [lr], #-0
     e40:	ff0d0000 			; <UNDEFINED> instruction: 0xff0d0000
     e44:	0100000d 	tsteq	r0, sp
     e48:	0000742e 	andeq	r7, r0, lr, lsr #8
     e4c:	00047900 	andeq	r7, r4, r0, lsl #18
     e50:	05ac0e00 	streq	r0, [ip, #3584]!	; 0xe00
     e54:	2e010000 	cdpcs	0, 0, cr0, cr1, cr0, {0}
     e58:	00000025 	andeq	r0, r0, r5, lsr #32
     e5c:	6c0f5201 	sfmvs	f5, 4, [pc], {1}
     e60:	01006e65 	tsteq	r0, r5, ror #28
     e64:	0000252f 	andeq	r2, r0, pc, lsr #10
     e68:	00510100 	subseq	r0, r1, r0, lsl #2
     e6c:	00056b0a 	andeq	r6, r5, sl, lsl #22
     e70:	74370100 	ldrtvc	r0, [r7], #-256	; 0x100
     e74:	88000000 	stmdahi	r0, {}	; <UNPREDICTABLE>
     e78:	40000084 	andmi	r0, r0, r4, lsl #1
     e7c:	01000000 	mrseq	r0, (UNDEF: 0)
     e80:	00019c9c 	muleq	r1, ip, ip
     e84:	73640b00 	cmnvc	r4, #0, 22
     e88:	37010074 	smlsdxcc	r1, r4, r0, r0
     e8c:	00000074 	andeq	r0, r0, r4, ror r0
     e90:	0000049a 	muleq	r0, sl, r4
     e94:	01006e0b 	tsteq	r0, fp, lsl #28
     e98:	00002537 	andeq	r2, r0, r7, lsr r5
     e9c:	0004d200 	andeq	sp, r4, r0, lsl #4
     ea0:	00700b00 	rsbseq	r0, r0, r0, lsl #22
     ea4:	00743701 	rsbseq	r3, r4, r1, lsl #14
     ea8:	04f30000 	ldrbteq	r0, [r3], #0
     eac:	660d0000 	strvs	r0, [sp], -r0
     eb0:	01000006 	tsteq	r0, r6
     eb4:	00007437 	andeq	r7, r0, r7, lsr r4
     eb8:	00052900 	andeq	r2, r5, r0, lsl #18
     ebc:	656c1000 	strbvs	r1, [ip, #-0]!
     ec0:	3901006e 	stmdbcc	r1, {r1, r2, r3, r5, r6}
     ec4:	00000025 	andeq	r0, r0, r5, lsr #32
     ec8:	00000547 	andeq	r0, r0, r7, asr #10
     ecc:	0100730f 	tsteq	r0, pc, lsl #6
     ed0:	0000743d 	andeq	r7, r0, sp, lsr r4
     ed4:	00500100 	subseq	r0, r0, r0, lsl #2
     ed8:	0005ba0a 	andeq	fp, r5, sl, lsl #20
     edc:	74470100 	strbvc	r0, [r7], #-256	; 0x100
     ee0:	c8000000 	stmdagt	r0, {}	; <UNPREDICTABLE>
     ee4:	9c000084 	stcls	0, cr0, [r0], {132}	; 0x84
     ee8:	01000001 	tsteq	r0, r1
     eec:	0002d39c 	muleq	r2, ip, r3
     ef0:	0dff0d00 	ldcleq	13, cr0, [pc]	; ef8 <_start-0x7108>
     ef4:	47010000 	strmi	r0, [r1, -r0]
     ef8:	0000002c 	andeq	r0, r0, ip, lsr #32
     efc:	0000056e 	andeq	r0, r0, lr, ror #10
     f00:	7473640b 	ldrbtvc	r6, [r3], #-1035	; 0x40b
     f04:	74470100 	strbvc	r0, [r7], #-256	; 0x100
     f08:	9c000000 	stcls	0, cr0, [r0], {-0}
     f0c:	0b000005 	bleq	f28 <_start-0x70d8>
     f10:	4701006e 	strmi	r0, [r1, -lr, rrx]
     f14:	00000025 	andeq	r0, r0, r5, lsr #32
     f18:	0000060a 	andeq	r0, r0, sl, lsl #12
     f1c:	6c61760b 	stclvs	6, cr7, [r1], #-44	; 0xffffffd4
     f20:	25470100 	strbcs	r0, [r7, #-256]	; 0x100
     f24:	36000000 	strcc	r0, [r0], -r0
     f28:	0d000006 	stceq	0, cr0, [r0, #-24]	; 0xffffffe8
     f2c:	000005ac 	andeq	r0, r0, ip, lsr #11
     f30:	00254701 	eoreq	r4, r5, r1, lsl #14
     f34:	06b50000 	ldrteq	r0, [r5], r0
     f38:	830e0000 	movwhi	r0, #57344	; 0xe000
     f3c:	01000005 	tsteq	r0, r5
     f40:	00002547 	andeq	r2, r0, r7, asr #10
     f44:	04910200 	ldreq	r0, [r1], #512	; 0x200
     f48:	6675620f 	ldrbtvs	r6, [r5], -pc, lsl #4
     f4c:	d34c0100 	movtle	r0, #49408	; 0xc100
     f50:	03000002 	movweq	r0, #2
     f54:	107fa891 			; <UNDEFINED> instruction: 0x107fa891
     f58:	4c010070 	stcmi	0, cr0, [r1], {112}	; 0x70
     f5c:	00000074 	andeq	r0, r0, r4, ror r0
     f60:	000006df 	ldrdeq	r0, [r0], -pc	; <UNPREDICTABLE>
     f64:	01007510 	tsteq	r0, r0, lsl r5
     f68:	00002c4d 	andeq	r2, r0, sp, asr #24
     f6c:	00078400 	andeq	r8, r7, r0, lsl #8
     f70:	01791100 	cmneq	r9, r0, lsl #2
     f74:	02f30000 	rscseq	r0, r3, #0
     f78:	03050000 	movweq	r0, #20480	; 0x5000
     f7c:	0000a540 	andeq	sl, r0, r0, asr #10
     f80:	00853412 	addeq	r3, r5, r2, lsl r4
     f84:	00007400 	andeq	r7, r0, r0, lsl #8
     f88:	00026100 	andeq	r6, r2, r0, lsl #2
     f8c:	05651300 	strbeq	r1, [r5, #-768]!	; 0x300
     f90:	52010000 	andpl	r0, r1, #0
     f94:	0000002c 	andeq	r0, r0, ip, lsr #32
     f98:	00000889 	andeq	r0, r0, r9, lsl #17
     f9c:	86081400 	strhi	r1, [r8], -r0, lsl #8
     fa0:	06600000 	strbteq	r0, [r0], -r0
     fa4:	1c150000 	ldcne	0, cr0, [r5], {-0}
     fa8:	67000086 	strvs	r0, [r0, -r6, lsl #1]
     fac:	99000006 	stmdbls	r0, {r1, r2}
     fb0:	16000002 	strne	r0, [r0], -r2
     fb4:	08025301 	stmdaeq	r2, {r0, r8, r9, ip, lr}
     fb8:	52011675 	andpl	r1, r1, #122683392	; 0x7500000
     fbc:	a5400305 	strbge	r0, [r0, #-773]	; 0x305
     fc0:	01160000 	tsteq	r6, r0
     fc4:	78030551 	stmdavc	r3, {r0, r4, r6, r8, sl}
     fc8:	160000a5 	strne	r0, [r0], -r5, lsr #1
     fcc:	03055001 	movweq	r5, #20481	; 0x5001
     fd0:	0000a564 	andeq	sl, r0, r4, ror #10
     fd4:	86201400 	strthi	r1, [r0], -r0, lsl #8
     fd8:	067d0000 	ldrbteq	r0, [sp], -r0
     fdc:	2c150000 	ldccs	0, cr0, [r5], {-0}
     fe0:	e0000086 	and	r0, r0, r6, lsl #1
     fe4:	b6000000 	strlt	r0, [r0], -r0
     fe8:	16000002 	strne	r0, [r0], -r2
     fec:	7d025101 	stfvcs	f5, [r2, #-4]
     ff0:	40170000 	andsmi	r0, r7, r0
     ff4:	30000086 	andcc	r0, r0, r6, lsl #1
     ff8:	16000001 	strne	r0, [r0], -r1
     ffc:	7d025301 	stcvc	3, cr5, [r2, #-4]
    1000:	51011600 	tstpl	r1, r0, lsl #12
    1004:	16007402 	strne	r7, [r0], -r2, lsl #8
    1008:	75025001 	strvc	r5, [r2, #-1]
    100c:	18000000 	stmdane	r0, {}	; <UNPREDICTABLE>
    1010:	0000007a 	andeq	r0, r0, sl, ror r0
    1014:	000002e3 	andeq	r0, r0, r3, ror #5
    1018:	00006b19 	andeq	r6, r0, r9, lsl fp
    101c:	18003f00 	stmdane	r0, {r8, r9, sl, fp, ip, sp}
    1020:	0000007a 	andeq	r0, r0, sl, ror r0
    1024:	000002f3 	strdeq	r0, [r0], -r3
    1028:	00006b19 	andeq	r6, r0, r9, lsl fp
    102c:	06000400 	streq	r0, [r0], -r0, lsl #8
    1030:	000002e3 	andeq	r0, r0, r3, ror #5
    1034:	00059d1a 	andeq	r9, r5, sl, lsl sp
    1038:	641f0100 	ldrvs	r0, [pc], #-256	; 1040 <_start-0x6fc0>
    103c:	54000086 	strpl	r0, [r0], #-134	; 0x86
    1040:	01000000 	mrseq	r0, (UNDEF: 0)
    1044:	00037c9c 	muleq	r3, ip, ip
    1048:	05b20d00 	ldreq	r0, [r2, #3328]!	; 0xd00
    104c:	1f010000 	svcne	0x00010000
    1050:	0000038b 	andeq	r0, r0, fp, lsl #7
    1054:	000008b5 			; <UNDEFINED> instruction: 0x000008b5
    1058:	00057b0d 	andeq	r7, r5, sp, lsl #22
    105c:	a01f0100 	andsge	r0, pc, r0, lsl #2
    1060:	e1000003 	tst	r0, r3
    1064:	11000008 	tstne	r0, r8
    1068:	00000179 	andeq	r0, r0, r9, ror r1
    106c:	000003b6 			; <UNDEFINED> instruction: 0x000003b6
    1070:	a5480305 	strbge	r0, [r8, #-773]	; 0x305
    1074:	74140000 	ldrvc	r0, [r4], #-0
    1078:	60000086 	andvs	r0, r0, r6, lsl #1
    107c:	15000006 	strne	r0, [r0, #-6]
    1080:	00008688 	andeq	r8, r0, r8, lsl #13
    1084:	00000667 	andeq	r0, r0, r7, ror #12
    1088:	00000372 	andeq	r0, r0, r2, ror r3
    108c:	02530116 	subseq	r0, r3, #-2147483643	; 0x80000005
    1090:	01162008 	tsteq	r6, r8
    1094:	48030552 	stmdami	r3, {r1, r4, r6, r8, sl}
    1098:	160000a5 	strne	r0, [r0], -r5, lsr #1
    109c:	03055101 	movweq	r5, #20737	; 0x5101
    10a0:	0000a578 	andeq	sl, r0, r8, ror r5
    10a4:	05500116 	ldrbeq	r0, [r0, #-278]	; 0x116
    10a8:	00a5b003 	adceq	fp, r5, r3
    10ac:	8c140000 	ldchi	0, cr0, [r4], {-0}
    10b0:	7d000086 	stcvc	0, cr0, [r0, #-536]	; 0xfffffde8
    10b4:	00000006 	andeq	r0, r0, r6
    10b8:	0000251b 	andeq	r2, r0, fp, lsl r5
    10bc:	00038b00 	andeq	r8, r3, r0, lsl #22
    10c0:	00251c00 	eoreq	r1, r5, r0, lsl #24
    10c4:	05000000 	streq	r0, [r0, #-0]
    10c8:	00037c04 	andeq	r7, r3, r4, lsl #24
    10cc:	00251b00 	eoreq	r1, r5, r0, lsl #22
    10d0:	03a00000 	moveq	r0, #0
    10d4:	811c0000 	tsthi	ip, r0
    10d8:	00000000 	andeq	r0, r0, r0
    10dc:	03910405 	orrseq	r0, r1, #83886080	; 0x5000000
    10e0:	7a180000 	bvc	6010e8 <__bss_end__+0x5f5130>
    10e4:	b6000000 	strlt	r0, [r0], -r0
    10e8:	19000003 	stmdbne	r0, {r0, r1}
    10ec:	0000006b 	andeq	r0, r0, fp, rrx
    10f0:	a606000e 	strge	r0, [r6], -lr
    10f4:	1d000003 	stcne	0, cr0, [r0, #-12]
    10f8:	000004c2 	andeq	r0, r0, r2, asr #9
    10fc:	00257d01 	eoreq	r7, r5, r1, lsl #26
    1100:	86b80000 	ldrthi	r0, [r8], r0
    1104:	02880000 	addeq	r0, r8, #0
    1108:	9c010000 	stcls	0, cr0, [r1], {-0}
    110c:	00000625 	andeq	r0, r0, r5, lsr #12
    1110:	6675620b 	ldrbtvs	r6, [r5], -fp, lsl #4
    1114:	747d0100 	ldrbtvc	r0, [sp], #-256	; 0x100
    1118:	0d000000 	stceq	0, cr0, [r0, #-0]
    111c:	0b000009 	bleq	1148 <_start-0x6eb8>
    1120:	7d01006e 	stcvc	0, cr0, [r1, #-440]	; 0xfffffe48
    1124:	00000025 	andeq	r0, r0, r5, lsr #32
    1128:	00000939 	andeq	r0, r0, r9, lsr r9
    112c:	746d660b 	strbtvc	r6, [sp], #-1547	; 0x60b
    1130:	817d0100 	cmnhi	sp, r0, lsl #2
    1134:	67000000 	strvs	r0, [r0, -r0]
    1138:	0d000009 	stceq	0, cr0, [r0, #-36]	; 0xffffffdc
    113c:	00000e21 	andeq	r0, r0, r1, lsr #28
    1140:	00ae7d01 	adceq	r7, lr, r1, lsl #26
    1144:	099b0000 	ldmibeq	fp, {}	; <UNPREDICTABLE>
    1148:	70100000 	andsvc	r0, r0, r0
    114c:	747e0100 	ldrbtvc	r0, [lr], #-256	; 0x100
    1150:	ae000000 	cdpge	0, 0, cr0, cr0, cr0, {0}
    1154:	10000009 	andne	r0, r0, r9
    1158:	7e010065 	cdpvc	0, 0, cr0, cr1, cr5, {3}
    115c:	00000074 	andeq	r0, r0, r4, ror r0
    1160:	00000a2c 	andeq	r0, r0, ip, lsr #20
    1164:	00017911 	andeq	r7, r1, r1, lsl r9
    1168:	00063500 	andeq	r3, r6, r0, lsl #10
    116c:	58030500 	stmdapl	r3, {r8, sl}
    1170:	1e0000a5 	cdpne	0, 0, cr0, cr0, cr5, {5}
    1174:	00000018 	andeq	r0, r0, r8, lsl r0
    1178:	01007310 	tsteq	r0, r0, lsl r3
    117c:	0000748b 	andeq	r7, r0, fp, lsl #9
    1180:	000a5300 	andeq	r5, sl, r0, lsl #6
    1184:	756e0f00 	strbvc	r0, [lr, #-3840]!	; 0xf00
    1188:	8b01006d 	blhi	41344 <__bss_end__+0x3538c>
    118c:	0000063a 	andeq	r0, r0, sl, lsr r6
    1190:	7ed89103 	atnvce	f1, f3
    1194:	0005ac13 	andeq	sl, r5, r3, lsl ip
    1198:	2c8c0100 	stfcss	f0, [ip], {0}
    119c:	a8000000 	stmdage	r0, {}	; <UNPREDICTABLE>
    11a0:	1500000a 	strne	r0, [r0, #-10]
    11a4:	0000873c 	andeq	r8, r0, ip, lsr r7
    11a8:	000000b9 	strheq	r0, [r0], -r9
    11ac:	0000047b 	andeq	r0, r0, fp, ror r4
    11b0:	02500116 	subseq	r0, r0, #-2147483643	; 0x80000005
    11b4:	14000075 	strne	r0, [r0], #-117	; 0x75
    11b8:	00008750 	andeq	r8, r0, r0, asr r7
    11bc:	00000660 	andeq	r0, r0, r0, ror #12
    11c0:	00876415 	addeq	r6, r7, r5, lsl r4
    11c4:	00066700 	andeq	r6, r6, r0, lsl #14
    11c8:	0004b300 	andeq	fp, r4, r0, lsl #6
    11cc:	53011600 	movwpl	r1, #5632	; 0x1600
    11d0:	16920802 	ldrne	r0, [r2], r2, lsl #16
    11d4:	03055201 	movweq	r5, #20993	; 0x5201
    11d8:	0000a558 	andeq	sl, r0, r8, asr r5
    11dc:	05510116 	ldrbeq	r0, [r1, #-278]	; 0x116
    11e0:	00a57803 	adceq	r7, r5, r3, lsl #16
    11e4:	50011600 	andpl	r1, r1, r0, lsl #12
    11e8:	a5c80305 	strbge	r0, [r8, #773]	; 0x305
    11ec:	14000000 	strne	r0, [r0], #-0
    11f0:	00008768 	andeq	r8, r0, r8, ror #14
    11f4:	0000067d 	andeq	r0, r0, sp, ror r6
    11f8:	0087d814 	addeq	sp, r7, r4, lsl r8
    11fc:	00066000 	andeq	r6, r6, r0
    1200:	87ec1500 	strbhi	r1, [ip, r0, lsl #10]!
    1204:	06670000 	strbteq	r0, [r7], -r0
    1208:	04f40000 	ldrbteq	r0, [r4], #0
    120c:	01160000 	tsteq	r6, r0
    1210:	98080253 	stmdals	r8, {r0, r1, r4, r6, r9}
    1214:	05520116 	ldrbeq	r0, [r2, #-278]	; 0x116
    1218:	00a55803 	adceq	r5, r5, r3, lsl #16
    121c:	51011600 	tstpl	r1, r0, lsl #12
    1220:	a5780305 	ldrbge	r0, [r8, #-773]!	; 0x305
    1224:	01160000 	tsteq	r6, r0
    1228:	e4030550 	str	r0, [r3], #-1360	; 0x550
    122c:	000000a5 	andeq	r0, r0, r5, lsr #1
    1230:	0087f014 	addeq	pc, r7, r4, lsl r0	; <UNPREDICTABLE>
    1234:	00067d00 	andeq	r7, r6, r0, lsl #26
    1238:	88141500 	ldmdahi	r4, {r8, sl, ip}
    123c:	019c0000 	orrseq	r0, ip, r0
    1240:	052a0000 	streq	r0, [sl, #-0]!
    1244:	01160000 	tsteq	r6, r0
    1248:	80080252 	andhi	r0, r8, r2, asr r2
    124c:	03510116 	cmpeq	r1, #-2147483643	; 0x80000005
    1250:	167ed091 			; <UNDEFINED> instruction: 0x167ed091
    1254:	3a015001 	bcc	55260 <__bss_end__+0x492a8>
    1258:	047d0216 	ldrbteq	r0, [sp], #-534	; 0x216
    125c:	02163101 	andseq	r3, r6, #1073741824	; 0x40000000
    1260:	7702007d 	smlsdxvc	r2, sp, r0, r0
    1264:	38150000 	ldmdacc	r5, {}	; <UNPREDICTABLE>
    1268:	9c000088 	stcls	0, cr0, [r0], {136}	; 0x88
    126c:	58000001 	stmdapl	r0, {r0}
    1270:	16000005 	strne	r0, [r0], -r5
    1274:	08025201 	stmdaeq	r2, {r0, r9, ip, lr}
    1278:	51011680 	smlabbpl	r1, r0, r6, r1
    127c:	7ed09103 	atnvcs	f1, f3
    1280:	01500116 	cmpeq	r0, r6, lsl r1
    1284:	7d02163a 	stcvc	6, cr1, [r2, #-232]	; 0xffffff18
    1288:	007b0204 	rsbseq	r0, fp, r4, lsl #4
    128c:	007d0216 	rsbseq	r0, sp, r6, lsl r2
    1290:	00007702 	andeq	r7, r0, r2, lsl #14
    1294:	00885c15 	addeq	r5, r8, r5, lsl ip
    1298:	00019c00 	andeq	r9, r1, r0, lsl #24
    129c:	00058600 	andeq	r8, r5, r0, lsl #12
    12a0:	52011600 	andpl	r1, r1, #0, 12
    12a4:	16800802 	strne	r0, [r0], r2, lsl #16
    12a8:	91035101 	tstls	r3, r1, lsl #2
    12ac:	01167ed0 			; <UNDEFINED> instruction: 0x01167ed0
    12b0:	16400150 			; <UNDEFINED> instruction: 0x16400150
    12b4:	02047d02 	andeq	r7, r4, #2, 26	; 0x80
    12b8:	0216007b 	andseq	r0, r6, #123	; 0x7b
    12bc:	7702007d 	smlsdxvc	r2, sp, r0, r0
    12c0:	80150000 	andshi	r0, r5, r0
    12c4:	9c000088 	stcls	0, cr0, [r0], {136}	; 0x88
    12c8:	b4000001 	strlt	r0, [r0], #-1
    12cc:	16000005 	strne	r0, [r0], -r5
    12d0:	08025201 	stmdaeq	r2, {r0, r9, ip, lr}
    12d4:	51011680 	smlabbpl	r1, r0, r6, r1
    12d8:	7ed09103 	atnvcs	f1, f3
    12dc:	01500116 	cmpeq	r0, r6, lsl r1
    12e0:	7d021632 	stcvc	6, cr1, [r2, #-200]	; 0xffffff38
    12e4:	007b0204 	rsbseq	r0, fp, r4, lsl #4
    12e8:	007d0216 	rsbseq	r0, sp, r6, lsl r2
    12ec:	00007702 	andeq	r7, r0, r2, lsl #14
    12f0:	0088b015 	addeq	fp, r8, r5, lsl r0
    12f4:	00019c00 	andeq	r9, r1, r0, lsl #24
    12f8:	0005e200 	andeq	lr, r5, r0, lsl #4
    12fc:	52011600 	andpl	r1, r1, #0, 12
    1300:	16800802 	strne	r0, [r0], r2, lsl #16
    1304:	91035101 	tstls	r3, r1, lsl #2
    1308:	01167ed0 			; <UNDEFINED> instruction: 0x01167ed0
    130c:	16380150 			; <UNDEFINED> instruction: 0x16380150
    1310:	02047d02 	andeq	r7, r4, #2, 26	; 0x80
    1314:	0216007b 	andseq	r0, r6, #123	; 0x7b
    1318:	7702007d 	smlsdxvc	r2, sp, r0, r0
    131c:	b8140000 	ldmdalt	r4, {}	; <UNPREDICTABLE>
    1320:	60000088 	andvs	r0, r0, r8, lsl #1
    1324:	15000006 	strne	r0, [r0, #-6]
    1328:	000088d4 	ldrdeq	r8, [r0], -r4
    132c:	00000667 	andeq	r0, r0, r7, ror #12
    1330:	0000061a 	andeq	r0, r0, sl, lsl r6
    1334:	02530116 	subseq	r0, r3, #-2147483643	; 0x80000005
    1338:	0116b908 	tsteq	r6, r8, lsl #18
    133c:	58030552 	stmdapl	r3, {r1, r4, r6, r8, sl}
    1340:	160000a5 	strne	r0, [r0], -r5, lsr #1
    1344:	03055101 	movweq	r5, #20737	; 0x5101
    1348:	0000a578 	andeq	sl, r0, r8, ror r5
    134c:	05500116 	ldrbeq	r0, [r0, #-278]	; 0x116
    1350:	00a60c03 	adceq	r0, r6, r3, lsl #24
    1354:	d8140000 	ldmdale	r4, {}	; <UNPREDICTABLE>
    1358:	7d000088 	stcvc	0, cr0, [r0, #-544]	; 0xfffffde0
    135c:	00000006 	andeq	r0, r0, r6
    1360:	007a1800 	rsbseq	r1, sl, r0, lsl #16
    1364:	06350000 	ldrteq	r0, [r5], -r0
    1368:	6b190000 	blvs	641370 <__bss_end__+0x6353b8>
    136c:	09000000 	stmdbeq	r0, {}	; <UNPREDICTABLE>
    1370:	06250600 	strteq	r0, [r5], -r0, lsl #12
    1374:	7a180000 	bvc	60137c <__bss_end__+0x5f53c4>
    1378:	4a000000 	bmi	1380 <_start-0x6c80>
    137c:	19000006 	stmdbne	r0, {r1, r2}
    1380:	0000006b 	andeq	r0, r0, fp, rrx
    1384:	301f007f 	andscc	r0, pc, pc, ror r0	; <UNPREDICTABLE>
    1388:	03000005 	movweq	r0, #5
    138c:	00038b1d 	andeq	r8, r3, sp, lsl fp
    1390:	05601f00 	strbeq	r1, [r0, #-3840]!	; 0xf00
    1394:	22030000 	andcs	r0, r3, #0
    1398:	000003a0 	andeq	r0, r0, r0, lsr #7
    139c:	00016a20 	andeq	r6, r1, r0, lsr #20
    13a0:	211e0300 	tstcs	lr, r0, lsl #6
    13a4:	000004c5 	andeq	r0, r0, r5, asr #9
    13a8:	00252903 	eoreq	r2, r5, r3, lsl #18
    13ac:	067d0000 	ldrbteq	r0, [sp], -r0
    13b0:	811c0000 	tsthi	ip, r0
    13b4:	22000000 	andcs	r0, r0, #0
    13b8:	02042000 	andeq	r2, r4, #0
    13bc:	66030000 	strvs	r0, [r3], -r0
    13c0:	0000ff00 	andeq	pc, r0, r0, lsl #30
    13c4:	bb000400 	bllt	23cc <_start-0x5c34>
    13c8:	04000006 	streq	r0, [r0], #-6
    13cc:	00034e01 	andeq	r4, r3, r1, lsl #28
    13d0:	05bf0100 	ldreq	r0, [pc, #256]!	; 14d8 <_start-0x6b28>
    13d4:	04d60000 	ldrbeq	r0, [r6], #0
    13d8:	89400000 	stmdbhi	r0, {}^	; <UNPREDICTABLE>
    13dc:	00280000 	eoreq	r0, r8, r0
    13e0:	069b0000 	ldreq	r0, [fp], r0
    13e4:	04020000 	streq	r0, [r2], #-0
    13e8:	746e6905 	strbtvc	r6, [lr], #-2309	; 0x905
    13ec:	07040300 	streq	r0, [r4, -r0, lsl #6]
    13f0:	00000046 	andeq	r0, r0, r6, asr #32
    13f4:	a8060103 	stmdage	r6, {r0, r1, r8}
    13f8:	03000002 	movweq	r0, #2
    13fc:	02cd0502 	sbceq	r0, sp, #8388608	; 0x800000
    1400:	04030000 	streq	r0, [r3], #-0
    1404:	00009d05 	andeq	r9, r0, r5, lsl #26
    1408:	05080300 	streq	r0, [r8, #-768]	; 0x300
    140c:	00000098 	muleq	r0, r8, r0
    1410:	a6080103 	strge	r0, [r8], -r3, lsl #2
    1414:	03000002 	movweq	r0, #2
    1418:	01a20702 			; <UNDEFINED> instruction: 0x01a20702
    141c:	04030000 	streq	r0, [r3], #-0
    1420:	00004107 	andeq	r4, r0, r7, lsl #2
    1424:	07080300 	streq	r0, [r8, -r0, lsl #6]
    1428:	0000003c 	andeq	r0, r0, ip, lsr r0
    142c:	33070403 	movwcc	r0, #29699	; 0x7403
    1430:	03000002 	movweq	r0, #2
    1434:	02af0801 	adceq	r0, pc, #65536	; 0x10000
    1438:	04040000 	streq	r0, [r4], #-0
    143c:	0000007f 	andeq	r0, r0, pc, ror r0
    1440:	00007205 	andeq	r7, r0, r5, lsl #4
    1444:	02040600 	andeq	r0, r4, #0, 12
    1448:	04010000 	streq	r0, [r1], #-0
    144c:	00008940 	andeq	r8, r0, r0, asr #18
    1450:	00000028 	andeq	r0, r0, r8, lsr #32
    1454:	00ca9c01 	sbceq	r9, sl, r1, lsl #24
    1458:	54070000 	strpl	r0, [r7], #-0
    145c:	ac000089 	stcge	0, cr0, [r0], {137}	; 0x89
    1460:	08000000 	stmdaeq	r0, {}	; <UNPREDICTABLE>
    1464:	03055001 	movweq	r5, #20481	; 0x5001
    1468:	0000a644 	andeq	sl, r0, r4, asr #12
    146c:	895c0900 	ldmdbhi	ip, {r8, fp}^
    1470:	00ea0000 	rsceq	r0, sl, r0
    1474:	00c00000 	sbceq	r0, r0, r0
    1478:	01080000 	mrseq	r0, (UNDEF: 8)
    147c:	64080250 	strvs	r0, [r8], #-592	; 0x250
    1480:	89600a00 	stmdbhi	r0!, {r9, fp}^
    1484:	00fb0000 	rscseq	r0, fp, r0
    1488:	0b000000 	bleq	1490 <_start-0x6b70>
    148c:	00000025 	andeq	r0, r0, r5, lsr #32
    1490:	000000d9 	ldrdeq	r0, [r0], -r9
    1494:	0000790c 	andeq	r7, r0, ip, lsl #18
    1498:	600d0000 	andvs	r0, sp, r0
    149c:	02000005 	andeq	r0, r0, #5
    14a0:	0000e422 	andeq	lr, r0, r2, lsr #8
    14a4:	ca040400 	bgt	1024ac <__bss_end__+0xf64f4>
    14a8:	0e000000 	cdpeq	0, 0, cr0, cr0, cr0, {0}
    14ac:	0000030a 	andeq	r0, r0, sl, lsl #6
    14b0:	00fb5002 	rscseq	r5, fp, r2
    14b4:	2c0c0000 	stccs	0, cr0, [ip], {-0}
    14b8:	00000000 	andeq	r0, r0, r0
    14bc:	00031c0f 	andeq	r1, r3, pc, lsl #24
    14c0:	00630200 	rsbeq	r0, r3, r0, lsl #4
    14c4:	000002dd 	ldrdeq	r0, [r0], -sp
    14c8:	07850004 	streq	r0, [r5, r4]
    14cc:	01040000 	mrseq	r0, (UNDEF: 4)
    14d0:	0000034e 	andeq	r0, r0, lr, asr #6
    14d4:	0006b301 	andeq	fp, r6, r1, lsl #6
    14d8:	0004d600 	andeq	sp, r4, r0, lsl #12
    14dc:	00896800 	addeq	r6, r9, r0, lsl #16
    14e0:	0000b000 	andeq	fp, r0, r0
    14e4:	00073200 	andeq	r3, r7, r0, lsl #4
    14e8:	05040200 	streq	r0, [r4, #-512]	; 0x200
    14ec:	00746e69 	rsbseq	r6, r4, r9, ror #28
    14f0:	46070403 	strmi	r0, [r7], -r3, lsl #8
    14f4:	03000000 	movweq	r0, #0
    14f8:	02a80601 	adceq	r0, r8, #1048576	; 0x100000
    14fc:	02030000 	andeq	r0, r3, #0
    1500:	0002cd05 	andeq	ip, r2, r5, lsl #26
    1504:	05040300 	streq	r0, [r4, #-768]	; 0x300
    1508:	0000009d 	muleq	r0, sp, r0
    150c:	98050803 	stmdals	r5, {r0, r1, fp}
    1510:	04000000 	streq	r0, [r0], #-0
    1514:	00000463 	andeq	r0, r0, r3, ror #8
    1518:	005a2e02 	subseq	r2, sl, r2, lsl #28
    151c:	01030000 	mrseq	r0, (UNDEF: 3)
    1520:	0002a608 	andeq	sl, r2, r8, lsl #12
    1524:	07020300 	streq	r0, [r2, -r0, lsl #6]
    1528:	000001a2 	andeq	r0, r0, r2, lsr #3
    152c:	00031304 	andeq	r1, r3, r4, lsl #6
    1530:	73340200 	teqvc	r4, #0, 4
    1534:	03000000 	movweq	r0, #0
    1538:	00410704 	subeq	r0, r1, r4, lsl #14
    153c:	08030000 	stmdaeq	r3, {}	; <UNPREDICTABLE>
    1540:	00003c07 	andeq	r3, r0, r7, lsl #24
    1544:	07040300 	streq	r0, [r4, -r0, lsl #6]
    1548:	00000233 	andeq	r0, r0, r3, lsr r2
    154c:	af080103 	svcge	0x00080103
    1550:	05000002 	streq	r0, [r0, #-2]
    1554:	00009504 	andeq	r9, r0, r4, lsl #10
    1558:	00880600 	addeq	r0, r8, r0, lsl #12
    155c:	0c070000 	stceq	0, cr0, [r7], {-0}
    1560:	00d10e03 	sbcseq	r0, r1, r3, lsl #28
    1564:	74080000 	strvc	r0, [r8], #-0
    1568:	0f030078 	svceq	0x00030078
    156c:	0000004f 	andeq	r0, r0, pc, asr #32
    1570:	78720800 	ldmdavc	r2!, {fp}^
    1574:	4f0f0300 	svcmi	0x000f0300
    1578:	01000000 	mrseq	r0, (UNDEF: 0)
    157c:	00065209 	andeq	r5, r6, r9, lsl #4
    1580:	68100300 	ldmdavs	r0, {r8, r9}
    1584:	04000000 	streq	r0, [r0], #-0
    1588:	00060309 	andeq	r0, r6, r9, lsl #6
    158c:	68110300 	ldmdavs	r1, {r8, r9}
    1590:	08000000 	stmdaeq	r0, {}	; <UNPREDICTABLE>
    1594:	063b0400 	ldrteq	r0, [fp], -r0, lsl #8
    1598:	12030000 	andne	r0, r3, #0
    159c:	0000009a 	muleq	r0, sl, r0
    15a0:	1004010a 	andne	r0, r4, sl, lsl #2
    15a4:	000000f7 	strdeq	r0, [r0], -r7
    15a8:	0006570b 	andeq	r5, r6, fp, lsl #14
    15ac:	450b0100 	strmi	r0, [fp, #-256]	; 0x100
    15b0:	02000006 	andeq	r0, r0, #6
    15b4:	00062d0b 	andeq	r2, r6, fp, lsl #26
    15b8:	04000300 	streq	r0, [r0], #-768	; 0x300
    15bc:	0000066c 	andeq	r0, r0, ip, ror #12
    15c0:	00dc1004 	sbcseq	r1, ip, r4
    15c4:	14070000 	strne	r0, [r7], #-0
    15c8:	012f1404 	teqeq	pc, r4, lsl #8
    15cc:	d3090000 	movwle	r0, #36864	; 0x9000
    15d0:	04000006 	streq	r0, [r0], #-6
    15d4:	00002c15 	andeq	r2, r0, r5, lsl ip
    15d8:	c7090000 	strgt	r0, [r9, -r0]
    15dc:	04000006 	streq	r0, [r0], #-6
    15e0:	0000f718 	andeq	pc, r0, r8, lsl r7	; <UNPREDICTABLE>
    15e4:	92090400 	andls	r0, r9, #0, 8
    15e8:	04000006 	streq	r0, [r0], #-6
    15ec:	0000d11b 	andeq	sp, r0, fp, lsl r1
    15f0:	04000800 	streq	r0, [r0], #-2048	; 0x800
    15f4:	00000684 	andeq	r0, r0, r4, lsl #13
    15f8:	01022004 	tsteq	r2, r4
    15fc:	d90c0000 	stmdble	ip, {}	; <UNPREDICTABLE>
    1600:	01000005 	tsteq	r0, r5
    1604:	00002506 	andeq	r2, r0, r6, lsl #10
    1608:	00896800 	addeq	r6, r9, r0, lsl #16
    160c:	00002000 	andeq	r2, r0, r0
    1610:	7a9c0100 	bvc	fe701a18 <__bss_end__+0xfe6f5a60>
    1614:	0d000001 	stceq	0, cr0, [r0, #-4]
    1618:	06010063 	streq	r0, [r1], -r3, rrx
    161c:	00000025 	andeq	r0, r0, r5, lsr #32
    1620:	00000ad2 	ldrdeq	r0, [r0], -r2
    1624:	00897c0e 	addeq	r7, r9, lr, lsl #24
    1628:	00027a00 	andeq	r7, r2, r0, lsl #20
    162c:	51010f00 	tstpl	r1, r0, lsl #30
    1630:	0f007402 	svceq	0x00007402
    1634:	03055001 	movweq	r5, #20481	; 0x5001
    1638:	0000af7c 	andeq	sl, r0, ip, ror pc
    163c:	64100000 	ldrvs	r0, [r0], #-0
    1640:	01000006 	tsteq	r0, r6
    1644:	0089880b 	addeq	r8, r9, fp, lsl #16
    1648:	00009000 	andeq	r9, r0, r0
    164c:	279c0100 	ldrcs	r0, [ip, r0, lsl #2]
    1650:	11000002 	tstne	r0, r2
    1654:	000005ed 	andeq	r0, r0, sp, ror #11
    1658:	00250c01 	eoreq	r0, r5, r1, lsl #24
    165c:	a7110000 	ldrge	r0, [r1, -r0]
    1660:	01000006 	tsteq	r0, r6
    1664:	0000250c 	andeq	r2, r0, ip, lsl #10
    1668:	00091200 	andeq	r1, r9, r0, lsl #4
    166c:	0d010000 	stceq	0, cr0, [r1, #-0]
    1670:	73736213 	cmnvc	r3, #805306369	; 0x30000001
    1674:	270f0100 	strcs	r0, [pc, -r0, lsl #2]
    1678:	f0000002 			; <UNDEFINED> instruction: 0xf0000002
    167c:	1400000a 	strne	r0, [r0], #-10
    1680:	000005fb 	strdeq	r0, [r0], -fp
    1684:	02271001 	eoreq	r1, r7, #1
    1688:	63130000 	tstvs	r3, #0
    168c:	17010062 	strne	r0, [r1, -r2, rrx]
    1690:	0000022d 	andeq	r0, r0, sp, lsr #4
    1694:	00000b10 	andeq	r0, r0, r0, lsl fp
    1698:	0089b015 	addeq	fp, r9, r5, lsl r0
    169c:	00029600 	andeq	r9, r2, r0, lsl #12
    16a0:	89ec1600 	stmibhi	ip!, {r9, sl, ip}^
    16a4:	02a10000 	adceq	r0, r1, #0
    16a8:	01fd0000 	mvnseq	r0, r0
    16ac:	010f0000 	mrseq	r0, CPSR
    16b0:	50030551 	andpl	r0, r3, r1, asr r5
    16b4:	0f0000a6 	svceq	0x000000a6
    16b8:	03055001 	movweq	r5, #20481	; 0x5001
    16bc:	0000af7c 	andeq	sl, r0, ip, ror pc
    16c0:	89f41600 	ldmibhi	r4!, {r9, sl, ip}^
    16c4:	02bc0000 	adcseq	r0, ip, #0
    16c8:	02140000 	andseq	r0, r4, #0
    16cc:	010f0000 	mrseq	r0, CPSR
    16d0:	74030550 	strvc	r0, [r3], #-1360	; 0x550
    16d4:	000000a6 	andeq	r0, r0, r6, lsr #1
    16d8:	0089f815 	addeq	pc, r9, r5, lsl r8	; <UNPREDICTABLE>
    16dc:	0002d200 	andeq	sp, r2, r0, lsl #4
    16e0:	89fc1500 	ldmibhi	ip!, {r8, sl, ip}^
    16e4:	02d90000 	sbcseq	r0, r9, #0
    16e8:	05000000 	streq	r0, [r0, #-0]
    16ec:	00002504 	andeq	r2, r0, r4, lsl #10
    16f0:	2f040500 	svccs	0x00040500
    16f4:	17000001 	strne	r0, [r0, -r1]
    16f8:	00000611 	andeq	r0, r0, r1, lsl r6
    16fc:	00d10501 	sbcseq	r0, r1, r1, lsl #10
    1700:	03050000 	movweq	r0, #20480	; 0x5000
    1704:	0000af7c 	andeq	sl, r0, ip, ror pc
    1708:	00002518 	andeq	r2, r0, r8, lsl r5
    170c:	00025300 	andeq	r5, r2, r0, lsl #6
    1710:	00251900 	eoreq	r1, r5, r0, lsl #18
    1714:	11000000 	mrsne	r0, (UNDEF: 0)
    1718:	00000530 	andeq	r0, r0, r0, lsr r5
    171c:	025e1d05 	subseq	r1, lr, #320	; 0x140
    1720:	04050000 	streq	r0, [r5], #-0
    1724:	00000244 	andeq	r0, r0, r4, asr #4
    1728:	0005ed11 	andeq	lr, r5, r1, lsl sp
    172c:	250c0100 	strcs	r0, [ip, #-256]	; 0x100
    1730:	11000000 	mrsne	r0, (UNDEF: 0)
    1734:	000006a7 	andeq	r0, r0, r7, lsr #13
    1738:	00250c01 	eoreq	r0, r5, r1, lsl #24
    173c:	771a0000 	ldrvc	r0, [sl, -r0]
    1740:	03000006 	movweq	r0, #6
    1744:	00029044 	andeq	r9, r2, r4, asr #32
    1748:	02901900 	addseq	r1, r0, #0, 18
    174c:	5a190000 	bpl	641754 <__bss_end__+0x63579c>
    1750:	00000000 	andeq	r0, r0, r0
    1754:	00d10405 	sbcseq	r0, r1, r5, lsl #8
    1758:	9a1b0000 	bls	6c1760 <__bss_end__+0x6b57a8>
    175c:	04000006 	streq	r0, [r0], #-6
    1760:	00022d2a 	andeq	r2, r2, sl, lsr #26
    1764:	061e1c00 	ldreq	r1, [lr], -r0, lsl #24
    1768:	15030000 	strne	r0, [r3, #-0]
    176c:	00000025 	andeq	r0, r0, r5, lsr #32
    1770:	000002bc 			; <UNDEFINED> instruction: 0x000002bc
    1774:	00029019 	andeq	r9, r2, r9, lsl r0
    1778:	008f1900 	addeq	r1, pc, r0, lsl #18
    177c:	001d0000 	andseq	r0, sp, r0
    1780:	0004c51c 	andeq	ip, r4, ip, lsl r5
    1784:	25290500 	strcs	r0, [r9, #-1280]!	; 0x500
    1788:	d2000000 	andle	r0, r0, #0
    178c:	19000002 	stmdbne	r0, {r1}
    1790:	0000008f 	andeq	r0, r0, pc, lsl #1
    1794:	0912001d 	ldmdbeq	r2, {r0, r2, r3, r4}
    1798:	05000000 	streq	r0, [r0, #-0]
    179c:	031c12ce 	tsteq	ip, #-536870900	; 0xe000000c
    17a0:	63050000 	movwvs	r0, #20480	; 0x5000
    17a4:	0001ad00 	andeq	sl, r1, r0, lsl #26
    17a8:	1c000400 	cfstrsne	mvf0, [r0], {-0}
    17ac:	04000009 	streq	r0, [r0], #-9
    17b0:	00034e01 	andeq	r4, r3, r1, lsl #28
    17b4:	06f30100 	ldrbteq	r0, [r3], r0, lsl #2
    17b8:	04d60000 	ldrbeq	r0, [r6], #0
    17bc:	00300000 	eorseq	r0, r0, r0
    17c0:	00000000 	andeq	r0, r0, r0
    17c4:	08570000 	ldmdaeq	r7, {}^	; <UNPREDICTABLE>
    17c8:	04020000 	streq	r0, [r2], #-0
    17cc:	746e6905 	strbtvc	r6, [lr], #-2309	; 0x905
    17d0:	07040300 	streq	r0, [r4, -r0, lsl #6]
    17d4:	00000046 	andeq	r0, r0, r6, asr #32
    17d8:	a8060103 	stmdage	r6, {r0, r1, r8}
    17dc:	03000002 	movweq	r0, #2
    17e0:	02cd0502 	sbceq	r0, sp, #8388608	; 0x800000
    17e4:	04030000 	streq	r0, [r3], #-0
    17e8:	00009d05 	andeq	r9, r0, r5, lsl #26
    17ec:	05080300 	streq	r0, [r8, #-768]	; 0x300
    17f0:	00000098 	muleq	r0, r8, r0
    17f4:	a6080103 	strge	r0, [r8], -r3, lsl #2
    17f8:	03000002 	movweq	r0, #2
    17fc:	01a20702 			; <UNDEFINED> instruction: 0x01a20702
    1800:	04030000 	streq	r0, [r3], #-0
    1804:	00004107 	andeq	r4, r0, r7, lsl #2
    1808:	07080300 	streq	r0, [r8, -r0, lsl #6]
    180c:	0000003c 	andeq	r0, r0, ip, lsr r0
    1810:	33070403 	movwcc	r0, #29699	; 0x7403
    1814:	03000002 	movweq	r0, #2
    1818:	02af0801 	adceq	r0, pc, #65536	; 0x10000
    181c:	d9040000 	stmdble	r4, {}	; <UNPREDICTABLE>
    1820:	01000006 	tsteq	r0, r6
    1824:	0000250e 	andeq	r2, r0, lr, lsl #10
    1828:	008a1800 	addeq	r1, sl, r0, lsl #16
    182c:	00001800 	andeq	r1, r0, r0, lsl #16
    1830:	a29c0100 	addsge	r0, ip, #0, 2
    1834:	05000000 	streq	r0, [r0, #-0]
    1838:	0000073f 	andeq	r0, r0, pc, lsr r7
    183c:	002c0f01 	eoreq	r0, ip, r1, lsl #30
    1840:	0b300000 	bleq	c01848 <__bss_end__+0xbf5890>
    1844:	06000000 	streq	r0, [r0], -r0
    1848:	00000728 	andeq	r0, r0, r8, lsr #14
    184c:	8a301701 	bhi	c07458 <__bss_end__+0xbfb4a0>
    1850:	00140000 	andseq	r0, r4, r0
    1854:	9c010000 	stcls	0, cr0, [r1], {-0}
    1858:	000000c7 	andeq	r0, r0, r7, asr #1
    185c:	00073f05 	andeq	r3, r7, r5, lsl #30
    1860:	2c180100 	ldfcss	f0, [r8], {-0}
    1864:	4f000000 	svcmi	0x00000000
    1868:	0000000b 	andeq	r0, r0, fp
    186c:	00031c06 	andeq	r1, r3, r6, lsl #24
    1870:	441f0100 	ldrmi	r0, [pc], #-256	; 1878 <_start-0x6788>
    1874:	4800008a 	stmdami	r0, {r1, r3, r7}
    1878:	01000000 	mrseq	r0, (UNDEF: 0)
    187c:	0001779c 	muleq	r1, ip, r7
    1880:	07370700 	ldreq	r0, [r7, -r0, lsl #14]!
    1884:	2a010000 	bcs	4188c <__bss_end__+0x358d4>
    1888:	00000177 	andeq	r0, r0, r7, ror r1
    188c:	2010001c 	andscs	r0, r0, ip, lsl r0
    1890:	00072007 	andeq	r2, r7, r7
    1894:	772b0100 	strvc	r0, [fp, -r0, lsl #2]!
    1898:	24000001 	strcs	r0, [r0], #-1
    189c:	07201000 	streq	r1, [r0, -r0]!
    18a0:	000006e7 	andeq	r0, r0, r7, ror #13
    18a4:	01772c01 	cmneq	r7, r1, lsl #24
    18a8:	00000000 	andeq	r0, r0, r0
    18ac:	07085a00 	streq	r5, [r8, -r0, lsl #20]
    18b0:	01000007 	tsteq	r0, r7
    18b4:	0001772d 	andeq	r7, r1, sp, lsr #14
    18b8:	4c092000 	stcmi	0, cr2, [r9], {-0}
    18bc:	7900008a 	stmdbvc	r0, {r1, r3, r7}
    18c0:	09000000 	stmdbeq	r0, {}	; <UNPREDICTABLE>
    18c4:	00008a58 	andeq	r8, r0, r8, asr sl
    18c8:	000000a2 	andeq	r0, r0, r2, lsr #1
    18cc:	008a600a 	addeq	r6, sl, sl
    18d0:	00018d00 	andeq	r8, r1, r0, lsl #26
    18d4:	00013a00 	andeq	r3, r1, r0, lsl #20
    18d8:	50010b00 	andpl	r0, r1, r0, lsl #22
    18dc:	0a004e01 	beq	150e8 <__bss_end__+0x9130>
    18e0:	00008a6c 	andeq	r8, r0, ip, ror #20
    18e4:	0000019e 	muleq	r0, lr, r1
    18e8:	0000015a 	andeq	r0, r0, sl, asr r1
    18ec:	0551010b 	ldrbeq	r0, [r1, #-267]	; 0x10b
    18f0:	0000010c 	andeq	r0, r0, ip, lsl #2
    18f4:	50010b5a 	andpl	r0, r1, sl, asr fp
    18f8:	00240c05 	eoreq	r0, r4, r5, lsl #24
    18fc:	0c002010 	stceq	0, cr2, [r0], {16}
    1900:	00008a78 	andeq	r8, r0, r8, ror sl
    1904:	0000019e 	muleq	r0, lr, r1
    1908:	0551010b 	ldrbeq	r0, [r1, #-267]	; 0x10b
    190c:	0000200c 	andeq	r2, r0, ip
    1910:	50010b5a 	andpl	r0, r1, sl, asr fp
    1914:	001c0c05 	andseq	r0, ip, r5, lsl #24
    1918:	00002010 	andeq	r2, r0, r0, lsl r0
    191c:	0000250d 	andeq	r2, r0, sp, lsl #10
    1920:	06dc0800 	ldrbeq	r0, [ip], r0, lsl #16
    1924:	0d010000 	stceq	0, cr0, [r1, #-0]
    1928:	00000188 	andeq	r0, r0, r8, lsl #3
    192c:	002c0d10 	eoreq	r0, ip, r0, lsl sp
    1930:	0a0e0000 	beq	381938 <__bss_end__+0x375980>
    1934:	02000003 	andeq	r0, r0, #3
    1938:	00019e50 	andeq	r9, r1, r0, asr lr
    193c:	002c0f00 	eoreq	r0, ip, r0, lsl #30
    1940:	10000000 	andne	r0, r0, r0
    1944:	0000025c 	andeq	r0, r0, ip, asr r2
    1948:	2c0f9902 	stccs	9, cr9, [pc], {2}
    194c:	0f000000 	svceq	0x00000000
    1950:	0000002c 	andeq	r0, r0, ip, lsr #32
    1954:	01d80000 	bicseq	r0, r8, r0
    1958:	00040000 	andeq	r0, r4, r0
    195c:	00000a0a 	andeq	r0, r0, sl, lsl #20
    1960:	034e0104 	movteq	r0, #57604	; 0xe104
    1964:	61010000 	mrsvs	r0, (UNDEF: 1)
    1968:	d6000007 	strle	r0, [r0], -r7
    196c:	8c000004 	stchi	0, cr0, [r0], {4}
    1970:	8800008a 	stmdahi	r0, {r1, r3, r7}
    1974:	f4000000 	vst4.8	{d0-d3}, [r0], r0
    1978:	02000008 	andeq	r0, r0, #8
    197c:	6e690504 	cdpvs	5, 6, cr0, cr9, cr4, {0}
    1980:	04030074 	streq	r0, [r3], #-116	; 0x74
    1984:	00004607 	andeq	r4, r0, r7, lsl #12
    1988:	06010300 	streq	r0, [r1], -r0, lsl #6
    198c:	000002a8 	andeq	r0, r0, r8, lsr #5
    1990:	cd050203 	sfmgt	f0, 4, [r5, #-12]
    1994:	03000002 	movweq	r0, #2
    1998:	009d0504 	addseq	r0, sp, r4, lsl #10
    199c:	08030000 	stmdaeq	r3, {}	; <UNPREDICTABLE>
    19a0:	00009805 	andeq	r9, r0, r5, lsl #16
    19a4:	08010300 	stmdaeq	r1, {r8, r9}
    19a8:	000002a6 	andeq	r0, r0, r6, lsr #5
    19ac:	a2070203 	andge	r0, r7, #805306368	; 0x30000000
    19b0:	03000001 	movweq	r0, #1
    19b4:	00410704 	subeq	r0, r1, r4, lsl #14
    19b8:	08030000 	stmdaeq	r3, {}	; <UNPREDICTABLE>
    19bc:	00003c07 	andeq	r3, r0, r7, lsl #24
    19c0:	07040300 	streq	r0, [r4, -r0, lsl #6]
    19c4:	00000233 	andeq	r0, r0, r3, lsr r2
    19c8:	af080103 	svcge	0x00080103
    19cc:	04000002 	streq	r0, [r0], #-2
    19d0:	0000077a 	andeq	r0, r0, sl, ror r7
    19d4:	8a8c0501 	bhi	fe302de0 <__bss_end__+0xfe2f6e28>
    19d8:	001c0000 	andseq	r0, ip, r0
    19dc:	9c010000 	stcls	0, cr0, [r1], {-0}
    19e0:	0000009e 	muleq	r0, lr, r0
    19e4:	00077405 	andeq	r7, r7, r5, lsl #8
    19e8:	2c050100 	stfcss	f0, [r5], {-0}
    19ec:	79000000 	stmdbvc	r0, {}	; <UNPREDICTABLE>
    19f0:	0000000b 	andeq	r0, r0, fp
    19f4:	00074406 	andeq	r4, r7, r6, lsl #8
    19f8:	2c0b0100 	stfcss	f0, [fp], {-0}
    19fc:	a8000000 	stmdage	r0, {}	; <UNPREDICTABLE>
    1a00:	1400008a 	strne	r0, [r0], #-138	; 0x8a
    1a04:	01000000 	mrseq	r0, (UNDEF: 0)
    1a08:	0000cb9c 	muleq	r0, ip, fp
    1a0c:	8ab40700 	bhi	fed03614 <__bss_end__+0xfecf765c>
    1a10:	01ca0000 	biceq	r0, sl, r0
    1a14:	01080000 	mrseq	r0, (UNDEF: 8)
    1a18:	040c0550 	streq	r0, [ip], #-1360	; 0x550
    1a1c:	00200030 	eoreq	r0, r0, r0, lsr r0
    1a20:	07900600 	ldreq	r0, [r0, r0, lsl #12]
    1a24:	10010000 	andne	r0, r1, r0
    1a28:	0000002c 	andeq	r0, r0, ip, lsr #32
    1a2c:	00008abc 			; <UNDEFINED> instruction: 0x00008abc
    1a30:	0000000c 	andeq	r0, r0, ip
    1a34:	00f99c01 	rscseq	r9, r9, r1, lsl #24
    1a38:	75090000 	strvc	r0, [r9, #-0]
    1a3c:	2c140100 	ldfcss	f0, [r4], {-0}
    1a40:	01000000 	mrseq	r0, (UNDEF: 0)
    1a44:	8ac40a50 	bhi	ff10438c <__bss_end__+0xff0f83d4>
    1a48:	009e0000 	addseq	r0, lr, r0
    1a4c:	04000000 	streq	r0, [r0], #-0
    1a50:	00000787 	andeq	r0, r0, r7, lsl #15
    1a54:	8ac81901 	bhi	ff207e60 <__bss_end__+0xff1fbea8>
    1a58:	00240000 	eoreq	r0, r4, r0
    1a5c:	9c010000 	stcls	0, cr0, [r1], {-0}
    1a60:	00000157 	andeq	r0, r0, r7, asr r1
    1a64:	0073750b 	rsbseq	r7, r3, fp, lsl #10
    1a68:	002c1901 	eoreq	r1, ip, r1, lsl #18
    1a6c:	0bad0000 	bleq	feb41a74 <__bss_end__+0xfeb35abc>
    1a70:	72090000 	andvc	r0, r9, #0
    1a74:	1a010062 	bne	41c04 <__bss_end__+0x35c4c>
    1a78:	0000002c 	andeq	r0, r0, ip, lsr #32
    1a7c:	d80c5401 	stmdale	ip, {r0, sl, ip, lr}
    1a80:	1000008a 	andne	r0, r0, sl, lsl #1
    1a84:	4d000000 	stcmi	0, cr0, [r0, #-0]
    1a88:	0d000001 	stceq	0, cr0, [r0, #-4]
    1a8c:	01006172 	tsteq	r0, r2, ror r1
    1a90:	00002c1c 	andeq	r2, r0, ip, lsl ip
    1a94:	000bcb00 	andeq	ip, fp, r0, lsl #22
    1a98:	8adc0a00 	bhi	ff7042a0 <__bss_end__+0xff6f82e8>
    1a9c:	00cb0000 	sbceq	r0, fp, r0
    1aa0:	0a000000 	beq	1aa8 <_start-0x6558>
    1aa4:	00008ad4 	ldrdeq	r8, [r0], -r4
    1aa8:	000000cb 	andeq	r0, r0, fp, asr #1
    1aac:	030a0400 	movweq	r0, #41984	; 0xa400
    1ab0:	22010000 	andcs	r0, r1, #0
    1ab4:	00008aec 	andeq	r8, r0, ip, ror #21
    1ab8:	00000014 	andeq	r0, r0, r4, lsl r0
    1abc:	01909c01 	orrseq	r9, r0, r1, lsl #24
    1ac0:	6d0b0000 	stcvs	0, cr0, [fp, #-0]
    1ac4:	22010073 	andcs	r0, r1, #115	; 0x73
    1ac8:	0000002c 	andeq	r0, r0, ip, lsr #32
    1acc:	00000bde 	ldrdeq	r0, [r0], -lr
    1ad0:	008afc07 	addeq	pc, sl, r7, lsl #24
    1ad4:	0000f900 	andeq	pc, r0, r0, lsl #18
    1ad8:	50010800 	andpl	r0, r1, r0, lsl #16
    1adc:	5001f307 	andpl	pc, r1, r7, lsl #6
    1ae0:	1e03e80a 	cdpne	8, 0, cr14, cr3, cr10, {0}
    1ae4:	57040000 	strpl	r0, [r4, -r0]
    1ae8:	01000007 	tsteq	r0, r7
    1aec:	008b0025 	addeq	r0, fp, r5, lsr #32
    1af0:	00001400 	andeq	r1, r0, r0, lsl #8
    1af4:	ca9c0100 	bgt	fe701efc <__bss_end__+0xfe6f5f44>
    1af8:	0b000001 	bleq	1b04 <_start-0x64fc>
    1afc:	00636573 	rsbeq	r6, r3, r3, ror r5
    1b00:	002c2501 	eoreq	r2, ip, r1, lsl #10
    1b04:	0bff0000 	bleq	fffc1b0c <__bss_end__+0xfffb5b54>
    1b08:	10070000 	andne	r0, r7, r0
    1b0c:	5700008b 	strpl	r0, [r0, -fp, lsl #1]
    1b10:	08000001 	stmdaeq	r0, {r0}
    1b14:	f3075001 	vhadd.u8	d5, d7, d1
    1b18:	e80a5001 	stmda	sl, {r0, ip, lr}
    1b1c:	00001e03 	andeq	r1, r0, r3, lsl #28
    1b20:	0002c70e 	andeq	ip, r2, lr, lsl #14
    1b24:	2ca50200 	sfmcs	f0, 4, [r5]
    1b28:	0f000000 	svceq	0x00000000
    1b2c:	0000002c 	andeq	r0, r0, ip, lsr #32
    1b30:	08210000 	stmdaeq	r1!, {}	; <UNPREDICTABLE>
    1b34:	00040000 	andeq	r0, r4, r0
    1b38:	00000aed 	andeq	r0, r0, sp, ror #21
    1b3c:	034e0104 	movteq	r0, #57604	; 0xe104
    1b40:	f2010000 	vhadd.s8	d0, d1, d0
    1b44:	d6000007 	strle	r0, [r0], -r7
    1b48:	14000004 	strne	r0, [r0], #-4
    1b4c:	6800008b 	stmdavs	r0, {r0, r1, r3, r7}
    1b50:	9b000005 	blls	1b6c <_start-0x6494>
    1b54:	02000009 	andeq	r0, r0, #9
    1b58:	003c0708 	eorseq	r0, ip, r8, lsl #14
    1b5c:	04020000 	streq	r0, [r2], #-0
    1b60:	00004607 	andeq	r4, r0, r7, lsl #12
    1b64:	06010200 	streq	r0, [r1], -r0, lsl #4
    1b68:	000002a8 	andeq	r0, r0, r8, lsr #5
    1b6c:	cd050202 	sfmgt	f0, 4, [r5, #-8]
    1b70:	02000002 	andeq	r0, r0, #2
    1b74:	009d0504 	addseq	r0, sp, r4, lsl #10
    1b78:	08020000 	stmdaeq	r2, {}	; <UNPREDICTABLE>
    1b7c:	00009805 	andeq	r9, r0, r5, lsl #16
    1b80:	08010200 	stmdaeq	r1, {r9}
    1b84:	000002a6 	andeq	r0, r0, r6, lsr #5
    1b88:	a2070202 	andge	r0, r7, #536870912	; 0x20000000
    1b8c:	02000001 	andeq	r0, r0, #1
    1b90:	00410704 	subeq	r0, r1, r4, lsl #14
    1b94:	04030000 	streq	r0, [r3], #-0
    1b98:	746e6905 	strbtvc	r6, [lr], #-2309	; 0x905
    1b9c:	07040200 	streq	r0, [r4, -r0, lsl #4]
    1ba0:	00000233 	andeq	r0, r0, r3, lsr r2
    1ba4:	af080102 	svcge	0x00080102
    1ba8:	04000002 	streq	r0, [r0], #-2
    1bac:	b20c0201 	andlt	r0, ip, #268435456	; 0x10000000
    1bb0:	05000000 	streq	r0, [r0, #-0]
    1bb4:	000007e2 	andeq	r0, r0, r2, ror #15
    1bb8:	090d0500 	stmdbeq	sp, {r8, sl}
    1bbc:	05010000 	streq	r0, [r1, #-0]
    1bc0:	00000946 	andeq	r0, r0, r6, asr #18
    1bc4:	09550504 	ldmdbeq	r5, {r2, r8, sl}^
    1bc8:	05050000 	streq	r0, [r5, #-0]
    1bcc:	00000964 	andeq	r0, r0, r4, ror #18
    1bd0:	09730506 	ldmdbeq	r3!, {r1, r2, r8, sl}^
    1bd4:	05070000 	streq	r0, [r7, #-0]
    1bd8:	00000982 	andeq	r0, r0, r2, lsl #19
    1bdc:	09910503 	ldmibeq	r1, {r0, r1, r8, sl}
    1be0:	00020000 	andeq	r0, r2, r0
    1be4:	00093a06 	andeq	r3, r9, r6, lsl #20
    1be8:	79150200 	ldmdbvc	r5, {r9}
    1bec:	07000000 	streq	r0, [r0, -r0]
    1bf0:	00000443 	andeq	r0, r0, r3, asr #8
    1bf4:	8b143f01 	blhi	511800 <__bss_end__+0x505848>
    1bf8:	00d40000 	sbcseq	r0, r4, r0
    1bfc:	9c010000 	stcls	0, cr0, [r1], {-0}
    1c00:	00000133 	andeq	r0, r0, r3, lsr r1
    1c04:	6e697008 	cdpvs	0, 6, cr7, cr9, cr8, {0}
    1c08:	2c3f0100 	ldfcss	f0, [pc], #-0	; 1c10 <_start-0x63f0>
    1c0c:	20000000 	andcs	r0, r0, r0
    1c10:	0900000c 	stmdbeq	r0, {r2, r3}
    1c14:	0000082e 	andeq	r0, r0, lr, lsr #16
    1c18:	01334701 	teqeq	r3, r1, lsl #14
    1c1c:	0c3e0000 	ldceq	0, cr0, [lr], #-0
    1c20:	a0090000 	andge	r0, r9, r0
    1c24:	01000009 	tsteq	r0, r9
    1c28:	00002c49 	andeq	r2, r0, r9, asr #24
    1c2c:	000c9300 	andeq	r9, ip, r0, lsl #6
    1c30:	08df0900 	ldmeq	pc, {r8, fp}^	; <UNPREDICTABLE>
    1c34:	57010000 	strpl	r0, [r1, -r0]
    1c38:	0000002c 	andeq	r0, r0, ip, lsr #32
    1c3c:	00000e5f 	andeq	r0, r0, pc, asr lr
    1c40:	008ba80a 	addeq	sl, fp, sl, lsl #16
    1c44:	0007e000 	andeq	lr, r7, r0
    1c48:	00012200 	andeq	r2, r1, r0, lsl #4
    1c4c:	50010b00 	andpl	r0, r1, r0, lsl #22
    1c50:	00007502 	andeq	r7, r0, r2, lsl #10
    1c54:	008bdc0c 	addeq	sp, fp, ip, lsl #24
    1c58:	00080100 	andeq	r0, r8, r0, lsl #2
    1c5c:	50010b00 	andpl	r0, r1, r0, lsl #22
    1c60:	00007502 	andeq	r7, r0, r2, lsl #10
    1c64:	39040d00 	stmdbcc	r4, {r8, sl, fp}
    1c68:	0e000001 	cdpeq	0, 0, cr0, cr0, cr1, {0}
    1c6c:	0000002c 	andeq	r0, r0, ip, lsr #32
    1c70:	0003b407 	andeq	fp, r3, r7, lsl #8
    1c74:	e8600100 	stmda	r0!, {r8}^
    1c78:	3800008b 	stmdacc	r0, {r0, r1, r3, r7}
    1c7c:	01000000 	mrseq	r0, (UNDEF: 0)
    1c80:	0001969c 	muleq	r1, ip, r6
    1c84:	69700800 	ldmdbvs	r0!, {fp}^
    1c88:	6001006e 	andvs	r0, r1, lr, rrx
    1c8c:	0000002c 	andeq	r0, r0, ip, lsr #32
    1c90:	00000e8f 	andeq	r0, r0, pc, lsl #29
    1c94:	00082e09 	andeq	r2, r8, r9, lsl #28
    1c98:	33670100 	cmncc	r7, #0, 2
    1c9c:	b0000001 	andlt	r0, r0, r1
    1ca0:	0900000e 	stmdbeq	r0, {r1, r2, r3}
    1ca4:	000008df 	ldrdeq	r0, [r0], -pc	; <UNPREDICTABLE>
    1ca8:	002c6801 	eoreq	r6, ip, r1, lsl #16
    1cac:	0ee60000 	cdpeq	0, 14, cr0, cr6, cr0, {0}
    1cb0:	180c0000 	stmdane	ip, {}	; <UNPREDICTABLE>
    1cb4:	0100008c 	smlabbeq	r0, ip, r0, r0
    1cb8:	0b000008 	bleq	1ce0 <_start-0x6320>
    1cbc:	31075101 	tstcc	r7, r1, lsl #2
    1cc0:	4f5001f3 	svcmi	0x005001f3
    1cc4:	0000241a 	andeq	r2, r0, sl, lsl r4
    1cc8:	00008b07 	andeq	r8, r0, r7, lsl #22
    1ccc:	207b0100 	rsbscs	r0, fp, r0, lsl #2
    1cd0:	3800008c 	stmdacc	r0, {r2, r3, r7}
    1cd4:	01000000 	mrseq	r0, (UNDEF: 0)
    1cd8:	0001ee9c 	muleq	r1, ip, lr
    1cdc:	69700800 	ldmdbvs	r0!, {fp}^
    1ce0:	7b01006e 	blvc	41ea0 <__bss_end__+0x35ee8>
    1ce4:	0000002c 	andeq	r0, r0, ip, lsr #32
    1ce8:	00000f26 	andeq	r0, r0, r6, lsr #30
    1cec:	00082e09 	andeq	r2, r8, r9, lsl #28
    1cf0:	33810100 	orrcc	r0, r1, #0, 2
    1cf4:	47000001 	strmi	r0, [r0, -r1]
    1cf8:	0900000f 	stmdbeq	r0, {r0, r1, r2, r3}
    1cfc:	000008df 	ldrdeq	r0, [r0], -pc	; <UNPREDICTABLE>
    1d00:	002c8201 	eoreq	r8, ip, r1, lsl #4
    1d04:	0f7d0000 	svceq	0x007d0000
    1d08:	500c0000 	andpl	r0, ip, r0
    1d0c:	0100008c 	smlabbeq	r0, ip, r0, r0
    1d10:	0b000008 	bleq	1d38 <_start-0x62c8>
    1d14:	31075101 	tstcc	r7, r1, lsl #2
    1d18:	4f5001f3 	svcmi	0x005001f3
    1d1c:	0000241a 	andeq	r2, r0, sl, lsl r4
    1d20:	0003a507 	andeq	sl, r3, r7, lsl #10
    1d24:	58950100 	ldmpl	r5, {r8}
    1d28:	cc00008c 	stcgt	0, cr0, [r0], {140}	; 0x8c
    1d2c:	01000000 	mrseq	r0, (UNDEF: 0)
    1d30:	0002649c 	muleq	r2, ip, r4
    1d34:	69700800 	ldmdbvs	r0!, {fp}^
    1d38:	9501006e 	strls	r0, [r1, #-110]	; 0x6e
    1d3c:	0000002c 	andeq	r0, r0, ip, lsr #32
    1d40:	00000fbd 			; <UNDEFINED> instruction: 0x00000fbd
    1d44:	00082e09 	andeq	r2, r8, r9, lsl #28
    1d48:	339b0100 	orrscc	r0, fp, #0, 2
    1d4c:	db000001 	blle	1d58 <_start-0x62a8>
    1d50:	0900000f 	stmdbeq	r0, {r0, r1, r2, r3}
    1d54:	000009a0 	andeq	r0, r0, r0, lsr #19
    1d58:	002c9d01 	eoreq	r9, ip, r1, lsl #26
    1d5c:	10300000 	eorsne	r0, r0, r0
    1d60:	df090000 	svcle	0x00090000
    1d64:	01000008 	tsteq	r0, r8
    1d68:	00002cab 	andeq	r2, r0, fp, lsr #25
    1d6c:	0011fc00 	andseq	pc, r1, r0, lsl #24
    1d70:	8cec0a00 	vstmiahi	ip!, {s1-s0}
    1d74:	07e00000 	strbeq	r0, [r0, r0]!
    1d78:	02530000 	subseq	r0, r3, #0
    1d7c:	010b0000 	mrseq	r0, (UNDEF: 11)
    1d80:	00750250 	rsbseq	r0, r5, r0, asr r2
    1d84:	8d180c00 	ldchi	12, cr0, [r8, #-0]
    1d88:	08010000 	stmdaeq	r1, {}	; <UNPREDICTABLE>
    1d8c:	010b0000 	mrseq	r0, (UNDEF: 11)
    1d90:	00750250 	rsbseq	r0, r5, r0, asr r2
    1d94:	f10f0000 			; <UNDEFINED> instruction: 0xf10f0000
    1d98:	01000001 	tsteq	r0, r1
    1d9c:	000064b3 			; <UNDEFINED> instruction: 0x000064b3
    1da0:	008d2400 	addeq	r2, sp, r0, lsl #8
    1da4:	00004c00 	andeq	r4, r0, r0, lsl #24
    1da8:	ac9c0100 	ldfges	f0, [ip], {0}
    1dac:	08000002 	stmdaeq	r0, {r1}
    1db0:	006e6970 	rsbeq	r6, lr, r0, ror r9
    1db4:	002cb301 	eoreq	fp, ip, r1, lsl #6
    1db8:	121a0000 	andsne	r0, sl, #0
    1dbc:	76100000 	ldrvc	r0, [r0], -r0
    1dc0:	2cb90100 	ldfcss	f0, [r9]
    1dc4:	72000000 	andvc	r0, r0, #0
    1dc8:	11000012 	tstne	r0, r2, lsl r0
    1dcc:	00008d44 	andeq	r8, r0, r4, asr #26
    1dd0:	000007e0 	andeq	r0, r0, r0, ror #15
    1dd4:	008d5411 	addeq	r5, sp, r1, lsl r4
    1dd8:	0007e000 	andeq	lr, r7, r0
    1ddc:	d7070000 	strle	r0, [r7, -r0]
    1de0:	01000002 	tsteq	r0, r2
    1de4:	008d70c5 	addeq	r7, sp, r5, asr #1
    1de8:	00002400 	andeq	r2, r0, r0, lsl #8
    1dec:	fc9c0100 	ldc2	1, cr0, [ip], {0}
    1df0:	08000002 	stmdaeq	r0, {r1}
    1df4:	006e6970 	rsbeq	r6, lr, r0, ror r9
    1df8:	002cc501 	eoreq	ip, ip, r1, lsl #10
    1dfc:	12a80000 	adcne	r0, r8, #0
    1e00:	76080000 	strvc	r0, [r8], -r0
    1e04:	2cc50100 	stfcse	f0, [r5], {0}
    1e08:	e2000000 	and	r0, r0, #0
    1e0c:	0a000012 	beq	1e5c <_start-0x61a4>
    1e10:	00008d88 	andeq	r8, r0, r8, lsl #27
    1e14:	0000013e 	andeq	r0, r0, lr, lsr r1
    1e18:	000002f2 	strdeq	r0, [r0], -r2
    1e1c:	0350010b 	cmpeq	r0, #-1073741822	; 0xc0000002
    1e20:	005001f3 	ldrsheq	r0, [r0], #-19	; 0xffffffed
    1e24:	008d9011 	addeq	r9, sp, r1, lsl r0
    1e28:	00019600 	andeq	r9, r1, r0, lsl #12
    1e2c:	92070000 	andls	r0, r7, #0
    1e30:	01000008 	tsteq	r0, r8
    1e34:	008d94d1 	ldrdeq	r9, [sp], r1
    1e38:	0000d800 	andeq	sp, r0, r0, lsl #16
    1e3c:	819c0100 	orrshi	r0, ip, r0, lsl #2
    1e40:	08000003 	stmdaeq	r0, {r0, r1}
    1e44:	006e6970 	rsbeq	r6, lr, r0, ror r9
    1e48:	002cd101 	eoreq	sp, ip, r1, lsl #2
    1e4c:	131c0000 	tstne	ip, #0
    1e50:	f1120000 			; <UNDEFINED> instruction: 0xf1120000
    1e54:	01000012 	tsteq	r0, r2, lsl r0
    1e58:	0000b2d1 	ldrdeq	fp, [r0], -r1
    1e5c:	00133a00 	andseq	r3, r3, r0, lsl #20
    1e60:	082e0900 	stmdaeq	lr!, {r8, fp}
    1e64:	d9010000 	stmdble	r1, {}	; <UNPREDICTABLE>
    1e68:	00000133 	andeq	r0, r0, r3, lsr r1
    1e6c:	0000135b 	andeq	r1, r0, fp, asr r3
    1e70:	0009a009 	andeq	sl, r9, r9
    1e74:	2cda0100 	ldfcse	f0, [sl], {0}
    1e78:	b0000000 	andlt	r0, r0, r0
    1e7c:	09000013 	stmdbeq	r0, {r0, r1, r4}
    1e80:	000008df 	ldrdeq	r0, [r0], -pc	; <UNPREDICTABLE>
    1e84:	002ce801 	eoreq	lr, ip, r1, lsl #16
    1e88:	157c0000 	ldrbne	r0, [ip, #-0]!
    1e8c:	300a0000 	andcc	r0, sl, r0
    1e90:	e000008e 	and	r0, r0, lr, lsl #1
    1e94:	70000007 	andvc	r0, r0, r7
    1e98:	0b000003 	bleq	1eac <_start-0x6154>
    1e9c:	76025001 	strvc	r5, [r2], -r1
    1ea0:	600c0000 	andvs	r0, ip, r0
    1ea4:	0100008e 	smlabbeq	r0, lr, r0, r0
    1ea8:	0b000008 	bleq	1ed0 <_start-0x6130>
    1eac:	76025001 	strvc	r5, [r2], -r1
    1eb0:	13000000 	movwne	r0, #0
    1eb4:	000007d6 	ldrdeq	r0, [r0], -r6
    1eb8:	64010501 	strvs	r0, [r1], #-1281	; 0x501
    1ebc:	6c000000 	stcvs	0, cr0, [r0], {-0}
    1ec0:	2c00008e 	stccs	0, cr0, [r0], {142}	; 0x8e
    1ec4:	01000000 	mrseq	r0, (UNDEF: 0)
    1ec8:	0003b59c 	muleq	r3, ip, r5
    1ecc:	07d91400 	ldrbeq	r1, [r9, r0, lsl #8]
    1ed0:	05010000 	streq	r0, [r1, #-0]
    1ed4:	00002c01 	andeq	r2, r0, r1, lsl #24
    1ed8:	0015ad00 	andseq	sl, r5, r0, lsl #26
    1edc:	8e7c1100 	rpwhie	f1, f4, f0
    1ee0:	07e00000 	strbeq	r0, [r0, r0]!
    1ee4:	15000000 	strne	r0, [r0, #-0]
    1ee8:	0000087d 	andeq	r0, r0, sp, ror r8
    1eec:	98011401 	stmdals	r1, {r0, sl, ip}
    1ef0:	8400008e 	strhi	r0, [r0], #-142	; 0x8e
    1ef4:	01000000 	mrseq	r0, (UNDEF: 0)
    1ef8:	0004799c 	muleq	r4, ip, r9
    1efc:	69701600 	ldmdbvs	r0!, {r9, sl, ip}^
    1f00:	1401006e 	strne	r0, [r1], #-110	; 0x6e
    1f04:	00002c01 	andeq	r2, r0, r1, lsl #24
    1f08:	0015ce00 	andseq	ip, r5, r0, lsl #28
    1f0c:	08001700 	stmdaeq	r0, {r8, r9, sl, ip}
    1f10:	26010000 	strcs	r0, [r1], -r0
    1f14:	00002c01 	andeq	r2, r0, r1, lsl #24
    1f18:	0015fa00 	andseq	pc, r5, r0, lsl #20
    1f1c:	8eb41800 	cdphi	8, 11, cr1, cr4, cr0, {0}
    1f20:	001c0000 	andseq	r0, ip, r0
    1f24:	041b0000 	ldreq	r0, [fp], #-0
    1f28:	df170000 	svcle	0x00170000
    1f2c:	01000008 	tsteq	r0, r8
    1f30:	002c011d 	eoreq	r0, ip, sp, lsl r1
    1f34:	16180000 	ldrne	r0, [r8], -r0
    1f38:	c0110000 	andsgt	r0, r1, r0
    1f3c:	e000008e 	and	r0, r0, lr, lsl #1
    1f40:	11000007 	tstne	r0, r7
    1f44:	00008ed0 	ldrdeq	r8, [r0], -r0
    1f48:	00000801 	andeq	r0, r0, r1, lsl #16
    1f4c:	8ed41800 	cdphi	8, 13, cr1, cr4, cr0, {0}
    1f50:	00200000 	eoreq	r0, r0, r0
    1f54:	044b0000 	strbeq	r0, [fp], #-0
    1f58:	df170000 	svcle	0x00170000
    1f5c:	01000008 	tsteq	r0, r8
    1f60:	002c0121 	eoreq	r0, ip, r1, lsr #2
    1f64:	16360000 	ldrtne	r0, [r6], -r0
    1f68:	e0110000 	ands	r0, r1, r0
    1f6c:	e000008e 	and	r0, r0, lr, lsl #1
    1f70:	11000007 	tstne	r0, r7
    1f74:	00008ef4 	strdeq	r8, [r0], -r4
    1f78:	00000801 	andeq	r0, r0, r1, lsl #16
    1f7c:	8eac1100 	fdvhie	f1, f4, f0
    1f80:	081d0000 	ldmdaeq	sp, {}	; <UNPREDICTABLE>
    1f84:	f8110000 			; <UNDEFINED> instruction: 0xf8110000
    1f88:	1d00008e 	stcne	0, cr0, [r0, #-568]	; 0xfffffdc8
    1f8c:	11000008 	tstne	r0, r8
    1f90:	00008f04 	andeq	r8, r0, r4, lsl #30
    1f94:	000007e0 	andeq	r0, r0, r0, ror #15
    1f98:	008f1011 	addeq	r1, pc, r1, lsl r0	; <UNPREDICTABLE>
    1f9c:	00080100 	andeq	r0, r8, r0, lsl #2
    1fa0:	8f141100 	svchi	0x00141100
    1fa4:	081d0000 	ldmdaeq	sp, {}	; <UNPREDICTABLE>
    1fa8:	15000000 	strne	r0, [r0, #-0]
    1fac:	00000924 	andeq	r0, r0, r4, lsr #18
    1fb0:	1c013101 	stfnes	f3, [r1], {1}
    1fb4:	8400008f 	strhi	r0, [r0], #-143	; 0x8f
    1fb8:	01000000 	mrseq	r0, (UNDEF: 0)
    1fbc:	00053d9c 	muleq	r5, ip, sp
    1fc0:	69701600 	ldmdbvs	r0!, {r9, sl, ip}^
    1fc4:	3101006e 	tstcc	r1, lr, rrx
    1fc8:	00002c01 	andeq	r2, r0, r1, lsl #24
    1fcc:	00165400 	andseq	r5, r6, r0, lsl #8
    1fd0:	08001700 	stmdaeq	r0, {r8, r9, sl, ip}
    1fd4:	42010000 	andmi	r0, r1, #0
    1fd8:	00002c01 	andeq	r2, r0, r1, lsl #24
    1fdc:	00168000 	andseq	r8, r6, r0
    1fe0:	8f381800 	svchi	0x00381800
    1fe4:	001c0000 	andseq	r0, ip, r0
    1fe8:	04df0000 	ldrbeq	r0, [pc], #0	; 1ff0 <_start-0x6010>
    1fec:	df170000 	svcle	0x00170000
    1ff0:	01000008 	tsteq	r0, r8
    1ff4:	002c0139 	eoreq	r0, ip, r9, lsr r1
    1ff8:	169e0000 	ldrne	r0, [lr], r0
    1ffc:	44110000 	ldrmi	r0, [r1], #-0
    2000:	e000008f 	and	r0, r0, pc, lsl #1
    2004:	11000007 	tstne	r0, r7
    2008:	00008f54 	andeq	r8, r0, r4, asr pc
    200c:	00000801 	andeq	r0, r0, r1, lsl #16
    2010:	8f581800 	svchi	0x00581800
    2014:	00200000 	eoreq	r0, r0, r0
    2018:	050f0000 	streq	r0, [pc, #-0]	; 2020 <_start-0x5fe0>
    201c:	df170000 	svcle	0x00170000
    2020:	01000008 	tsteq	r0, r8
    2024:	002c013d 	eoreq	r0, ip, sp, lsr r1
    2028:	16bc0000 	ldrtne	r0, [ip], r0
    202c:	64110000 	ldrvs	r0, [r1], #-0
    2030:	e000008f 	and	r0, r0, pc, lsl #1
    2034:	11000007 	tstne	r0, r7
    2038:	00008f78 	andeq	r8, r0, r8, ror pc
    203c:	00000801 	andeq	r0, r0, r1, lsl #16
    2040:	8f301100 	svchi	0x00301100
    2044:	081d0000 	ldmdaeq	sp, {}	; <UNPREDICTABLE>
    2048:	7c110000 	ldcvc	0, cr0, [r1], {-0}
    204c:	1d00008f 	stcne	0, cr0, [r0, #-572]	; 0xfffffdc4
    2050:	11000008 	tstne	r0, r8
    2054:	00008f88 	andeq	r8, r0, r8, lsl #31
    2058:	000007e0 	andeq	r0, r0, r0, ror #15
    205c:	008f9411 	addeq	r9, pc, r1, lsl r4	; <UNPREDICTABLE>
    2060:	00080100 	andeq	r0, r8, r0, lsl #2
    2064:	8f981100 	svchi	0x00981100
    2068:	081d0000 	ldmdaeq	sp, {}	; <UNPREDICTABLE>
    206c:	13000000 	movwne	r0, #0
    2070:	0000079f 	muleq	r0, pc, r7	; <UNPREDICTABLE>
    2074:	64014c01 	strvs	r4, [r1], #-3073	; 0xc01
    2078:	a0000000 	andge	r0, r0, r0
    207c:	8400008f 	strhi	r0, [r0], #-143	; 0x8f
    2080:	01000000 	mrseq	r0, (UNDEF: 0)
    2084:	0005e39c 	muleq	r5, ip, r3
    2088:	69701600 	ldmdbvs	r0!, {r9, sl, ip}^
    208c:	4c01006e 	stcmi	0, cr0, [r1], {110}	; 0x6e
    2090:	00002c01 	andeq	r2, r0, r1, lsl #24
    2094:	0016da00 	andseq	sp, r6, r0, lsl #20
    2098:	8fbc1800 	svchi	0x00bc1800
    209c:	00240000 	eoreq	r0, r4, r0
    20a0:	05970000 	ldreq	r0, [r7]
    20a4:	17170000 	ldrne	r0, [r7, -r0]
    20a8:	01000008 	tsteq	r0, r8
    20ac:	002c0153 	eoreq	r0, ip, r3, asr r1
    20b0:	171c0000 	ldrne	r0, [ip, -r0]
    20b4:	c8110000 	ldmdagt	r1, {}	; <UNPREDICTABLE>
    20b8:	e000008f 	and	r0, r0, pc, lsl #1
    20bc:	11000007 	tstne	r0, r7
    20c0:	00008fd8 	ldrdeq	r8, [r0], -r8	; <UNPREDICTABLE>
    20c4:	0000081d 	andeq	r0, r0, sp, lsl r8
    20c8:	8fe01800 	svchi	0x00e01800
    20cc:	002c0000 	eoreq	r0, ip, r0
    20d0:	05d00000 	ldrbeq	r0, [r0]
    20d4:	17170000 	ldrne	r0, [r7, -r0]
    20d8:	01000008 	tsteq	r0, r8
    20dc:	002c0156 	eoreq	r0, ip, r6, asr r1
    20e0:	17360000 	ldrne	r0, [r6, -r0]!
    20e4:	ec110000 	ldc	0, cr0, [r1], {-0}
    20e8:	e000008f 	and	r0, r0, pc, lsl #1
    20ec:	11000007 	tstne	r0, r7
    20f0:	00008ff8 	strdeq	r8, [r0], -r8	; <UNPREDICTABLE>
    20f4:	0000081d 	andeq	r0, r0, sp, lsl r8
    20f8:	00900411 	addseq	r0, r0, r1, lsl r4
    20fc:	00081d00 	andeq	r1, r8, r0, lsl #26
    2100:	b4110000 	ldrlt	r0, [r1], #-0
    2104:	1d00008f 	stcne	0, cr0, [r0, #-572]	; 0xfffffdc4
    2108:	11000008 	tstne	r0, r8
    210c:	00009010 	andeq	r9, r0, r0, lsl r0
    2110:	0000081d 	andeq	r0, r0, sp, lsl r8
    2114:	08b21500 	ldmeq	r2!, {r8, sl, ip}
    2118:	5f010000 	svcpl	0x00010000
    211c:	00902401 	addseq	r2, r0, r1, lsl #8
    2120:	00005800 	andeq	r5, r0, r0, lsl #16
    2124:	489c0100 	ldmmi	ip, {r8}
    2128:	16000006 	strne	r0, [r0], -r6
    212c:	006e6970 	rsbeq	r6, lr, r0, ror r9
    2130:	2c015f01 	stccs	15, cr5, [r1], {1}
    2134:	49000000 	stmdbmi	r0, {}	; <UNPREDICTABLE>
    2138:	11000017 	tstne	r0, r7, lsl r0
    213c:	00009038 	andeq	r9, r0, r8, lsr r0
    2140:	0000081d 	andeq	r0, r0, sp, lsl r8
    2144:	0090540a 	addseq	r5, r0, sl, lsl #8
    2148:	00080100 	andeq	r0, r8, r0, lsl #2
    214c:	00062800 	andeq	r2, r6, r0, lsl #16
    2150:	51010b00 	tstpl	r1, r0, lsl #22
    2154:	00743104 	rsbseq	r3, r4, r4, lsl #2
    2158:	700a0024 	andvc	r0, sl, r4, lsr #32
    215c:	01000090 	swpeq	r0, r0, [r0]	; <UNPREDICTABLE>
    2160:	3e000008 	cdpcc	0, 0, cr0, cr0, cr8, {0}
    2164:	0b000006 	bleq	2184 <_start-0x5e7c>
    2168:	31045101 	tstcc	r4, r1, lsl #2
    216c:	00240074 	eoreq	r0, r4, r4, ror r0
    2170:	00907411 	addseq	r7, r0, r1, lsl r4
    2174:	00081d00 	andeq	r1, r8, r0, lsl #26
    2178:	6b190000 	blvs	642180 <__bss_end__+0x6361c8>
    217c:	01000008 	tsteq	r0, r8
    2180:	00013328 	andeq	r3, r1, r8, lsr #6
    2184:	30030500 	andcc	r0, r3, r0, lsl #10
    2188:	190000a4 	stmdbne	r0, {r2, r5, r7}
    218c:	000008e7 	andeq	r0, r0, r7, ror #17
    2190:	01332901 	teqeq	r3, r1, lsl #18
    2194:	03050000 	movweq	r0, #20480	; 0x5000
    2198:	0000a42c 	andeq	sl, r0, ip, lsr #8
    219c:	0009ab19 	andeq	sl, r9, r9, lsl fp
    21a0:	332a0100 	teqcc	sl, #0, 2
    21a4:	05000001 	streq	r0, [r0, #-1]
    21a8:	00a42803 	adceq	r2, r4, r3, lsl #16
    21ac:	08371900 	ldmdaeq	r7!, {r8, fp, ip}
    21b0:	2c010000 	stccs	0, cr0, [r1], {-0}
    21b4:	00000133 	andeq	r0, r0, r3, lsr r1
    21b8:	a3d40305 	bicsge	r0, r4, #335544320	; 0x14000000
    21bc:	3f190000 	svccc	0x00190000
    21c0:	01000008 	tsteq	r0, r8
    21c4:	0001332d 	andeq	r3, r1, sp, lsr #6
    21c8:	d8030500 	stmdale	r3, {r8, sl}
    21cc:	190000a3 	stmdbne	r0, {r0, r1, r5, r7}
    21d0:	000007b9 			; <UNDEFINED> instruction: 0x000007b9
    21d4:	01332e01 	teqeq	r3, r1, lsl #28
    21d8:	03050000 	movweq	r0, #20480	; 0x5000
    21dc:	0000a3dc 	ldrdeq	sl, [r0], -ip
    21e0:	00084719 	andeq	r4, r8, r9, lsl r7
    21e4:	332f0100 	teqcc	pc, #0, 2
    21e8:	05000001 	streq	r0, [r0, #-1]
    21ec:	00a3e003 	adceq	lr, r3, r3
    21f0:	084f1900 	stmdaeq	pc, {r8, fp, ip}^	; <UNPREDICTABLE>
    21f4:	30010000 	andcc	r0, r1, r0
    21f8:	00000133 	andeq	r0, r0, r3, lsr r1
    21fc:	a3e40305 	mvnge	r0, #335544320	; 0x14000000
    2200:	57190000 	ldrpl	r0, [r9, -r0]
    2204:	01000008 	tsteq	r0, r8
    2208:	00013331 	andeq	r3, r1, r1, lsr r3
    220c:	e8030500 	stmda	r3, {r8, sl}
    2210:	190000a3 	stmdbne	r0, {r0, r1, r5, r7}
    2214:	00000809 	andeq	r0, r0, r9, lsl #16
    2218:	01333301 	teqeq	r3, r1, lsl #6
    221c:	03050000 	movweq	r0, #20480	; 0x5000
    2220:	0000a3ec 	andeq	sl, r0, ip, ror #7
    2224:	00081019 	andeq	r1, r8, r9, lsl r0
    2228:	33340100 	teqcc	r4, #0, 2
    222c:	05000001 	streq	r0, [r0, #-1]
    2230:	00a3f003 	adceq	pc, r3, r3
    2234:	07c11900 	strbeq	r1, [r1, r0, lsl #18]
    2238:	36010000 	strcc	r0, [r1], -r0
    223c:	00000133 	andeq	r0, r0, r3, lsr r1
    2240:	a3f40305 	mvnsge	r0, #335544320	; 0x14000000
    2244:	76190000 	ldrvc	r0, [r9], -r0
    2248:	01000008 	tsteq	r0, r8
    224c:	00013337 	andeq	r3, r1, r7, lsr r3
    2250:	f8030500 			; <UNDEFINED> instruction: 0xf8030500
    2254:	190000a3 	stmdbne	r0, {r0, r1, r5, r7}
    2258:	00000820 	andeq	r0, r0, r0, lsr #16
    225c:	01333901 	teqeq	r3, r1, lsl #18
    2260:	03050000 	movweq	r0, #20480	; 0x5000
    2264:	0000a3fc 	strdeq	sl, [r0], -ip
    2268:	00082719 	andeq	r2, r8, r9, lsl r7
    226c:	333a0100 	teqcc	sl, #0, 2
    2270:	05000001 	streq	r0, [r0, #-1]
    2274:	00a40003 	adceq	r0, r4, r3
    2278:	08c31900 	stmiaeq	r3, {r8, fp, ip}^
    227c:	f0010000 			; <UNDEFINED> instruction: 0xf0010000
    2280:	00000133 	andeq	r0, r0, r3, lsr r1
    2284:	a4240305 	strtge	r0, [r4], #-773	; 0x305
    2288:	d1190000 	tstle	r9, r0
    228c:	01000008 	tsteq	r0, r8
    2290:	000133f1 	strdeq	r3, [r1], -r1
    2294:	04030500 	streq	r0, [r3], #-1280	; 0x500
    2298:	190000a4 	stmdbne	r0, {r2, r5, r7}
    229c:	000008f1 	strdeq	r0, [r0], -r1
    22a0:	0133f301 	teqeq	r3, r1, lsl #6
    22a4:	03050000 	movweq	r0, #20480	; 0x5000
    22a8:	0000a41c 	andeq	sl, r0, ip, lsl r4
    22ac:	0008f819 	andeq	pc, r8, r9, lsl r8	; <UNPREDICTABLE>
    22b0:	33f40100 	mvnscc	r0, #0, 2
    22b4:	05000001 	streq	r0, [r0, #-1]
    22b8:	00a42003 	adceq	r2, r4, r3
    22bc:	08a41900 	stmiaeq	r4!, {r8, fp, ip}
    22c0:	f6010000 			; <UNDEFINED> instruction: 0xf6010000
    22c4:	00000133 	andeq	r0, r0, r3, lsr r1
    22c8:	a4080305 	strge	r0, [r8], #-773	; 0x305
    22cc:	ab190000 	blge	6422d4 <__bss_end__+0x63631c>
    22d0:	01000008 	tsteq	r0, r8
    22d4:	000133f7 	strdeq	r3, [r1], -r7
    22d8:	0c030500 	cfstr32eq	mvfx0, [r3], {-0}
    22dc:	190000a4 	stmdbne	r0, {r2, r5, r7}
    22e0:	000008ff 	strdeq	r0, [r0], -pc	; <UNPREDICTABLE>
    22e4:	0133f901 	teqeq	r3, r1, lsl #18
    22e8:	03050000 	movweq	r0, #20480	; 0x5000
    22ec:	0000a414 	andeq	sl, r0, r4, lsl r4
    22f0:	00090619 	andeq	r0, r9, r9, lsl r6
    22f4:	33fa0100 	mvnscc	r0, #0, 2
    22f8:	05000001 	streq	r0, [r0, #-1]
    22fc:	00a41803 	adceq	r1, r4, r3, lsl #16
    2300:	07c81900 	strbeq	r1, [r8, r0, lsl #18]
    2304:	fc010000 	stc2	0, cr0, [r1], {-0}
    2308:	00000133 	andeq	r0, r0, r3, lsr r1
    230c:	a4100305 	ldrge	r0, [r0], #-773	; 0x305
    2310:	1e1a0000 	cdpne	0, 1, cr0, cr10, cr0, {0}
    2314:	01000009 	tsteq	r0, r9
    2318:	00002c20 	andeq	r2, r0, r0, lsr #24
    231c:	0007f500 	andeq	pc, r7, r0, lsl #10
    2320:	07f51b00 	ldrbeq	r1, [r5, r0, lsl #22]!
    2324:	0d000000 	stceq	0, cr0, [r0, #-0]
    2328:	0007fb04 	andeq	pc, r7, r4, lsl #22
    232c:	08001c00 	stmdaeq	r0, {sl, fp, ip}
    2330:	1e1d0000 	cdpne	0, 1, cr0, cr13, cr0, {0}
    2334:	000007b3 			; <UNDEFINED> instruction: 0x000007b3
    2338:	08171e01 	ldmdaeq	r7, {r0, r9, sl, fp, ip}
    233c:	171b0000 	ldrne	r0, [fp, -r0]
    2340:	1b000008 	blne	2368 <_start-0x5c98>
    2344:	0000002c 	andeq	r0, r0, ip, lsr #32
    2348:	00040d00 	andeq	r0, r4, r0, lsl #26
    234c:	1f000008 	svcne	0x00000008
    2350:	0000085f 	andeq	r0, r0, pc, asr r8
    2354:	ca008703 	bgt	23f68 <__bss_end__+0x17fb0>
    2358:	04000011 	streq	r0, [r0], #-17
    235c:	000cb600 	andeq	fp, ip, r0, lsl #12
    2360:	4e010400 	cfcpysmi	mvf0, mvf1
    2364:	01000003 	tsteq	r0, r3
    2368:	00000a4a 	andeq	r0, r0, sl, asr #20
    236c:	000004d6 	ldrdeq	r0, [r0], -r6
    2370:	0000907c 	andeq	r9, r0, ip, ror r0
    2374:	00000620 	andeq	r0, r0, r0, lsr #12
    2378:	00000b17 	andeq	r0, r0, r7, lsl fp
    237c:	69050402 	stmdbvs	r5, {r1, sl}
    2380:	0300746e 	movweq	r7, #1134	; 0x46e
    2384:	00460704 	subeq	r0, r6, r4, lsl #14
    2388:	01030000 	mrseq	r0, (UNDEF: 3)
    238c:	0002a806 	andeq	sl, r2, r6, lsl #16
    2390:	05020300 	streq	r0, [r2, #-768]	; 0x300
    2394:	000002cd 	andeq	r0, r0, sp, asr #5
    2398:	9d050403 	cfstrsls	mvf0, [r5, #-12]
    239c:	03000000 	movweq	r0, #0
    23a0:	00980508 	addseq	r0, r8, r8, lsl #10
    23a4:	63040000 	movwvs	r0, #16384	; 0x4000
    23a8:	03000004 	movweq	r0, #4
    23ac:	00005a2e 	andeq	r5, r0, lr, lsr #20
    23b0:	08010300 	stmdaeq	r1, {r8, r9}
    23b4:	000002a6 	andeq	r0, r0, r6, lsr #5
    23b8:	a2070203 	andge	r0, r7, #805306368	; 0x30000000
    23bc:	04000001 	streq	r0, [r0], #-1
    23c0:	00000313 	andeq	r0, r0, r3, lsl r3
    23c4:	00733403 	rsbseq	r3, r3, r3, lsl #8
    23c8:	04030000 	streq	r0, [r3], #-0
    23cc:	00004107 	andeq	r4, r0, r7, lsl #2
    23d0:	07080300 	streq	r0, [r8, -r0, lsl #6]
    23d4:	0000003c 	andeq	r0, r0, ip, lsr r0
    23d8:	33070403 	movwcc	r0, #29699	; 0x7403
    23dc:	05000002 	streq	r0, [r0, #-2]
    23e0:	90040604 	andls	r0, r4, r4, lsl #12
    23e4:	03000000 	movweq	r0, #0
    23e8:	02af0801 	adceq	r0, pc, #65536	; 0x10000
    23ec:	04060000 	streq	r0, [r6], #-0
    23f0:	0000009d 	muleq	r0, sp, r0
    23f4:	00009007 	andeq	r9, r0, r7
    23f8:	040c0800 	streq	r0, [ip], #-2048	; 0x800
    23fc:	0000d90e 	andeq	sp, r0, lr, lsl #18
    2400:	78740900 	ldmdavc	r4!, {r8, fp}^
    2404:	4f0f0400 	svcmi	0x000f0400
    2408:	00000000 	andeq	r0, r0, r0
    240c:	00787209 	rsbseq	r7, r8, r9, lsl #4
    2410:	004f0f04 	subeq	r0, pc, r4, lsl #30
    2414:	0a010000 	beq	4241c <__bss_end__+0x36464>
    2418:	00000652 	andeq	r0, r0, r2, asr r6
    241c:	00681004 	rsbeq	r1, r8, r4
    2420:	0a040000 	beq	102428 <__bss_end__+0xf6470>
    2424:	00000603 	andeq	r0, r0, r3, lsl #12
    2428:	00681104 	rsbeq	r1, r8, r4, lsl #2
    242c:	00080000 	andeq	r0, r8, r0
    2430:	00063b04 	andeq	r3, r6, r4, lsl #22
    2434:	a2120400 	andsge	r0, r2, #0, 8
    2438:	04000000 	streq	r0, [r0], #-0
    243c:	000004a5 	andeq	r0, r0, r5, lsr #9
    2440:	00ef2805 	rsceq	r2, pc, r5, lsl #16
    2444:	cc0b0000 	stcgt	0, cr0, [fp], {-0}
    2448:	04000004 	streq	r0, [r0], #-4
    244c:	01060009 	tsteq	r6, r9
    2450:	1a0c0000 	bne	302458 <__bss_end__+0x2f64a0>
    2454:	88000005 	stmdahi	r0, {r0, r2}
    2458:	00000000 	andeq	r0, r0, r0
    245c:	04ce0400 	strbeq	r0, [lr], #1024	; 0x400
    2460:	62050000 	andvs	r0, r5, #0
    2464:	000000e4 	andeq	r0, r0, r4, ror #1
    2468:	000a0e0d 	andeq	r0, sl, sp, lsl #28
    246c:	03090200 	movweq	r0, #37376	; 0x9200
    2470:	0000013f 	andeq	r0, r0, pc, lsr r1
    2474:	0006660e 	andeq	r6, r6, lr, lsl #12
    2478:	2c090200 	sfmcs	f0, 4, [r9], {-0}
    247c:	0f000000 	svceq	0x00000000
    2480:	0902006e 	stmdbeq	r2, {r1, r2, r3, r5, r6}
    2484:	0000002c 	andeq	r0, r0, ip, lsr #32
    2488:	0a781110 	beq	1e068d0 <__bss_end__+0x1dfa918>
    248c:	0c020000 	stceq	0, cr0, [r2], {-0}
    2490:	0000002c 	andeq	r0, r0, ip, lsr #32
    2494:	c10d0000 	mrsgt	r0, (UNDEF: 13)
    2498:	02000009 	andeq	r0, r0, #9
    249c:	01760317 	cmneq	r6, r7, lsl r3
    24a0:	700f0000 	andvc	r0, pc, r0
    24a4:	02006e69 	andeq	r6, r0, #1680	; 0x690
    24a8:	00002c17 	andeq	r2, r0, r7, lsl ip
    24ac:	00760f00 	rsbseq	r0, r6, r0, lsl #30
    24b0:	002c1702 	eoreq	r1, ip, r2, lsl #14
    24b4:	660e0000 	strvs	r0, [lr], -r0
    24b8:	02000006 	andeq	r0, r0, #6
    24bc:	00002c17 	andeq	r2, r0, r7, lsl ip
    24c0:	0a140e00 	beq	505cc8 <__bss_end__+0x4f9d10>
    24c4:	17020000 	strne	r0, [r2, -r0]
    24c8:	0000002c 	andeq	r0, r0, ip, lsr #32
    24cc:	06771200 	ldrbteq	r1, [r7], -r0, lsl #4
    24d0:	09010000 	stmdbeq	r1, {}	; <UNPREDICTABLE>
    24d4:	0000907c 	andeq	r9, r0, ip, ror r0
    24d8:	00000154 	andeq	r0, r0, r4, asr r1
    24dc:	07229c01 	streq	r9, [r2, -r1, lsl #24]!
    24e0:	19130000 	ldmdbne	r3, {}	; <UNPREDICTABLE>
    24e4:	01000006 	tsteq	r0, r6
    24e8:	00072209 	andeq	r2, r7, r9, lsl #4
    24ec:	00177500 	andseq	r7, r7, r0, lsl #10
    24f0:	00631400 	rsbeq	r1, r3, r0, lsl #8
    24f4:	005a0901 	subseq	r0, sl, r1, lsl #18
    24f8:	17960000 	ldrne	r0, [r6, r0]
    24fc:	74150000 	ldrvc	r0, [r5], #-0
    2500:	0b010078 	bleq	426e8 <__bss_end__+0x36730>
    2504:	00000025 	andeq	r0, r0, r5, lsr #32
    2508:	08007606 	stmdaeq	r0, {r1, r2, r9, sl, ip, sp, lr}
    250c:	169f1aff 			; <UNDEFINED> instruction: 0x169f1aff
    2510:	0c01006e 	stceq	0, cr0, [r1], {110}	; 0x6e
    2514:	00000068 	andeq	r0, r0, r8, rrx
    2518:	000017b7 			; <UNDEFINED> instruction: 0x000017b7
    251c:	01007516 	tsteq	r0, r6, lsl r5
    2520:	0000680d 	andeq	r6, r0, sp, lsl #16
    2524:	0017ca00 	andseq	ip, r7, r0, lsl #20
    2528:	00731500 	rsbseq	r1, r3, r0, lsl #10
    252c:	00680e01 	rsbeq	r0, r8, r1, lsl #28
    2530:	54010000 	strpl	r0, [r1], #-0
    2534:	00908c17 	addseq	r8, r0, r7, lsl ip
    2538:	00000400 	andeq	r0, r0, r0, lsl #8
    253c:	0001f800 	andeq	pc, r1, r0, lsl #16
    2540:	0a781800 	beq	1e08548 <__bss_end__+0x1dfc590>
    2544:	0e010000 	cdpeq	0, 0, cr0, cr1, cr0, {0}
    2548:	0000002c 	andeq	r0, r0, ip, lsr #32
    254c:	19005401 	stmdbne	r0, {r0, sl, ip, lr}
    2550:	0000013f 	andeq	r0, r0, pc, lsr r1
    2554:	00009090 	muleq	r0, r0, r0
    2558:	0000001c 	andeq	r0, r0, ip, lsl r0
    255c:	02751101 	rsbseq	r1, r5, #1073741824	; 0x40000000
    2560:	6a1a0000 	bvs	682568 <__bss_end__+0x6765b0>
    2564:	f3000001 	vhadd.u8	d0, d0, d1
    2568:	1b000017 	blne	25cc <_start-0x5a34>
    256c:	0000015f 	andeq	r0, r0, pc, asr r1
    2570:	561c5401 	ldrpl	r5, [ip], -r1, lsl #8
    2574:	00000001 	andeq	r0, r0, r1
    2578:	00014b1b 	andeq	r4, r1, fp, lsl fp
    257c:	19560100 	ldmdbne	r6, {r8}^
    2580:	00000111 	andeq	r0, r0, r1, lsl r1
    2584:	0000909c 	muleq	r0, ip, r0
    2588:	00000010 	andeq	r0, r0, r0, lsl r0
    258c:	025f1a02 	subseq	r1, pc, #8192	; 0x2000
    2590:	281a0000 	ldmdacs	sl, {}	; <UNPREDICTABLE>
    2594:	06000001 	streq	r0, [r0], -r1
    2598:	1b000018 	blne	2600 <_start-0x5a00>
    259c:	0000011d 	andeq	r0, r0, sp, lsl r1
    25a0:	9c1d5401 	cfldrsls	mvf5, [sp], {1}
    25a4:	04000090 	streq	r0, [r0], #-144	; 0x90
    25a8:	1e000000 	cdpne	0, 0, cr0, cr0, cr0, {0}
    25ac:	00000132 	andeq	r0, r0, r2, lsr r1
    25b0:	00001819 	andeq	r1, r0, r9, lsl r8
    25b4:	9c1f0000 	ldcls	0, cr0, [pc], {-0}
    25b8:	31000090 	swpcc	r0, r0, [r0]	; <UNPREDICTABLE>
    25bc:	20000011 	andcs	r0, r0, r1, lsl r0
    25c0:	30015101 	andcc	r5, r1, r1, lsl #2
    25c4:	02500120 	subseq	r0, r0, #32, 2
    25c8:	00000076 	andeq	r0, r0, r6, ror r0
    25cc:	00013f19 	andeq	r3, r1, r9, lsl pc
    25d0:	0090b000 	addseq	fp, r0, r0
    25d4:	00001c00 	andeq	r1, r0, r0, lsl #24
    25d8:	f8130100 			; <UNDEFINED> instruction: 0xf8130100
    25dc:	1a000002 	bne	25ec <_start-0x5a14>
    25e0:	0000016a 	andeq	r0, r0, sl, ror #2
    25e4:	0000182c 	andeq	r1, r0, ip, lsr #16
    25e8:	00015f1b 	andeq	r5, r1, fp, lsl pc
    25ec:	1a540100 	bne	15029f4 <__bss_end__+0x14f6a3c>
    25f0:	00000156 	andeq	r0, r0, r6, asr r1
    25f4:	0000184e 	andeq	r1, r0, lr, asr #16
    25f8:	00014b1b 	andeq	r4, r1, fp, lsl fp
    25fc:	19560100 	ldmdbne	r6, {r8}^
    2600:	00000111 	andeq	r0, r0, r1, lsl r1
    2604:	000090bc 	strheq	r9, [r0], -ip
    2608:	00000010 	andeq	r0, r0, r0, lsl r0
    260c:	02df1a02 	sbcseq	r1, pc, #8192	; 0x2000
    2610:	281a0000 	ldmdacs	sl, {}	; <UNPREDICTABLE>
    2614:	7f000001 	svcvc	0x00000001
    2618:	1b000018 	blne	2680 <_start-0x5980>
    261c:	0000011d 	andeq	r0, r0, sp, lsl r1
    2620:	bc1d5401 	cfldrslt	mvf5, [sp], {1}
    2624:	04000090 	streq	r0, [r0], #-144	; 0x90
    2628:	1e000000 	cdpne	0, 0, cr0, cr0, cr0, {0}
    262c:	00000132 	andeq	r0, r0, r2, lsr r1
    2630:	000018a1 	andeq	r1, r0, r1, lsr #17
    2634:	bc1f0000 	ldclt	0, cr0, [pc], {-0}
    2638:	31000090 	swpcc	r0, r0, [r0]	; <UNPREDICTABLE>
    263c:	20000011 	andcs	r0, r0, r1, lsl r0
    2640:	77045101 	strvc	r5, [r4, -r1, lsl #2]
    2644:	201a3100 	andscs	r3, sl, r0, lsl #2
    2648:	76025001 	strvc	r5, [r2], -r1
    264c:	19000000 	stmdbne	r0, {}	; <UNPREDICTABLE>
    2650:	0000013f 	andeq	r0, r0, pc, lsr r1
    2654:	000090d0 	ldrdeq	r9, [r0], -r0
    2658:	0000001c 	andeq	r0, r0, ip, lsl r0
    265c:	03801501 	orreq	r1, r0, #4194304	; 0x400000
    2660:	6a1a0000 	bvs	682668 <__bss_end__+0x6766b0>
    2664:	b4000001 	strlt	r0, [r0], #-1
    2668:	1b000018 	blne	26d0 <_start-0x5930>
    266c:	0000015f 	andeq	r0, r0, pc, asr r1
    2670:	561b5401 	ldrpl	r5, [fp], -r1, lsl #8
    2674:	08000001 	stmdaeq	r0, {r0}
    2678:	1a320077 	bne	c8285c <__bss_end__+0xc768a4>
    267c:	9f1aff08 	svcls	0x001aff08
    2680:	00014b1b 	andeq	r4, r1, fp, lsl fp
    2684:	19560100 	ldmdbne	r6, {r8}^
    2688:	00000111 	andeq	r0, r0, r1, lsl r1
    268c:	000090dc 	ldrdeq	r9, [r0], -ip
    2690:	00000010 	andeq	r0, r0, r0, lsl r0
    2694:	03671a02 	cmneq	r7, #8192	; 0x2000
    2698:	281a0000 	ldmdacs	sl, {}	; <UNPREDICTABLE>
    269c:	d9000001 	stmdble	r0, {r0}
    26a0:	1b000018 	blne	2708 <_start-0x58f8>
    26a4:	0000011d 	andeq	r0, r0, sp, lsl r1
    26a8:	dc1d5401 	cfldrsle	mvf5, [sp], {1}
    26ac:	04000090 	streq	r0, [r0], #-144	; 0x90
    26b0:	1e000000 	cdpne	0, 0, cr0, cr0, cr0, {0}
    26b4:	00000132 	andeq	r0, r0, r2, lsr r1
    26b8:	000018fe 	strdeq	r1, [r0], -lr
    26bc:	dc1f0000 	ldcle	0, cr0, [pc], {-0}
    26c0:	31000090 	swpcc	r0, r0, [r0]	; <UNPREDICTABLE>
    26c4:	20000011 	andcs	r0, r0, r1, lsl r0
    26c8:	77045101 	strvc	r5, [r4, -r1, lsl #2]
    26cc:	201a3200 	andscs	r3, sl, r0, lsl #4
    26d0:	76025001 	strvc	r5, [r2], -r1
    26d4:	19000000 	stmdbne	r0, {}	; <UNPREDICTABLE>
    26d8:	0000013f 	andeq	r0, r0, pc, lsr r1
    26dc:	000090f0 	strdeq	r9, [r0], -r0
    26e0:	0000001c 	andeq	r0, r0, ip, lsl r0
    26e4:	04081701 	streq	r1, [r8], #-1793	; 0x701
    26e8:	6a1a0000 	bvs	6826f0 <__bss_end__+0x676738>
    26ec:	11000001 	tstne	r0, r1
    26f0:	1b000019 	blne	275c <_start-0x58a4>
    26f4:	0000015f 	andeq	r0, r0, pc, asr r1
    26f8:	561b5401 	ldrpl	r5, [fp], -r1, lsl #8
    26fc:	08000001 	stmdaeq	r0, {r0}
    2700:	1a340077 	bne	d028e4 <__bss_end__+0xcf692c>
    2704:	9f1aff08 	svcls	0x001aff08
    2708:	00014b1b 	andeq	r4, r1, fp, lsl fp
    270c:	19560100 	ldmdbne	r6, {r8}^
    2710:	00000111 	andeq	r0, r0, r1, lsl r1
    2714:	000090fc 	strdeq	r9, [r0], -ip
    2718:	00000010 	andeq	r0, r0, r0, lsl r0
    271c:	03ef1a02 	mvneq	r1, #8192	; 0x2000
    2720:	281a0000 	ldmdacs	sl, {}	; <UNPREDICTABLE>
    2724:	33000001 	movwcc	r0, #1
    2728:	1b000019 	blne	2794 <_start-0x586c>
    272c:	0000011d 	andeq	r0, r0, sp, lsl r1
    2730:	fc1d5401 	ldc2	4, cr5, [sp], {1}
    2734:	04000090 	streq	r0, [r0], #-144	; 0x90
    2738:	1e000000 	cdpne	0, 0, cr0, cr0, cr0, {0}
    273c:	00000132 	andeq	r0, r0, r2, lsr r1
    2740:	00001955 	andeq	r1, r0, r5, asr r9
    2744:	fc1f0000 	ldc2	0, cr0, [pc], {-0}
    2748:	31000090 	swpcc	r0, r0, [r0]	; <UNPREDICTABLE>
    274c:	20000011 	andcs	r0, r0, r1, lsl r0
    2750:	77045101 	strvc	r5, [r4, -r1, lsl #2]
    2754:	201a3400 	andscs	r3, sl, r0, lsl #8
    2758:	76025001 	strvc	r5, [r2], -r1
    275c:	19000000 	stmdbne	r0, {}	; <UNPREDICTABLE>
    2760:	0000013f 	andeq	r0, r0, pc, lsr r1
    2764:	00009110 	andeq	r9, r0, r0, lsl r1
    2768:	0000001c 	andeq	r0, r0, ip, lsl r0
    276c:	04901901 	ldreq	r1, [r0], #2305	; 0x901
    2770:	6a1a0000 	bvs	682778 <__bss_end__+0x6767c0>
    2774:	68000001 	stmdavs	r0, {r0}
    2778:	1b000019 	blne	27e4 <_start-0x581c>
    277c:	0000015f 	andeq	r0, r0, pc, asr r1
    2780:	561b5401 	ldrpl	r5, [fp], -r1, lsl #8
    2784:	08000001 	stmdaeq	r0, {r0}
    2788:	1a380077 	bne	e0296c <__bss_end__+0xdf69b4>
    278c:	9f1aff08 	svcls	0x001aff08
    2790:	00014b1b 	andeq	r4, r1, fp, lsl fp
    2794:	19560100 	ldmdbne	r6, {r8}^
    2798:	00000111 	andeq	r0, r0, r1, lsl r1
    279c:	0000911c 	andeq	r9, r0, ip, lsl r1
    27a0:	00000010 	andeq	r0, r0, r0, lsl r0
    27a4:	04771a02 	ldrbteq	r1, [r7], #-2562	; 0xa02
    27a8:	281a0000 	ldmdacs	sl, {}	; <UNPREDICTABLE>
    27ac:	8d000001 	stchi	0, cr0, [r0, #-4]
    27b0:	1b000019 	blne	281c <_start-0x57e4>
    27b4:	0000011d 	andeq	r0, r0, sp, lsl r1
    27b8:	1c1d5401 	cfldrsne	mvf5, [sp], {1}
    27bc:	04000091 	streq	r0, [r0], #-145	; 0x91
    27c0:	1e000000 	cdpne	0, 0, cr0, cr0, cr0, {0}
    27c4:	00000132 	andeq	r0, r0, r2, lsr r1
    27c8:	000019b2 			; <UNDEFINED> instruction: 0x000019b2
    27cc:	1c1f0000 	ldcne	0, cr0, [pc], {-0}
    27d0:	31000091 	swpcc	r0, r1, [r0]	; <UNPREDICTABLE>
    27d4:	20000011 	andcs	r0, r0, r1, lsl r0
    27d8:	77045101 	strvc	r5, [r4, -r1, lsl #2]
    27dc:	201a3800 	andscs	r3, sl, r0, lsl #16
    27e0:	76025001 	strvc	r5, [r2], -r1
    27e4:	19000000 	stmdbne	r0, {}	; <UNPREDICTABLE>
    27e8:	0000013f 	andeq	r0, r0, pc, lsr r1
    27ec:	00009130 	andeq	r9, r0, r0, lsr r1
    27f0:	0000001c 	andeq	r0, r0, ip, lsl r0
    27f4:	05181b01 	ldreq	r1, [r8, #-2817]	; 0xb01
    27f8:	6a1a0000 	bvs	682800 <__bss_end__+0x676848>
    27fc:	c5000001 	strgt	r0, [r0, #-1]
    2800:	1b000019 	blne	286c <_start-0x5794>
    2804:	0000015f 	andeq	r0, r0, pc, asr r1
    2808:	561b5401 	ldrpl	r5, [fp], -r1, lsl #8
    280c:	08000001 	stmdaeq	r0, {r0}
    2810:	1a400077 	bne	10029f4 <__bss_end__+0xff6a3c>
    2814:	9f1aff08 	svcls	0x001aff08
    2818:	00014b1b 	andeq	r4, r1, fp, lsl fp
    281c:	19560100 	ldmdbne	r6, {r8}^
    2820:	00000111 	andeq	r0, r0, r1, lsl r1
    2824:	0000913c 	andeq	r9, r0, ip, lsr r1
    2828:	00000010 	andeq	r0, r0, r0, lsl r0
    282c:	04ff1a02 	ldrbteq	r1, [pc], #2562	; 2834 <_start-0x57cc>
    2830:	281a0000 	ldmdacs	sl, {}	; <UNPREDICTABLE>
    2834:	ec000001 	stc	0, cr0, [r0], {1}
    2838:	1b000019 	blne	28a4 <_start-0x575c>
    283c:	0000011d 	andeq	r0, r0, sp, lsl r1
    2840:	3c1d5401 	cfldrscc	mvf5, [sp], {1}
    2844:	04000091 	streq	r0, [r0], #-145	; 0x91
    2848:	1e000000 	cdpne	0, 0, cr0, cr0, cr0, {0}
    284c:	00000132 	andeq	r0, r0, r2, lsr r1
    2850:	00001a13 	andeq	r1, r0, r3, lsl sl
    2854:	3c1f0000 	ldccc	0, cr0, [pc], {-0}
    2858:	31000091 	swpcc	r0, r1, [r0]	; <UNPREDICTABLE>
    285c:	20000011 	andcs	r0, r0, r1, lsl r0
    2860:	77045101 	strvc	r5, [r4, -r1, lsl #2]
    2864:	201a4000 	andscs	r4, sl, r0
    2868:	76025001 	strvc	r5, [r2], -r1
    286c:	19000000 	stmdbne	r0, {}	; <UNPREDICTABLE>
    2870:	0000013f 	andeq	r0, r0, pc, lsr r1
    2874:	00009150 	andeq	r9, r0, r0, asr r1
    2878:	0000001c 	andeq	r0, r0, ip, lsl r0
    287c:	05a21d01 	streq	r1, [r2, #3329]!	; 0xd01
    2880:	6a1a0000 	bvs	682888 <__bss_end__+0x6768d0>
    2884:	26000001 	strcs	r0, [r0], -r1
    2888:	1b00001a 	blne	28f8 <_start-0x5708>
    288c:	0000015f 	andeq	r0, r0, pc, asr r1
    2890:	561b5401 	ldrpl	r5, [fp], -r1, lsl #8
    2894:	09000001 	stmdbeq	r0, {r0}
    2898:	20080077 	andcs	r0, r8, r7, ror r0
    289c:	1aff081a 	bne	fffc490c <__bss_end__+0xfffb8954>
    28a0:	014b1b9f 			; <UNDEFINED> instruction: 0x014b1b9f
    28a4:	56010000 	strpl	r0, [r1], -r0
    28a8:	00011119 	andeq	r1, r1, r9, lsl r1
    28ac:	00915c00 	addseq	r5, r1, r0, lsl #24
    28b0:	00001000 	andeq	r1, r0, r0
    28b4:	881a0200 	ldmdahi	sl, {r9}
    28b8:	1a000005 	bne	28d4 <_start-0x572c>
    28bc:	00000128 	andeq	r0, r0, r8, lsr #2
    28c0:	00001a50 	andeq	r1, r0, r0, asr sl
    28c4:	00011d1b 	andeq	r1, r1, fp, lsl sp
    28c8:	1d540100 	ldfnee	f0, [r4, #-0]
    28cc:	0000915c 	andeq	r9, r0, ip, asr r1
    28d0:	00000004 	andeq	r0, r0, r4
    28d4:	0001321e 	andeq	r3, r1, lr, lsl r2
    28d8:	001a7a00 	andseq	r7, sl, r0, lsl #20
    28dc:	1f000000 	svcne	0x00000000
    28e0:	0000915c 	andeq	r9, r0, ip, asr r1
    28e4:	00001131 	andeq	r1, r0, r1, lsr r1
    28e8:	05510120 	ldrbeq	r0, [r1, #-288]	; 0x120
    28ec:	20080077 	andcs	r0, r8, r7, ror r0
    28f0:	5001201a 	andpl	r2, r1, sl, lsl r0
    28f4:	00007602 	andeq	r7, r0, r2, lsl #12
    28f8:	013f1900 	teqeq	pc, r0, lsl #18
    28fc:	91700000 	cmnls	r0, r0
    2900:	001c0000 	andseq	r0, ip, r0
    2904:	1f010000 	svcne	0x00010000
    2908:	0000062c 	andeq	r0, r0, ip, lsr #12
    290c:	00016a1a 	andeq	r6, r1, sl, lsl sl
    2910:	001a8d00 	andseq	r8, sl, r0, lsl #26
    2914:	015f1b00 	cmpeq	pc, r0, lsl #22
    2918:	54010000 	strpl	r0, [r1], #-0
    291c:	0001561b 	andeq	r5, r1, fp, lsl r6
    2920:	00770900 	rsbseq	r0, r7, r0, lsl #18
    2924:	081a4008 	ldmdaeq	sl, {r3, lr}
    2928:	1b9f1aff 	blne	fe7c952c <__bss_end__+0xfe7bd574>
    292c:	0000014b 	andeq	r0, r0, fp, asr #2
    2930:	11195601 	tstne	r9, r1, lsl #12
    2934:	7c000001 	stcvc	0, cr0, [r0], {1}
    2938:	10000091 	mulne	r0, r1, r0
    293c:	02000000 	andeq	r0, r0, #0
    2940:	0006121a 	andeq	r1, r6, sl, lsl r2
    2944:	01281a00 	teqeq	r8, r0, lsl #20
    2948:	1aaf0000 	bne	febc2950 <__bss_end__+0xfebb6998>
    294c:	1d1b0000 	ldcne	0, cr0, [fp, #-0]
    2950:	01000001 	tsteq	r0, r1
    2954:	917c1d54 	cmnls	ip, r4, asr sp
    2958:	00040000 	andeq	r0, r4, r0
    295c:	321e0000 	andscc	r0, lr, #0
    2960:	d1000001 	tstle	r0, r1
    2964:	0000001a 	andeq	r0, r0, sl, lsl r0
    2968:	917c1f00 	cmnls	ip, r0, lsl #30
    296c:	11310000 	teqne	r1, r0
    2970:	01200000 	teqeq	r0, r0
    2974:	00770551 	rsbseq	r0, r7, r1, asr r5
    2978:	201a4008 	andscs	r4, sl, r8
    297c:	76025001 	strvc	r5, [r2], -r1
    2980:	19000000 	stmdbne	r0, {}	; <UNPREDICTABLE>
    2984:	0000013f 	andeq	r0, r0, pc, lsr r1
    2988:	00009190 	muleq	r0, r0, r1
    298c:	0000001c 	andeq	r0, r0, ip, lsl r0
    2990:	06ac2101 	strteq	r2, [ip], r1, lsl #2
    2994:	6a1b0000 	bvs	6c299c <__bss_end__+0x6b69e4>
    2998:	01000001 	tsteq	r0, r1
    299c:	015f1b58 	cmpeq	pc, r8, asr fp	; <UNPREDICTABLE>
    29a0:	54010000 	strpl	r0, [r1], #-0
    29a4:	0001561a 	andeq	r5, r1, sl, lsl r6
    29a8:	001ae400 	andseq	lr, sl, r0, lsl #8
    29ac:	014b1b00 	cmpeq	fp, r0, lsl #22
    29b0:	56010000 	strpl	r0, [r1], -r0
    29b4:	00011119 	andeq	r1, r1, r9, lsl r1
    29b8:	00919c00 	addseq	r9, r1, r0, lsl #24
    29bc:	00001000 	andeq	r1, r0, r0
    29c0:	921a0200 	andsls	r0, sl, #0, 4
    29c4:	1b000006 	blne	29e4 <_start-0x561c>
    29c8:	00000128 	andeq	r0, r0, r8, lsr #2
    29cc:	1d1b5801 	ldcne	8, cr5, [fp, #-4]
    29d0:	01000001 	tsteq	r0, r1
    29d4:	919c1d54 	orrsls	r1, ip, r4, asr sp
    29d8:	00040000 	andeq	r0, r4, r0
    29dc:	321e0000 	andscc	r0, lr, #0
    29e0:	17000001 	strne	r0, [r0, -r1]
    29e4:	0000001b 	andeq	r0, r0, fp, lsl r0
    29e8:	919c1f00 	orrsls	r1, ip, r0, lsl #30
    29ec:	11310000 	teqne	r1, r0
    29f0:	01200000 	teqeq	r0, r0
    29f4:	00770551 	rsbseq	r0, r7, r1, asr r5
    29f8:	201a8008 	andscs	r8, sl, r8
    29fc:	76025001 	strvc	r5, [r2], -r1
    2a00:	21000000 	mrscs	r0, (UNDEF: 0)
    2a04:	0000013f 	andeq	r0, r0, pc, lsr r1
    2a08:	000091b0 			; <UNDEFINED> instruction: 0x000091b0
    2a0c:	0000001c 	andeq	r0, r0, ip, lsl r0
    2a10:	6a1b2301 	bvs	6cb61c <__bss_end__+0x6bf664>
    2a14:	01000001 	tsteq	r0, r1
    2a18:	015f1b55 	cmpeq	pc, r5, asr fp	; <UNPREDICTABLE>
    2a1c:	54010000 	strpl	r0, [r1], #-0
    2a20:	0001561c 	andeq	r5, r1, ip, lsl r6
    2a24:	4b1b0100 	blmi	6c2e2c <__bss_end__+0x6b6e74>
    2a28:	01000001 	tsteq	r0, r1
    2a2c:	01111956 	tsteq	r1, r6, asr r9
    2a30:	91bc0000 			; <UNDEFINED> instruction: 0x91bc0000
    2a34:	00100000 	andseq	r0, r0, r0
    2a38:	1a020000 	bne	82a40 <__bss_end__+0x76a88>
    2a3c:	0000070b 	andeq	r0, r0, fp, lsl #14
    2a40:	0001281b 	andeq	r2, r1, fp, lsl r8
    2a44:	1b550100 	blne	1542e4c <__bss_end__+0x1536e94>
    2a48:	0000011d 	andeq	r0, r0, sp, lsl r1
    2a4c:	bc1d5401 	cfldrslt	mvf5, [sp], {1}
    2a50:	04000091 	streq	r0, [r0], #-145	; 0x91
    2a54:	1e000000 	cdpne	0, 0, cr0, cr0, cr0, {0}
    2a58:	00000132 	andeq	r0, r0, r2, lsr r1
    2a5c:	00001b2a 	andeq	r1, r0, sl, lsr #22
    2a60:	bc1f0000 	ldclt	0, cr0, [pc], {-0}
    2a64:	31000091 	swpcc	r0, r1, [r0]	; <UNPREDICTABLE>
    2a68:	20000011 	andcs	r0, r0, r1, lsl r0
    2a6c:	31015101 	tstcc	r1, r1, lsl #2
    2a70:	02500120 	subseq	r0, r0, #32, 2
    2a74:	00000076 	andeq	r0, r0, r6, ror r0
    2a78:	d9040600 	stmdble	r4, {r9, sl}
    2a7c:	22000000 	andcs	r0, r0, #0
    2a80:	00000aa1 	andeq	r0, r0, r1, lsr #21
    2a84:	00252701 	eoreq	r2, r5, r1, lsl #14
    2a88:	62030000 	andvs	r0, r3, #0
    2a8c:	0f000007 	svceq	0x00000007
    2a90:	01007872 	tsteq	r0, r2, ror r8
    2a94:	00002527 	andeq	r2, r0, r7, lsr #10
    2a98:	00760f00 	rsbseq	r0, r6, r0, lsl #30
    2a9c:	00252701 	eoreq	r2, r5, r1, lsl #14
    2aa0:	300e0000 	andcc	r0, lr, r0
    2aa4:	0100000a 	tsteq	r0, sl
    2aa8:	00002c27 	andeq	r2, r0, r7, lsr #24
    2aac:	06661100 	strbteq	r1, [r6], -r0, lsl #2
    2ab0:	28010000 	stmdacs	r1, {}	; <UNPREDICTABLE>
    2ab4:	0000002c 	andeq	r0, r0, ip, lsr #32
    2ab8:	09d12300 	ldmibeq	r1, {r8, r9, sp}^
    2abc:	34010000 	strcc	r0, [r1], #-0
    2ac0:	00000025 	andeq	r0, r0, r5, lsr #32
    2ac4:	000091d0 	ldrdeq	r9, [r0], -r0
    2ac8:	000001c8 	andeq	r0, r0, r8, asr #3
    2acc:	0b1e9c01 	bleq	7a9ad8 <__bss_end__+0x79db20>
    2ad0:	19130000 	ldmdbne	r3, {}	; <UNPREDICTABLE>
    2ad4:	01000006 	tsteq	r0, r6
    2ad8:	00072234 	andeq	r2, r7, r4, lsr r2
    2adc:	001b3d00 	andseq	r3, fp, r0, lsl #26
    2ae0:	0a301300 	beq	c076e8 <__bss_end__+0xbfb730>
    2ae4:	34010000 	strcc	r0, [r1], #-0
    2ae8:	00000025 	andeq	r0, r0, r5, lsr #32
    2aec:	00001b82 	andeq	r1, r0, r2, lsl #23
    2af0:	00787215 	rsbseq	r7, r8, r5, lsl r2
    2af4:	00253501 	eoreq	r3, r5, r1, lsl #10
    2af8:	55010000 	strpl	r0, [r1, #-0]
    2afc:	01007316 	tsteq	r0, r6, lsl r3
    2b00:	00002c3c 	andeq	r2, r0, ip, lsr ip
    2b04:	001ba000 	andseq	sl, fp, r0
    2b08:	00751600 	rsbseq	r1, r5, r0, lsl #12
    2b0c:	00683f01 	rsbeq	r3, r8, r1, lsl #30
    2b10:	1bb30000 	blne	fecc2b18 <__bss_end__+0xfecb6b60>
    2b14:	6e160000 	cdpvs	0, 1, cr0, cr6, cr0, {0}
    2b18:	2c400100 	stfcse	f0, [r0], {-0}
    2b1c:	c6000000 	strgt	r0, [r0], -r0
    2b20:	1600001b 			; <UNDEFINED> instruction: 0x1600001b
    2b24:	41010063 	tstmi	r1, r3, rrx
    2b28:	0000002c 	andeq	r0, r0, ip, lsr #32
    2b2c:	00001bdd 	ldrdeq	r1, [r0], -sp
    2b30:	00072819 	andeq	r2, r7, r9, lsl r8
    2b34:	0091e400 	addseq	lr, r1, r0, lsl #8
    2b38:	00003400 	andeq	r3, r0, r0, lsl #8
    2b3c:	3c380100 	ldfccs	f0, [r8], #-0
    2b40:	1a000008 	bne	2b68 <_start-0x5498>
    2b44:	0000074b 	andeq	r0, r0, fp, asr #14
    2b48:	00001c07 	andeq	r1, r0, r7, lsl #24
    2b4c:	0007421c 	andeq	r4, r7, ip, lsl r2
    2b50:	381b0000 	ldmdacc	fp, {}	; <UNPREDICTABLE>
    2b54:	01000007 	tsteq	r0, r7
    2b58:	91e41d55 	mvnls	r1, r5, asr sp
    2b5c:	00340000 	eorseq	r0, r4, r0
    2b60:	561e0000 	ldrpl	r0, [lr], -r0
    2b64:	25000007 	strcs	r0, [r0, #-7]
    2b68:	2400001c 	strcs	r0, [r0], #-28
    2b6c:	000091e8 	andeq	r9, r0, r8, ror #3
    2b70:	00001147 	andeq	r1, r0, r7, asr #2
    2b74:	0091f425 	addseq	pc, r1, r5, lsr #8
    2b78:	00115200 	andseq	r5, r1, r0, lsl #4
    2b7c:	00083100 	andeq	r3, r8, r0, lsl #2
    2b80:	50012000 	andpl	r2, r1, r0
    2b84:	00007502 	andeq	r7, r0, r2, lsl #10
    2b88:	00920024 	addseq	r0, r2, r4, lsr #32
    2b8c:	00114700 	andseq	r4, r1, r0, lsl #14
    2b90:	17000000 	strne	r0, [r0, -r0]
    2b94:	00009220 	andeq	r9, r0, r0, lsr #4
    2b98:	00000004 	andeq	r0, r0, r4
    2b9c:	00000859 	andeq	r0, r0, r9, asr r8
    2ba0:	000a7826 	andeq	r7, sl, r6, lsr #16
    2ba4:	2c3c0100 	ldfcss	f0, [ip], #-0
    2ba8:	43000000 	movwmi	r0, #0
    2bac:	0000001c 	andeq	r0, r0, ip, lsl r0
    2bb0:	00011119 	andeq	r1, r1, r9, lsl r1
    2bb4:	00922c00 	addseq	r2, r2, r0, lsl #24
    2bb8:	00001000 	andeq	r1, r0, r0
    2bbc:	92440100 	subls	r0, r4, #0, 2
    2bc0:	1a000008 	bne	2be8 <_start-0x5418>
    2bc4:	00000128 	andeq	r0, r0, r8, lsr #2
    2bc8:	00001c56 	andeq	r1, r0, r6, asr ip
    2bcc:	00011d1a 	andeq	r1, r1, sl, lsl sp
    2bd0:	001c7b00 	andseq	r7, ip, r0, lsl #22
    2bd4:	922c1d00 	eorls	r1, ip, #0, 26
    2bd8:	00040000 	andeq	r0, r4, r0
    2bdc:	321e0000 	andscc	r0, lr, #0
    2be0:	8e000001 	cdphi	0, 0, cr0, cr0, cr1, {0}
    2be4:	0000001c 	andeq	r0, r0, ip, lsl r0
    2be8:	01111900 	tsteq	r1, r0, lsl #18
    2bec:	924c0000 	subls	r0, ip, #0
    2bf0:	00100000 	andseq	r0, r0, r0
    2bf4:	48010000 	stmdami	r1, {}	; <UNPREDICTABLE>
    2bf8:	000008cb 	andeq	r0, r0, fp, asr #17
    2bfc:	0001281a 	andeq	r2, r1, sl, lsl r8
    2c00:	001ca100 	andseq	sl, ip, r0, lsl #2
    2c04:	011d1a00 	tsteq	sp, r0, lsl #20
    2c08:	1cb40000 	ldcne	0, cr0, [r4]
    2c0c:	4c1d0000 	ldcmi	0, cr0, [sp], {-0}
    2c10:	04000092 	streq	r0, [r0], #-146	; 0x92
    2c14:	1e000000 	cdpne	0, 0, cr0, cr0, cr0, {0}
    2c18:	00000132 	andeq	r0, r0, r2, lsr r1
    2c1c:	00001cc7 	andeq	r1, r0, r7, asr #25
    2c20:	11190000 	tstne	r9, r0
    2c24:	70000001 	andvc	r0, r0, r1
    2c28:	10000092 	mulne	r0, r2, r0
    2c2c:	01000000 	mrseq	r0, (UNDEF: 0)
    2c30:	0009044b 	andeq	r0, r9, fp, asr #8
    2c34:	01281a00 	teqeq	r8, r0, lsl #20
    2c38:	1cda0000 	ldclne	0, cr0, [sl], {0}
    2c3c:	1d1a0000 	ldcne	0, cr0, [sl, #-0]
    2c40:	ed000001 	stc	0, cr0, [r0, #-4]
    2c44:	1d00001c 	stcne	0, cr0, [r0, #-112]	; 0xffffff90
    2c48:	00009270 	andeq	r9, r0, r0, ror r2
    2c4c:	00000004 	andeq	r0, r0, r4
    2c50:	0001321e 	andeq	r3, r1, lr, lsl r2
    2c54:	001d0000 	andseq	r0, sp, r0
    2c58:	19000000 	stmdbne	r0, {}	; <UNPREDICTABLE>
    2c5c:	00000111 	andeq	r0, r0, r1, lsl r1
    2c60:	00009294 	muleq	r0, r4, r2
    2c64:	00000010 	andeq	r0, r0, r0, lsl r0
    2c68:	093d4e01 	ldmdbeq	sp!, {r0, r9, sl, fp, lr}
    2c6c:	281a0000 	ldmdacs	sl, {}	; <UNPREDICTABLE>
    2c70:	13000001 	movwne	r0, #1
    2c74:	1a00001d 	bne	2cf0 <_start-0x5310>
    2c78:	0000011d 	andeq	r0, r0, sp, lsl r1
    2c7c:	00001d26 	andeq	r1, r0, r6, lsr #26
    2c80:	0092941d 	addseq	r9, r2, sp, lsl r4
    2c84:	00000400 	andeq	r0, r0, r0, lsl #8
    2c88:	01321e00 	teqeq	r2, r0, lsl #28
    2c8c:	1d390000 	ldcne	0, cr0, [r9, #-0]
    2c90:	00000000 	andeq	r0, r0, r0
    2c94:	00011119 	andeq	r1, r1, r9, lsl r1
    2c98:	0092b800 	addseq	fp, r2, r0, lsl #16
    2c9c:	00001000 	andeq	r1, r0, r0
    2ca0:	76510100 	ldrbvc	r0, [r1], -r0, lsl #2
    2ca4:	1a000009 	bne	2cd0 <_start-0x5330>
    2ca8:	00000128 	andeq	r0, r0, r8, lsr #2
    2cac:	00001d4c 	andeq	r1, r0, ip, asr #26
    2cb0:	00011d1a 	andeq	r1, r1, sl, lsl sp
    2cb4:	001d5f00 	andseq	r5, sp, r0, lsl #30
    2cb8:	92b81d00 	adcsls	r1, r8, #0, 26
    2cbc:	00040000 	andeq	r0, r4, r0
    2cc0:	321e0000 	andscc	r0, lr, #0
    2cc4:	72000001 	andvc	r0, r0, #1
    2cc8:	0000001d 	andeq	r0, r0, sp, lsl r0
    2ccc:	01111900 	tsteq	r1, r0, lsl #18
    2cd0:	92dc0000 	sbcsls	r0, ip, #0
    2cd4:	00100000 	andseq	r0, r0, r0
    2cd8:	54010000 	strpl	r0, [r1], #-0
    2cdc:	000009af 	andeq	r0, r0, pc, lsr #19
    2ce0:	0001281a 	andeq	r2, r1, sl, lsl r8
    2ce4:	001d8500 	andseq	r8, sp, r0, lsl #10
    2ce8:	011d1a00 	tsteq	sp, r0, lsl #20
    2cec:	1d980000 	ldcne	0, cr0, [r8]
    2cf0:	dc1d0000 	ldcle	0, cr0, [sp], {-0}
    2cf4:	04000092 	streq	r0, [r0], #-146	; 0x92
    2cf8:	1e000000 	cdpne	0, 0, cr0, cr0, cr0, {0}
    2cfc:	00000132 	andeq	r0, r0, r2, lsr r1
    2d00:	00001dab 	andeq	r1, r0, fp, lsr #27
    2d04:	11190000 	tstne	r9, r0
    2d08:	00000001 	andeq	r0, r0, r1
    2d0c:	10000093 	mulne	r0, r3, r0
    2d10:	01000000 	mrseq	r0, (UNDEF: 0)
    2d14:	0009e857 	andeq	lr, r9, r7, asr r8
    2d18:	01281a00 	teqeq	r8, r0, lsl #20
    2d1c:	1dbe0000 	ldcne	0, cr0, [lr]
    2d20:	1d1a0000 	ldcne	0, cr0, [sl, #-0]
    2d24:	d1000001 	tstle	r0, r1
    2d28:	1d00001d 	stcne	0, cr0, [r0, #-116]	; 0xffffff8c
    2d2c:	00009300 	andeq	r9, r0, r0, lsl #6
    2d30:	00000004 	andeq	r0, r0, r4
    2d34:	0001321e 	andeq	r3, r1, lr, lsl r2
    2d38:	001de400 	andseq	lr, sp, r0, lsl #8
    2d3c:	19000000 	stmdbne	r0, {}	; <UNPREDICTABLE>
    2d40:	00000111 	andeq	r0, r0, r1, lsl r1
    2d44:	00009324 	andeq	r9, r0, r4, lsr #6
    2d48:	00000010 	andeq	r0, r0, r0, lsl r0
    2d4c:	0a1d5a01 	beq	759558 <__bss_end__+0x74d5a0>
    2d50:	281a0000 	ldmdacs	sl, {}	; <UNPREDICTABLE>
    2d54:	f7000001 			; <UNDEFINED> instruction: 0xf7000001
    2d58:	2700001d 	smladcs	r0, sp, r0, r0
    2d5c:	0000011d 	andeq	r0, r0, sp, lsl r1
    2d60:	0093241d 	addseq	r2, r3, sp, lsl r4
    2d64:	00000400 	andeq	r0, r0, r0, lsl #8
    2d68:	01321e00 	teqeq	r2, r0, lsl #28
    2d6c:	1e0a0000 	cdpne	0, 0, cr0, cr10, cr0, {0}
    2d70:	00000000 	andeq	r0, r0, r0
    2d74:	00072819 	andeq	r2, r7, r9, lsl r8
    2d78:	00934400 	addseq	r4, r3, r0, lsl #8
    2d7c:	00003400 	andeq	r3, r0, r0, lsl #8
    2d80:	81610100 	cmnhi	r1, r0, lsl #2
    2d84:	2700000a 	strcs	r0, [r0, -sl]
    2d88:	0000074b 	andeq	r0, r0, fp, asr #14
    2d8c:	0007421a 	andeq	r4, r7, sl, lsl r2
    2d90:	001e1d00 	andseq	r1, lr, r0, lsl #26
    2d94:	07381a00 	ldreq	r1, [r8, -r0, lsl #20]!
    2d98:	1e3d0000 	cdpne	0, 3, cr0, cr13, cr0, {0}
    2d9c:	441d0000 	ldrmi	r0, [sp], #-0
    2da0:	34000093 	strcc	r0, [r0], #-147	; 0x93
    2da4:	1e000000 	cdpne	0, 0, cr0, cr0, cr0, {0}
    2da8:	00000756 	andeq	r0, r0, r6, asr r7
    2dac:	00001e5b 	andeq	r1, r0, fp, asr lr
    2db0:	00934824 	addseq	r4, r3, r4, lsr #16
    2db4:	00114700 	andseq	r4, r1, r0, lsl #14
    2db8:	93542500 	cmpls	r4, #0, 10
    2dbc:	11520000 	cmpne	r2, r0
    2dc0:	0a760000 	beq	1d82dc8 <__bss_end__+0x1d76e10>
    2dc4:	01200000 	teqeq	r0, r0
    2dc8:	00750250 	rsbseq	r0, r5, r0, asr r2
    2dcc:	93602400 	cmnls	r0, #0, 8
    2dd0:	11470000 	mrsne	r0, (UNDEF: 71)
    2dd4:	00000000 	andeq	r0, r0, r0
    2dd8:	00924825 	addseq	r4, r2, r5, lsr #16
    2ddc:	00115200 	andseq	r5, r1, r0, lsl #4
    2de0:	000a9500 	andeq	r9, sl, r0, lsl #10
    2de4:	50012000 	andpl	r2, r1, r0
    2de8:	00007502 	andeq	r7, r0, r2, lsl #10
    2dec:	00926825 	addseq	r6, r2, r5, lsr #16
    2df0:	00115200 	andseq	r5, r1, r0, lsl #4
    2df4:	000aa900 	andeq	sl, sl, r0, lsl #18
    2df8:	50012000 	andpl	r2, r1, r0
    2dfc:	00007502 	andeq	r7, r0, r2, lsl #10
    2e00:	00928c25 	addseq	r8, r2, r5, lsr #24
    2e04:	00115200 	andseq	r5, r1, r0, lsl #4
    2e08:	000abd00 	andeq	fp, sl, r0, lsl #26
    2e0c:	50012000 	andpl	r2, r1, r0
    2e10:	00007502 	andeq	r7, r0, r2, lsl #10
    2e14:	0092b025 	addseq	fp, r2, r5, lsr #32
    2e18:	00115200 	andseq	r5, r1, r0, lsl #4
    2e1c:	000ad100 	andeq	sp, sl, r0, lsl #2
    2e20:	50012000 	andpl	r2, r1, r0
    2e24:	00007502 	andeq	r7, r0, r2, lsl #10
    2e28:	0092d425 	addseq	sp, r2, r5, lsr #8
    2e2c:	00115200 	andseq	r5, r1, r0, lsl #4
    2e30:	000ae500 	andeq	lr, sl, r0, lsl #10
    2e34:	50012000 	andpl	r2, r1, r0
    2e38:	00007502 	andeq	r7, r0, r2, lsl #10
    2e3c:	0092f825 	addseq	pc, r2, r5, lsr #16
    2e40:	00115200 	andseq	r5, r1, r0, lsl #4
    2e44:	000af900 	andeq	pc, sl, r0, lsl #18
    2e48:	50012000 	andpl	r2, r1, r0
    2e4c:	00007502 	andeq	r7, r0, r2, lsl #10
    2e50:	00931c25 	addseq	r1, r3, r5, lsr #24
    2e54:	00115200 	andseq	r5, r1, r0, lsl #4
    2e58:	000b0d00 	andeq	r0, fp, r0, lsl #26
    2e5c:	50012000 	andpl	r2, r1, r0
    2e60:	00007502 	andeq	r7, r0, r2, lsl #10
    2e64:	00933c1f 	addseq	r3, r3, pc, lsl ip
    2e68:	00115200 	andseq	r5, r1, r0, lsl #4
    2e6c:	50012000 	andpl	r2, r1, r0
    2e70:	00007502 	andeq	r7, r0, r2, lsl #10
    2e74:	09e62300 	stmibeq	r6!, {r8, r9, sp}^
    2e78:	6c010000 	stcvs	0, cr0, [r1], {-0}
    2e7c:	00000025 	andeq	r0, r0, r5, lsr #32
    2e80:	00009398 	muleq	r0, r8, r3
    2e84:	00000090 	muleq	r0, r0, r0
    2e88:	0c029c01 	stceq	12, cr9, [r2], {1}
    2e8c:	75140000 	ldrvc	r0, [r4, #-0]
    2e90:	226c0100 	rsbcs	r0, ip, #0, 2
    2e94:	79000007 	stmdbvc	r0, {r0, r1, r2}
    2e98:	1400001e 	strne	r0, [r0], #-30
    2e9c:	00667562 	rsbeq	r7, r6, r2, ror #10
    2ea0:	0c026c01 	stceq	12, cr6, [r2], {1}
    2ea4:	1ead0000 	cdpne	0, 10, cr0, cr13, cr0, {0}
    2ea8:	a6130000 	ldrge	r0, [r3], -r0
    2eac:	01000000 	mrseq	r0, (UNDEF: 0)
    2eb0:	0000686c 	andeq	r6, r0, ip, ror #16
    2eb4:	001ee100 	andseq	lr, lr, r0, lsl #2
    2eb8:	6e651400 	cdpvs	4, 6, cr1, cr5, cr0, {0}
    2ebc:	6c010064 	stcvs	0, cr0, [r1], {100}	; 0x64
    2ec0:	0000004f 	andeq	r0, r0, pc, asr #32
    2ec4:	00001f1a 	andeq	r1, r0, sl, lsl pc
    2ec8:	000a7d28 	andeq	r7, sl, r8, lsr #26
    2ecc:	686c0100 	stmdavs	ip!, {r8}^
    2ed0:	02000000 	andeq	r0, r0, #0
    2ed4:	79290091 	stmdbvc	r9!, {r0, r4, r7}
    2ed8:	18000001 	stmdane	r0, {r0}
    2edc:	0500000c 	streq	r0, [r0, #-12]
    2ee0:	00a68003 	adceq	r8, r6, r3
    2ee4:	00691600 	rsbeq	r1, r9, r0, lsl #12
    2ee8:	00257001 	eoreq	r7, r5, r1
    2eec:	1f540000 	svcne	0x00540000
    2ef0:	5b260000 	blpl	982ef8 <__bss_end__+0x976f40>
    2ef4:	0100000a 	tsteq	r0, sl
    2ef8:	00004f71 	andeq	r4, r0, r1, ror pc
    2efc:	001f7300 	andseq	r7, pc, r0, lsl #6
    2f00:	93b82400 			; <UNDEFINED> instruction: 0x93b82400
    2f04:	11670000 	cmnne	r7, r0
    2f08:	cc250000 	stcgt	0, cr0, [r5], #-0
    2f0c:	6e000093 	mcrvs	0, 0, r0, cr0, cr3, {4}
    2f10:	e2000011 	and	r0, r0, #17
    2f14:	2000000b 	andcs	r0, r0, fp
    2f18:	08025301 	stmdaeq	r2, {r0, r8, r9, ip, lr}
    2f1c:	5201206d 	andpl	r2, r1, #109	; 0x6d
    2f20:	a6800305 	strge	r0, [r0], r5, lsl #6
    2f24:	01200000 	teqeq	r0, r0
    2f28:	14030551 	strne	r0, [r3], #-1361	; 0x551
    2f2c:	200000a7 	andcs	r0, r0, r7, lsr #1
    2f30:	03055001 	movweq	r5, #20481	; 0x5001
    2f34:	0000a6f8 	strdeq	sl, [r0], -r8
    2f38:	93d02400 	bicsls	r2, r0, #0, 8
    2f3c:	11840000 	orrne	r0, r4, r0
    2f40:	ec1f0000 	ldc	0, cr0, [pc], {-0}
    2f44:	62000093 	andvs	r0, r0, #147	; 0x93
    2f48:	20000007 	andcs	r0, r0, r7
    2f4c:	7a025101 	bvc	97358 <__bss_end__+0x8b3a0>
    2f50:	50012000 	andpl	r2, r1, r0
    2f54:	00007802 	andeq	r7, r0, r2, lsl #16
    2f58:	4f040600 	svcmi	0x00040600
    2f5c:	2a000000 	bcs	2f64 <_start-0x509c>
    2f60:	00000090 	muleq	r0, r0, r0
    2f64:	00000c18 	andeq	r0, r0, r8, lsl ip
    2f68:	0000812b 	andeq	r8, r0, fp, lsr #2
    2f6c:	07001200 	streq	r1, [r0, -r0, lsl #4]
    2f70:	00000c08 	andeq	r0, r0, r8, lsl #24
    2f74:	000a6323 	andeq	r6, sl, r3, lsr #6
    2f78:	25800100 	strcs	r0, [r0, #256]	; 0x100
    2f7c:	28000000 	stmdacs	r0, {}	; <UNPREDICTABLE>
    2f80:	7c000094 	stcvc	0, cr0, [r0], {148}	; 0x94
    2f84:	01000000 	mrseq	r0, (UNDEF: 0)
    2f88:	000ce49c 	muleq	ip, ip, r4
    2f8c:	00751400 	rsbseq	r1, r5, r0, lsl #8
    2f90:	07228001 	streq	r8, [r2, -r1]!
    2f94:	1f860000 	svcne	0x00860000
    2f98:	62140000 	andsvs	r0, r4, #0
    2f9c:	01006675 	tsteq	r0, r5, ror r6
    2fa0:	000c0280 	andeq	r0, ip, r0, lsl #5
    2fa4:	001fba00 	andseq	fp, pc, r0, lsl #20
    2fa8:	00a61300 	adceq	r1, r6, r0, lsl #6
    2fac:	81010000 	mrshi	r0, (UNDEF: 1)
    2fb0:	00000068 	andeq	r0, r0, r8, rrx
    2fb4:	00001fee 	andeq	r1, r0, lr, ror #31
    2fb8:	000a7d13 	andeq	r7, sl, r3, lsl sp
    2fbc:	68810100 	stmvs	r1, {r8}
    2fc0:	27000000 	strcs	r0, [r0, -r0]
    2fc4:	29000020 	stmdbcs	r0, {r5}
    2fc8:	00000179 	andeq	r0, r0, r9, ror r1
    2fcc:	00000cf4 	strdeq	r0, [r0], -r4
    2fd0:	a6940305 	ldrge	r0, [r4], r5, lsl #6
    2fd4:	69160000 	ldmdbvs	r6, {}	; <UNPREDICTABLE>
    2fd8:	25860100 	strcs	r0, [r6, #256]	; 0x100
    2fdc:	5b000000 	blpl	2fe4 <_start-0x501c>
    2fe0:	24000020 	strcs	r0, [r0], #-32
    2fe4:	00009444 	andeq	r9, r0, r4, asr #8
    2fe8:	00001167 	andeq	r1, r0, r7, ror #2
    2fec:	00945825 	addseq	r5, r4, r5, lsr #16
    2ff0:	00116e00 	andseq	r6, r1, r0, lsl #28
    2ff4:	000cc400 	andeq	ip, ip, r0, lsl #8
    2ff8:	53012000 	movwpl	r2, #4096	; 0x1000
    2ffc:	20830802 	addcs	r0, r3, r2, lsl #16
    3000:	03055201 	movweq	r5, #20993	; 0x5201
    3004:	0000a694 	muleq	r0, r4, r6
    3008:	05510120 	ldrbeq	r0, [r1, #-288]	; 0x120
    300c:	00a71403 	adceq	r1, r7, r3, lsl #8
    3010:	50012000 	andpl	r2, r1, r0
    3014:	a6f80305 	ldrbtge	r0, [r8], r5, lsl #6
    3018:	24000000 	strcs	r0, [r0], #-0
    301c:	0000945c 	andeq	r9, r0, ip, asr r4
    3020:	00001184 	andeq	r1, r0, r4, lsl #3
    3024:	0094781f 	addseq	r7, r4, pc, lsl r8
    3028:	00076200 	andeq	r6, r7, r0, lsl #4
    302c:	51012000 	mrspl	r2, (UNDEF: 1)
    3030:	20007802 	andcs	r7, r0, r2, lsl #16
    3034:	77025001 	strvc	r5, [r2, -r1]
    3038:	2a000000 	bcs	3040 <_start-0x4fc0>
    303c:	00000090 	muleq	r0, r0, r0
    3040:	00000cf4 	strdeq	r0, [r0], -r4
    3044:	0000812b 	andeq	r8, r0, fp, lsr #2
    3048:	07001400 	streq	r1, [r0, -r0, lsl #8]
    304c:	00000ce4 	andeq	r0, r0, r4, ror #25
    3050:	000a1c23 	andeq	r1, sl, r3, lsr #24
    3054:	d9930100 	ldmible	r3, {r8}
    3058:	a4000000 	strge	r0, [r0], #-0
    305c:	c0000094 	mulgt	r0, r4, r0
    3060:	01000000 	mrseq	r0, (UNDEF: 0)
    3064:	000e149c 	muleq	lr, ip, r4
    3068:	78741400 	ldmdavc	r4!, {sl, ip}^
    306c:	4f930100 	svcmi	0x00930100
    3070:	7a000000 	bvc	3078 <_start-0x4f88>
    3074:	14000020 	strne	r0, [r0], #-32
    3078:	01007872 	tsteq	r0, r2, ror r8
    307c:	00004f93 	muleq	r0, r3, pc	; <UNPREDICTABLE>
    3080:	00209b00 	eoreq	r9, r0, r0, lsl #22
    3084:	06521300 	ldrbeq	r1, [r2], -r0, lsl #6
    3088:	93010000 	movwls	r0, #4096	; 0x1000
    308c:	00000068 	andeq	r0, r0, r8, rrx
    3090:	000020bc 	strheq	r2, [r0], -ip
    3094:	0009b528 	andeq	fp, r9, r8, lsr #10
    3098:	68930100 	ldmvs	r3, {r8}
    309c:	02000000 	andeq	r0, r0, #0
    30a0:	6d2c0091 	stcvs	0, cr0, [ip, #-580]!	; 0xfffffdbc
    30a4:	01007a68 	tsteq	r0, r8, ror #20
    30a8:	00002c9b 	muleq	r0, fp, ip
    30ac:	b9270000 	stmdblt	r7!, {}	; <UNPREDICTABLE>
    30b0:	0a062629 	beq	18c95c <__bss_end__+0x1809a4>
    30b4:	9c010000 	stcls	0, cr0, [r1], {-0}
    30b8:	0000002c 	andeq	r0, r0, ip, lsr #32
    30bc:	000020da 	ldrdeq	r2, [r0], -sl
    30c0:	00017929 	andeq	r7, r1, r9, lsr #18
    30c4:	000e2400 	andeq	r2, lr, r0, lsl #8
    30c8:	ac030500 	cfstr32ge	mvfx0, [r3], {-0}
    30cc:	170000a6 	strne	r0, [r0, -r6, lsr #1]
    30d0:	000094cc 	andeq	r9, r0, ip, asr #9
    30d4:	00000008 	andeq	r0, r0, r8
    30d8:	00000d91 	muleq	r0, r1, sp
    30dc:	006e692d 	rsbeq	r6, lr, sp, lsr #18
    30e0:	002c9701 	eoreq	r9, ip, r1, lsl #14
    30e4:	00010000 	andeq	r0, r1, r0
    30e8:	0094c425 	addseq	ip, r4, r5, lsr #8
    30ec:	00118b00 	andseq	r8, r1, r0, lsl #22
    30f0:	000da500 	andeq	sl, sp, r0, lsl #10
    30f4:	50012000 	andpl	r2, r1, r0
    30f8:	00007602 	andeq	r7, r0, r2, lsl #12
    30fc:	0094cc25 	addseq	ip, r4, r5, lsr #24
    3100:	00119c00 	andseq	r9, r1, r0, lsl #24
    3104:	000db900 	andeq	fp, sp, r0, lsl #18
    3108:	50012000 	andpl	r2, r1, r0
    310c:	00007802 	andeq	r7, r0, r2, lsl #16
    3110:	0094e025 	addseq	lr, r4, r5, lsr #32
    3114:	00113100 	andseq	r3, r1, r0, lsl #2
    3118:	000dd200 	andeq	sp, sp, r0, lsl #4
    311c:	51012000 	mrspl	r2, (UNDEF: 1)
    3120:	01203101 	teqeq	r0, r1, lsl #2
    3124:	00760250 	rsbseq	r0, r6, r0, asr r2
    3128:	95242400 	strls	r2, [r4, #-1024]!	; 0x400
    312c:	11670000 	cmnne	r7, r0
    3130:	38250000 	stmdacc	r5!, {}	; <UNPREDICTABLE>
    3134:	6e000095 	mcrvs	0, 0, r0, cr0, cr5, {4}
    3138:	0a000011 	beq	3184 <_start-0x4e7c>
    313c:	2000000e 	andcs	r0, r0, lr
    3140:	08025301 	stmdaeq	r2, {r0, r8, r9, ip, lr}
    3144:	5201209d 	andpl	r2, r1, #157	; 0x9d
    3148:	a6ac0305 	strtge	r0, [ip], r5, lsl #6
    314c:	01200000 	teqeq	r0, r0
    3150:	14030551 	strne	r0, [r3], #-1361	; 0x551
    3154:	200000a7 	andcs	r0, r0, r7, lsr #1
    3158:	03055001 	movweq	r5, #20481	; 0x5001
    315c:	0000a728 	andeq	sl, r0, r8, lsr #14
    3160:	953c2400 	ldrls	r2, [ip, #-1024]!	; 0x400
    3164:	11840000 	orrne	r0, r4, r0
    3168:	2a000000 	bcs	3170 <_start-0x4e90>
    316c:	00000090 	muleq	r0, r0, r0
    3170:	00000e24 	andeq	r0, r0, r4, lsr #28
    3174:	0000812b 	andeq	r8, r0, fp, lsr #2
    3178:	07001300 	streq	r1, [r0, -r0, lsl #6]
    317c:	00000e14 	andeq	r0, r0, r4, lsl lr
    3180:	0009f923 	andeq	pc, r9, r3, lsr #18
    3184:	25a90100 	strcs	r0, [r9, #256]!	; 0x100
    3188:	64000000 	strvs	r0, [r0], #-0
    318c:	3c000095 	stccc	0, cr0, [r0], {149}	; 0x95
    3190:	01000000 	mrseq	r0, (UNDEF: 0)
    3194:	000ecc9c 	muleq	lr, ip, ip
    3198:	06191300 	ldreq	r1, [r9], -r0, lsl #6
    319c:	a9010000 	stmdbge	r1, {}	; <UNPREDICTABLE>
    31a0:	00000722 	andeq	r0, r0, r2, lsr #14
    31a4:	00002108 	andeq	r2, r0, r8, lsl #2
    31a8:	73657216 	cmnvc	r5, #1610612737	; 0x60000001
    31ac:	25aa0100 	strcs	r0, [sl, #256]!	; 0x100
    31b0:	29000000 	stmdbcs	r0, {}	; <UNPREDICTABLE>
    31b4:	29000021 	stmdbcs	r0, {r0, r5}
    31b8:	00000179 	andeq	r0, r0, r9, ror r1
    31bc:	00000edc 	ldrdeq	r0, [r0], -ip
    31c0:	a6c00305 	strbge	r0, [r0], r5, lsl #6
    31c4:	70250000 	eorvc	r0, r5, r0
    31c8:	62000095 	andvs	r0, r0, #149	; 0x95
    31cc:	8a000007 	bhi	31f0 <_start-0x4e10>
    31d0:	2000000e 	andcs	r0, r0, lr
    31d4:	09025101 	stmdbeq	r2, {r0, r8, ip, lr}
    31d8:	500120ff 	strdpl	r2, [r1], -pc	; <UNPREDICTABLE>
    31dc:	5001f303 	andpl	pc, r1, r3, lsl #6
    31e0:	957c2400 	ldrbls	r2, [ip, #-1024]!	; 0x400
    31e4:	11670000 	cmnne	r7, r0
    31e8:	90250000 	eorls	r0, r5, r0
    31ec:	6e000095 	mcrvs	0, 0, r0, cr0, cr5, {4}
    31f0:	c2000011 	andgt	r0, r0, #17
    31f4:	2000000e 	andcs	r0, r0, lr
    31f8:	08025301 	stmdaeq	r2, {r0, r8, r9, ip, lr}
    31fc:	520120ac 	andpl	r2, r1, #172	; 0xac
    3200:	a6c00305 	strbge	r0, [r0], r5, lsl #6
    3204:	01200000 	teqeq	r0, r0
    3208:	14030551 	strne	r0, [r3], #-1361	; 0x551
    320c:	200000a7 	andcs	r0, r0, r7, lsr #1
    3210:	03055001 	movweq	r5, #20481	; 0x5001
    3214:	0000a76c 	andeq	sl, r0, ip, ror #14
    3218:	95942400 	ldrls	r2, [r4, #1024]	; 0x400
    321c:	11840000 	orrne	r0, r4, r0
    3220:	2a000000 	bcs	3228 <_start-0x4dd8>
    3224:	00000090 	muleq	r0, r0, r0
    3228:	00000edc 	ldrdeq	r0, [r0], -ip
    322c:	0000812b 	andeq	r8, r0, fp, lsr #2
    3230:	07000c00 	streq	r0, [r0, -r0, lsl #24]
    3234:	00000ecc 	andeq	r0, r0, ip, asr #29
    3238:	000a3d12 	andeq	r3, sl, r2, lsl sp
    323c:	a0b00100 	adcsge	r0, r0, r0, lsl #2
    3240:	2c000095 	stccs	0, cr0, [r0], {149}	; 0x95
    3244:	01000000 	mrseq	r0, (UNDEF: 0)
    3248:	000f259c 	muleq	pc, ip, r5	; <UNPREDICTABLE>
    324c:	06191300 	ldreq	r1, [r9], -r0, lsl #6
    3250:	b0010000 	andlt	r0, r1, r0
    3254:	00000722 	andeq	r0, r0, r2, lsr #14
    3258:	0000213c 	andeq	r2, r0, ip, lsr r1
    325c:	67736d14 			; <UNDEFINED> instruction: 0x67736d14
    3260:	97b00100 	ldrls	r0, [r0, r0, lsl #2]!
    3264:	5a000000 	bpl	326c <_start-0x4d94>
    3268:	1f000021 	svcne	0x00000021
    326c:	000095b8 			; <UNDEFINED> instruction: 0x000095b8
    3270:	00000176 	andeq	r0, r0, r6, ror r1
    3274:	02500120 	subseq	r0, r0, #32, 2
    3278:	00000075 	andeq	r0, r0, r5, ror r0
    327c:	00061e23 	andeq	r1, r6, r3, lsr #28
    3280:	25b90100 	ldrcs	r0, [r9, #256]!	; 0x100
    3284:	cc000000 	stcgt	0, cr0, [r0], {-0}
    3288:	84000095 	strhi	r0, [r0], #-149	; 0x95
    328c:	01000000 	mrseq	r0, (UNDEF: 0)
    3290:	0010199c 	mulseq	r0, ip, r9
    3294:	06191300 	ldreq	r1, [r9], -r0, lsl #6
    3298:	b9010000 	stmdblt	r1, {}	; <UNPREDICTABLE>
    329c:	00000722 	andeq	r0, r0, r2, lsr #14
    32a0:	00002178 	andeq	r2, r0, r8, ror r1
    32a4:	746d662e 	strbtvc	r6, [sp], #-1582	; 0x62e
    32a8:	97b90100 	ldrls	r0, [r9, r0, lsl #2]!
    32ac:	02000000 	andeq	r0, r0, #0
    32b0:	152f7491 	strne	r7, [pc, #-1169]!	; 2e27 <_start-0x51d9>
    32b4:	00667562 	rsbeq	r7, r6, r2, ror #10
    32b8:	1019ba01 	andsne	fp, r9, r1, lsl #20
    32bc:	91030000 	mrsls	r0, (UNDEF: 3)
    32c0:	21187c9c 			; <UNDEFINED> instruction: 0x21187c9c
    32c4:	0100000e 	tsteq	r0, lr
    32c8:	000106bc 			; <UNDEFINED> instruction: 0x000106bc
    32cc:	98910300 	ldmls	r1, {r8, r9}
    32d0:	7a73167c 	bvc	1cc8cc8 <__bss_end__+0x1cbcd10>
    32d4:	25be0100 	ldrcs	r0, [lr, #256]!	; 0x100
    32d8:	a4000000 	strge	r0, [r0], #-0
    32dc:	29000021 	stmdbcs	r0, {r0, r5}
    32e0:	00000179 	andeq	r0, r0, r9, ror r1
    32e4:	0000103a 	andeq	r1, r0, sl, lsr r0
    32e8:	a6d00305 	ldrbge	r0, [r0], r5, lsl #6
    32ec:	f4250000 	vld4.8	{d0-d3}, [r5], r0
    32f0:	ad000095 	stcge	0, cr0, [r0, #-596]	; 0xfffffdac
    32f4:	c0000011 	andgt	r0, r0, r1, lsl r0
    32f8:	2000000f 	andcs	r0, r0, pc
    32fc:	91025301 	tstls	r2, r1, lsl #6
    3300:	52012058 	andpl	r2, r1, #88	; 0x58
    3304:	06549103 	ldrbeq	r9, [r4], -r3, lsl #2
    3308:	03510120 	cmpeq	r1, #32, 2
    330c:	2001cc0a 	andcs	ip, r1, sl, lsl #24
    3310:	91035001 	tstls	r3, r1
    3314:	24007bfc 	strcs	r7, [r0], #-3068	; 0xbfc
    3318:	00009608 	andeq	r9, r0, r8, lsl #12
    331c:	00001167 	andeq	r1, r0, r7, ror #2
    3320:	00961c25 	addseq	r1, r6, r5, lsr #24
    3324:	00116e00 	andseq	r6, r1, r0, lsl #28
    3328:	000ff800 	andeq	pc, pc, r0, lsl #16
    332c:	53012000 	movwpl	r2, #4096	; 0x1000
    3330:	20c00802 	sbccs	r0, r0, r2, lsl #16
    3334:	03055201 	movweq	r5, #20993	; 0x5201
    3338:	0000a6d0 	ldrdeq	sl, [r0], -r0
    333c:	05510120 	ldrbeq	r0, [r1, #-288]	; 0x120
    3340:	00a71403 	adceq	r1, r7, r3, lsl #8
    3344:	50012000 	andpl	r2, r1, r0
    3348:	a7a40305 	strge	r0, [r4, r5, lsl #6]!
    334c:	24000000 	strcs	r0, [r0], #-0
    3350:	00009620 	andeq	r9, r0, r0, lsr #12
    3354:	00001184 	andeq	r1, r0, r4, lsl #3
    3358:	00962c1f 	addseq	r2, r6, pc, lsl ip
    335c:	000ee100 	andeq	lr, lr, r0, lsl #2
    3360:	51012000 	mrspl	r2, (UNDEF: 1)
    3364:	7bfc9103 	blvc	fff27778 <__bss_end__+0xfff1b7c0>
    3368:	02500120 	subseq	r0, r0, #32, 2
    336c:	00000075 	andeq	r0, r0, r5, ror r0
    3370:	0000902a 	andeq	r9, r0, sl, lsr #32
    3374:	00102a00 	andseq	r2, r0, r0, lsl #20
    3378:	00813000 	addeq	r3, r1, r0
    337c:	01cb0000 	biceq	r0, fp, r0
    3380:	00902a00 	addseq	r2, r0, r0, lsl #20
    3384:	103a0000 	eorsne	r0, sl, r0
    3388:	812b0000 	teqhi	fp, r0
    338c:	0e000000 	cdpeq	0, 0, cr0, cr0, cr0, {0}
    3390:	102a0700 	eorne	r0, sl, r0, lsl #14
    3394:	8a230000 	bhi	8c339c <__bss_end__+0x8b73e4>
    3398:	0100000a 	tsteq	r0, sl
    339c:	000025c5 	andeq	r2, r0, r5, asr #11
    33a0:	00965000 	addseq	r5, r6, r0
    33a4:	00004c00 	andeq	r4, r0, r0, lsl #24
    33a8:	1c9c0100 	ldfnes	f0, [ip], {0}
    33ac:	14000011 	strne	r0, [r0], #-17
    33b0:	c5010075 	strgt	r0, [r1, #-117]	; 0x75
    33b4:	00000722 	andeq	r0, r0, r2, lsr #14
    33b8:	000021e3 	andeq	r2, r0, r3, ror #3
    33bc:	66756214 			; <UNDEFINED> instruction: 0x66756214
    33c0:	02c50100 	sbceq	r0, r5, #0, 2
    33c4:	0400000c 	streq	r0, [r0], #-12
    33c8:	13000022 	movwne	r0, #34	; 0x22
    33cc:	000000a6 	andeq	r0, r0, r6, lsr #1
    33d0:	0068c501 	rsbeq	ip, r8, r1, lsl #10
    33d4:	22250000 	eorcs	r0, r5, #0
    33d8:	65140000 	ldrvs	r0, [r4, #-0]
    33dc:	0100646e 	tsteq	r0, lr, ror #8
    33e0:	00004fc5 	andeq	r4, r0, r5, asr #31
    33e4:	00224600 	eoreq	r4, r2, r0, lsl #12
    33e8:	65721600 	ldrbvs	r1, [r2, #-1536]!	; 0x600
    33ec:	c6010073 			; <UNDEFINED> instruction: 0xc6010073
    33f0:	00000025 	andeq	r0, r0, r5, lsr #32
    33f4:	00002267 	andeq	r2, r0, r7, ror #4
    33f8:	00017929 	andeq	r7, r1, r9, lsr #18
    33fc:	00112c00 	andseq	r2, r1, r0, lsl #24
    3400:	e0030500 	and	r0, r3, r0, lsl #10
    3404:	250000a6 	strcs	r0, [r0, #-166]	; 0xa6
    3408:	00009664 	andeq	r9, r0, r4, ror #12
    340c:	00000b1e 	andeq	r0, r0, lr, lsl fp
    3410:	000010da 	ldrdeq	r1, [r0], -sl
    3414:	03520120 	cmpeq	r2, #32, 2
    3418:	205201f3 	ldrshcs	r0, [r2], #-19	; 0xffffffed
    341c:	f3035101 	vrhadd.u8	d5, d3, d1
    3420:	01205101 	teqeq	r0, r1, lsl #2
    3424:	01f30350 	mvnseq	r0, r0, asr r3
    3428:	7d022050 	stcvc	0, cr2, [r2, #-320]	; 0xfffffec0
    342c:	ff090200 			; <UNDEFINED> instruction: 0xff090200
    3430:	96702400 	ldrbtls	r2, [r0], -r0, lsl #8
    3434:	11670000 	cmnne	r7, r0
    3438:	84250000 	strthi	r0, [r5], #-0
    343c:	6e000096 	mcrvs	0, 0, r0, cr0, cr6, {4}
    3440:	12000011 	andne	r0, r0, #17
    3444:	20000011 	andcs	r0, r0, r1, lsl r0
    3448:	08025301 	stmdaeq	r2, {r0, r8, r9, ip, lr}
    344c:	520120c8 	andpl	r2, r1, #200	; 0xc8
    3450:	a6e00305 	strbtge	r0, [r0], r5, lsl #6
    3454:	01200000 	teqeq	r0, r0
    3458:	14030551 	strne	r0, [r3], #-1361	; 0x551
    345c:	200000a7 	andcs	r0, r0, r7, lsr #1
    3460:	03055001 	movweq	r5, #20481	; 0x5001
    3464:	0000a76c 	andeq	sl, r0, ip, ror #14
    3468:	96882400 	strls	r2, [r8], r0, lsl #8
    346c:	11840000 	orrne	r0, r4, r0
    3470:	2a000000 	bcs	3478 <_start-0x4b88>
    3474:	00000090 	muleq	r0, r0, r0
    3478:	0000112c 	andeq	r1, r0, ip, lsr #2
    347c:	0000812b 	andeq	r8, r0, fp, lsr #2
    3480:	07001600 	streq	r1, [r0, -r0, lsl #12]
    3484:	0000111c 	andeq	r1, r0, ip, lsl r1
    3488:	0002d731 	andeq	sp, r2, r1, lsr r7
    348c:	47210600 	strmi	r0, [r1, -r0, lsl #12]!
    3490:	32000011 	andcc	r0, r0, #17
    3494:	0000002c 	andeq	r0, r0, ip, lsr #32
    3498:	00002c32 	andeq	r2, r0, r2, lsr ip
    349c:	44330000 	ldrtmi	r0, [r3], #-0
    34a0:	07000007 	streq	r0, [r0, -r7]
    34a4:	00002c57 	andeq	r2, r0, r7, asr ip
    34a8:	01f13400 	mvnseq	r3, r0, lsl #8
    34ac:	24060000 	strcs	r0, [r6], #-0
    34b0:	00000025 	andeq	r0, r0, r5, lsr #32
    34b4:	00001167 	andeq	r1, r0, r7, ror #2
    34b8:	00002c32 	andeq	r2, r0, r2, lsr ip
    34bc:	6a350000 	bvs	d434c4 <__bss_end__+0xd3750c>
    34c0:	07000001 	streq	r0, [r0, -r1]
    34c4:	04c5341e 	strbeq	r3, [r5], #1054	; 0x41e
    34c8:	29070000 	stmdbcs	r7, {}	; <UNPREDICTABLE>
    34cc:	00000025 	andeq	r0, r0, r5, lsr #32
    34d0:	00001184 	andeq	r1, r0, r4, lsl #3
    34d4:	00009732 	andeq	r9, r0, r2, lsr r7
    34d8:	35002f00 	strcc	r2, [r0, #-3840]	; 0xf00
    34dc:	00000204 	andeq	r0, r0, r4, lsl #4
    34e0:	43316607 	teqmi	r1, #7340032	; 0x700000
    34e4:	06000004 	streq	r0, [r0], -r4
    34e8:	00119c1d 	andseq	r9, r1, sp, lsl ip
    34ec:	002c3200 	eoreq	r3, ip, r0, lsl #4
    34f0:	31000000 	mrscc	r0, (UNDEF: 0)
    34f4:	000003a5 	andeq	r0, r0, r5, lsr #7
    34f8:	11ad1c06 			; <UNDEFINED> instruction: 0x11ad1c06
    34fc:	2c320000 	ldccs	0, cr0, [r2], #-0
    3500:	00000000 	andeq	r0, r0, r0
    3504:	0004c236 	andeq	ip, r4, r6, lsr r2
    3508:	25020800 	strcs	r0, [r2, #-2048]	; 0x800
    350c:	32000000 	andcc	r0, r0, #0
    3510:	0000008a 	andeq	r0, r0, sl, lsl #1
    3514:	00002532 	andeq	r2, r0, r2, lsr r5
    3518:	00973200 	addseq	r3, r7, r0, lsl #4
    351c:	06320000 	ldrteq	r0, [r2], -r0
    3520:	00000001 	andeq	r0, r0, r1
    3524:	0003ff00 	andeq	pc, r3, r0, lsl #30
    3528:	88000400 	stmdahi	r0, {sl}
    352c:	0400000f 	streq	r0, [r0], #-15
    3530:	00034e01 	andeq	r4, r3, r1, lsl #28
    3534:	0b820100 	bleq	fe08393c <__bss_end__+0xfe077984>
    3538:	04d60000 	ldrbeq	r0, [r6], #0
    353c:	969c0000 	ldrls	r0, [ip], r0
    3540:	01540000 	cmpeq	r4, r0
    3544:	0e600000 	cdpeq	0, 6, cr0, cr0, cr0, {0}
    3548:	04020000 	streq	r0, [r2], #-0
    354c:	746e6905 	strbtvc	r6, [lr], #-2309	; 0x905
    3550:	07040300 	streq	r0, [r4, -r0, lsl #6]
    3554:	00000046 	andeq	r0, r0, r6, asr #32
    3558:	a8060103 	stmdage	r6, {r0, r1, r8}
    355c:	03000002 	movweq	r0, #2
    3560:	02cd0502 	sbceq	r0, sp, #8388608	; 0x800000
    3564:	04030000 	streq	r0, [r3], #-0
    3568:	00009d05 	andeq	r9, r0, r5, lsl #26
    356c:	05080300 	streq	r0, [r8, #-768]	; 0x300
    3570:	00000098 	muleq	r0, r8, r0
    3574:	a6080103 	strge	r0, [r8], -r3, lsl #2
    3578:	03000002 	movweq	r0, #2
    357c:	01a20702 			; <UNDEFINED> instruction: 0x01a20702
    3580:	04030000 	streq	r0, [r3], #-0
    3584:	00004107 	andeq	r4, r0, r7, lsl #2
    3588:	07080300 	streq	r0, [r8, -r0, lsl #6]
    358c:	0000003c 	andeq	r0, r0, ip, lsr r0
    3590:	33070403 	movwcc	r0, #29699	; 0x7403
    3594:	03000002 	movweq	r0, #2
    3598:	02af0801 	adceq	r0, pc, #65536	; 0x10000
    359c:	01040000 	mrseq	r0, (UNDEF: 4)
    35a0:	00b20c02 	adcseq	r0, r2, r2, lsl #24
    35a4:	e2050000 	and	r0, r5, #0
    35a8:	00000007 	andeq	r0, r0, r7
    35ac:	00090d05 	andeq	r0, r9, r5, lsl #26
    35b0:	46050100 	strmi	r0, [r5], -r0, lsl #2
    35b4:	04000009 	streq	r0, [r0], #-9
    35b8:	00095505 	andeq	r5, r9, r5, lsl #10
    35bc:	64050500 	strvs	r0, [r5], #-1280	; 0x500
    35c0:	06000009 	streq	r0, [r0], -r9
    35c4:	00097305 	andeq	r7, r9, r5, lsl #6
    35c8:	82050700 	andhi	r0, r5, #0, 14
    35cc:	03000009 	movweq	r0, #9
    35d0:	00099105 	andeq	r9, r9, r5, lsl #2
    35d4:	06000200 	streq	r0, [r0], -r0, lsl #4
    35d8:	0000093a 	andeq	r0, r0, sl, lsr r9
    35dc:	00791502 	rsbseq	r1, r9, r2, lsl #10
    35e0:	09070000 	stmdbeq	r7, {}	; <UNPREDICTABLE>
    35e4:	0100000b 	tsteq	r0, fp
    35e8:	00969c37 	addseq	r9, r6, r7, lsr ip
    35ec:	00009c00 	andeq	r9, r0, r0, lsl #24
    35f0:	c39c0100 	orrsgt	r0, ip, #0, 2
    35f4:	08000001 	stmdaeq	r0, {r0}
    35f8:	000096a4 	andeq	r9, r0, r4, lsr #13
    35fc:	000003a8 	andeq	r0, r0, r8, lsr #7
    3600:	0096b009 	addseq	fp, r6, r9
    3604:	0003af00 	andeq	sl, r3, r0, lsl #30
    3608:	0000f300 	andeq	pc, r0, r0, lsl #6
    360c:	51010a00 	tstpl	r1, r0, lsl #20
    3610:	010a3201 	tsteq	sl, r1, lsl #4
    3614:	003e0150 	eorseq	r0, lr, r0, asr r1
    3618:	0096bc09 	addseq	fp, r6, r9, lsl #24
    361c:	0003af00 	andeq	sl, r3, r0, lsl #30
    3620:	00010b00 	andeq	r0, r1, r0, lsl #22
    3624:	51010a00 	tstpl	r1, r0, lsl #20
    3628:	010a3201 	tsteq	sl, r1, lsl #4
    362c:	003f0150 	eorseq	r0, pc, r0, asr r1	; <UNPREDICTABLE>
    3630:	0096c008 	addseq	ip, r6, r8
    3634:	0003a800 	andeq	sl, r3, r0, lsl #16
    3638:	96d00900 	ldrbls	r0, [r0], r0, lsl #18
    363c:	03c50000 	biceq	r0, r5, #0
    3640:	01280000 	teqeq	r8, r0
    3644:	010a0000 	mrseq	r0, (UNDEF: 10)
    3648:	00750250 	rsbseq	r0, r5, r0, asr r2
    364c:	96dc0900 	ldrbls	r0, [ip], r0, lsl #18
    3650:	03e60000 	mvneq	r0, #0
    3654:	013c0000 	teqeq	ip, r0
    3658:	010a0000 	mrseq	r0, (UNDEF: 10)
    365c:	00750250 	rsbseq	r0, r5, r0, asr r2
    3660:	96e00800 	strbtls	r0, [r0], r0, lsl #16
    3664:	03a80000 			; <UNDEFINED> instruction: 0x03a80000
    3668:	ec090000 	stc	0, cr0, [r9], {-0}
    366c:	e6000096 			; <UNDEFINED> instruction: 0xe6000096
    3670:	58000003 	stmdapl	r0, {r0, r1}
    3674:	0a000001 	beq	3680 <_start-0x4980>
    3678:	30015101 	andcc	r5, r1, r1, lsl #2
    367c:	96f80900 	ldrbtls	r0, [r8], r0, lsl #18
    3680:	03e60000 	mvneq	r0, #0
    3684:	016b0000 	cmneq	fp, r0
    3688:	010a0000 	mrseq	r0, (UNDEF: 10)
    368c:	00300151 	eorseq	r0, r0, r1, asr r1
    3690:	00970409 	addseq	r0, r7, r9, lsl #8
    3694:	0003e600 	andeq	lr, r3, r0, lsl #12
    3698:	00017e00 	andeq	r7, r1, r0, lsl #28
    369c:	51010a00 	tstpl	r1, r0, lsl #20
    36a0:	09003601 	stmdbeq	r0, {r0, r9, sl, ip, sp}
    36a4:	00009710 	andeq	r9, r0, r0, lsl r7
    36a8:	000003e6 	andeq	r0, r0, r6, ror #7
    36ac:	00000191 	muleq	r0, r1, r1
    36b0:	0151010a 	cmpeq	r1, sl, lsl #2
    36b4:	1c090033 	stcne	0, cr0, [r9], {51}	; 0x33
    36b8:	e6000097 			; <UNDEFINED> instruction: 0xe6000097
    36bc:	a6000003 	strge	r0, [r0], -r3
    36c0:	0a000001 	beq	36cc <_start-0x4934>
    36c4:	0a035101 	beq	d7ad0 <__bss_end__+0xcbb18>
    36c8:	0900010e 	stmdbeq	r0, {r1, r2, r3, r8}
    36cc:	00009728 	andeq	r9, r0, r8, lsr #14
    36d0:	000003e6 	andeq	r0, r0, r6, ror #7
    36d4:	000001b9 			; <UNDEFINED> instruction: 0x000001b9
    36d8:	0151010a 	cmpeq	r1, sl, lsl #2
    36dc:	2c080033 	stccs	0, cr0, [r8], {51}	; 0x33
    36e0:	a8000097 	stmdage	r0, {r0, r1, r2, r4, r7}
    36e4:	00000003 	andeq	r0, r0, r3
    36e8:	000add0b 	andeq	sp, sl, fp, lsl #26
    36ec:	25570100 	ldrbcs	r0, [r7, #-256]	; 0x100
    36f0:	38000000 	stmdacc	r0, {}	; <UNPREDICTABLE>
    36f4:	1c000097 	stcne	0, cr0, [r0], {151}	; 0x97
    36f8:	01000000 	mrseq	r0, (UNDEF: 0)
    36fc:	0001e69c 	muleq	r1, ip, r6
    3700:	97480800 	strbls	r0, [r8, -r0, lsl #16]
    3704:	03c50000 	biceq	r0, r5, #0
    3708:	0b000000 	bleq	3710 <_start-0x48f0>
    370c:	000009fc 	strdeq	r0, [r0], -ip
    3710:	00255d01 	eoreq	r5, r5, r1, lsl #26
    3714:	97540000 	ldrbls	r0, [r4, -r0]
    3718:	00280000 	eoreq	r0, r8, r0
    371c:	9c010000 	stcls	0, cr0, [r1], {-0}
    3720:	00000212 	andeq	r0, r0, r2, lsl r2
    3724:	00975c08 	addseq	r5, r7, r8, lsl #24
    3728:	0001c300 	andeq	ip, r1, r0, lsl #6
    372c:	97700800 	ldrbls	r0, [r0, -r0, lsl #16]!
    3730:	03c50000 	biceq	r0, r5, #0
    3734:	0b000000 	bleq	373c <_start-0x48c4>
    3738:	00000b31 	andeq	r0, r0, r1, lsr fp
    373c:	00256401 	eoreq	r6, r5, r1, lsl #8
    3740:	977c0000 	ldrbls	r0, [ip, -r0]!
    3744:	001c0000 	andseq	r0, ip, r0
    3748:	9c010000 	stcls	0, cr0, [r1], {-0}
    374c:	00000235 	andeq	r0, r0, r5, lsr r2
    3750:	00978c08 	addseq	r8, r7, r8, lsl #24
    3754:	0003c500 	andeq	ip, r3, r0, lsl #10
    3758:	7a070000 	bvc	1c3760 <__bss_end__+0x1b77a8>
    375c:	01000006 	tsteq	r0, r6
    3760:	0097986a 	addseq	r9, r7, sl, ror #16
    3764:	00002c00 	andeq	r2, r0, r0, lsl #24
    3768:	719c0100 	orrsvc	r0, ip, r0, lsl #2
    376c:	0c000002 	stceq	0, cr0, [r0], {2}
    3770:	6a010063 	bvs	43904 <__bss_end__+0x3794c>
    3774:	0000002c 	andeq	r0, r0, ip, lsr #32
    3778:	00002285 	andeq	r2, r0, r5, lsl #5
    377c:	0097a408 	addseq	sl, r7, r8, lsl #8
    3780:	00021200 	andeq	r1, r2, r0, lsl #4
    3784:	97bc0d00 	ldrls	r0, [ip, r0, lsl #26]!
    3788:	03e60000 	mvneq	r0, #0
    378c:	010a0000 	mrseq	r0, (UNDEF: 10)
    3790:	00740251 	rsbseq	r0, r4, r1, asr r2
    3794:	fb0b0000 	blx	2c379e <__bss_end__+0x2b77e6>
    3798:	0100000a 	tsteq	r0, sl
    379c:	00002574 	andeq	r2, r0, r4, ror r5
    37a0:	0097c400 	addseq	ip, r7, r0, lsl #8
    37a4:	00000c00 	andeq	r0, r0, r0, lsl #24
    37a8:	949c0100 	ldrls	r0, [ip], #256	; 0x100
    37ac:	08000002 	stmdaeq	r0, {r1}
    37b0:	000097cc 	andeq	r9, r0, ip, asr #15
    37b4:	000001c3 	andeq	r0, r0, r3, asr #3
    37b8:	0bae0b00 	bleq	feb863c0 <__bss_end__+0xfeb7a408>
    37bc:	78010000 	stmdavc	r1, {}	; <UNPREDICTABLE>
    37c0:	00000025 	andeq	r0, r0, r5, lsr #32
    37c4:	000097d0 	ldrdeq	r9, [r0], -r0
    37c8:	00000020 	andeq	r0, r0, r0, lsr #32
    37cc:	02c09c01 	sbceq	r9, r0, #256	; 0x100
    37d0:	d8080000 	stmdale	r8, {}	; <UNPREDICTABLE>
    37d4:	71000097 	swpvc	r0, r7, [r0]	; <UNPREDICTABLE>
    37d8:	08000002 	stmdaeq	r0, {r1}
    37dc:	000097e4 	andeq	r9, r0, r4, ror #15
    37e0:	000001e6 	andeq	r0, r0, r6, ror #3
    37e4:	0b4b0e00 	bleq	12c6fec <__bss_end__+0x12bb034>
    37e8:	16010000 	strne	r0, [r1], -r0
    37ec:	000002d1 	ldrdeq	r0, [r0], -r1
    37f0:	a4640305 	strbtge	r0, [r4], #-773	; 0x305
    37f4:	040f0000 	streq	r0, [pc], #-0	; 37fc <_start-0x4804>
    37f8:	000002d7 	ldrdeq	r0, [r0], -r7
    37fc:	00002c10 	andeq	r2, r0, r0, lsl ip
    3800:	0b3f0e00 	bleq	fc7008 <__bss_end__+0xfbb050>
    3804:	17010000 	strne	r0, [r1, -r0]
    3808:	000002d1 	ldrdeq	r0, [r0], -r1
    380c:	a4340305 	ldrtge	r0, [r4], #-773	; 0x305
    3810:	c00e0000 	andgt	r0, lr, r0
    3814:	0100000a 	tsteq	r0, sl
    3818:	0002d11a 	andeq	sp, r2, sl, lsl r1
    381c:	50030500 	andpl	r0, r3, r0, lsl #10
    3820:	0e0000a4 	cdpeq	0, 0, cr0, cr0, cr4, {5}
    3824:	00000b13 	andeq	r0, r0, r3, lsl fp
    3828:	02d11b01 	sbcseq	r1, r1, #1024	; 0x400
    382c:	03050000 	movweq	r0, #20480	; 0x5000
    3830:	0000a43c 	andeq	sl, r0, ip, lsr r4
    3834:	000b220e 	andeq	r2, fp, lr, lsl #4
    3838:	d11c0100 	tstle	ip, r0, lsl #2
    383c:	05000002 	streq	r0, [r0, #-2]
    3840:	00a44003 	adceq	r4, r4, r3
    3844:	0b900e00 	bleq	fe40704c <__bss_end__+0xfe3fb094>
    3848:	1d010000 	stcne	0, cr0, [r1, #-0]
    384c:	000002d1 	ldrdeq	r0, [r0], -r1
    3850:	a4440305 	strbge	r0, [r4], #-773	; 0x305
    3854:	b10e0000 	mrslt	r0, (UNDEF: 14)
    3858:	0100000a 	tsteq	r0, sl
    385c:	0002d11e 	andeq	sp, r2, lr, lsl r1
    3860:	60030500 	andvs	r0, r3, r0, lsl #10
    3864:	0e0000a4 	cdpeq	0, 0, cr0, cr0, cr4, {5}
    3868:	00000b9f 	muleq	r0, pc, fp	; <UNPREDICTABLE>
    386c:	02d11f01 	sbcseq	r1, r1, #1, 30
    3870:	03050000 	movweq	r0, #20480	; 0x5000
    3874:	0000a44c 	andeq	sl, r0, ip, asr #8
    3878:	000ace0e 	andeq	ip, sl, lr, lsl #28
    387c:	d1200100 	teqle	r0, r0, lsl #2
    3880:	05000002 	streq	r0, [r0, #-2]
    3884:	00a45c03 	adceq	r5, r4, r3, lsl #24
    3888:	0b730e00 	bleq	1cc7090 <__bss_end__+0x1cbb0d8>
    388c:	21010000 	mrscs	r0, (UNDEF: 1)
    3890:	000002d1 	ldrdeq	r0, [r0], -r1
    3894:	a4580305 	ldrbge	r0, [r8], #-773	; 0x305
    3898:	eb0e0000 	bl	3838a0 <__bss_end__+0x3778e8>
    389c:	0100000a 	tsteq	r0, sl
    38a0:	0002d122 	andeq	sp, r2, r2, lsr #2
    38a4:	38030500 	stmdacc	r3, {r8, sl}
    38a8:	0e0000a4 	cdpeq	0, 0, cr0, cr0, cr4, {5}
    38ac:	00000b63 	andeq	r0, r0, r3, ror #22
    38b0:	02d12301 	sbcseq	r2, r1, #67108864	; 0x4000000
    38b4:	03050000 	movweq	r0, #20480	; 0x5000
    38b8:	0000a454 	andeq	sl, r0, r4, asr r4
    38bc:	000b530e 	andeq	r5, fp, lr, lsl #6
    38c0:	d1240100 	teqle	r4, r0, lsl #2
    38c4:	05000002 	streq	r0, [r0, #-2]
    38c8:	00a44803 	adceq	r4, r4, r3, lsl #16
    38cc:	085f1100 	ldmdaeq	pc, {r8, ip}^	; <UNPREDICTABLE>
    38d0:	87030000 	strhi	r0, [r3, -r0]
    38d4:	00089212 	andeq	r9, r8, r2, lsl r2
    38d8:	c5190200 	ldrgt	r0, [r9, #-512]	; 0x200
    38dc:	13000003 	movwne	r0, #3
    38e0:	0000002c 	andeq	r0, r0, ip, lsr #32
    38e4:	0000b213 	andeq	fp, r0, r3, lsl r2
    38e8:	1e140000 	cdpne	0, 1, cr0, cr4, cr0, {0}
    38ec:	03000009 	movweq	r0, #9
    38f0:	00002ca6 	andeq	r2, r0, r6, lsr #25
    38f4:	0003da00 	andeq	sp, r3, r0, lsl #20
    38f8:	03da1300 	bicseq	r1, sl, #0, 6
    38fc:	0f000000 	svceq	0x00000000
    3900:	0003e004 	andeq	lr, r3, r4
    3904:	03e51500 	mvneq	r1, #0, 10
    3908:	12160000 	andsne	r0, r6, #0
    390c:	000007b3 			; <UNDEFINED> instruction: 0x000007b3
    3910:	03fc9a03 	mvnseq	r9, #12288	; 0x3000
    3914:	fc130000 	ldc2	0, cr0, [r3], {-0}
    3918:	13000003 	movwne	r0, #3
    391c:	0000002c 	andeq	r0, r0, ip, lsr #32
    3920:	e5040f00 	str	r0, [r4, #-3840]	; 0xf00
    3924:	00000003 	andeq	r0, r0, r3
    3928:	0000058d 	andeq	r0, r0, sp, lsl #11
    392c:	10b60004 	adcsne	r0, r6, r4
    3930:	01040000 	mrseq	r0, (UNDEF: 4)
    3934:	0000034e 	andeq	r0, r0, lr, asr #6
    3938:	000c7901 	andeq	r7, ip, r1, lsl #18
    393c:	0004d600 	andeq	sp, r4, r0, lsl #12
    3940:	0097f000 	addseq	pc, r7, r0
    3944:	00020000 	andeq	r0, r2, r0
    3948:	000f6500 	andeq	r6, pc, r0, lsl #10
    394c:	05040200 	streq	r0, [r4, #-512]	; 0x200
    3950:	00746e69 	rsbseq	r6, r4, r9, ror #28
    3954:	46070403 	strmi	r0, [r7], -r3, lsl #8
    3958:	03000000 	movweq	r0, #0
    395c:	02a80601 	adceq	r0, r8, #1048576	; 0x100000
    3960:	02030000 	andeq	r0, r3, #0
    3964:	0002cd05 	andeq	ip, r2, r5, lsl #26
    3968:	05040300 	streq	r0, [r4, #-768]	; 0x300
    396c:	0000009d 	muleq	r0, sp, r0
    3970:	98050803 	stmdals	r5, {r0, r1, fp}
    3974:	03000000 	movweq	r0, #0
    3978:	02a60801 	adceq	r0, r6, #65536	; 0x10000
    397c:	02030000 	andeq	r0, r3, #0
    3980:	0001a207 	andeq	sl, r1, r7, lsl #4
    3984:	07040300 	streq	r0, [r4, -r0, lsl #6]
    3988:	00000041 	andeq	r0, r0, r1, asr #32
    398c:	3c070803 	stccc	8, cr0, [r7], {3}
    3990:	03000000 	movweq	r0, #0
    3994:	02330704 	eorseq	r0, r3, #4, 14	; 0x100000
    3998:	01030000 	mrseq	r0, (UNDEF: 3)
    399c:	0002af08 	andeq	sl, r2, r8, lsl #30
    39a0:	7f040400 	svcvc	0x00040400
    39a4:	05000000 	streq	r0, [r0, #-0]
    39a8:	00000072 	andeq	r0, r0, r2, ror r0
    39ac:	00007206 	andeq	r7, r0, r6, lsl #4
    39b0:	00009400 	andeq	r9, r0, r0, lsl #8
    39b4:	006b0700 	rsbeq	r0, fp, r0, lsl #14
    39b8:	00190000 	andseq	r0, r9, r0
    39bc:	14030408 	strne	r0, [r3], #-1032	; 0x408
    39c0:	0000010b 	andeq	r0, r0, fp, lsl #2
    39c4:	000d1f09 	andeq	r1, sp, r9, lsl #30
    39c8:	82e48000 	rschi	r8, r4, #0
    39cc:	04090280 	streq	r0, [r9], #-640	; 0x280
    39d0:	8000000c 	andhi	r0, r0, ip
    39d4:	028082e4 	addeq	r8, r0, #228, 4	; 0x4000000e
    39d8:	000c9909 	andeq	r9, ip, r9, lsl #18
    39dc:	82e48400 	rschi	r8, r4, #0, 8
    39e0:	6b090280 	blvs	2443e8 <__bss_end__+0x238430>
    39e4:	8800000c 	stmdahi	r0, {r2, r3}
    39e8:	028082e4 	addeq	r8, r0, #228, 4	; 0x4000000e
    39ec:	000be709 	andeq	lr, fp, r9, lsl #14
    39f0:	82e48c00 	rschi	r8, r4, #0, 24
    39f4:	28090280 	stmdacs	r9, {r7, r9}
    39f8:	9000000c 	andls	r0, r0, ip
    39fc:	028082e4 	addeq	r8, r0, #228, 4	; 0x4000000e
    3a00:	000c3609 	andeq	r3, ip, r9, lsl #12
    3a04:	82e49400 	rschi	r9, r4, #0, 8
    3a08:	16090280 	strne	r0, [r9], -r0, lsl #5
    3a0c:	9800000c 	stmdals	r0, {r2, r3}
    3a10:	028082e4 	addeq	r8, r0, #228, 4	; 0x4000000e
    3a14:	000ceb09 	andeq	lr, ip, r9, lsl #22
    3a18:	82e49c00 	rschi	r9, r4, #0, 24
    3a1c:	fa090280 	blx	244424 <__bss_end__+0x23846c>
    3a20:	a000000c 	andge	r0, r0, ip
    3a24:	028082e4 	addeq	r8, r0, #228, 4	; 0x4000000e
    3a28:	000bd409 	andeq	sp, fp, r9, lsl #8
    3a2c:	82e4a400 	rschi	sl, r4, #0, 8
    3a30:	0a000280 	beq	4438 <_start-0x3bc8>
    3a34:	0000010d 	andeq	r0, r0, sp, lsl #2
    3a38:	97f00501 	ldrbls	r0, [r0, r1, lsl #10]!
    3a3c:	00680000 	rsbeq	r0, r8, r0
    3a40:	9c010000 	stcls	0, cr0, [r1], {-0}
    3a44:	000001b7 			; <UNDEFINED> instruction: 0x000001b7
    3a48:	000bf30b 	andeq	pc, fp, fp, lsl #6
    3a4c:	2c110100 	ldfcss	f0, [r1], {-0}
    3a50:	0b000000 	bleq	3a58 <_start-0x45a8>
    3a54:	00000c44 	andeq	r0, r0, r4, asr #24
    3a58:	002c1201 	eoreq	r1, ip, r1, lsl #4
    3a5c:	640c0000 	strvs	r0, [ip], #-0
    3a60:	01007473 	tsteq	r0, r3, ror r4
    3a64:	0001b716 	andeq	fp, r1, r6, lsl r7
    3a68:	730d0000 	movwvc	r0, #53248	; 0xd000
    3a6c:	01006372 	tsteq	r0, r2, ror r3
    3a70:	0001b717 	andeq	fp, r1, r7, lsl r7
    3a74:	006e0e00 	rsbeq	r0, lr, r0, lsl #28
    3a78:	002c1801 	eoreq	r1, ip, r1, lsl #16
    3a7c:	50010000 	andpl	r0, r1, r0
    3a80:	0098200f 	addseq	r2, r8, pc
    3a84:	00002400 	andeq	r2, r0, r0, lsl #8
    3a88:	00017300 	andeq	r7, r1, r0, lsl #6
    3a8c:	00691000 	rsbeq	r1, r9, r0
    3a90:	00251901 	eoreq	r1, r5, r1, lsl #18
    3a94:	22a30000 	adccs	r0, r3, #0
    3a98:	11000000 	mrsne	r0, (UNDEF: 0)
    3a9c:	00009800 	andeq	r9, r0, r0, lsl #16
    3aa0:	0000054f 	andeq	r0, r0, pc, asr #10
    3aa4:	00000190 	muleq	r0, r0, r1
    3aa8:	02510112 	subseq	r0, r1, #-2147483644	; 0x80000004
    3aac:	0112ff09 	tsteq	r2, r9, lsl #30
    3ab0:	1c0c0550 	cfstr32ne	mvfx0, [ip], {80}	; 0x50
    3ab4:	002000b2 	strhteq	r0, [r0], -r2
    3ab8:	00980c11 	addseq	r0, r8, r1, lsl ip
    3abc:	00054f00 	andeq	r4, r5, r0, lsl #30
    3ac0:	0001ad00 	andeq	sl, r1, r0, lsl #26
    3ac4:	51011200 	mrspl	r1, R9_usr
    3ac8:	12ff0902 	rscsne	r0, pc, #32768	; 0x8000
    3acc:	0c055001 	stceq	0, cr5, [r5], {1}
    3ad0:	2000b220 	andcs	fp, r0, r0, lsr #4
    3ad4:	98101300 	ldmdals	r0, {r8, r9, ip}
    3ad8:	05650000 	strbeq	r0, [r5, #-0]!
    3adc:	04000000 	streq	r0, [r0], #-0
    3ae0:	00002c04 	andeq	r2, r0, r4, lsl #24
    3ae4:	0d090a00 	vstreq	s0, [r9, #-0]
    3ae8:	1f010000 	svcne	0x00010000
    3aec:	00009858 	andeq	r9, r0, r8, asr r8
    3af0:	00000044 	andeq	r0, r0, r4, asr #32
    3af4:	02429c01 	subeq	r9, r2, #256	; 0x100
    3af8:	70140000 	andsvc	r0, r4, r0
    3afc:	1f010063 	svcne	0x00010063
    3b00:	0000002c 	andeq	r0, r0, ip, lsr #32
    3b04:	000022c2 	andeq	r2, r0, r2, asr #5
    3b08:	00017915 	andeq	r7, r1, r5, lsl r9
    3b0c:	00025200 	andeq	r5, r2, r0, lsl #4
    3b10:	c8030500 	stmdagt	r3, {r8, sl}
    3b14:	130000a7 	movwne	r0, #167	; 0xa7
    3b18:	00009868 	andeq	r9, r0, r8, ror #16
    3b1c:	0000056c 	andeq	r0, r0, ip, ror #10
    3b20:	00988811 	addseq	r8, r8, r1, lsl r8
    3b24:	00057300 	andeq	r7, r5, r0, lsl #6
    3b28:	00023800 	andeq	r3, r2, r0, lsl #16
    3b2c:	53011200 	movwpl	r1, #4608	; 0x1200
    3b30:	12200802 	eorne	r0, r0, #131072	; 0x20000
    3b34:	03055201 	movweq	r5, #20993	; 0x5201
    3b38:	0000a7c8 	andeq	sl, r0, r8, asr #15
    3b3c:	05510112 	ldrbeq	r0, [r1, #-274]	; 0x112
    3b40:	00a89403 	adceq	r9, r8, r3, lsl #8
    3b44:	50011200 	andpl	r1, r1, r0, lsl #4
    3b48:	a8580305 	ldmdage	r8, {r0, r2, r8, r9}^
    3b4c:	02120000 	andseq	r0, r2, #0
    3b50:	7402047d 	strvc	r0, [r2], #-1149	; 0x47d
    3b54:	7d021200 	sfmvc	f1, 4, [r2, #-0]
    3b58:	b4030500 	strlt	r0, [r3], #-1280	; 0x500
    3b5c:	000000a8 	andeq	r0, r0, r8, lsr #1
    3b60:	00988c13 	addseq	r8, r8, r3, lsl ip
    3b64:	00058900 	andeq	r8, r5, r0, lsl #18
    3b68:	72060000 	andvc	r0, r6, #0
    3b6c:	52000000 	andpl	r0, r0, #0
    3b70:	07000002 	streq	r0, [r0, -r2]
    3b74:	0000006b 	andeq	r0, r0, fp, rrx
    3b78:	42050015 	andmi	r0, r5, #21
    3b7c:	0a000002 	beq	3b8c <_start-0x4474>
    3b80:	00000cd1 	ldrdeq	r0, [r0], -r1
    3b84:	989c2401 	ldmls	ip, {r0, sl, sp}
    3b88:	00440000 	subeq	r0, r4, r0
    3b8c:	9c010000 	stcls	0, cr0, [r1], {-0}
    3b90:	000002dc 	ldrdeq	r0, [r0], -ip
    3b94:	00637014 	rsbeq	r7, r3, r4, lsl r0
    3b98:	002c2401 	eoreq	r2, ip, r1, lsl #8
    3b9c:	22e00000 	rsccs	r0, r0, #0
    3ba0:	79150000 	ldmdbvc	r5, {}	; <UNPREDICTABLE>
    3ba4:	dc000001 	stcle	0, cr0, [r0], {1}
    3ba8:	05000002 	streq	r0, [r0, #-2]
    3bac:	00a7e003 	adceq	lr, r7, r3
    3bb0:	98ac1300 	stmials	ip!, {r8, r9, ip}
    3bb4:	056c0000 	strbeq	r0, [ip, #-0]!
    3bb8:	cc110000 	ldcgt	0, cr0, [r1], {-0}
    3bbc:	73000098 	movwvc	r0, #152	; 0x98
    3bc0:	d2000005 	andle	r0, r0, #5
    3bc4:	12000002 	andne	r0, r0, #2
    3bc8:	08025301 	stmdaeq	r2, {r0, r8, r9, ip, lr}
    3bcc:	52011225 	andpl	r1, r1, #1342177282	; 0x50000002
    3bd0:	a7e00305 	strbge	r0, [r0, r5, lsl #6]!
    3bd4:	01120000 	tsteq	r2, r0
    3bd8:	94030551 	strls	r0, [r3], #-1361	; 0x551
    3bdc:	120000a8 	andne	r0, r0, #168	; 0xa8
    3be0:	03055001 	movweq	r5, #20481	; 0x5001
    3be4:	0000a858 	andeq	sl, r0, r8, asr r8
    3be8:	047d0212 	ldrbteq	r0, [sp], #-530	; 0x212
    3bec:	12007402 	andne	r7, r0, #33554432	; 0x2000000
    3bf0:	05007d02 	streq	r7, [r0, #-3330]	; 0xd02
    3bf4:	00a8bc03 	adceq	fp, r8, r3, lsl #24
    3bf8:	d0130000 	andsle	r0, r3, r0
    3bfc:	89000098 	stmdbhi	r0, {r3, r4, r7}
    3c00:	00000005 	andeq	r0, r0, r5
    3c04:	00008405 	andeq	r8, r0, r5, lsl #8
    3c08:	0cc40a00 	vstmiaeq	r4, {s1-s0}
    3c0c:	27010000 	strcs	r0, [r1, -r0]
    3c10:	000098e0 	andeq	r9, r0, r0, ror #17
    3c14:	00000044 	andeq	r0, r0, r4, asr #32
    3c18:	03669c01 	cmneq	r6, #256	; 0x100
    3c1c:	70140000 	andsvc	r0, r4, r0
    3c20:	27010063 	strcs	r0, [r1, -r3, rrx]
    3c24:	0000002c 	andeq	r0, r0, ip, lsr #32
    3c28:	000022fe 	strdeq	r2, [r0], -lr
    3c2c:	00017915 	andeq	r7, r1, r5, lsl r9
    3c30:	00037600 	andeq	r7, r3, r0, lsl #12
    3c34:	fc030500 	stc2	5, cr0, [r3], {-0}
    3c38:	130000a7 	movwne	r0, #167	; 0xa7
    3c3c:	000098f0 	strdeq	r9, [r0], -r0
    3c40:	0000056c 	andeq	r0, r0, ip, ror #10
    3c44:	00991011 	addseq	r1, r9, r1, lsl r0
    3c48:	00057300 	andeq	r7, r5, r0, lsl #6
    3c4c:	00035c00 	andeq	r5, r3, r0, lsl #24
    3c50:	53011200 	movwpl	r1, #4608	; 0x1200
    3c54:	12280802 	eorne	r0, r8, #131072	; 0x20000
    3c58:	03055201 	movweq	r5, #20993	; 0x5201
    3c5c:	0000a7fc 	strdeq	sl, [r0], -ip
    3c60:	05510112 	ldrbeq	r0, [r1, #-274]	; 0x112
    3c64:	00a89403 	adceq	r9, r8, r3, lsl #8
    3c68:	50011200 	andpl	r1, r1, r0, lsl #4
    3c6c:	a8580305 	ldmdage	r8, {r0, r2, r8, r9}^
    3c70:	02120000 	andseq	r0, r2, #0
    3c74:	7402047d 	strvc	r0, [r2], #-1149	; 0x47d
    3c78:	7d021200 	sfmvc	f1, 4, [r2, #-0]
    3c7c:	cc030500 	cfstr32gt	mvfx0, [r3], {-0}
    3c80:	000000a8 	andeq	r0, r0, r8, lsr #1
    3c84:	00991413 	addseq	r1, r9, r3, lsl r4
    3c88:	00058900 	andeq	r8, r5, r0, lsl #18
    3c8c:	72060000 	andvc	r0, r6, #0
    3c90:	76000000 	strvc	r0, [r0], -r0
    3c94:	07000003 	streq	r0, [r0, -r3]
    3c98:	0000006b 	andeq	r0, r0, fp, rrx
    3c9c:	6605000c 	strvs	r0, [r5], -ip
    3ca0:	0a000003 	beq	3cb4 <_start-0x434c>
    3ca4:	00000ca7 	andeq	r0, r0, r7, lsr #25
    3ca8:	99242a01 	stmdbls	r4!, {r0, r9, fp, sp}
    3cac:	00440000 	subeq	r0, r4, r0
    3cb0:	9c010000 	stcls	0, cr0, [r1], {-0}
    3cb4:	00000400 	andeq	r0, r0, r0, lsl #8
    3cb8:	00637014 	rsbeq	r7, r3, r4, lsl r0
    3cbc:	002c2a01 	eoreq	r2, ip, r1, lsl #20
    3cc0:	231c0000 	tstcs	ip, #0
    3cc4:	79150000 	ldmdbvc	r5, {}	; <UNPREDICTABLE>
    3cc8:	10000001 	andne	r0, r0, r1
    3ccc:	05000004 	streq	r0, [r0, #-4]
    3cd0:	00a80c03 	adceq	r0, r8, r3, lsl #24
    3cd4:	99341300 	ldmdbls	r4!, {r8, r9, ip}
    3cd8:	056c0000 	strbeq	r0, [ip, #-0]!
    3cdc:	54110000 	ldrpl	r0, [r1], #-0
    3ce0:	73000099 	movwvc	r0, #153	; 0x99
    3ce4:	f6000005 			; <UNDEFINED> instruction: 0xf6000005
    3ce8:	12000003 	andne	r0, r0, #3
    3cec:	08025301 	stmdaeq	r2, {r0, r8, r9, ip, lr}
    3cf0:	5201122b 	andpl	r1, r1, #-1342177278	; 0xb0000002
    3cf4:	a80c0305 	stmdage	ip, {r0, r2, r8, r9}
    3cf8:	01120000 	tsteq	r2, r0
    3cfc:	94030551 	strls	r0, [r3], #-1361	; 0x551
    3d00:	120000a8 	andne	r0, r0, #168	; 0xa8
    3d04:	03055001 	movweq	r5, #20481	; 0x5001
    3d08:	0000a858 	andeq	sl, r0, r8, asr r8
    3d0c:	047d0212 	ldrbteq	r0, [sp], #-530	; 0x212
    3d10:	12007402 	andne	r7, r0, #33554432	; 0x2000000
    3d14:	05007d02 	streq	r7, [r0, #-3330]	; 0xd02
    3d18:	00a8dc03 	adceq	sp, r8, r3, lsl #24
    3d1c:	58130000 	ldmdapl	r3, {}	; <UNPREDICTABLE>
    3d20:	89000099 	stmdbhi	r0, {r0, r3, r4, r7}
    3d24:	00000005 	andeq	r0, r0, r5
    3d28:	00007206 	andeq	r7, r0, r6, lsl #4
    3d2c:	00041000 	andeq	r1, r4, r0
    3d30:	006b0700 	rsbeq	r0, fp, r0, lsl #14
    3d34:	001c0000 	andseq	r0, ip, r0
    3d38:	00040005 	andeq	r0, r4, r5
    3d3c:	0bbe0a00 	bleq	fef86544 <__bss_end__+0xfef7a58c>
    3d40:	2d010000 	stccs	0, cr0, [r1, #-0]
    3d44:	00009968 	andeq	r9, r0, r8, ror #18
    3d48:	00000044 	andeq	r0, r0, r4, asr #32
    3d4c:	049a9c01 	ldreq	r9, [sl], #3073	; 0xc01
    3d50:	70140000 	andsvc	r0, r4, r0
    3d54:	2d010063 	stccs	0, cr0, [r1, #-396]	; 0xfffffe74
    3d58:	0000002c 	andeq	r0, r0, ip, lsr #32
    3d5c:	0000233a 	andeq	r2, r0, sl, lsr r3
    3d60:	00017915 	andeq	r7, r1, r5, lsl r9
    3d64:	00049a00 	andeq	r9, r4, r0, lsl #20
    3d68:	2c030500 	cfstr32cs	mvfx0, [r3], {-0}
    3d6c:	130000a8 	movwne	r0, #168	; 0xa8
    3d70:	00009978 	andeq	r9, r0, r8, ror r9
    3d74:	0000056c 	andeq	r0, r0, ip, ror #10
    3d78:	00999811 	addseq	r9, r9, r1, lsl r8
    3d7c:	00057300 	andeq	r7, r5, r0, lsl #6
    3d80:	00049000 	andeq	r9, r4, r0
    3d84:	53011200 	movwpl	r1, #4608	; 0x1200
    3d88:	122e0802 	eorne	r0, lr, #131072	; 0x20000
    3d8c:	03055201 	movweq	r5, #20993	; 0x5201
    3d90:	0000a82c 	andeq	sl, r0, ip, lsr #16
    3d94:	05510112 	ldrbeq	r0, [r1, #-274]	; 0x112
    3d98:	00a89403 	adceq	r9, r8, r3, lsl #8
    3d9c:	50011200 	andpl	r1, r1, r0, lsl #4
    3da0:	a8580305 	ldmdage	r8, {r0, r2, r8, r9}^
    3da4:	02120000 	andseq	r0, r2, #0
    3da8:	7402047d 	strvc	r0, [r2], #-1149	; 0x47d
    3dac:	7d021200 	sfmvc	f1, 4, [r2, #-0]
    3db0:	f4030500 	vst3.8	{d0,d2,d4}, [r3], r0
    3db4:	000000a8 	andeq	r0, r0, r8, lsr #1
    3db8:	00999c13 	addseq	r9, r9, r3, lsl ip
    3dbc:	00058900 	andeq	r8, r5, r0, lsl #18
    3dc0:	42050000 	andmi	r0, r5, #0
    3dc4:	0a000002 	beq	3dd4 <_start-0x422c>
    3dc8:	00000c59 	andeq	r0, r0, r9, asr ip
    3dcc:	99ac3001 	stmibls	ip!, {r0, ip, sp}
    3dd0:	00440000 	subeq	r0, r4, r0
    3dd4:	9c010000 	stcls	0, cr0, [r1], {-0}
    3dd8:	00000524 	andeq	r0, r0, r4, lsr #10
    3ddc:	00637014 	rsbeq	r7, r3, r4, lsl r0
    3de0:	002c3001 	eoreq	r3, ip, r1
    3de4:	23580000 	cmpcs	r8, #0
    3de8:	79150000 	ldmdbvc	r5, {}	; <UNPREDICTABLE>
    3dec:	34000001 	strcc	r0, [r0], #-1
    3df0:	05000005 	streq	r0, [r0, #-5]
    3df4:	00a84403 	adceq	r4, r8, r3, lsl #8
    3df8:	99bc1300 	ldmibls	ip!, {r8, r9, ip}
    3dfc:	056c0000 	strbeq	r0, [ip, #-0]!
    3e00:	dc110000 	ldcle	0, cr0, [r1], {-0}
    3e04:	73000099 	movwvc	r0, #153	; 0x99
    3e08:	1a000005 	bne	3e24 <_start-0x41dc>
    3e0c:	12000005 	andne	r0, r0, #5
    3e10:	08025301 	stmdaeq	r2, {r0, r8, r9, ip, lr}
    3e14:	52011231 	andpl	r1, r1, #268435459	; 0x10000003
    3e18:	a8440305 	stmdage	r4, {r0, r2, r8, r9}^
    3e1c:	01120000 	tsteq	r2, r0
    3e20:	94030551 	strls	r0, [r3], #-1361	; 0x551
    3e24:	120000a8 	andne	r0, r0, #168	; 0xa8
    3e28:	03055001 	movweq	r5, #20481	; 0x5001
    3e2c:	0000a858 	andeq	sl, r0, r8, asr r8
    3e30:	047d0212 	ldrbteq	r0, [sp], #-530	; 0x212
    3e34:	12007402 	andne	r7, r0, #33554432	; 0x2000000
    3e38:	05007d02 	streq	r7, [r0, #-3330]	; 0xd02
    3e3c:	00a90403 	adceq	r0, r9, r3, lsl #8
    3e40:	e0130000 	ands	r0, r3, r0
    3e44:	89000099 	stmdbhi	r0, {r0, r3, r4, r7}
    3e48:	00000005 	andeq	r0, r0, r5
    3e4c:	00007206 	andeq	r7, r0, r6, lsl #4
    3e50:	00053400 	andeq	r3, r5, r0, lsl #8
    3e54:	006b0700 	rsbeq	r0, fp, r0, lsl #14
    3e58:	00110000 	andseq	r0, r1, r0
    3e5c:	00052405 	andeq	r2, r5, r5, lsl #8
    3e60:	0bf30b00 	bleq	ffcc6a68 <__bss_end__+0xffcbaab0>
    3e64:	11010000 	mrsne	r0, (UNDEF: 1)
    3e68:	0000002c 	andeq	r0, r0, ip, lsr #32
    3e6c:	000c440b 	andeq	r4, ip, fp, lsl #8
    3e70:	2c120100 	ldfcss	f0, [r2], {-0}
    3e74:	16000000 	strne	r0, [r0], -r0
    3e78:	0000025c 	andeq	r0, r0, ip, asr r2
    3e7c:	05659902 	strbeq	r9, [r5, #-2306]!	; 0x902
    3e80:	2c170000 	ldccs	0, cr0, [r7], {-0}
    3e84:	17000000 	strne	r0, [r0, -r0]
    3e88:	0000002c 	andeq	r0, r0, ip, lsr #32
    3e8c:	085f1800 	ldmdaeq	pc, {fp, ip}^	; <UNPREDICTABLE>
    3e90:	87020000 	strhi	r0, [r2, -r0]
    3e94:	00016a18 	andeq	r6, r1, r8, lsl sl
    3e98:	191e0200 	ldmdbne	lr, {r9}
    3e9c:	000004c5 	andeq	r0, r0, r5, asr #9
    3ea0:	00252902 	eoreq	r2, r5, r2, lsl #18
    3ea4:	05890000 	streq	r0, [r9]
    3ea8:	79170000 	ldmdbvc	r7, {}	; <UNPREDICTABLE>
    3eac:	1a000000 	bne	3eb4 <_start-0x414c>
    3eb0:	02041800 	andeq	r1, r4, #0, 16
    3eb4:	66020000 	strvs	r0, [r2], -r0
    3eb8:	001bcf00 	andseq	ip, fp, r0, lsl #30
    3ebc:	0d000400 	cfstrseq	mvf0, [r0, #-0]
    3ec0:	04000012 	streq	r0, [r0], #-18
    3ec4:	00100501 	andseq	r0, r0, r1, lsl #10
    3ec8:	125c0c00 	subsne	r0, ip, #0, 24
    3ecc:	10ee0000 	rscne	r0, lr, r0
    3ed0:	9b300000 	blls	c03ed8 <__bss_end__+0xbf7f20>
    3ed4:	082c0000 	stmdaeq	ip!, {}	; <UNPREDICTABLE>
    3ed8:	103f0000 	eorsne	r0, pc, r0
    3edc:	04020000 	streq	r0, [r2], #-0
    3ee0:	746e6905 	strbtvc	r6, [lr], #-2309	; 0x905
    3ee4:	07040300 	streq	r0, [r4, -r0, lsl #6]
    3ee8:	00000046 	andeq	r0, r0, r6, asr #32
    3eec:	00002c04 	andeq	r2, r0, r4, lsl #24
    3ef0:	06010300 	streq	r0, [r1], -r0, lsl #6
    3ef4:	000002a8 	andeq	r0, r0, r8, lsr #5
    3ef8:	cd050203 	sfmgt	f0, 4, [r5, #-12]
    3efc:	03000002 	movweq	r0, #2
    3f00:	009d0504 	addseq	r0, sp, r4, lsl #10
    3f04:	08030000 	stmdaeq	r3, {}	; <UNPREDICTABLE>
    3f08:	00009805 	andeq	r9, r0, r5, lsl #16
    3f0c:	08010300 	stmdaeq	r1, {r8, r9}
    3f10:	000002a6 	andeq	r0, r0, r6, lsr #5
    3f14:	a2070203 	andge	r0, r7, #805306368	; 0x30000000
    3f18:	03000001 	movweq	r0, #1
    3f1c:	00410704 	subeq	r0, r1, r4, lsl #14
    3f20:	08030000 	stmdaeq	r3, {}	; <UNPREDICTABLE>
    3f24:	00003c07 	andeq	r3, r0, r7, lsl #24
    3f28:	0f640500 	svceq	0x00640500
    3f2c:	22040000 	andcs	r0, r4, #0
    3f30:	0000007b 	andeq	r0, r0, fp, ror r0
    3f34:	00810406 	addeq	r0, r1, r6, lsl #8
    3f38:	dc070000 	stcle	0, cr0, [r7], {-0}
    3f3c:	05000011 	streq	r0, [r0, #-17]
    3f40:	000010a4 	andeq	r1, r0, r4, lsr #1
    3f44:	00462c05 	subeq	r2, r6, r5, lsl #24
    3f48:	fc050000 	stc2	0, cr0, [r5], {-0}
    3f4c:	05000011 	streq	r0, [r0, #-17]
    3f50:	00004672 	andeq	r4, r0, r2, ror r6
    3f54:	0f6c0800 	svceq	0x006c0800
    3f58:	65060000 	strvs	r0, [r6, #-0]
    3f5c:	00002c01 	andeq	r2, r0, r1, lsl #24
    3f60:	05040900 	streq	r0, [r4, #-2304]	; 0x900
    3f64:	0000c7a6 	andeq	ip, r0, r6, lsr #15
    3f68:	0f5e0a00 	svceq	0x005e0a00
    3f6c:	a8050000 	stmdage	r5, {}	; <UNPREDICTABLE>
    3f70:	0000009c 	muleq	r0, ip, r0
    3f74:	000efc0a 	andeq	pc, lr, sl, lsl #24
    3f78:	c7a90500 	strgt	r0, [r9, r0, lsl #10]!
    3f7c:	00000000 	andeq	r0, r0, r0
    3f80:	0000540b 	andeq	r5, r0, fp, lsl #8
    3f84:	0000d700 	andeq	sp, r0, r0, lsl #14
    3f88:	002c0c00 	eoreq	r0, ip, r0, lsl #24
    3f8c:	00030000 	andeq	r0, r3, r0
    3f90:	a305080d 	movwge	r0, #22541	; 0x580d
    3f94:	000000f8 	strdeq	r0, [r0], -r8
    3f98:	0011d40e 	andseq	sp, r1, lr, lsl #8
    3f9c:	25a50500 	strcs	r0, [r5, #1280]!	; 0x500
    3fa0:	00000000 	andeq	r0, r0, r0
    3fa4:	0011e30e 	andseq	lr, r1, lr, lsl #6
    3fa8:	a8aa0500 	stmiage	sl!, {r8, sl}
    3fac:	04000000 	streq	r0, [r0], #-0
    3fb0:	114a0500 	cmpne	sl, r0, lsl #10
    3fb4:	ab050000 	blge	143fbc <__bss_end__+0x138004>
    3fb8:	000000d7 	ldrdeq	r0, [r0], -r7
    3fbc:	000ec505 	andeq	ip, lr, r5, lsl #10
    3fc0:	70af0500 	adcvc	r0, pc, r0, lsl #10
    3fc4:	0f000000 	svceq	0x00000000
    3fc8:	16040604 	strne	r0, [r4], -r4, lsl #12
    3fcc:	03000001 	movweq	r0, #1
    3fd0:	02af0801 	adceq	r0, pc, #65536	; 0x10000
    3fd4:	16100000 	ldrne	r0, [r0], -r0
    3fd8:	05000001 	streq	r0, [r0, #-1]
    3fdc:	00001254 	andeq	r1, r0, r4, asr r2
    3fe0:	00621607 	rsbeq	r1, r2, r7, lsl #12
    3fe4:	d6110000 	ldrle	r0, [r1], -r0
    3fe8:	1800000e 	stmdane	r0, {r1, r2, r3}
    3fec:	01802f07 	orreq	r2, r0, r7, lsl #30
    3ff0:	6b0e0000 	blvs	383ff8 <__bss_end__+0x378040>
    3ff4:	07000011 	smladeq	r0, r1, r0, r0
    3ff8:	00018031 	andeq	r8, r1, r1, lsr r0
    3ffc:	5f120000 	svcpl	0x00120000
    4000:	3207006b 	andcc	r0, r7, #107	; 0x6b
    4004:	00000025 	andeq	r0, r0, r5, lsr #32
    4008:	11bf0e04 			; <UNDEFINED> instruction: 0x11bf0e04
    400c:	32070000 	andcc	r0, r7, #0
    4010:	00000025 	andeq	r0, r0, r5, lsr #32
    4014:	0ebf0e08 	cdpeq	14, 11, cr0, cr15, cr8, {0}
    4018:	32070000 	andcc	r0, r7, #0
    401c:	00000025 	andeq	r0, r0, r5, lsr #32
    4020:	12c40e0c 	sbcne	r0, r4, #12, 28	; 0xc0
    4024:	32070000 	andcc	r0, r7, #0
    4028:	00000025 	andeq	r0, r0, r5, lsr #32
    402c:	785f1210 	ldmdavc	pc, {r4, r9, ip}^	; <UNPREDICTABLE>
    4030:	86330700 	ldrthi	r0, [r3], -r0, lsl #14
    4034:	14000001 	strne	r0, [r0], #-1
    4038:	2d040600 	stccs	6, cr0, [r4, #-0]
    403c:	0b000001 	bleq	4048 <_start-0x3fb8>
    4040:	00000122 	andeq	r0, r0, r2, lsr #2
    4044:	00000196 	muleq	r0, r6, r1
    4048:	00002c0c 	andeq	r2, r0, ip, lsl #24
    404c:	11000000 	mrsne	r0, (UNDEF: 0)
    4050:	00000ef7 	strdeq	r0, [r0], -r7
    4054:	0f370724 	svceq	0x00370724
    4058:	0e000002 	cdpeq	0, 0, cr0, cr0, cr2, {0}
    405c:	00000de3 	andeq	r0, r0, r3, ror #27
    4060:	00253907 	eoreq	r3, r5, r7, lsl #18
    4064:	0e000000 	cdpeq	0, 0, cr0, cr0, cr0, {0}
    4068:	00001209 	andeq	r1, r0, r9, lsl #4
    406c:	00253a07 	eoreq	r3, r5, r7, lsl #20
    4070:	0e040000 	cdpeq	0, 0, cr0, cr4, cr0, {0}
    4074:	00000e09 	andeq	r0, r0, r9, lsl #28
    4078:	00253b07 	eoreq	r3, r5, r7, lsl #22
    407c:	0e080000 	cdpeq	0, 0, cr0, cr8, cr0, {0}
    4080:	0000138f 	andeq	r1, r0, pc, lsl #7
    4084:	00253c07 	eoreq	r3, r5, r7, lsl #24
    4088:	0e0c0000 	cdpeq	0, 0, cr0, cr12, cr0, {0}
    408c:	00000ff4 	strdeq	r0, [r0], -r4
    4090:	00253d07 	eoreq	r3, r5, r7, lsl #26
    4094:	0e100000 	cdpeq	0, 1, cr0, cr0, cr0, {0}
    4098:	00000f80 	andeq	r0, r0, r0, lsl #31
    409c:	00253e07 	eoreq	r3, r5, r7, lsl #28
    40a0:	0e140000 	cdpeq	0, 1, cr0, cr4, cr0, {0}
    40a4:	000012c9 	andeq	r1, r0, r9, asr #5
    40a8:	00253f07 	eoreq	r3, r5, r7, lsl #30
    40ac:	0e180000 	cdpeq	0, 1, cr0, cr8, cr0, {0}
    40b0:	0000112c 	andeq	r1, r0, ip, lsr #2
    40b4:	00254007 	eoreq	r4, r5, r7
    40b8:	0e1c0000 	cdpeq	0, 1, cr0, cr12, cr0, {0}
    40bc:	00001320 	andeq	r1, r0, r0, lsr #6
    40c0:	00254107 	eoreq	r4, r5, r7, lsl #2
    40c4:	00200000 	eoreq	r0, r0, r0
    40c8:	000e1813 	andeq	r1, lr, r3, lsl r8
    40cc:	07010800 	streq	r0, [r1, -r0, lsl #16]
    40d0:	00024f4a 	andeq	r4, r2, sl, asr #30
    40d4:	0ea90e00 	cdpeq	14, 10, cr0, cr9, cr0, {0}
    40d8:	4b070000 	blmi	1c40e0 <__bss_end__+0x1b8128>
    40dc:	0000024f 	andeq	r0, r0, pc, asr #4
    40e0:	0d280e00 	stceq	14, cr0, [r8, #-0]
    40e4:	4c070000 	stcmi	0, cr0, [r7], {-0}
    40e8:	0000024f 	andeq	r0, r0, pc, asr #4
    40ec:	12461480 	subne	r1, r6, #128, 8	; 0x80000000
    40f0:	4e070000 	cdpmi	0, 0, cr0, cr7, cr0, {0}
    40f4:	00000122 	andeq	r0, r0, r2, lsr #2
    40f8:	46140100 	ldrmi	r0, [r4], -r0, lsl #2
    40fc:	0700000e 	streq	r0, [r0, -lr]
    4100:	00012251 	andeq	r2, r1, r1, asr r2
    4104:	00010400 	andeq	r0, r1, r0, lsl #8
    4108:	00010e0b 	andeq	r0, r1, fp, lsl #28
    410c:	00025f00 	andeq	r5, r2, r0, lsl #30
    4110:	002c0c00 	eoreq	r0, ip, r0, lsl #24
    4114:	001f0000 	andseq	r0, pc, r0
    4118:	000ffd13 	andeq	pc, pc, r3, lsl sp	; <UNPREDICTABLE>
    411c:	07019000 	streq	r9, [r1, -r0]
    4120:	00029d5d 	andeq	r9, r2, sp, asr sp
    4124:	116b0e00 	cmnne	fp, r0, lsl #28
    4128:	5e070000 	cdppl	0, 0, cr0, cr7, cr0, {0}
    412c:	0000029d 	muleq	r0, sp, r2
    4130:	118f0e00 	orrne	r0, pc, r0, lsl #28
    4134:	5f070000 	svcpl	0x00070000
    4138:	00000025 	andeq	r0, r0, r5, lsr #32
    413c:	0eb10e04 	cdpeq	14, 11, cr0, cr1, cr4, {0}
    4140:	61070000 	mrsvs	r0, (UNDEF: 7)
    4144:	000002a3 	andeq	r0, r0, r3, lsr #5
    4148:	0e180e08 	cdpeq	14, 1, cr0, cr8, cr8, {0}
    414c:	62070000 	andvs	r0, r7, #0
    4150:	0000020f 	andeq	r0, r0, pc, lsl #4
    4154:	04060088 	streq	r0, [r6], #-136	; 0x88
    4158:	0000025f 	andeq	r0, r0, pc, asr r2
    415c:	0002b30b 	andeq	fp, r2, fp, lsl #6
    4160:	0002b300 	andeq	fp, r2, r0, lsl #6
    4164:	002c0c00 	eoreq	r0, ip, r0, lsl #24
    4168:	001f0000 	andseq	r0, pc, r0
    416c:	02b90406 	adcseq	r0, r9, #100663296	; 0x6000000
    4170:	11150000 	tstne	r5, r0
    4174:	00001136 	andeq	r1, r0, r6, lsr r1
    4178:	df750708 	svcle	0x00750708
    417c:	0e000002 	cdpeq	0, 0, cr0, cr0, cr2, {0}
    4180:	00000dfe 	strdeq	r0, [r0], -lr
    4184:	02df7607 	sbcseq	r7, pc, #7340032	; 0x700000
    4188:	0e000000 	cdpeq	0, 0, cr0, cr0, cr0, {0}
    418c:	00000d45 	andeq	r0, r0, r5, asr #26
    4190:	00257707 	eoreq	r7, r5, r7, lsl #14
    4194:	00040000 	andeq	r0, r4, r0
    4198:	00540406 	subseq	r0, r4, r6, lsl #8
    419c:	55110000 	ldrpl	r0, [r1, #-0]
    41a0:	68000011 	stmdavs	r0, {r0, r4}
    41a4:	040fb507 	streq	fp, [pc], #-1287	; 41ac <_start-0x3e54>
    41a8:	5f120000 	svcpl	0x00120000
    41ac:	b6070070 			; <UNDEFINED> instruction: 0xb6070070
    41b0:	000002df 	ldrdeq	r0, [r0], -pc	; <UNPREDICTABLE>
    41b4:	725f1200 	subsvc	r1, pc, #0, 4
    41b8:	25b70700 	ldrcs	r0, [r7, #1792]!	; 0x700
    41bc:	04000000 	streq	r0, [r0], #-0
    41c0:	00775f12 	rsbseq	r5, r7, r2, lsl pc
    41c4:	0025b807 	eoreq	fp, r5, r7, lsl #16
    41c8:	0e080000 	cdpeq	0, 0, cr0, cr8, cr0, {0}
    41cc:	00000e3f 	andeq	r0, r0, pc, lsr lr
    41d0:	003fb907 	eorseq	fp, pc, r7, lsl #18
    41d4:	0e0c0000 	cdpeq	0, 0, cr0, cr12, cr0, {0}
    41d8:	00000f13 	andeq	r0, r0, r3, lsl pc
    41dc:	003fba07 	eorseq	fp, pc, r7, lsl #20
    41e0:	120e0000 	andne	r0, lr, #0
    41e4:	0066625f 	rsbeq	r6, r6, pc, asr r2
    41e8:	02babb07 	adcseq	fp, sl, #7168	; 0x1c00
    41ec:	0e100000 	cdpeq	0, 1, cr0, cr0, cr0, {0}
    41f0:	00000db0 			; <UNDEFINED> instruction: 0x00000db0
    41f4:	0025bc07 	eoreq	fp, r5, r7, lsl #24
    41f8:	0e180000 	cdpeq	0, 1, cr0, cr8, cr0, {0}
    41fc:	00000e26 	andeq	r0, r0, r6, lsr #28
    4200:	010ec307 	tsteq	lr, r7, lsl #6
    4204:	0e1c0000 	cdpeq	0, 1, cr0, cr12, cr0, {0}
    4208:	000001f5 	strdeq	r0, [r0], -r5
    420c:	056ac507 	strbeq	ip, [sl, #-1287]!	; 0x507
    4210:	0e200000 	cdpeq	0, 2, cr0, cr0, cr0, {0}
    4214:	000002db 	ldrdeq	r0, [r0], -fp
    4218:	0594c707 	ldreq	ip, [r4, #1799]	; 0x707
    421c:	0e240000 	cdpeq	0, 2, cr0, cr4, cr0, {0}
    4220:	000011eb 	andeq	r1, r0, fp, ror #3
    4224:	05b8ca07 	ldreq	ip, [r8, #2567]!	; 0xa07
    4228:	0e280000 	cdpeq	0, 2, cr0, cr8, cr0, {0}
    422c:	0000133a 	andeq	r1, r0, sl, lsr r3
    4230:	05d2cb07 	ldrbeq	ip, [r2, #2823]	; 0xb07
    4234:	122c0000 	eorne	r0, ip, #0
    4238:	0062755f 	rsbeq	r7, r2, pc, asr r5
    423c:	02bace07 	adcseq	ip, sl, #7, 28	; 0x70
    4240:	12300000 	eorsne	r0, r0, #0
    4244:	0070755f 	rsbseq	r7, r0, pc, asr r5
    4248:	02dfcf07 	sbcseq	ip, pc, #7, 30
    424c:	12380000 	eorsne	r0, r8, #0
    4250:	0072755f 	rsbseq	r7, r2, pc, asr r5
    4254:	0025d007 	eoreq	sp, r5, r7
    4258:	0e3c0000 	cdpeq	0, 3, cr0, cr12, cr0, {0}
    425c:	00000df8 	strdeq	r0, [r0], -r8
    4260:	05d8d307 	ldrbeq	sp, [r8, #775]	; 0x307
    4264:	0e400000 	cdpeq	0, 4, cr0, cr0, cr0, {0}
    4268:	000012f6 	strdeq	r1, [r0], -r6
    426c:	05e8d407 	strbeq	sp, [r8, #1031]!	; 0x407
    4270:	12430000 	subne	r0, r3, #0
    4274:	00626c5f 	rsbeq	r6, r2, pc, asr ip
    4278:	02bad707 	adcseq	sp, sl, #1835008	; 0x1c0000
    427c:	0e440000 	cdpeq	0, 4, cr0, cr4, cr0, {0}
    4280:	00000e55 	andeq	r0, r0, r5, asr lr
    4284:	0025da07 	eoreq	sp, r5, r7, lsl #20
    4288:	0e4c0000 	cdpeq	0, 4, cr0, cr12, cr0, {0}
    428c:	00000e7d 	andeq	r0, r0, sp, ror lr
    4290:	0086db07 	addeq	sp, r6, r7, lsl #22
    4294:	0e500000 	cdpeq	0, 5, cr0, cr0, cr0, {0}
    4298:	00000b03 	andeq	r0, r0, r3, lsl #22
    429c:	042dde07 	strteq	sp, [sp], #-3591	; 0xe07
    42a0:	0e540000 	cdpeq	0, 5, cr0, cr4, cr0, {0}
    42a4:	000011dd 	ldrdeq	r1, [r0], -sp
    42a8:	0103e207 	tsteq	r3, r7, lsl #4
    42ac:	0e580000 	cdpeq	0, 5, cr0, cr8, cr0, {0}
    42b0:	0000115d 	andeq	r1, r0, sp, asr r1
    42b4:	00f8e407 	rscseq	lr, r8, r7, lsl #8
    42b8:	0e5c0000 	cdpeq	0, 5, cr0, cr12, cr0, {0}
    42bc:	00000f73 	andeq	r0, r0, r3, ror pc
    42c0:	0025e507 	eoreq	lr, r5, r7, lsl #10
    42c4:	00640000 	rsbeq	r0, r4, r0
    42c8:	00002516 	andeq	r2, r0, r6, lsl r5
    42cc:	00042d00 	andeq	r2, r4, r0, lsl #26
    42d0:	042d1700 	strteq	r1, [sp], #-1792	; 0x700
    42d4:	0e170000 	cdpeq	0, 1, cr0, cr7, cr0, {0}
    42d8:	17000001 	strne	r0, [r0, -r1]
    42dc:	00000110 	andeq	r0, r0, r0, lsl r1
    42e0:	00002517 	andeq	r2, r0, r7, lsl r5
    42e4:	04060000 	streq	r0, [r6], #-0
    42e8:	00000438 	andeq	r0, r0, r8, lsr r4
    42ec:	00042d10 	andeq	r2, r4, r0, lsl sp
    42f0:	11c71800 	bicne	r1, r7, r0, lsl #16
    42f4:	04280000 	strteq	r0, [r8], #-0
    42f8:	6a026007 	bvs	9c31c <__bss_end__+0x90364>
    42fc:	19000005 	stmdbne	r0, {r0, r2}
    4300:	00001125 	andeq	r1, r0, r5, lsr #2
    4304:	25026207 	strcs	r6, [r2, #-519]	; 0x207
    4308:	00000000 	andeq	r0, r0, r0
    430c:	000e4e19 	andeq	r4, lr, r9, lsl lr
    4310:	02670700 	rsbeq	r0, r7, #0, 14
    4314:	0000063f 	andeq	r0, r0, pc, lsr r6
    4318:	0f031904 	svceq	0x00031904
    431c:	67070000 	strvs	r0, [r7, -r0]
    4320:	00063f02 	andeq	r3, r6, r2, lsl #30
    4324:	ce190800 	cdpgt	8, 1, cr0, cr9, cr0, {0}
    4328:	0700000e 	streq	r0, [r0, -lr]
    432c:	063f0267 	ldrteq	r0, [pc], -r7, ror #4
    4330:	190c0000 	stmdbne	ip, {}	; <UNPREDICTABLE>
    4334:	0000118a 	andeq	r1, r0, sl, lsl #3
    4338:	25026907 	strcs	r6, [r2, #-2311]	; 0x907
    433c:	10000000 	andne	r0, r0, r0
    4340:	000d6719 	andeq	r6, sp, r9, lsl r7
    4344:	026a0700 	rsbeq	r0, sl, #0, 14
    4348:	00000821 	andeq	r0, r0, r1, lsr #16
    434c:	11a61914 			; <UNDEFINED> instruction: 0x11a61914
    4350:	6d070000 	stcvs	0, cr0, [r7, #-0]
    4354:	00002502 	andeq	r2, r0, r2, lsl #10
    4358:	94193000 	ldrls	r3, [r9], #-0
    435c:	07000011 	smladeq	r0, r1, r0, r0
    4360:	0836026e 	ldmdaeq	r6!, {r1, r2, r3, r5, r6, r9}
    4364:	19340000 	ldmdbne	r4!, {}	; <UNPREDICTABLE>
    4368:	00001099 	muleq	r0, r9, r0
    436c:	25027007 	strcs	r7, [r2, #-7]
    4370:	38000000 	stmdacc	r0, {}	; <UNPREDICTABLE>
    4374:	00119c19 	andseq	r9, r1, r9, lsl ip
    4378:	02720700 	rsbseq	r0, r2, #0, 14
    437c:	00000847 	andeq	r0, r0, r7, asr #16
    4380:	0f56193c 	svceq	0x0056193c
    4384:	75070000 	strvc	r0, [r7, #-0]
    4388:	00018002 	andeq	r8, r1, r2
    438c:	ed194000 	ldc	0, cr4, [r9, #-0]
    4390:	0700000e 	streq	r0, [r0, -lr]
    4394:	00250276 	eoreq	r0, r5, r6, ror r2
    4398:	19440000 	stmdbne	r4, {}^	; <UNPREDICTABLE>
    439c:	00001363 	andeq	r1, r0, r3, ror #6
    43a0:	80027707 	andhi	r7, r2, r7, lsl #14
    43a4:	48000001 	stmdami	r0, {r0}
    43a8:	0010ab19 	andseq	sl, r0, r9, lsl fp
    43ac:	02780700 	rsbseq	r0, r8, #0, 14
    43b0:	0000084d 	andeq	r0, r0, sp, asr #16
    43b4:	0f0b194c 	svceq	0x000b194c
    43b8:	7b070000 	blvc	1c43c0 <__bss_end__+0x1b8408>
    43bc:	00002502 	andeq	r2, r0, r2, lsl #10
    43c0:	75195000 	ldrvc	r5, [r9, #-0]
    43c4:	0700000e 	streq	r0, [r0, -lr]
    43c8:	0110027c 	tsteq	r0, ip, ror r2
    43cc:	19540000 	ldmdbne	r4, {}^	; <UNPREDICTABLE>
    43d0:	000013c1 	andeq	r1, r0, r1, asr #7
    43d4:	ff029f07 			; <UNDEFINED> instruction: 0xff029f07
    43d8:	58000007 	stmdapl	r0, {r0, r1, r2}
    43dc:	000ffd1a 	andeq	pc, pc, sl, lsl sp	; <UNPREDICTABLE>
    43e0:	02a30700 	adceq	r0, r3, #0, 14
    43e4:	0000029d 	muleq	r0, sp, r2
    43e8:	201a0148 	andscs	r0, sl, r8, asr #2
    43ec:	0700000f 	streq	r0, [r0, -pc]
    43f0:	025f02a4 	subseq	r0, pc, #164, 4	; 0x4000000a
    43f4:	014c0000 	mrseq	r0, (UNDEF: 76)
    43f8:	0012ec1a 	andseq	lr, r2, sl, lsl ip
    43fc:	02a80700 	adceq	r0, r8, #0, 14
    4400:	0000085e 	andeq	r0, r0, lr, asr r8
    4404:	2e1a02dc 	mrccs	2, 0, r0, cr10, cr12, {6}
    4408:	0700000e 	streq	r0, [r0, -lr]
    440c:	060402ad 	streq	r0, [r4], -sp, lsr #5
    4410:	02e00000 	rsceq	r0, r0, #0
    4414:	000e131a 	andeq	r1, lr, sl, lsl r3
    4418:	02af0700 	adceq	r0, pc, #0, 14
    441c:	0000086a 	andeq	r0, r0, sl, ror #16
    4420:	060002ec 	streq	r0, [r0], -ip, ror #5
    4424:	00040f04 	andeq	r0, r4, r4, lsl #30
    4428:	00251600 	eoreq	r1, r5, r0, lsl #12
    442c:	058e0000 	streq	r0, [lr]
    4430:	2d170000 	ldccs	0, cr0, [r7, #-0]
    4434:	17000004 	strne	r0, [r0, -r4]
    4438:	0000010e 	andeq	r0, r0, lr, lsl #2
    443c:	00058e17 	andeq	r8, r5, r7, lsl lr
    4440:	00251700 	eoreq	r1, r5, r0, lsl #14
    4444:	06000000 	streq	r0, [r0], -r0
    4448:	00011d04 	andeq	r1, r1, r4, lsl #26
    444c:	70040600 	andvc	r0, r4, r0, lsl #12
    4450:	16000005 	strne	r0, [r0], -r5
    4454:	00000091 	muleq	r0, r1, r0
    4458:	000005b8 			; <UNDEFINED> instruction: 0x000005b8
    445c:	00042d17 	andeq	r2, r4, r7, lsl sp
    4460:	010e1700 	tsteq	lr, r0, lsl #14
    4464:	91170000 	tstls	r7, r0
    4468:	17000000 	strne	r0, [r0, -r0]
    446c:	00000025 	andeq	r0, r0, r5, lsr #32
    4470:	9a040600 	bls	105c78 <__bss_end__+0xf9cc0>
    4474:	16000005 	strne	r0, [r0], -r5
    4478:	00000025 	andeq	r0, r0, r5, lsr #32
    447c:	000005d2 	ldrdeq	r0, [r0], -r2
    4480:	00042d17 	andeq	r2, r4, r7, lsl sp
    4484:	010e1700 	tsteq	lr, r0, lsl #14
    4488:	06000000 	streq	r0, [r0], -r0
    448c:	0005be04 	andeq	fp, r5, r4, lsl #28
    4490:	00540b00 	subseq	r0, r4, r0, lsl #22
    4494:	05e80000 	strbeq	r0, [r8, #0]!
    4498:	2c0c0000 	stccs	0, cr0, [ip], {-0}
    449c:	02000000 	andeq	r0, r0, #0
    44a0:	00540b00 	subseq	r0, r4, r0, lsl #22
    44a4:	05f80000 	ldrbeq	r0, [r8, #0]!
    44a8:	2c0c0000 	stccs	0, cr0, [ip], {-0}
    44ac:	00000000 	andeq	r0, r0, r0
    44b0:	11430800 	cmpne	r3, r0, lsl #16
    44b4:	1f070000 	svcne	0x00070000
    44b8:	0002e501 	andeq	lr, r2, r1, lsl #10
    44bc:	12d31b00 	sbcsne	r1, r3, #0, 22
    44c0:	070c0000 	streq	r0, [ip, -r0]
    44c4:	06390123 	ldrteq	r0, [r9], -r3, lsr #2
    44c8:	6b190000 	blvs	6444d0 <__bss_end__+0x638518>
    44cc:	07000011 	smladeq	r0, r1, r0, r0
    44d0:	06390125 	ldrteq	r0, [r9], -r5, lsr #2
    44d4:	19000000 	stmdbne	r0, {}	; <UNPREDICTABLE>
    44d8:	00000f19 	andeq	r0, r0, r9, lsl pc
    44dc:	25012607 	strcs	r2, [r1, #-1543]	; 0x607
    44e0:	04000000 	streq	r0, [r0], #-0
    44e4:	00113d19 	andseq	r3, r1, r9, lsl sp
    44e8:	01270700 	teqeq	r7, r0, lsl #14
    44ec:	0000063f 	andeq	r0, r0, pc, lsr r6
    44f0:	04060008 	streq	r0, [r6], #-8
    44f4:	00000604 	andeq	r0, r0, r4, lsl #12
    44f8:	05f80406 	ldrbeq	r0, [r8, #1030]!	; 0x406
    44fc:	5f1b0000 	svcpl	0x001b0000
    4500:	0e00000d 	cdpeq	0, 0, cr0, cr0, cr13, {0}
    4504:	7a013f07 	bvc	54128 <__bss_end__+0x48170>
    4508:	19000006 	stmdbne	r0, {r1, r2}
    450c:	000011ce 	andeq	r1, r0, lr, asr #3
    4510:	7a014007 	bvc	54534 <__bss_end__+0x4857c>
    4514:	00000006 	andeq	r0, r0, r6
    4518:	00123319 	andseq	r3, r2, r9, lsl r3
    451c:	01410700 	cmpeq	r1, r0, lsl #14
    4520:	0000067a 	andeq	r0, r0, sl, ror r6
    4524:	124f1906 	subne	r1, pc, #98304	; 0x18000
    4528:	42070000 	andmi	r0, r7, #0
    452c:	00005b01 	andeq	r5, r0, r1, lsl #22
    4530:	0b000c00 	bleq	7538 <_start-0xac8>
    4534:	0000005b 	andeq	r0, r0, fp, asr r0
    4538:	0000068a 	andeq	r0, r0, sl, lsl #13
    453c:	00002c0c 	andeq	r2, r0, ip, lsl #24
    4540:	1c000200 	sfmne	f0, 4, [r0], {-0}
    4544:	028007d0 	addeq	r0, r0, #208, 14	; 0x3400000
    4548:	0000078b 	andeq	r0, r0, fp, lsl #15
    454c:	00129d19 	andseq	r9, r2, r9, lsl sp
    4550:	02820700 	addeq	r0, r2, #0, 14
    4554:	0000002c 	andeq	r0, r0, ip, lsr #32
    4558:	12391900 	eorsne	r1, r9, #0, 18
    455c:	83070000 	movwhi	r0, #28672	; 0x7000
    4560:	00011002 	andeq	r1, r1, r2
    4564:	49190400 	ldmdbmi	r9, {sl}
    4568:	0700000f 	streq	r0, [r0, -pc]
    456c:	078b0284 	streq	r0, [fp, r4, lsl #5]
    4570:	19080000 	stmdbne	r8, {}	; <UNPREDICTABLE>
    4574:	0000132b 	andeq	r1, r0, fp, lsr #6
    4578:	96028507 	strls	r8, [r2], -r7, lsl #10
    457c:	24000001 	strcs	r0, [r0], #-1
    4580:	000ede19 	andeq	sp, lr, r9, lsl lr
    4584:	02860700 	addeq	r0, r6, #0, 14
    4588:	00000025 	andeq	r0, r0, r5, lsr #32
    458c:	11661948 	cmnne	r6, r8, asr #18
    4590:	87070000 	strhi	r0, [r7, -r0]
    4594:	00006902 	andeq	r6, r0, r2, lsl #18
    4598:	41195000 	tstmi	r9, r0
    459c:	07000013 	smladeq	r0, r3, r0, r0
    45a0:	06450288 	strbeq	r0, [r5], -r8, lsl #5
    45a4:	19580000 	ldmdbne	r8, {}^	; <UNPREDICTABLE>
    45a8:	0000117d 	andeq	r1, r0, sp, ror r1
    45ac:	f8028907 			; <UNDEFINED> instruction: 0xf8028907
    45b0:	68000000 	stmdavs	r0, {}	; <UNPREDICTABLE>
    45b4:	00135519 	andseq	r5, r3, r9, lsl r5
    45b8:	028a0700 	addeq	r0, sl, #0, 14
    45bc:	000000f8 	strdeq	r0, [r0], -r8
    45c0:	10b51970 	adcsne	r1, r5, r0, ror r9
    45c4:	8b070000 	blhi	1c45cc <__bss_end__+0x1b8614>
    45c8:	0000f802 	andeq	pc, r0, r2, lsl #16
    45cc:	e2197800 	ands	r7, r9, #0, 16
    45d0:	07000012 	smladeq	r0, r2, r0, r0
    45d4:	079b028c 	ldreq	r0, [fp, ip, lsl #5]
    45d8:	19800000 	stmibne	r0, {}	; <UNPREDICTABLE>
    45dc:	00000f3d 	andeq	r0, r0, sp, lsr pc
    45e0:	ab028d07 	blge	a7a04 <__bss_end__+0x9ba4c>
    45e4:	88000007 	stmdahi	r0, {r0, r1, r2}
    45e8:	00126719 	andseq	r6, r2, r9, lsl r7
    45ec:	028e0700 	addeq	r0, lr, #0, 14
    45f0:	00000025 	andeq	r0, r0, r5, lsr #32
    45f4:	0e9b19a0 	cdpeq	9, 9, cr1, cr11, cr0, {5}
    45f8:	8f070000 	svchi	0x00070000
    45fc:	0000f802 	andeq	pc, r0, r2, lsl #16
    4600:	d419a400 	ldrle	sl, [r9], #-1024	; 0x400
    4604:	0700000d 	streq	r0, [r0, -sp]
    4608:	00f80290 	smlalseq	r0, r8, r0, r2
    460c:	19ac0000 	stmibne	ip!, {}	; <UNPREDICTABLE>
    4610:	00000e8a 	andeq	r0, r0, sl, lsl #29
    4614:	f8029107 			; <UNDEFINED> instruction: 0xf8029107
    4618:	b4000000 	strlt	r0, [r0], #-0
    461c:	000d9019 	andeq	r9, sp, r9, lsl r0
    4620:	02920700 	addseq	r0, r2, #0, 14
    4624:	000000f8 	strdeq	r0, [r0], -r8
    4628:	0d9f19bc 	ldceq	9, cr1, [pc, #752]	; 4920 <_start-0x36e0>
    462c:	93070000 	movwls	r0, #28672	; 0x7000
    4630:	0000f802 	andeq	pc, r0, r2, lsl #16
    4634:	2319c400 	tstcs	r9, #0, 8
    4638:	07000011 	smladeq	r0, r1, r0, r0
    463c:	00250294 	mlaeq	r5, r4, r2, r0
    4640:	00cc0000 	sbceq	r0, ip, r0
    4644:	0001160b 	andeq	r1, r1, fp, lsl #12
    4648:	00079b00 	andeq	r9, r7, r0, lsl #22
    464c:	002c0c00 	eoreq	r0, ip, r0, lsl #24
    4650:	00190000 	andseq	r0, r9, r0
    4654:	0001160b 	andeq	r1, r1, fp, lsl #12
    4658:	0007ab00 	andeq	sl, r7, r0, lsl #22
    465c:	002c0c00 	eoreq	r0, ip, r0, lsl #24
    4660:	00070000 	andeq	r0, r7, r0
    4664:	0001160b 	andeq	r1, r1, fp, lsl #12
    4668:	0007bb00 	andeq	fp, r7, r0, lsl #22
    466c:	002c0c00 	eoreq	r0, ip, r0, lsl #24
    4670:	00170000 	andseq	r0, r7, r0
    4674:	9907f01c 	stmdbls	r7, {r2, r3, r4, ip, sp, lr, pc}
    4678:	0007df02 	andeq	sp, r7, r2, lsl #30
    467c:	0fd51900 	svceq	0x00d51900
    4680:	9c070000 	stcls	0, cr0, [r7], {-0}
    4684:	0007df02 	andeq	sp, r7, r2, lsl #30
    4688:	d9190000 	ldmdble	r9, {}	; <UNPREDICTABLE>
    468c:	07000012 	smladeq	r0, r2, r0, r0
    4690:	07ef029d 			; <UNDEFINED> instruction: 0x07ef029d
    4694:	00780000 	rsbseq	r0, r8, r0
    4698:	0002df0b 	andeq	sp, r2, fp, lsl #30
    469c:	0007ef00 	andeq	lr, r7, r0, lsl #30
    46a0:	002c0c00 	eoreq	r0, ip, r0, lsl #24
    46a4:	001d0000 	andseq	r0, sp, r0
    46a8:	00002c0b 	andeq	r2, r0, fp, lsl #24
    46ac:	0007ff00 	andeq	pc, r7, r0, lsl #30
    46b0:	002c0c00 	eoreq	r0, ip, r0, lsl #24
    46b4:	001d0000 	andseq	r0, sp, r0
    46b8:	7e07f01d 	mcrvc	0, 0, pc, cr7, cr13, {0}	; <UNPREDICTABLE>
    46bc:	00082102 	andeq	r2, r8, r2, lsl #2
    46c0:	11c71e00 	bicne	r1, r7, r0, lsl #28
    46c4:	95070000 	strls	r0, [r7, #-0]
    46c8:	00068a02 	andeq	r8, r6, r2, lsl #20
    46cc:	12fc1e00 	rscsne	r1, ip, #0, 28
    46d0:	9e070000 	cdpls	0, 0, cr0, cr7, cr0, {0}
    46d4:	0007bb02 	andeq	fp, r7, r2, lsl #22
    46d8:	160b0000 	strne	r0, [fp], -r0
    46dc:	31000001 	tstcc	r0, r1
    46e0:	0c000008 	stceq	0, cr0, [r0], {8}
    46e4:	0000002c 	andeq	r0, r0, ip, lsr #32
    46e8:	c0070018 	andgt	r0, r7, r8, lsl r0
    46ec:	0600000d 	streq	r0, [r0], -sp
    46f0:	00083104 	andeq	r3, r8, r4, lsl #2
    46f4:	08471f00 	stmdaeq	r7, {r8, r9, sl, fp, ip}^
    46f8:	2d170000 	ldccs	0, cr0, [r7, #-0]
    46fc:	00000004 	andeq	r0, r0, r4
    4700:	083c0406 	ldmdaeq	ip!, {r1, r2, sl}
    4704:	04060000 	streq	r0, [r6], #-0
    4708:	00000180 	andeq	r0, r0, r0, lsl #3
    470c:	00085e1f 	andeq	r5, r8, pc, lsl lr
    4710:	00251700 	eoreq	r1, r5, r0, lsl #14
    4714:	06000000 	streq	r0, [r0], -r0
    4718:	00086404 	andeq	r6, r8, r4, lsl #8
    471c:	53040600 	movwpl	r0, #17920	; 0x4600
    4720:	0b000008 	bleq	4748 <_start-0x38b8>
    4724:	000005f8 	strdeq	r0, [r0], -r8
    4728:	0000087a 	andeq	r0, r0, sl, ror r8
    472c:	00002c0c 	andeq	r2, r0, ip, lsl #24
    4730:	20000200 	andcs	r0, r0, r0, lsl #4
    4734:	0000128a 	andeq	r1, r0, sl, lsl #5
    4738:	2d032e07 	stccs	14, cr2, [r3, #-28]	; 0xffffffe4
    473c:	20000004 	andcs	r0, r0, r4
    4740:	00001283 	andeq	r1, r0, r3, lsl #5
    4744:	33032f07 	movwcc	r2, #16135	; 0x3f07
    4748:	16000004 	strne	r0, [r0], -r4
    474c:	00000025 	andeq	r0, r0, r5, lsr #32
    4750:	000008a1 	andeq	r0, r0, r1, lsr #17
    4754:	00002517 	andeq	r2, r0, r7, lsl r5
    4758:	30210000 	eorcc	r0, r1, r0
    475c:	08000005 	stmdaeq	r0, {r0, r2}
    4760:	0008ac1d 	andeq	sl, r8, sp, lsl ip
    4764:	92040600 	andls	r0, r4, #0, 12
    4768:	16000008 	strne	r0, [r0], -r8
    476c:	00000025 	andeq	r0, r0, r5, lsr #32
    4770:	000008c1 	andeq	r0, r0, r1, asr #17
    4774:	00058e17 	andeq	r8, r5, r7, lsl lr
    4778:	60210000 	eorvs	r0, r1, r0
    477c:	08000005 	stmdaeq	r0, {r0, r2}
    4780:	0008cc22 	andeq	ip, r8, r2, lsr #24
    4784:	b2040600 	andlt	r0, r4, #0, 12
    4788:	22000008 	andcs	r0, r0, #8
    478c:	002c0407 	eoreq	r0, ip, r7, lsl #8
    4790:	14030000 	strne	r0, [r3], #-0
    4794:	00000943 	andeq	r0, r0, r3, asr #18
    4798:	000d1f23 	andeq	r1, sp, r3, lsr #30
    479c:	00b20000 	adcseq	r0, r2, r0
    47a0:	0c042320 	stceq	3, cr2, [r4], {32}
    47a4:	b2000000 	andlt	r0, r0, #0
    47a8:	99232000 	stmdbls	r3!, {sp}
    47ac:	0400000c 	streq	r0, [r0], #-12
    47b0:	232000b2 	teqcs	r0, #178	; 0xb2
    47b4:	00000c6b 	andeq	r0, r0, fp, ror #24
    47b8:	2000b208 	andcs	fp, r0, r8, lsl #4
    47bc:	000be723 	andeq	lr, fp, r3, lsr #14
    47c0:	00b20c00 	adcseq	r0, r2, r0, lsl #24
    47c4:	0c282320 	stceq	3, cr2, [r8], #-128	; 0xffffff80
    47c8:	b2100000 	andslt	r0, r0, #0
    47cc:	36232000 	strtcc	r2, [r3], -r0
    47d0:	1400000c 	strne	r0, [r0], #-12
    47d4:	232000b2 	teqcs	r0, #178	; 0xb2
    47d8:	00000c16 	andeq	r0, r0, r6, lsl ip
    47dc:	2000b218 	andcs	fp, r0, r8, lsl r2
    47e0:	000ceb23 	andeq	lr, ip, r3, lsr #22
    47e4:	00b21c00 	adcseq	r1, r2, r0, lsl #24
    47e8:	0cfa2320 	ldcleq	3, cr2, [sl], #128	; 0x80
    47ec:	b2200000 	eorlt	r0, r0, #0
    47f0:	d4232000 	strtle	r2, [r3], #-0
    47f4:	2400000b 	strcs	r0, [r0], #-11
    47f8:	002000b2 	strhteq	r0, [r0], -r2
    47fc:	0010d611 	andseq	sp, r0, r1, lsl r6
    4800:	06092c00 	streq	r2, [r9], -r0, lsl #24
    4804:	000009d3 	ldrdeq	r0, [r0], -r3
    4808:	006f6912 	rsbeq	r6, pc, r2, lsl r9	; <UNPREDICTABLE>
    480c:	00330909 	eorseq	r0, r3, r9, lsl #18
    4810:	12000000 	andne	r0, r0, #0
    4814:	00726569 	rsbseq	r6, r2, r9, ror #10
    4818:	00330a09 	eorseq	r0, r3, r9, lsl #20
    481c:	12040000 	andne	r0, r4, #0
    4820:	00726969 	rsbseq	r6, r2, r9, ror #18
    4824:	00331109 	eorseq	r1, r3, r9, lsl #2
    4828:	12080000 	andne	r0, r8, #0
    482c:	0072636c 	rsbseq	r6, r2, ip, ror #6
    4830:	00331309 	eorseq	r1, r3, r9, lsl #6
    4834:	120c0000 	andne	r0, ip, #0
    4838:	0072636d 	rsbseq	r6, r2, sp, ror #6
    483c:	00331409 	eorseq	r1, r3, r9, lsl #8
    4840:	12100000 	andsne	r0, r0, #0
    4844:	0072736c 	rsbseq	r7, r2, ip, ror #6
    4848:	00331509 	eorseq	r1, r3, r9, lsl #10
    484c:	12140000 	andsne	r0, r4, #0
    4850:	0072736d 	rsbseq	r7, r2, sp, ror #6
    4854:	00331609 	eorseq	r1, r3, r9, lsl #12
    4858:	0e180000 	cdpeq	0, 1, cr0, cr8, cr0, {0}
    485c:	0000122b 	andeq	r1, r0, fp, lsr #4
    4860:	00331709 	eorseq	r1, r3, r9, lsl #14
    4864:	0e1c0000 	cdpeq	0, 1, cr0, cr12, cr0, {0}
    4868:	00000e04 	andeq	r0, r0, r4, lsl #28
    486c:	00331b09 	eorseq	r1, r3, r9, lsl #22
    4870:	0e200000 	cdpeq	0, 2, cr0, cr0, cr0, {0}
    4874:	0000081b 	andeq	r0, r0, fp, lsl r8
    4878:	00331d09 	eorseq	r1, r3, r9, lsl #26
    487c:	0e240000 	cdpeq	0, 2, cr0, cr4, cr0, {0}
    4880:	00000652 	andeq	r0, r0, r2, asr r6
    4884:	00331e09 	eorseq	r1, r3, r9, lsl #28
    4888:	00280000 	eoreq	r0, r8, r0
    488c:	5b020722 	blpl	8651c <__bss_end__+0x7a564>
    4890:	0a000000 	beq	4898 <_start-0x3768>
    4894:	0009f505 	andeq	pc, r9, r5, lsl #10
    4898:	10e22400 	rscne	r2, r2, r0, lsl #8
    489c:	25000000 	strcs	r0, [r0, #-0]
    48a0:	00001171 	andeq	r1, r0, r1, ror r1
    48a4:	ec250457 	cfstrs	mvf0, [r5], #-348	; 0xfffffea4
    48a8:	ae00000d 	cdpge	0, 0, cr0, cr0, cr13, {0}
    48ac:	f1050008 			; <UNDEFINED> instruction: 0xf1050008
    48b0:	0a000011 	beq	48fc <_start-0x3704>
    48b4:	0009d305 	andeq	sp, r9, r5, lsl #6
    48b8:	0d860500 	cfstr32eq	mvfx0, [r6]
    48bc:	070a0000 	streq	r0, [sl, -r0]
    48c0:	00000943 	andeq	r0, r0, r3, asr #18
    48c4:	000e5e21 	andeq	r5, lr, r1, lsr #28
    48c8:	33160a00 	tstcc	r6, #0, 20
    48cc:	26000000 	strcs	r0, [r0], -r0
    48d0:	00000fc4 	andeq	r0, r0, r4, asr #31
    48d4:	0a2b0701 	beq	ac64e0 <__bss_end__+0xaba528>
    48d8:	50000000 	andpl	r0, r0, r0
    48dc:	04062021 	streq	r2, [r6], #-33	; 0x21
    48e0:	0000002c 	andeq	r0, r0, ip, lsr #32
    48e4:	000a2510 	andeq	r2, sl, r0, lsl r5
    48e8:	12af0500 	adcne	r0, pc, #0, 10
    48ec:	1c020000 	stcne	0, cr0, [r2], {-0}
    48f0:	00000054 	andeq	r0, r0, r4, asr r0
    48f4:	000a3004 	andeq	r3, sl, r4
    48f8:	08142700 	ldmdaeq	r4, {r8, r9, sl, sp}
    48fc:	0a9a2802 	beq	fe68e90c <__bss_end__+0xfe682954>
    4900:	b00e0000 	andlt	r0, lr, r0
    4904:	0200000f 	andeq	r0, r0, #15
    4908:	000aab2a 	andeq	sl, sl, sl, lsr #22
    490c:	25140000 	ldrcs	r0, [r4, #-0]
    4910:	02000012 	andeq	r0, r0, #18
    4914:	00002c2b 	andeq	r2, r0, fp, lsr #24
    4918:	14080000 	strne	r0, [r8], #-0
    491c:	00000e70 	andeq	r0, r0, r0, ror lr
    4920:	00332c02 	eorseq	r2, r3, r2, lsl #24
    4924:	08040000 	stmdaeq	r4, {}	; <UNPREDICTABLE>
    4928:	000fb614 	andeq	fp, pc, r4, lsl r6	; <UNPREDICTABLE>
    492c:	332c0200 	teqcc	ip, #0, 4
    4930:	08000000 	stmdaeq	r0, {}	; <UNPREDICTABLE>
    4934:	13a11408 			; <UNDEFINED> instruction: 0x13a11408
    4938:	2f020000 	svccs	0x00020000
    493c:	00000033 	andeq	r0, r0, r3, lsr r0
    4940:	7228080c 	eorvc	r0, r8, #12, 16	; 0xc0000
    4944:	0200000d 	andeq	r0, r0, #13
    4948:	00002c31 	andeq	r2, r0, r1, lsr ip
    494c:	1f010400 	svcne	0x00010400
    4950:	0b000810 	bleq	6998 <_start-0x1668>
    4954:	00000a3b 	andeq	r0, r0, fp, lsr sl
    4958:	00000aab 	andeq	r0, r0, fp, lsr #21
    495c:	00002c29 	andeq	r2, r0, r9, lsr #24
    4960:	0007ff00 	andeq	pc, r7, r0, lsl #30
    4964:	000a9a04 	andeq	r9, sl, r4, lsl #20
    4968:	12aa0500 	adcne	r0, sl, #0, 10
    496c:	32020000 	andcc	r0, r2, #0
    4970:	00000a40 	andeq	r0, r0, r0, asr #20
    4974:	000d812a 	andeq	r8, sp, sl, lsr #2
    4978:	b00f0100 	andlt	r0, pc, r0, lsl #2
    497c:	0500000a 	streq	r0, [r0, #-10]
    4980:	00af8803 	adceq	r8, pc, r3, lsl #16
    4984:	0e852a00 	vdiveq.f32	s4, s10, s0
    4988:	10010000 	andne	r0, r1, r0
    498c:	00000ab0 			; <UNDEFINED> instruction: 0x00000ab0
    4990:	b79c0305 	ldrlt	r0, [ip, r5, lsl #6]
    4994:	0b2b0000 	bleq	ac499c <__bss_end__+0xab89e4>
    4998:	0100000a 	tsteq	r0, sl
    499c:	b0030511 	andlt	r0, r3, r1, lsl r5
    49a0:	2c0000bf 	stccs	0, cr0, [r0], {191}	; 0xbf
    49a4:	000001b5 			; <UNDEFINED> instruction: 0x000001b5
    49a8:	0025cb01 	eoreq	ip, r5, r1, lsl #22
    49ac:	a29c0000 	addsge	r0, ip, #0
    49b0:	00c00000 	sbceq	r0, r0, r0
    49b4:	9c010000 	stcls	0, cr0, [r1], {-0}
    49b8:	00000c41 	andeq	r0, r0, r1, asr #24
    49bc:	0100632d 	tsteq	r0, sp, lsr #6
    49c0:	000025cb 	andeq	r2, r0, fp, asr #11
    49c4:	00237600 	eoreq	r7, r3, r0, lsl #12
    49c8:	01792e00 	cmneq	r9, r0, lsl #28
    49cc:	0c510000 	mraeq	r0, r1, acc0
    49d0:	03050000 	movweq	r0, #20480	; 0x5000
    49d4:	0000a954 	andeq	sl, r0, r4, asr r9
    49d8:	0100752f 	tsteq	r0, pc, lsr #10
    49dc:	000c56d5 	ldrdeq	r5, [ip], -r5	; <UNPREDICTABLE>
    49e0:	19fa3000 	ldmibne	sl!, {ip, sp}^
    49e4:	a2a00000 	adcge	r0, r0, #0
    49e8:	00480000 	subeq	r0, r8, r0
    49ec:	cd010000 	stcgt	0, cr0, [r1, #-0]
    49f0:	00000b7a 	andeq	r0, r0, sl, ror fp
    49f4:	001a1331 	andseq	r1, sl, r1, lsr r3
    49f8:	00239700 	eoreq	r9, r3, r0, lsl #14
    49fc:	1a0a3100 	bne	290e04 <__bss_end__+0x284e4c>
    4a00:	23aa0000 			; <UNDEFINED> instruction: 0x23aa0000
    4a04:	a0320000 	eorsge	r0, r2, r0
    4a08:	480000a2 	stmdami	r0, {r1, r5, r7}
    4a0c:	33000000 	movwcc	r0, #0
    4a10:	00001a1c 	andeq	r1, r0, ip, lsl sl
    4a14:	000023c2 	andeq	r2, r0, r2, asr #7
    4a18:	001abb34 	andseq	fp, sl, r4, lsr fp
    4a1c:	00a2a800 	adceq	sl, r2, r0, lsl #16
    4a20:	00001400 	andeq	r1, r0, r0, lsl #8
    4a24:	31580200 	cmpcc	r8, r0, lsl #4
    4a28:	00001acb 	andeq	r1, r0, fp, asr #21
    4a2c:	000023d5 	ldrdeq	r2, [r0], -r5
    4a30:	30000000 	andcc	r0, r0, r0
    4a34:	00001b10 	andeq	r1, r0, r0, lsl fp
    4a38:	0000a2e8 	andeq	sl, r0, r8, ror #5
    4a3c:	00000004 	andeq	r0, r0, r4
    4a40:	0badd401 	bleq	feb79a4c <__bss_end__+0xfeb6da94>
    4a44:	1c340000 	ldcne	0, cr0, [r4], #-0
    4a48:	e800001b 	stmda	r0, {r0, r1, r3, r4}
    4a4c:	040000a2 	streq	r0, [r0], #-162	; 0xa2
    4a50:	03000000 	movweq	r0, #0
    4a54:	a2e8322e 	rscge	r3, r8, #-536870910	; 0xe0000002
    4a58:	00040000 	andeq	r0, r4, r0
    4a5c:	2c350000 	ldccs	0, cr0, [r5], #-0
    4a60:	0000001b 	andeq	r0, r0, fp, lsl r0
    4a64:	f8360000 			; <UNDEFINED> instruction: 0xf8360000
    4a68:	380000a2 	stmdacc	r0, {r1, r5, r7}
    4a6c:	3600001b 			; <UNDEFINED> instruction: 0x3600001b
    4a70:	0000a2fc 	strdeq	sl, [r0], -ip
    4a74:	00001b43 	andeq	r1, r0, r3, asr #22
    4a78:	00a30437 	adceq	r0, r3, r7, lsr r4
    4a7c:	00177300 	andseq	r7, r7, r0, lsl #6
    4a80:	000bd600 	andeq	sp, fp, r0, lsl #12
    4a84:	50013800 	andpl	r3, r1, r0, lsl #16
    4a88:	50400c05 	subpl	r0, r0, r5, lsl #24
    4a8c:	36002021 	strcc	r2, [r0], -r1, lsr #32
    4a90:	0000a310 	andeq	sl, r0, r0, lsl r3
    4a94:	00001b4e 	andeq	r1, r0, lr, asr #22
    4a98:	00a31c36 	adceq	r1, r3, r6, lsr ip
    4a9c:	001b5900 	andseq	r5, fp, r0, lsl #18
    4aa0:	a3303700 	teqge	r0, #0, 14
    4aa4:	1b640000 	blne	1904aac <__bss_end__+0x18f8af4>
    4aa8:	0c170000 	ldceq	0, cr0, [r7], {-0}
    4aac:	01380000 	teqeq	r8, r0
    4ab0:	58030550 	stmdapl	r3, {r4, r6, r8, sl}
    4ab4:	380000ab 	stmdacc	r0, {r0, r1, r3, r5, r7}
    4ab8:	03055101 	movweq	r5, #20737	; 0x5101
    4abc:	0000a964 	andeq	sl, r0, r4, ror #18
    4ac0:	05520138 	ldrbeq	r0, [r2, #-312]	; 0x138
    4ac4:	00a95403 	adceq	r5, r9, r3, lsl #8
    4ac8:	53013800 	movwpl	r3, #6144	; 0x1800
    4acc:	00d40802 	sbcseq	r0, r4, r2, lsl #16
    4ad0:	00a33436 	adceq	r3, r3, r6, lsr r4
    4ad4:	001b6f00 	andseq	r6, fp, r0, lsl #30
    4ad8:	a33c3700 	teqge	ip, #0, 14
    4adc:	17af0000 	strne	r0, [pc, r0]!
    4ae0:	0c370000 	ldceq	0, cr0, [r7], #-0
    4ae4:	01380000 	teqeq	r8, r0
    4ae8:	400c0550 	andmi	r0, ip, r0, asr r5
    4aec:	00202150 	eoreq	r2, r0, r0, asr r1
    4af0:	00a34036 	adceq	r4, r3, r6, lsr r0
    4af4:	001b3800 	andseq	r3, fp, r0, lsl #16
    4af8:	1d0b0000 	stcne	0, cr0, [fp, #-0]
    4afc:	51000001 	tstpl	r0, r1
    4b00:	0c00000c 	stceq	0, cr0, [r0], {12}
    4b04:	0000002c 	andeq	r0, r0, ip, lsr #32
    4b08:	4110000d 	tstmi	r0, sp
    4b0c:	0600000c 	streq	r0, [r0], -ip
    4b10:	000a0004 	andeq	r0, sl, r4
    4b14:	01292c00 	teqeq	r9, r0, lsl #24
    4b18:	bb010000 	bllt	44b20 <__bss_end__+0x38b68>
    4b1c:	00000025 	andeq	r0, r0, r5, lsr #32
    4b20:	0000a228 	andeq	sl, r0, r8, lsr #4
    4b24:	00000074 	andeq	r0, r0, r4, ror r0
    4b28:	0d479c01 	stcleq	12, cr9, [r7, #-4]
    4b2c:	28390000 	ldmdacs	r9!, {}	; <UNPREDICTABLE>
    4b30:	3c00001a 	stccc	0, cr0, [r0], {26}
    4b34:	b80000a2 	stmdalt	r0, {r1, r5, r7}
    4b38:	01000000 	mrseq	r0, (UNDEF: 0)
    4b3c:	000d34bf 			; <UNDEFINED> instruction: 0x000d34bf
    4b40:	1a383100 	bne	e10f48 <__bss_end__+0xe04f90>
    4b44:	23ed0000 	mvncs	r0, #0
    4b48:	b83a0000 	ldmdalt	sl!, {}	; <UNPREDICTABLE>
    4b4c:	33000000 	movwcc	r0, #0
    4b50:	00001a41 	andeq	r1, r0, r1, asr #20
    4b54:	00002415 	andeq	r2, r0, r5, lsl r4
    4b58:	001a6d30 	andseq	r6, sl, r0, lsr sp
    4b5c:	00a23c00 	adceq	r3, r2, r0, lsl #24
    4b60:	00003000 	andeq	r3, r0, r0
    4b64:	f1500200 			; <UNDEFINED> instruction: 0xf1500200
    4b68:	3100000c 	tstcc	r0, ip
    4b6c:	00001a86 	andeq	r1, r0, r6, lsl #21
    4b70:	00002440 	andeq	r2, r0, r0, asr #8
    4b74:	001a7d31 	andseq	r7, sl, r1, lsr sp
    4b78:	00245800 	eoreq	r5, r4, r0, lsl #16
    4b7c:	a23c3200 	eorsge	r3, ip, #0, 4
    4b80:	00300000 	eorseq	r0, r0, r0
    4b84:	8f330000 	svchi	0x00330000
    4b88:	7000001a 	andvc	r0, r0, sl, lsl r0
    4b8c:	34000024 	strcc	r0, [r0], #-36	; 0x24
    4b90:	00001ad5 	ldrdeq	r1, [r0], -r5
    4b94:	0000a23c 	andeq	sl, r0, ip, lsr r2
    4b98:	0000000c 	andeq	r0, r0, ip
    4b9c:	e5314302 	ldr	r4, [r1, #-770]!	; 0x302
    4ba0:	9200001a 	andls	r0, r0, #26
    4ba4:	00000024 	andeq	r0, r0, r4, lsr #32
    4ba8:	74360000 	ldrtvc	r0, [r6], #-0
    4bac:	590000a2 	stmdbpl	r0, {r1, r5, r7}
    4bb0:	3700001b 	smladcc	r0, fp, r0, r0
    4bb4:	0000a288 	andeq	sl, r0, r8, lsl #5
    4bb8:	00001b64 	andeq	r1, r0, r4, ror #22
    4bbc:	00000d29 	andeq	r0, r0, r9, lsr #26
    4bc0:	05500138 	ldrbeq	r0, [r0, #-312]	; 0x138
    4bc4:	00ab1803 	adceq	r1, fp, r3, lsl #16
    4bc8:	51013800 	tstpl	r1, r0, lsl #16
    4bcc:	aa280305 	bge	a057e8 <__bss_end__+0x9f9830>
    4bd0:	01380000 	teqeq	r8, r0
    4bd4:	38030552 	stmdacc	r3, {r1, r4, r6, r8, sl}
    4bd8:	380000a9 	stmdacc	r0, {r0, r3, r5, r7}
    4bdc:	08025301 	stmdaeq	r2, {r0, r8, r9, ip, lr}
    4be0:	8c360051 	ldchi	0, cr0, [r6], #-324	; 0xfffffebc
    4be4:	6f0000a2 	svcvs	0x000000a2
    4be8:	0000001b 	andeq	r0, r0, fp, lsl r0
    4bec:	a2303600 	eorsge	r3, r0, #0, 12
    4bf0:	1b380000 	blne	e04bf8 <__bss_end__+0xdf8c40>
    4bf4:	34360000 	ldrtcc	r0, [r6], #-0
    4bf8:	470000a2 	strmi	r0, [r0, -r2, lsr #1]
    4bfc:	0000000d 	andeq	r0, r0, sp
    4c00:	000f8a2c 	andeq	r8, pc, ip, lsr #20
    4c04:	25b70100 	ldrcs	r0, [r7, #256]!	; 0x100
    4c08:	08000000 	stmdaeq	r0, {}	; <UNPREDICTABLE>
    4c0c:	200000a2 	andcs	r0, r0, r2, lsr #1
    4c10:	01000000 	mrseq	r0, (UNDEF: 0)
    4c14:	000d7a9c 	muleq	sp, ip, sl
    4c18:	1aa13400 	bne	fe851c20 <__bss_end__+0xfe845c68>
    4c1c:	a2080000 	andge	r0, r8, #0
    4c20:	00100000 	andseq	r0, r0, r0
    4c24:	b8010000 	stmdalt	r1, {}	; <UNPREDICTABLE>
    4c28:	001ab131 	andseq	fp, sl, r1, lsr r1
    4c2c:	0024aa00 	eoreq	sl, r4, r0, lsl #20
    4c30:	2c000000 	stccs	0, cr0, [r0], {-0}
    4c34:	0000013f 	andeq	r0, r0, pc, lsr r1
    4c38:	00259501 	eoreq	r9, r5, r1, lsl #10
    4c3c:	a1400000 	mrsge	r0, (UNDEF: 64)
    4c40:	00c80000 	sbceq	r0, r8, r0
    4c44:	9c010000 	stcls	0, cr0, [r1], {-0}
    4c48:	00000e69 	andeq	r0, r0, r9, ror #28
    4c4c:	0006193b 	andeq	r1, r6, fp, lsr r9
    4c50:	56970100 	ldrpl	r0, [r7], r0, lsl #2
    4c54:	3000000c 	andcc	r0, r0, ip
    4c58:	000019fa 	strdeq	r1, [r0], -sl
    4c5c:	0000a17c 	andeq	sl, r0, ip, ror r1
    4c60:	00000040 	andeq	r0, r0, r0, asr #32
    4c64:	0df0ab01 	ldcleq	11, cr10, [r0, #4]!
    4c68:	13310000 	teqne	r1, #0
    4c6c:	c200001a 	andgt	r0, r0, #26
    4c70:	31000024 	tstcc	r0, r4, lsr #32
    4c74:	00001a0a 	andeq	r1, r0, sl, lsl #20
    4c78:	000024d5 	ldrdeq	r2, [r0], -r5
    4c7c:	00a17c32 	adceq	r7, r1, r2, lsr ip
    4c80:	00004000 	andeq	r4, r0, r0
    4c84:	1a1c3300 	bne	71188c <__bss_end__+0x7058d4>
    4c88:	24ed0000 	strbtcs	r0, [sp], #0
    4c8c:	bb340000 	bllt	d04c94 <__bss_end__+0xcf8cdc>
    4c90:	8400001a 	strhi	r0, [r0], #-26
    4c94:	140000a1 	strne	r0, [r0], #-161	; 0xa1
    4c98:	02000000 	andeq	r0, r0, #0
    4c9c:	1acb3158 	bne	ff2d1204 <__bss_end__+0xff2c524c>
    4ca0:	250f0000 	strcs	r0, [pc, #-0]	; 4ca8 <_start-0x3358>
    4ca4:	00000000 	andeq	r0, r0, r0
    4ca8:	1aa13000 	bne	fe850cb0 <__bss_end__+0xfe844cf8>
    4cac:	a1bc0000 			; <UNDEFINED> instruction: 0xa1bc0000
    4cb0:	00180000 	andseq	r0, r8, r0
    4cb4:	af010000 	svcge	0x00010000
    4cb8:	00000e0d 	andeq	r0, r0, sp, lsl #28
    4cbc:	001ab131 	andseq	fp, sl, r1, lsr r1
    4cc0:	00252700 	eoreq	r2, r5, r0, lsl #14
    4cc4:	48360000 	ldmdami	r6!, {}	; <UNPREDICTABLE>
    4cc8:	380000a1 	stmdacc	r0, {r0, r5, r7}
    4ccc:	3700001b 	smladcc	r0, fp, r0, r0
    4cd0:	0000a150 	andeq	sl, r0, r0, asr r1
    4cd4:	000015d6 	ldrdeq	r1, [r0], -r6
    4cd8:	00000e2d 	andeq	r0, r0, sp, lsr #28
    4cdc:	05500138 	ldrbeq	r0, [r0, #-312]	; 0x138
    4ce0:	2150400c 	cmpcs	r0, ip
    4ce4:	6c360020 	ldcvs	0, cr0, [r6], #-128	; 0xffffff80
    4ce8:	7a0000a1 	bvc	4f74 <_start-0x308c>
    4cec:	3600001b 			; <UNDEFINED> instruction: 0x3600001b
    4cf0:	0000a178 	andeq	sl, r0, r8, ror r1
    4cf4:	00001b85 	andeq	r1, r0, r5, lsl #23
    4cf8:	00a1e437 	adceq	lr, r1, r7, lsr r4
    4cfc:	0017ec00 	andseq	lr, r7, r0, lsl #24
    4d00:	000e5600 	andeq	r5, lr, r0, lsl #12
    4d04:	50013800 	andpl	r3, r1, r0, lsl #16
    4d08:	50400c05 	subpl	r0, r0, r5, lsl #24
    4d0c:	36002021 	strcc	r2, [r0], -r1, lsr #32
    4d10:	0000a1e8 	andeq	sl, r0, r8, ror #3
    4d14:	00001b38 	andeq	r1, r0, r8, lsr fp
    4d18:	00a1f436 	adceq	pc, r1, r6, lsr r4	; <UNPREDICTABLE>
    4d1c:	000f4f00 	andeq	r4, pc, r0, lsl #30
    4d20:	e23c0000 	eors	r0, ip, #0
    4d24:	01000002 	tsteq	r0, r2
    4d28:	00a0d086 	adceq	sp, r0, r6, lsl #1
    4d2c:	00007000 	andeq	r7, r0, r0
    4d30:	3a9c0100 	bcc	fe705138 <__bss_end__+0xfe6f9180>
    4d34:	2e00000f 	cdpcs	0, 0, cr0, cr0, cr15, {0}
    4d38:	00000179 	andeq	r0, r0, r9, ror r1
    4d3c:	00000f4a 	andeq	r0, r0, sl, asr #30
    4d40:	a9400305 	stmdbge	r0, {r0, r2, r8, r9}^
    4d44:	10300000 	eorsne	r0, r0, r0
    4d48:	d400001b 	strle	r0, [r0], #-27
    4d4c:	040000a0 	streq	r0, [r0], #-160	; 0xa0
    4d50:	01000000 	mrseq	r0, (UNDEF: 0)
    4d54:	000ec087 	andeq	ip, lr, r7, lsl #1
    4d58:	1b1c3400 	blne	711d60 <__bss_end__+0x705da8>
    4d5c:	a0d40000 	sbcsge	r0, r4, r0
    4d60:	00040000 	andeq	r0, r4, r0
    4d64:	2e030000 	cdpcs	0, 0, cr0, cr3, cr0, {0}
    4d68:	00a0d432 	adceq	sp, r0, r2, lsr r4
    4d6c:	00000400 	andeq	r0, r0, r0, lsl #8
    4d70:	1b2c3500 	blne	b12178 <__bss_end__+0xb061c0>
    4d74:	00000000 	andeq	r0, r0, r0
    4d78:	1aa13000 	bne	fe850d80 <__bss_end__+0xfe844dc8>
    4d7c:	a1080000 	mrsge	r0, (UNDEF: 8)
    4d80:	00180000 	andseq	r0, r8, r0
    4d84:	8a010000 	bhi	44d8c <__bss_end__+0x38dd4>
    4d88:	00000edd 	ldrdeq	r0, [r0], -sp
    4d8c:	001ab131 	andseq	fp, sl, r1, lsr r1
    4d90:	00253f00 	eoreq	r3, r5, r0, lsl #30
    4d94:	e4360000 	ldrt	r0, [r6], #-0
    4d98:	430000a0 	movwmi	r0, #160	; 0xa0
    4d9c:	3600001b 			; <UNDEFINED> instruction: 0x3600001b
    4da0:	0000a0ec 	andeq	sl, r0, ip, ror #1
    4da4:	00001b59 	andeq	r1, r0, r9, asr fp
    4da8:	00a10037 	adceq	r0, r1, r7, lsr r0
    4dac:	001b6400 	andseq	r6, fp, r0, lsl #8
    4db0:	000f1e00 	andeq	r1, pc, r0, lsl #28
    4db4:	50013800 	andpl	r3, r1, r0, lsl #16
    4db8:	ab580305 	blge	16059d4 <__bss_end__+0x15f9a1c>
    4dbc:	01380000 	teqeq	r8, r0
    4dc0:	64030551 	strvs	r0, [r3], #-1361	; 0x551
    4dc4:	380000a9 	stmdacc	r0, {r0, r3, r5, r7}
    4dc8:	03055201 	movweq	r5, #20993	; 0x5201
    4dcc:	0000a940 	andeq	sl, r0, r0, asr #18
    4dd0:	02530138 	subseq	r0, r3, #56, 2
    4dd4:	36008708 	strcc	r8, [r0], -r8, lsl #14
    4dd8:	0000a104 	andeq	sl, r0, r4, lsl #2
    4ddc:	00001b6f 	andeq	r1, r0, pc, ror #22
    4de0:	00a10836 	adceq	r0, r1, r6, lsr r8
    4de4:	000f4f00 	andeq	r4, pc, r0, lsl #30
    4de8:	a12c3600 	teqge	ip, r0, lsl #12
    4dec:	1b4e0000 	blne	1384df4 <__bss_end__+0x1378e3c>
    4df0:	0b000000 	bleq	4df8 <_start-0x3208>
    4df4:	0000011d 	andeq	r0, r0, sp, lsl r1
    4df8:	00000f4a 	andeq	r0, r0, sl, asr #30
    4dfc:	00002c0c 	andeq	r2, r0, ip, lsl #24
    4e00:	10001200 	andne	r1, r0, r0, lsl #4
    4e04:	00000f3a 	andeq	r0, r0, sl, lsr pc
    4e08:	0013463c 	andseq	r4, r3, ip, lsr r6
    4e0c:	fc7e0100 	ldc2l	1, cr0, [lr], #-0
    4e10:	d400009f 	strle	r0, [r0], #-159	; 0x9f
    4e14:	01000000 	mrseq	r0, (UNDEF: 0)
    4e18:	0010d69c 	mulseq	r0, ip, r6
    4e1c:	01792e00 	cmneq	r9, r0, lsl #28
    4e20:	10e60000 	rscne	r0, r6, r0
    4e24:	03050000 	movweq	r0, #20480	; 0x5000
    4e28:	0000a928 	andeq	sl, r0, r8, lsr #18
    4e2c:	001b1030 	andseq	r1, fp, r0, lsr r0
    4e30:	00a00000 	adceq	r0, r0, r0
    4e34:	00000400 	andeq	r0, r0, r0, lsl #8
    4e38:	a6800100 	strge	r0, [r0], r0, lsl #2
    4e3c:	3400000f 	strcc	r0, [r0], #-15
    4e40:	00001b1c 	andeq	r1, r0, ip, lsl fp
    4e44:	0000a000 	andeq	sl, r0, r0
    4e48:	00000004 	andeq	r0, r0, r4
    4e4c:	00322e03 	eorseq	r2, r2, r3, lsl #28
    4e50:	040000a0 	streq	r0, [r0], #-160	; 0xa0
    4e54:	35000000 	strcc	r0, [r0, #-0]
    4e58:	00001b2c 	andeq	r1, r0, ip, lsr #22
    4e5c:	30000000 	andcc	r0, r0, r0
    4e60:	00001aa1 	andeq	r1, r0, r1, lsr #21
    4e64:	0000a00c 	andeq	sl, r0, ip
    4e68:	00000018 	andeq	r0, r0, r8, lsl r0
    4e6c:	0fc38101 	svceq	0x00c38101
    4e70:	b1310000 	teqlt	r1, r0
    4e74:	5700001a 	smladpl	r0, sl, r0, r0
    4e78:	00000025 	andeq	r0, r0, r5, lsr #32
    4e7c:	001a2839 	andseq	r2, sl, r9, lsr r8
    4e80:	00a03800 	adceq	r3, r0, r0, lsl #16
    4e84:	0000a000 	andeq	sl, r0, r0
    4e88:	82820100 	addhi	r0, r2, #0, 2
    4e8c:	31000010 	tstcc	r0, r0, lsl r0
    4e90:	00001a38 	andeq	r1, r0, r8, lsr sl
    4e94:	0000256f 	andeq	r2, r0, pc, ror #10
    4e98:	0000a03a 	andeq	sl, r0, sl, lsr r0
    4e9c:	1a413300 	bne	1051aa4 <__bss_end__+0x1045aec>
    4ea0:	25970000 	ldrcs	r0, [r7]
    4ea4:	6d300000 	ldcvs	0, cr0, [r0, #-0]
    4ea8:	3800001a 	stmdacc	r0, {r1, r3, r4}
    4eac:	380000a0 	stmdacc	r0, {r5, r7}
    4eb0:	02000000 	andeq	r0, r0, #0
    4eb4:	00103f50 	andseq	r3, r0, r0, asr pc
    4eb8:	1a863100 	bne	fe1912c0 <__bss_end__+0xfe185308>
    4ebc:	25c20000 	strbcs	r0, [r2]
    4ec0:	7d310000 	ldcvc	0, cr0, [r1, #-0]
    4ec4:	da00001a 	ble	4f34 <_start-0x30cc>
    4ec8:	32000025 	andcc	r0, r0, #37	; 0x25
    4ecc:	0000a038 	andeq	sl, r0, r8, lsr r0
    4ed0:	00000038 	andeq	r0, r0, r8, lsr r0
    4ed4:	001a8f33 	andseq	r8, sl, r3, lsr pc
    4ed8:	0025f200 	eoreq	pc, r5, r0, lsl #4
    4edc:	1ad53400 	bne	ff551ee4 <__bss_end__+0xff545f2c>
    4ee0:	a0380000 	eorsge	r0, r8, r0
    4ee4:	000c0000 	andeq	r0, ip, r0
    4ee8:	43020000 	movwmi	r0, #8192	; 0x2000
    4eec:	001ae531 	andseq	lr, sl, r1, lsr r5
    4ef0:	00261400 	eoreq	r1, r6, r0, lsl #8
    4ef4:	00000000 	andeq	r0, r0, r0
    4ef8:	00a09836 	adceq	r9, r0, r6, lsr r8
    4efc:	001b5900 	andseq	r5, fp, r0, lsl #18
    4f00:	a0ac3700 	adcge	r3, ip, r0, lsl #14
    4f04:	1b640000 	blne	1904f0c <__bss_end__+0x18f8f54>
    4f08:	10770000 	rsbsne	r0, r7, r0
    4f0c:	01380000 	teqeq	r8, r0
    4f10:	18030550 	stmdane	r3, {r4, r6, r8, sl}
    4f14:	380000ab 	stmdacc	r0, {r0, r1, r3, r5, r7}
    4f18:	03055101 	movweq	r5, #20737	; 0x5101
    4f1c:	0000aa28 	andeq	sl, r0, r8, lsr #20
    4f20:	05520138 	ldrbeq	r0, [r2, #-312]	; 0x138
    4f24:	00a93803 	adceq	r3, r9, r3, lsl #16
    4f28:	53013800 	movwpl	r3, #6144	; 0x1800
    4f2c:	00510802 	subseq	r0, r1, r2, lsl #16
    4f30:	00a0b036 	adceq	fp, r0, r6, lsr r0
    4f34:	001b6f00 	andseq	r6, fp, r0, lsl #30
    4f38:	36000000 	strcc	r0, [r0], -r0
    4f3c:	0000a030 	andeq	sl, r0, r0, lsr r0
    4f40:	00001b90 	muleq	r0, r0, fp
    4f44:	00a07436 	adceq	r7, r0, r6, lsr r4
    4f48:	001b9b00 	andseq	r9, fp, r0, lsl #22
    4f4c:	a07c3600 	rsbsge	r3, ip, r0, lsl #12
    4f50:	1b590000 	blne	1644f58 <__bss_end__+0x1638fa0>
    4f54:	90370000 	eorsls	r0, r7, r0
    4f58:	640000a0 	strvs	r0, [r0], #-160	; 0xa0
    4f5c:	cc00001b 	stcgt	0, cr0, [r0], {27}
    4f60:	38000010 	stmdacc	r0, {r4}
    4f64:	03055001 	movweq	r5, #20481	; 0x5001
    4f68:	0000aaf4 	strdeq	sl, [r0], -r4
    4f6c:	05510138 	ldrbeq	r0, [r1, #-312]	; 0x138
    4f70:	00a96403 	adceq	r6, r9, r3, lsl #8
    4f74:	52013800 	andpl	r3, r1, #0, 16
    4f78:	a9280305 	stmdbge	r8!, {r0, r2, r8, r9}
    4f7c:	01380000 	teqeq	r8, r0
    4f80:	80080253 	andhi	r0, r8, r3, asr r2
    4f84:	a0943600 	addsge	r3, r4, r0, lsl #12
    4f88:	1b6f0000 	blne	1bc4f90 <__bss_end__+0x1bb8fd8>
    4f8c:	0b000000 	bleq	4f94 <_start-0x306c>
    4f90:	0000011d 	andeq	r0, r0, sp, lsl r1
    4f94:	000010e6 	andeq	r1, r0, r6, ror #1
    4f98:	00002c0c 	andeq	r2, r0, ip, lsl #24
    4f9c:	10000e00 	andne	r0, r0, r0, lsl #28
    4fa0:	000010d6 	ldrdeq	r1, [r0], -r6
    4fa4:	0000223c 	andeq	r2, r0, ip, lsr r2
    4fa8:	446e0100 	strbtmi	r0, [lr], #-256	; 0x100
    4fac:	b800009d 	stmdalt	r0, {r0, r2, r3, r4, r7}
    4fb0:	01000002 	tsteq	r0, r2
    4fb4:	0015559c 	mulseq	r5, ip, r5
    4fb8:	06193b00 	ldreq	r3, [r9], -r0, lsl #22
    4fbc:	72010000 	andvc	r0, r1, #0
    4fc0:	00000c56 	andeq	r0, r0, r6, asr ip
    4fc4:	0019a839 	andseq	sl, r9, r9, lsr r8
    4fc8:	009d4800 	addseq	r4, sp, r0, lsl #16
    4fcc:	00004000 	andeq	r4, r0, r0
    4fd0:	096f0100 	stmdbeq	pc!, {r8}^	; <UNPREDICTABLE>
    4fd4:	31000013 	tstcc	r0, r3, lsl r0
    4fd8:	000019bd 			; <UNDEFINED> instruction: 0x000019bd
    4fdc:	0000262c 	andeq	r2, r0, ip, lsr #12
    4fe0:	0019b431 	andseq	fp, r9, r1, lsr r4
    4fe4:	00264c00 	eoreq	r4, r6, r0, lsl #24
    4fe8:	00403a00 	subeq	r3, r0, r0, lsl #20
    4fec:	d5330000 	ldrle	r0, [r3, #-0]!
    4ff0:	74000019 	strvc	r0, [r0], #-25
    4ff4:	30000026 	andcc	r0, r0, r6, lsr #32
    4ff8:	00001ad5 	ldrdeq	r1, [r0], -r5
    4ffc:	00009d80 	andeq	r9, r0, r0, lsl #27
    5000:	00000008 	andeq	r0, r0, r8
    5004:	115b9f02 	cmpne	fp, r2, lsl #30
    5008:	e5310000 	ldr	r0, [r1, #-0]!
    500c:	9400001a 	strls	r0, [r0], #-26
    5010:	00000026 	andeq	r0, r0, r6, lsr #32
    5014:	001abb30 	andseq	fp, sl, r0, lsr fp
    5018:	009d9000 	addseq	r9, sp, r0
    501c:	00001800 	andeq	r1, r0, r0, lsl #16
    5020:	78a00200 	stmiavc	r0!, {r9}
    5024:	31000011 	tstcc	r0, r1, lsl r0
    5028:	00001acb 	andeq	r1, r0, fp, asr #21
    502c:	000026ac 	andeq	r2, r0, ip, lsr #13
    5030:	1aa13000 	bne	fe851038 <__bss_end__+0xfe845080>
    5034:	9db00000 	ldcls	0, cr0, [r0]
    5038:	00180000 	andseq	r0, r8, r0
    503c:	a1020000 	mrsge	r0, (UNDEF: 2)
    5040:	00001195 	muleq	r0, r5, r1
    5044:	001ab131 	andseq	fp, sl, r1, lsr r1
    5048:	0026c400 	eoreq	ip, r6, r0, lsl #8
    504c:	6d390000 	ldcvs	0, cr0, [r9, #-0]
    5050:	d000001a 	andle	r0, r0, sl, lsl r0
    5054:	5800009d 	stmdapl	r0, {r0, r2, r3, r4, r7}
    5058:	02000000 	andeq	r0, r0, #0
    505c:	0011e3a3 	andseq	lr, r1, r3, lsr #7
    5060:	1a863100 	bne	fe191468 <__bss_end__+0xfe1854b0>
    5064:	26dc0000 	ldrbcs	r0, [ip], r0
    5068:	7d310000 	ldcvc	0, cr0, [r1, #-0]
    506c:	0400001a 	streq	r0, [r0], #-26
    5070:	3a000027 	bcc	5114 <_start-0x2eec>
    5074:	00000058 	andeq	r0, r0, r8, asr r0
    5078:	001a8f33 	andseq	r8, sl, r3, lsr pc
    507c:	00272c00 	eoreq	r2, r7, r0, lsl #24
    5080:	1ad53400 	bne	ff552088 <__bss_end__+0xff5460d0>
    5084:	9dd00000 	ldclls	0, cr0, [r0]
    5088:	000c0000 	andeq	r0, ip, r0
    508c:	43020000 	movwmi	r0, #8192	; 0x2000
    5090:	001ae531 	andseq	lr, sl, r1, lsr r5
    5094:	00274e00 	eoreq	r4, r7, r0, lsl #28
    5098:	00000000 	andeq	r0, r0, r0
    509c:	009d5c37 	addseq	r5, sp, r7, lsr ip
    50a0:	001ba600 	andseq	sl, fp, r0, lsl #12
    50a4:	00120300 	andseq	r0, r2, r0, lsl #6
    50a8:	50013800 	andpl	r3, r1, r0, lsl #16
    50ac:	38007402 	stmdacc	r0, {r1, sl, ip, sp, lr}
    50b0:	30015101 	andcc	r5, r1, r1, lsl #2
    50b4:	03520138 	cmpeq	r2, #56, 2
    50b8:	0008140a 	andeq	r1, r8, sl, lsl #8
    50bc:	009eb436 	addseq	fp, lr, r6, lsr r4
    50c0:	001b5900 	andseq	r5, fp, r0, lsl #18
    50c4:	9ec83700 	cdpls	7, 12, cr3, cr8, cr0, {0}
    50c8:	1b640000 	blne	19050d0 <__bss_end__+0x18f9118>
    50cc:	123b0000 	eorsne	r0, fp, #0
    50d0:	01380000 	teqeq	r8, r0
    50d4:	60030550 	andvs	r0, r3, r0, asr r5
    50d8:	380000aa 	stmdacc	r0, {r1, r3, r5, r7}
    50dc:	03055101 	movweq	r5, #20737	; 0x5101
    50e0:	0000aa28 	andeq	sl, r0, r8, lsr #20
    50e4:	05520138 	ldrbeq	r0, [r2, #-312]	; 0x138
    50e8:	00a92003 	adceq	r2, r9, r3
    50ec:	53013800 	movwpl	r3, #6144	; 0x1800
    50f0:	009f0802 	addseq	r0, pc, r2, lsl #16
    50f4:	009ecc36 	addseq	ip, lr, r6, lsr ip
    50f8:	001b6f00 	andseq	r6, fp, r0, lsl #30
    50fc:	9ed03600 	cdpls	6, 13, cr3, cr0, cr0, {0}
    5100:	1b590000 	blne	1645108 <__bss_end__+0x1639150>
    5104:	e4370000 	ldrt	r0, [r7], #-0
    5108:	6400009e 	strvs	r0, [r0], #-158	; 0x9e
    510c:	7c00001b 	stcvc	0, cr0, [r0], {27}
    5110:	38000012 	stmdacc	r0, {r1, r4}
    5114:	03055001 	movweq	r5, #20481	; 0x5001
    5118:	0000aa7c 	andeq	sl, r0, ip, ror sl
    511c:	05510138 	ldrbeq	r0, [r1, #-312]	; 0x138
    5120:	00aa2803 	adceq	r2, sl, r3, lsl #16
    5124:	52013800 	andpl	r3, r1, #0, 16
    5128:	a9200305 	stmdbge	r0!, {r0, r2, r8, r9}
    512c:	01380000 	teqeq	r8, r0
    5130:	a0080253 	andge	r0, r8, r3, asr r2
    5134:	9ee83600 	cdpls	6, 14, cr3, cr8, cr0, {0}
    5138:	1b6f0000 	blne	1bc5140 <__bss_end__+0x1bb9188>
    513c:	ec360000 	ldc	0, cr0, [r6], #-0
    5140:	5900009e 	stmdbpl	r0, {r1, r2, r3, r4, r7}
    5144:	3700001b 	smladcc	r0, fp, r0, r0
    5148:	00009f00 	andeq	r9, r0, r0, lsl #30
    514c:	00001b64 	andeq	r1, r0, r4, ror #22
    5150:	000012bd 			; <UNDEFINED> instruction: 0x000012bd
    5154:	05500138 	ldrbeq	r0, [r0, #-312]	; 0x138
    5158:	00aa9803 	adceq	r9, sl, r3, lsl #16
    515c:	51013800 	tstpl	r1, r0, lsl #16
    5160:	aa280305 	bge	a05d7c <__bss_end__+0x9f9dc4>
    5164:	01380000 	teqeq	r8, r0
    5168:	20030552 	andcs	r0, r3, r2, asr r5
    516c:	380000a9 	stmdacc	r0, {r0, r3, r5, r7}
    5170:	08025301 	stmdaeq	r2, {r0, r8, r9, ip, lr}
    5174:	043600a1 	ldrteq	r0, [r6], #-161	; 0xa1
    5178:	6f00009f 	svcvs	0x0000009f
    517c:	3600001b 			; <UNDEFINED> instruction: 0x3600001b
    5180:	00009f24 	andeq	r9, r0, r4, lsr #30
    5184:	00001b59 	andeq	r1, r0, r9, asr fp
    5188:	009f3837 	addseq	r3, pc, r7, lsr r8	; <UNPREDICTABLE>
    518c:	001b6400 	andseq	r6, fp, r0, lsl #8
    5190:	0012fe00 	andseq	pc, r2, r0, lsl #28
    5194:	50013800 	andpl	r3, r1, r0, lsl #16
    5198:	aabc0305 	bge	fef05db4 <__bss_end__+0xfeef9dfc>
    519c:	01380000 	teqeq	r8, r0
    51a0:	28030551 	stmdacs	r3, {r0, r4, r6, r8, sl}
    51a4:	380000aa 	stmdacc	r0, {r1, r3, r5, r7}
    51a8:	03055201 	movweq	r5, #20993	; 0x5201
    51ac:	0000a920 	andeq	sl, r0, r0, lsr #18
    51b0:	02530138 	subseq	r0, r3, #56, 2
    51b4:	3600a308 	strcc	sl, [r0], -r8, lsl #6
    51b8:	00009f3c 	andeq	r9, r0, ip, lsr pc
    51bc:	00001b6f 	andeq	r1, r0, pc, ror #22
    51c0:	a8390000 	ldmdage	r9!, {}	; <UNPREDICTABLE>
    51c4:	e4000019 	str	r0, [r0], #-25
    51c8:	7000009d 	mulvc	r0, sp, r0
    51cc:	01000000 	mrseq	r0, (UNDEF: 0)
    51d0:	00150870 	andseq	r0, r5, r0, ror r8
    51d4:	19bd3100 	ldmibne	sp!, {r8, ip, sp}
    51d8:	27660000 	strbcs	r0, [r6, -r0]!
    51dc:	b4310000 	ldrtlt	r0, [r1], #-0
    51e0:	86000019 			; <UNDEFINED> instruction: 0x86000019
    51e4:	3a000027 	bcc	5288 <_start-0x2d78>
    51e8:	00000070 	andeq	r0, r0, r0, ror r0
    51ec:	0019d533 	andseq	sp, r9, r3, lsr r5
    51f0:	0027ae00 	eoreq	sl, r7, r0, lsl #28
    51f4:	1ad53000 	bne	ff5511fc <__bss_end__+0xff545244>
    51f8:	9e240000 	cdpls	0, 2, cr0, cr4, cr0, {0}
    51fc:	00080000 	andeq	r0, r8, r0
    5200:	9f020000 	svcls	0x00020000
    5204:	00001359 	andeq	r1, r0, r9, asr r3
    5208:	001ae531 	andseq	lr, sl, r1, lsr r5
    520c:	0027ce00 	eoreq	ip, r7, r0, lsl #28
    5210:	bb300000 	bllt	c05218 <__bss_end__+0xbf9260>
    5214:	3400001a 	strcc	r0, [r0], #-26
    5218:	1800009e 	stmdane	r0, {r1, r2, r3, r4, r7}
    521c:	02000000 	andeq	r0, r0, #0
    5220:	001376a0 	andseq	r7, r3, r0, lsr #13
    5224:	1acb3100 	bne	ff2d162c <__bss_end__+0xff2c5674>
    5228:	27e60000 	strbcs	r0, [r6, r0]!
    522c:	30000000 	andcc	r0, r0, r0
    5230:	00001aa1 	andeq	r1, r0, r1, lsr #21
    5234:	00009e54 	andeq	r9, r0, r4, asr lr
    5238:	00000018 	andeq	r0, r0, r8, lsl r0
    523c:	1393a102 	orrsne	sl, r3, #-2147483648	; 0x80000000
    5240:	b1310000 	teqlt	r1, r0
    5244:	fe00001a 	mcr2	0, 0, r0, cr0, cr10, {0}
    5248:	00000027 	andeq	r0, r0, r7, lsr #32
    524c:	001a6d39 	andseq	r6, sl, r9, lsr sp
    5250:	009e7400 	addseq	r7, lr, r0, lsl #8
    5254:	00008800 	andeq	r8, r0, r0, lsl #16
    5258:	e1a30200 			; <UNDEFINED> instruction: 0xe1a30200
    525c:	31000013 	tstcc	r0, r3, lsl r0
    5260:	00001a86 	andeq	r1, r0, r6, lsl #21
    5264:	00002816 	andeq	r2, r0, r6, lsl r8
    5268:	001a7d31 	andseq	r7, sl, r1, lsr sp
    526c:	00283e00 	eoreq	r3, r8, r0, lsl #28
    5270:	00883a00 	addeq	r3, r8, r0, lsl #20
    5274:	8f330000 	svchi	0x00330000
    5278:	6600001a 			; <UNDEFINED> instruction: 0x6600001a
    527c:	34000028 	strcc	r0, [r0], #-40	; 0x28
    5280:	00001ad5 	ldrdeq	r1, [r0], -r5
    5284:	00009e74 	andeq	r9, r0, r4, ror lr
    5288:	0000000c 	andeq	r0, r0, ip
    528c:	e5314302 	ldr	r4, [r1, #-770]!	; 0x302
    5290:	8800001a 	stmdahi	r0, {r1, r3, r4}
    5294:	00000028 	andeq	r0, r0, r8, lsr #32
    5298:	fc370000 	ldc2	0, cr0, [r7], #-0
    529c:	a600009d 			; <UNDEFINED> instruction: 0xa600009d
    52a0:	0200001b 	andeq	r0, r0, #27
    52a4:	38000014 	stmdacc	r0, {r2, r4}
    52a8:	74035001 	strvc	r5, [r3], #-1
    52ac:	01381094 			; <UNDEFINED> instruction: 0x01381094
    52b0:	38300151 	ldmdacc	r0!, {r0, r4, r6, r8}
    52b4:	0a035201 	beq	d9ac0 <__bss_end__+0xcdb08>
    52b8:	36000814 			; <UNDEFINED> instruction: 0x36000814
    52bc:	00009f40 	andeq	r9, r0, r0, asr #30
    52c0:	00001b59 	andeq	r1, r0, r9, asr fp
    52c4:	009f5437 	addseq	r5, pc, r7, lsr r4	; <UNPREDICTABLE>
    52c8:	001b6400 	andseq	r6, fp, r0, lsl #8
    52cc:	00143a00 	andseq	r3, r4, r0, lsl #20
    52d0:	50013800 	andpl	r3, r1, r0, lsl #16
    52d4:	aa600305 	bge	1805ef0 <__bss_end__+0x17f9f38>
    52d8:	01380000 	teqeq	r8, r0
    52dc:	28030551 	stmdacs	r3, {r0, r4, r6, r8, sl}
    52e0:	380000aa 	stmdacc	r0, {r1, r3, r5, r7}
    52e4:	03055201 	movweq	r5, #20993	; 0x5201
    52e8:	0000a920 	andeq	sl, r0, r0, lsr #18
    52ec:	02530138 	subseq	r0, r3, #56, 2
    52f0:	36009f08 	strcc	r9, [r0], -r8, lsl #30
    52f4:	00009f58 	andeq	r9, r0, r8, asr pc
    52f8:	00001b6f 	andeq	r1, r0, pc, ror #22
    52fc:	009f5c36 	addseq	r5, pc, r6, lsr ip	; <UNPREDICTABLE>
    5300:	001b5900 	andseq	r5, fp, r0, lsl #18
    5304:	9f703700 	svcls	0x00703700
    5308:	1b640000 	blne	1905310 <__bss_end__+0x18f9358>
    530c:	147b0000 	ldrbtne	r0, [fp], #-0
    5310:	01380000 	teqeq	r8, r0
    5314:	7c030550 	cfstr32vc	mvfx0, [r3], {80}	; 0x50
    5318:	380000aa 	stmdacc	r0, {r1, r3, r5, r7}
    531c:	03055101 	movweq	r5, #20737	; 0x5101
    5320:	0000aa28 	andeq	sl, r0, r8, lsr #20
    5324:	05520138 	ldrbeq	r0, [r2, #-312]	; 0x138
    5328:	00a92003 	adceq	r2, r9, r3
    532c:	53013800 	movwpl	r3, #6144	; 0x1800
    5330:	00a00802 	adceq	r0, r0, r2, lsl #16
    5334:	009f7436 	addseq	r7, pc, r6, lsr r4	; <UNPREDICTABLE>
    5338:	001b6f00 	andseq	r6, fp, r0, lsl #30
    533c:	9f783600 	svcls	0x00783600
    5340:	1b590000 	blne	1645348 <__bss_end__+0x1639390>
    5344:	8c370000 	ldchi	0, cr0, [r7], #-0
    5348:	6400009f 	strvs	r0, [r0], #-159	; 0x9f
    534c:	bc00001b 	stclt	0, cr0, [r0], {27}
    5350:	38000014 	stmdacc	r0, {r2, r4}
    5354:	03055001 	movweq	r5, #20481	; 0x5001
    5358:	0000aa98 	muleq	r0, r8, sl
    535c:	05510138 	ldrbeq	r0, [r1, #-312]	; 0x138
    5360:	00aa2803 	adceq	r2, sl, r3, lsl #16
    5364:	52013800 	andpl	r3, r1, #0, 16
    5368:	a9200305 	stmdbge	r0!, {r0, r2, r8, r9}
    536c:	01380000 	teqeq	r8, r0
    5370:	a1080253 	tstge	r8, r3, asr r2
    5374:	9f903600 	svcls	0x00903600
    5378:	1b6f0000 	blne	1bc5380 <__bss_end__+0x1bb93c8>
    537c:	b8360000 	ldmdalt	r6!, {}	; <UNPREDICTABLE>
    5380:	5900009f 	stmdbpl	r0, {r0, r1, r2, r3, r4, r7}
    5384:	3700001b 	smladcc	r0, fp, r0, r0
    5388:	00009fcc 	andeq	r9, r0, ip, asr #31
    538c:	00001b64 	andeq	r1, r0, r4, ror #22
    5390:	000014fd 	strdeq	r1, [r0], -sp
    5394:	05500138 	ldrbeq	r0, [r0, #-312]	; 0x138
    5398:	00aabc03 	adceq	fp, sl, r3, lsl #24
    539c:	51013800 	tstpl	r1, r0, lsl #16
    53a0:	aa280305 	bge	a05fbc <__bss_end__+0x9fa004>
    53a4:	01380000 	teqeq	r8, r0
    53a8:	20030552 	andcs	r0, r3, r2, asr r5
    53ac:	380000a9 	stmdacc	r0, {r0, r3, r5, r7}
    53b0:	08025301 	stmdaeq	r2, {r0, r8, r9, ip, lr}
    53b4:	d03600a3 	eorsle	r0, r6, r3, lsr #1
    53b8:	6f00009f 	svcvs	0x0000009f
    53bc:	0000001b 	andeq	r0, r0, fp, lsl r0
    53c0:	9e8c3600 	cdpls	6, 8, cr3, cr12, cr0, {0}
    53c4:	1bb10000 	blne	fec453cc <__bss_end__+0xfec39414>
    53c8:	98370000 	ldmdals	r7!, {}	; <UNPREDICTABLE>
    53cc:	5500009e 	strpl	r0, [r0, #-158]	; 0x9e
    53d0:	25000015 	strcs	r0, [r0, #-21]
    53d4:	38000015 	stmdacc	r0, {r0, r2, r4}
    53d8:	74025001 	strvc	r5, [r2], #-1
    53dc:	a0370000 	eorsge	r0, r7, r0
    53e0:	2a00009e 	bcs	5660 <_start-0x29a0>
    53e4:	39000017 	stmdbcc	r0, {r0, r1, r2, r4}
    53e8:	38000015 	stmdacc	r0, {r0, r2, r4}
    53ec:	74025001 	strvc	r5, [r2], #-1
    53f0:	a4360000 	ldrtge	r0, [r6], #-0
    53f4:	3800009e 	stmdacc	r0, {r1, r2, r3, r4, r7}
    53f8:	3600001b 			; <UNDEFINED> instruction: 0x3600001b
    53fc:	00009ea8 	andeq	r9, r0, r8, lsr #29
    5400:	000018bb 			; <UNDEFINED> instruction: 0x000018bb
    5404:	009eac36 	addseq	sl, lr, r6, lsr ip
    5408:	001b3800 	andseq	r3, fp, r0, lsl #16
    540c:	b53c0000 	ldrlt	r0, [ip, #-0]!
    5410:	01000012 	tsteq	r0, r2, lsl r0
    5414:	009d045f 	addseq	r0, sp, pc, asr r4
    5418:	00004000 	andeq	r4, r0, r0
    541c:	d69c0100 	ldrle	r0, [ip], r0, lsl #2
    5420:	3d000015 	stccc	0, cr0, [r0, #-84]	; 0xffffffac
    5424:	00000619 	andeq	r0, r0, r9, lsl r6
    5428:	0c565f01 	mrrceq	15, 0, r5, r6, cr1
    542c:	28a00000 	stmiacs	r0!, {}	; <UNPREDICTABLE>
    5430:	10360000 	eorsne	r0, r6, r0
    5434:	3800009d 	stmdacc	r0, {r0, r2, r3, r4, r7}
    5438:	3700001b 	smladcc	r0, fp, r0, r0
    543c:	00009d1c 	andeq	r9, r0, ip, lsl sp
    5440:	00001935 	andeq	r1, r0, r5, lsr r9
    5444:	0000159b 	muleq	r0, fp, r5
    5448:	02500138 	subseq	r0, r0, #56, 2
    544c:	01380874 	teqeq	r8, r4, ror r8
    5450:	00370151 	eorseq	r0, r7, r1, asr r1
    5454:	009d2036 	addseq	r2, sp, r6, lsr r0
    5458:	001b3800 	andseq	r3, fp, r0, lsl #16
    545c:	9d2c3700 	stcls	7, cr3, [ip, #-0]
    5460:	1bbc0000 	blne	fef05468 <__bss_end__+0xfeef94b0>
    5464:	15b80000 	ldrne	r0, [r8, #0]!
    5468:	01380000 	teqeq	r8, r0
    546c:	00740250 	rsbseq	r0, r4, r0, asr r2
    5470:	9d383700 	ldcls	7, cr3, [r8, #-0]
    5474:	1bc70000 	blne	ff1c547c <__bss_end__+0xff1b94c4>
    5478:	15cc0000 	strbne	r0, [ip]
    547c:	01380000 	teqeq	r8, r0
    5480:	00740250 	rsbseq	r0, r4, r0, asr r2
    5484:	9d3c3600 	ldcls	6, cr3, [ip, #-0]
    5488:	1b380000 	blne	e05490 <__bss_end__+0xdf94d8>
    548c:	2c000000 	stccs	0, cr0, [r0], {-0}
    5490:	00001368 	andeq	r1, r0, r8, ror #6
    5494:	09f54801 	ldmibeq	r5!, {r0, fp, lr}^
    5498:	9c280000 	stcls	0, cr0, [r8], #-0
    549c:	00dc0000 	sbcseq	r0, ip, r0
    54a0:	9c010000 	stcls	0, cr0, [r1], {-0}
    54a4:	0000170f 	andeq	r1, r0, pc, lsl #14
    54a8:	0006193d 	andeq	r1, r6, sp, lsr r9
    54ac:	0f480100 	svceq	0x00480100
    54b0:	cc000017 	stcgt	0, cr0, [r0], {23}
    54b4:	3e000028 	cdpcc	0, 0, cr0, cr0, cr8, {1}
    54b8:	4a010078 	bmi	456a0 <__bss_end__+0x396e8>
    54bc:	0000002c 	andeq	r0, r0, ip, lsr #32
    54c0:	00002911 	andeq	r2, r0, r1, lsl r9
    54c4:	0100763e 	tsteq	r0, lr, lsr r6
    54c8:	00002c50 	andeq	r2, r0, r0, asr ip
    54cc:	00299200 	eoreq	r9, r9, r0, lsl #4
    54d0:	01792e00 	cmneq	r9, r0, lsl #28
    54d4:	17250000 	strne	r0, [r5, -r0]!
    54d8:	03050000 	movweq	r0, #20480	; 0x5000
    54dc:	0000a910 	andeq	sl, r0, r0, lsl r9
    54e0:	009c3836 	addseq	r3, ip, r6, lsr r8
    54e4:	001b3800 	andseq	r3, fp, r0, lsl #16
    54e8:	9c403700 	mcrrls	7, 0, r3, r0, cr0
    54ec:	1bbc0000 	blne	fef054f4 <__bss_end__+0xfeef953c>
    54f0:	16440000 	strbne	r0, [r4], -r0
    54f4:	01380000 	teqeq	r8, r0
    54f8:	08740250 	ldmdaeq	r4!, {r4, r6, r9}^
    54fc:	9c803600 	stcls	6, cr3, [r0], {0}
    5500:	1b590000 	blne	1645508 <__bss_end__+0x1639550>
    5504:	94370000 	ldrtls	r0, [r7], #-0
    5508:	6400009c 	strvs	r0, [r0], #-156	; 0x9c
    550c:	7c00001b 	stcvc	0, cr0, [r0], {27}
    5510:	38000016 	stmdacc	r0, {r1, r2, r4}
    5514:	03055001 	movweq	r5, #20481	; 0x5001
    5518:	0000a970 	andeq	sl, r0, r0, ror r9
    551c:	05510138 	ldrbeq	r0, [r1, #-312]	; 0x138
    5520:	00a96403 	adceq	r6, r9, r3, lsl #8
    5524:	52013800 	andpl	r3, r1, #0, 16
    5528:	a9100305 	ldmdbge	r0, {r0, r2, r8, r9}
    552c:	01380000 	teqeq	r8, r0
    5530:	51080253 	tstpl	r8, r3, asr r2
    5534:	9c983600 	ldcls	6, cr3, [r8], {0}
    5538:	1b6f0000 	blne	1bc5540 <__bss_end__+0x1bb9588>
    553c:	9c360000 	ldcls	0, cr0, [r6], #-0
    5540:	5900009c 	stmdbpl	r0, {r2, r3, r4, r7}
    5544:	3700001b 	smladcc	r0, fp, r0, r0
    5548:	00009cb0 			; <UNDEFINED> instruction: 0x00009cb0
    554c:	00001b64 	andeq	r1, r0, r4, ror #22
    5550:	000016bd 			; <UNDEFINED> instruction: 0x000016bd
    5554:	05500138 	ldrbeq	r0, [r0, #-312]	; 0x138
    5558:	00a9b803 	adceq	fp, r9, r3, lsl #16
    555c:	51013800 	tstpl	r1, r0, lsl #16
    5560:	a9640305 	stmdbge	r4!, {r0, r2, r8, r9}^
    5564:	01380000 	teqeq	r8, r0
    5568:	10030552 	andne	r0, r3, r2, asr r5
    556c:	380000a9 	stmdacc	r0, {r0, r3, r5, r7}
    5570:	08025301 	stmdaeq	r2, {r0, r8, r9, ip, lr}
    5574:	b4360052 	ldrtlt	r0, [r6], #-82	; 0x52
    5578:	6f00009c 	svcvs	0x0000009c
    557c:	3600001b 			; <UNDEFINED> instruction: 0x3600001b
    5580:	00009cb8 			; <UNDEFINED> instruction: 0x00009cb8
    5584:	00001b59 	andeq	r1, r0, r9, asr fp
    5588:	009cd037 	addseq	sp, ip, r7, lsr r0
    558c:	001b6400 	andseq	r6, fp, r0, lsl #8
    5590:	00170500 	andseq	r0, r7, r0, lsl #10
    5594:	50013800 	andpl	r3, r1, r0, lsl #16
    5598:	aa000305 	bge	61b4 <_start-0x1e4c>
    559c:	01380000 	teqeq	r8, r0
    55a0:	64030551 	strvs	r0, [r3], #-1361	; 0x551
    55a4:	380000a9 	stmdacc	r0, {r0, r3, r5, r7}
    55a8:	03055201 	movweq	r5, #20993	; 0x5201
    55ac:	0000a910 	andeq	sl, r0, r0, lsl r9
    55b0:	02530138 	subseq	r0, r3, #56, 2
    55b4:	02385908 	eorseq	r5, r8, #8, 18	; 0x20000
    55b8:	7402007d 	strvc	r0, [r2], #-125	; 0x7d
    55bc:	d4360000 	ldrtle	r0, [r6], #-0
    55c0:	6f00009c 	svcvs	0x0000009c
    55c4:	0000001b 	andeq	r0, r0, fp, lsl r0
    55c8:	09430406 	stmdbeq	r3, {r1, r2, sl}^
    55cc:	1d0b0000 	stcne	0, cr0, [fp, #-0]
    55d0:	25000001 	strcs	r0, [r0, #-1]
    55d4:	0c000017 	stceq	0, cr0, [r0], {23}
    55d8:	0000002c 	andeq	r0, r0, ip, lsr #32
    55dc:	1510000c 	ldrne	r0, [r0, #-12]
    55e0:	3f000017 	svccc	0x00000017
    55e4:	00000d34 	andeq	r0, r0, r4, lsr sp
    55e8:	9bf43b01 	blls	ffd141f4 <__bss_end__+0xffd0823c>
    55ec:	00180000 	andseq	r0, r8, r0
    55f0:	9c010000 	stcls	0, cr0, [r1], {-0}
    55f4:	00001773 	andeq	r1, r0, r3, ror r7
    55f8:	0006193d 	andeq	r1, r6, sp, lsr r9
    55fc:	0f3b0100 	svceq	0x003b0100
    5600:	f9000017 			; <UNDEFINED> instruction: 0xf9000017
    5604:	37000029 	strcc	r0, [r0, -r9, lsr #32]
    5608:	00009c00 	andeq	r9, r0, r0, lsl #24
    560c:	000017af 	andeq	r1, r0, pc, lsr #15
    5610:	00001762 	andeq	r1, r0, r2, ror #14
    5614:	02500138 	subseq	r0, r0, #56, 2
    5618:	40000074 	andmi	r0, r0, r4, ror r0
    561c:	00009c08 	andeq	r9, r0, r8, lsl #24
    5620:	00001835 	andeq	r1, r0, r5, lsr r8
    5624:	02500138 	subseq	r0, r0, #56, 2
    5628:	00000074 	andeq	r0, r0, r4, ror r0
    562c:	000f292c 	andeq	r2, pc, ip, lsr #18
    5630:	25360100 	ldrcs	r0, [r6, #-256]!	; 0x100
    5634:	0c000000 	stceq	0, cr0, [r0], {-0}
    5638:	1c00009c 	stcne	0, cr0, [r0], {156}	; 0x9c
    563c:	01000000 	mrseq	r0, (UNDEF: 0)
    5640:	0017af9c 	mulseq	r7, ip, pc	; <UNPREDICTABLE>
    5644:	06193d00 	ldreq	r3, [r9], -r0, lsl #26
    5648:	36010000 	strcc	r0, [r1], -r0
    564c:	00000c56 	andeq	r0, r0, r6, asr ip
    5650:	00002a17 	andeq	r2, r0, r7, lsl sl
    5654:	009c1840 	addseq	r1, ip, r0, asr #16
    5658:	001bbc00 	andseq	fp, fp, r0, lsl #24
    565c:	50013800 	andpl	r3, r1, r0, lsl #16
    5660:	5001f305 	andpl	pc, r1, r5, lsl #6
    5664:	00000423 	andeq	r0, r0, r3, lsr #8
    5668:	0012123c 	andseq	r1, r2, ip, lsr r2
    566c:	e0320100 	eors	r0, r2, r0, lsl #2
    5670:	1400009b 	strne	r0, [r0], #-155	; 0x9b
    5674:	01000000 	mrseq	r0, (UNDEF: 0)
    5678:	0017ec9c 	mulseq	r7, ip, ip
    567c:	06193d00 	ldreq	r3, [r9], -r0, lsl #26
    5680:	32010000 	andcc	r0, r1, #0
    5684:	00000c56 	andeq	r0, r0, r6, asr ip
    5688:	00002a45 	andeq	r2, r0, r5, asr #20
    568c:	009bf040 	addseq	pc, fp, r0, asr #32
    5690:	00193500 	andseq	r3, r9, r0, lsl #10
    5694:	50013800 	andpl	r3, r1, r0, lsl #16
    5698:	5001f305 	andpl	pc, r1, r5, lsl #6
    569c:	01380423 	teqeq	r8, r3, lsr #8
    56a0:	00320151 	eorseq	r0, r2, r1, asr r1
    56a4:	0f9c3c00 	svceq	0x009c3c00
    56a8:	2f010000 	svccs	0x00010000
    56ac:	00009bc0 	andeq	r9, r0, r0, asr #23
    56b0:	00000020 	andeq	r0, r0, r0, lsr #32
    56b4:	18359c01 	ldmdane	r5!, {r0, sl, fp, ip, pc}
    56b8:	193d0000 	ldmdbne	sp!, {}	; <UNPREDICTABLE>
    56bc:	01000006 	tsteq	r0, r6
    56c0:	000c562f 	andeq	r5, ip, pc, lsr #12
    56c4:	002a7300 	eoreq	r7, sl, r0, lsl #6
    56c8:	9bd03700 	blls	ff4132d0 <__bss_end__+0xff407318>
    56cc:	1bbc0000 	blne	fef056d4 <__bss_end__+0xfeef971c>
    56d0:	18240000 	stmdane	r4!, {}	; <UNPREDICTABLE>
    56d4:	01380000 	teqeq	r8, r0
    56d8:	00740250 	rsbseq	r0, r4, r0, asr r2
    56dc:	9bdc4000 	blls	ff7156e4 <__bss_end__+0xff70972c>
    56e0:	1bc70000 	blne	ff1c56e8 <__bss_end__+0xff1b9730>
    56e4:	01380000 	teqeq	r8, r0
    56e8:	00740250 	rsbseq	r0, r4, r0, asr r2
    56ec:	c33c0000 	teqgt	ip, #0
    56f0:	01000010 	tsteq	r0, r0, lsl r0
    56f4:	009bac2c 	addseq	sl, fp, ip, lsr #24
    56f8:	00001400 	andeq	r1, r0, r0, lsl #8
    56fc:	729c0100 	addsvc	r0, ip, #0, 2
    5700:	3d000018 	stccc	0, cr0, [r0, #-96]	; 0xffffffa0
    5704:	00000619 	andeq	r0, r0, r9, lsl r6
    5708:	0c562c01 	mrrceq	12, 0, r2, r6, cr1
    570c:	2aa00000 	bcs	fe805714 <__bss_end__+0xfe7f975c>
    5710:	bc400000 	marlt	acc0, r0, r0
    5714:	3500009b 	strcc	r0, [r0, #-155]	; 0x9b
    5718:	38000019 	stmdacc	r0, {r0, r3, r4}
    571c:	f3055001 	vhadd.u8	d5, d5, d1
    5720:	04235001 	strteq	r5, [r3], #-1
    5724:	01510138 	cmpeq	r1, r8, lsr r1
    5728:	3c000031 	stccc	0, cr0, [r0], {49}	; 0x31
    572c:	0000130c 	andeq	r1, r0, ip, lsl #6
    5730:	9b8c2901 	blls	fe30fb3c <__bss_end__+0xfe303b84>
    5734:	00200000 	eoreq	r0, r0, r0
    5738:	9c010000 	stcls	0, cr0, [r1], {-0}
    573c:	000018bb 			; <UNDEFINED> instruction: 0x000018bb
    5740:	0006193d 	andeq	r1, r6, sp, lsr r9
    5744:	56290100 	strtpl	r0, [r9], -r0, lsl #2
    5748:	ce00000c 	cdpgt	0, 0, cr0, cr0, cr12, {0}
    574c:	3700002a 	strcc	r0, [r0, -sl, lsr #32]
    5750:	00009b9c 	muleq	r0, ip, fp
    5754:	00001bbc 			; <UNDEFINED> instruction: 0x00001bbc
    5758:	000018aa 	andeq	r1, r0, sl, lsr #17
    575c:	02500138 	subseq	r0, r0, #56, 2
    5760:	40000074 	andmi	r0, r0, r4, ror r0
    5764:	00009ba8 	andeq	r9, r0, r8, lsr #23
    5768:	00001935 	andeq	r1, r0, r5, lsr r9
    576c:	02500138 	subseq	r0, r0, #56, 2
    5770:	00000074 	andeq	r0, r0, r4, ror r0
    5774:	000d4b3f 	andeq	r4, sp, pc, lsr fp
    5778:	68250100 	stmdavs	r5!, {r8}
    577c:	1800009b 	stmdane	r0, {r0, r1, r3, r4, r7}
    5780:	01000000 	mrseq	r0, (UNDEF: 0)
    5784:	0018eb9c 	mulseq	r8, ip, fp
    5788:	9b784000 	blls	1e15790 <__bss_end__+0x1e097d8>
    578c:	18eb0000 	stmiane	fp!, {}^	; <UNPREDICTABLE>
    5790:	01380000 	teqeq	r8, r0
    5794:	100c0550 	andne	r0, ip, r0, asr r5
    5798:	382000b2 	stmdacc	r0!, {r1, r4, r5, r7}
    579c:	40035101 	andmi	r5, r3, r1, lsl #2
    57a0:	00002449 	andeq	r2, r0, r9, asr #8
    57a4:	0012043f 	andseq	r0, r2, pc, lsr r4
    57a8:	5c190100 	ldfpls	f0, [r9], {-0}
    57ac:	0c00009b 	stceq	0, cr0, [r0], {155}	; 0x9b
    57b0:	01000000 	mrseq	r0, (UNDEF: 0)
    57b4:	0019359c 	mulseq	r9, ip, r5
    57b8:	005c3d00 	subseq	r3, ip, r0, lsl #26
    57bc:	19010000 	stmdbne	r1, {}	; <UNPREDICTABLE>
    57c0:	0000002c 	andeq	r0, r0, ip, lsr #32
    57c4:	00002afb 	strdeq	r2, [r0], -fp
    57c8:	0100762d 	tsteq	r0, sp, lsr #12
    57cc:	00002c19 	andeq	r2, r0, r9, lsl ip
    57d0:	002b1c00 	eoreq	r1, fp, r0, lsl #24
    57d4:	9b644000 	blls	19157dc <__bss_end__+0x1909824>
    57d8:	19350000 	ldmdbne	r5!, {}	; <UNPREDICTABLE>
    57dc:	01380000 	teqeq	r8, r0
    57e0:	01f30350 	mvnseq	r0, r0, asr r3
    57e4:	51013850 	tstpl	r1, r0, asr r8
    57e8:	5101f303 	tstpl	r1, r3, lsl #6
    57ec:	7b3f0000 	blvc	fc57f4 <__bss_end__+0xfb983c>
    57f0:	0100000f 	tsteq	r0, pc
    57f4:	009b3013 	addseq	r3, fp, r3, lsl r0
    57f8:	00002c00 	andeq	r2, r0, r0, lsl #24
    57fc:	a19c0100 	orrsge	r0, ip, r0, lsl #2
    5800:	3d000019 	stccc	0, cr0, [r0, #-100]	; 0xffffff9c
    5804:	0000005c 	andeq	r0, r0, ip, asr r0
    5808:	19a11301 	stmibne	r1!, {r0, r8, r9, ip}
    580c:	2b3d0000 	blcs	f45814 <__bss_end__+0xf3985c>
    5810:	762d0000 	strtvc	r0, [sp], -r0
    5814:	2c130100 	ldfcss	f0, [r3], {-0}
    5818:	5b000000 	blpl	5820 <_start-0x27e0>
    581c:	3600002b 	strcc	r0, [r0], -fp, lsr #32
    5820:	00009b40 	andeq	r9, r0, r0, asr #22
    5824:	00001b38 	andeq	r1, r0, r8, lsr fp
    5828:	009b4837 	addseq	r4, fp, r7, lsr r8
    582c:	001bbc00 	andseq	fp, fp, r0, lsl #24
    5830:	00198300 	andseq	r8, r9, r0, lsl #6
    5834:	50013800 	andpl	r3, r1, r0, lsl #16
    5838:	00007402 	andeq	r7, r0, r2, lsl #8
    583c:	009b5437 	addseq	r5, fp, r7, lsr r4
    5840:	001bc700 	andseq	ip, fp, r0, lsl #14
    5844:	00199700 	andseq	r9, r9, r0, lsl #14
    5848:	50013800 	andpl	r3, r1, r0, lsl #16
    584c:	00007402 	andeq	r7, r0, r2, lsl #8
    5850:	009b5836 	addseq	r5, fp, r6, lsr r8
    5854:	001b3800 	andseq	r3, fp, r0, lsl #16
    5858:	04060000 	streq	r0, [r6], #-0
    585c:	000019a7 	andeq	r1, r0, r7, lsr #19
    5860:	0fec4241 	svceq	0x00ec4241
    5864:	99020000 	stmdbls	r2, {}	; <UNPREDICTABLE>
    5868:	0019df03 	andseq	sp, r9, r3, lsl #30
    586c:	00634300 	rsbeq	r4, r3, r0, lsl #6
    5870:	19df9902 	ldmibne	pc, {r1, r8, fp, ip, pc}^	; <UNPREDICTABLE>
    5874:	72440000 	subvc	r0, r4, #0
    5878:	0200000d 	andeq	r0, r0, #13
    587c:	00002c99 	muleq	r0, r9, ip
    5880:	01794500 	cmneq	r9, r0, lsl #10
    5884:	19f50000 	ldmibne	r5!, {}^	; <UNPREDICTABLE>
    5888:	0fec0000 	svceq	0x00ec0000
    588c:	652f0000 	strvs	r0, [pc, #-0]!	; 5894 <_start-0x276c>
    5890:	30a20200 	adccc	r0, r2, r0, lsl #4
    5894:	0000000a 	andeq	r0, r0, sl
    5898:	0ab00406 	beq	fec068b8 <__bss_end__+0xfebfa900>
    589c:	1d0b0000 	stcne	0, cr0, [fp, #-0]
    58a0:	f5000001 			; <UNDEFINED> instruction: 0xf5000001
    58a4:	0c000019 	stceq	0, cr0, [r0], {25}
    58a8:	0000002c 	andeq	r0, r0, ip, lsr #32
    58ac:	e5100007 	ldr	r0, [r0, #-7]
    58b0:	46000019 			; <UNDEFINED> instruction: 0x46000019
    58b4:	00001304 	andeq	r1, r0, r4, lsl #6
    58b8:	00255602 	eoreq	r5, r5, r2, lsl #12
    58bc:	28030000 	stmdacs	r3, {}	; <UNPREDICTABLE>
    58c0:	4300001a 	movwmi	r0, #26
    58c4:	56020063 	strpl	r0, [r2], -r3, rrx
    58c8:	000019df 	ldrdeq	r1, [r0], -pc	; <UNPREDICTABLE>
    58cc:	02007843 	andeq	r7, r0, #4390912	; 0x430000
    58d0:	000a3056 	andeq	r3, sl, r6, asr r0
    58d4:	0e703b00 	vaddeq.f64	d19, d0, d0
    58d8:	57020000 	strpl	r0, [r2, -r0]
    58dc:	0000002c 	andeq	r0, r0, ip, lsr #32
    58e0:	0db94600 	ldceq	6, cr4, [r9]
    58e4:	4b020000 	blmi	858ec <__bss_end__+0x79934>
    58e8:	00000a30 	andeq	r0, r0, r0, lsr sl
    58ec:	001a5803 	andseq	r5, sl, r3, lsl #16
    58f0:	00634300 	rsbeq	r4, r3, r0, lsl #6
    58f4:	19df4b02 	ldmibne	pc, {r1, r8, r9, fp, lr}^	; <UNPREDICTABLE>
    58f8:	652f0000 	strvs	r0, [pc, #-0]!	; 5900 <_start-0x2700>
    58fc:	304c0200 	subcc	r0, ip, r0, lsl #4
    5900:	4500000a 	strmi	r0, [r0, #-10]
    5904:	00000179 	andeq	r0, r0, r9, ror r1
    5908:	00001a68 	andeq	r1, r0, r8, ror #20
    590c:	00000db9 			; <UNDEFINED> instruction: 0x00000db9
    5910:	011d0b00 	tsteq	sp, r0, lsl #22
    5914:	1a680000 	bne	1a0591c <__bss_end__+0x19f9964>
    5918:	2c0c0000 	stccs	0, cr0, [ip], {-0}
    591c:	06000000 	streq	r0, [r0], -r0
    5920:	1a581000 	bne	1609928 <__bss_end__+0x15fd970>
    5924:	dc460000 	marle	acc0, r0, r6
    5928:	0200000f 	andeq	r0, r0, #15
    592c:	00002542 	andeq	r2, r0, r2, asr #10
    5930:	1a9b0300 	bne	fe6c6538 <__bss_end__+0xfe6ba580>
    5934:	63430000 	movtvs	r0, #12288	; 0x3000
    5938:	df420200 	svcle	0x00420200
    593c:	43000019 	movwmi	r0, #25
    5940:	42020065 	andmi	r0, r2, #101	; 0x65
    5944:	00001a9b 	muleq	r0, fp, sl
    5948:	000fb63b 	andeq	fp, pc, fp, lsr r6	; <UNPREDICTABLE>
    594c:	2c450200 	sfmcs	f0, 2, [r5], {-0}
    5950:	00000000 	andeq	r0, r0, r0
    5954:	0a300406 	beq	c06974 <__bss_end__+0xbfa9bc>
    5958:	b6460000 	strblt	r0, [r6], -r0
    595c:	0200000e 	andeq	r0, r0, #14
    5960:	00002c3e 	andeq	r2, r0, lr, lsr ip
    5964:	1abb0300 	bne	feec656c <__bss_end__+0xfeeba5b4>
    5968:	71430000 	mrsvc	r0, (UNDEF: 67)
    596c:	df3e0200 	svcle	0x003e0200
    5970:	00000019 	andeq	r0, r0, r9, lsl r0
    5974:	00139946 	andseq	r9, r3, r6, asr #18
    5978:	253c0200 	ldrcs	r0, [ip, #-512]!	; 0x200
    597c:	03000000 	movweq	r0, #0
    5980:	00001ad5 	ldrdeq	r1, [r0], -r5
    5984:	02007143 	andeq	r7, r0, #-1073741808	; 0xc0000010
    5988:	0019df3c 	andseq	sp, r9, ip, lsr pc
    598c:	cb460000 	blgt	1185994 <__bss_end__+0x11799dc>
    5990:	0200000d 	andeq	r0, r0, #13
    5994:	00002539 	andeq	r2, r0, r9, lsr r5
    5998:	1aef0300 	bne	ffbc65a0 <__bss_end__+0xffbba5e8>
    599c:	71430000 	mrsvc	r0, (UNDEF: 67)
    59a0:	df390200 	svcle	0x00390200
    59a4:	00000019 	andeq	r0, r0, r9, lsl r0
    59a8:	000fbb47 	andeq	fp, pc, r7, asr #22
    59ac:	2b090100 	blcs	245db4 <__bss_end__+0x239dfc>
    59b0:	8000000a 	andhi	r0, r0, sl
    59b4:	0c00009b 	stceq	0, cr0, [r0], {155}	; 0x9b
    59b8:	01000000 	mrseq	r0, (UNDEF: 0)
    59bc:	0fcc489c 	svceq	0x00cc489c
    59c0:	22090000 	andcs	r0, r9, #0
    59c4:	0000170f 	andeq	r1, r0, pc, lsl #14
    59c8:	12744803 	rsbsne	r4, r4, #196608	; 0x30000
    59cc:	2c030000 	stccs	0, cr0, [r3], {-0}
    59d0:	00000025 	andeq	r0, r0, r5, lsr #32
    59d4:	0e364603 	cfmsuba32eq	mvax0, mvax4, mvfx6, mvfx3
    59d8:	26030000 	strcs	r0, [r3], -r0
    59dc:	0000002c 	andeq	r0, r0, ip, lsr #32
    59e0:	001b3803 	andseq	r3, fp, r3, lsl #16
    59e4:	073f3b00 	ldreq	r3, [pc, -r0, lsl #22]!
    59e8:	27030000 	strcs	r0, [r3, -r0]
    59ec:	0000002c 	andeq	r0, r0, ip, lsr #32
    59f0:	085f4900 	ldmdaeq	pc, {r8, fp, lr}^	; <UNPREDICTABLE>
    59f4:	085f0000 	ldmdaeq	pc, {}^	; <UNPREDICTABLE>
    59f8:	86080000 	strhi	r0, [r8], -r0
    59fc:	00137549 	andseq	r7, r3, r9, asr #10
    5a00:	00137500 	andseq	r7, r3, r0, lsl #10
    5a04:	49320300 	ldmdbmi	r2!, {r8, r9}
    5a08:	00000262 	andeq	r0, r0, r2, ror #4
    5a0c:	00000262 	andeq	r0, r0, r2, ror #4
    5a10:	6a493103 	bvs	1251e24 <__bss_end__+0x1245e6c>
    5a14:	6a000001 	bvs	5a20 <_start-0x25e0>
    5a18:	08000001 	stmdaeq	r0, {r0}
    5a1c:	04c5491e 	strbeq	r4, [r5], #2334	; 0x91e
    5a20:	04c50000 	strbeq	r0, [r5], #0
    5a24:	29080000 	stmdbcs	r8, {}	; <UNPREDICTABLE>
    5a28:	00020449 	andeq	r0, r2, r9, asr #8
    5a2c:	00020400 	andeq	r0, r2, r0, lsl #8
    5a30:	49650800 	stmdbmi	r5!, {fp}^
    5a34:	00000afb 	strdeq	r0, [r0], -fp
    5a38:	00000afb 	strdeq	r0, [r0], -fp
    5a3c:	fc494208 	mcrr2	2, 0, r4, r9, cr8
    5a40:	fc000009 	stc2	0, cr0, [r0], {9}
    5a44:	08000009 	stmdaeq	r0, {r0, r3}
    5a48:	0b31493b 	bleq	c57f3c <__bss_end__+0xc4bf84>
    5a4c:	0b310000 	bleq	c45a54 <__bss_end__+0xc39a9c>
    5a50:	44080000 	strmi	r0, [r8], #-0
    5a54:	00067a49 	andeq	r7, r6, r9, asr #20
    5a58:	00067a00 	andeq	r7, r6, r0, lsl #20
    5a5c:	493c0800 	ldmdbmi	ip!, {fp}
    5a60:	00001296 	muleq	r0, r6, r2
    5a64:	00001296 	muleq	r0, r6, r2
    5a68:	0949210b 	stmdbeq	r9, {r0, r1, r3, r8, sp}^
    5a6c:	0900000b 	stmdbeq	r0, {r0, r1, r3}
    5a70:	0800000b 	stmdaeq	r0, {r0, r1, r3}
    5a74:	091e493a 	ldmdbeq	lr, {r1, r3, r4, r5, r8, fp, lr}
    5a78:	091e0000 	ldmdbeq	lr, {}	; <UNPREDICTABLE>
    5a7c:	a5080000 	strge	r0, [r8, #-0]
    5a80:	0007b349 	andeq	fp, r7, r9, asr #6
    5a84:	0007b300 	andeq	fp, r7, r0, lsl #6
    5a88:	00990800 	addseq	r0, r9, r0, lsl #16
    5a8c:	000000db 	ldrdeq	r0, [r0], -fp
    5a90:	15dc0004 	ldrbne	r0, [ip, #4]
    5a94:	01040000 	mrseq	r0, (UNDEF: 4)
    5a98:	0000034e 	andeq	r0, r0, lr, asr #6
    5a9c:	0013b101 	andseq	fp, r3, r1, lsl #2
    5aa0:	0004d600 	andeq	sp, r4, r0, lsl #12
    5aa4:	00a35c00 	adceq	r5, r3, r0, lsl #24
    5aa8:	00002000 	andeq	r2, r0, r0
    5aac:	0013c900 	andseq	ip, r3, r0, lsl #18
    5ab0:	06010200 	streq	r0, [r1], -r0, lsl #4
    5ab4:	000002a8 	andeq	r0, r0, r8, lsr #5
    5ab8:	a6080102 	strge	r0, [r8], -r2, lsl #2
    5abc:	02000002 	andeq	r0, r0, #2
    5ac0:	02cd0502 	sbceq	r0, sp, #8388608	; 0x800000
    5ac4:	02020000 	andeq	r0, r2, #0
    5ac8:	0001a207 	andeq	sl, r1, r7, lsl #4
    5acc:	05040300 	streq	r0, [r4, #-768]	; 0x300
    5ad0:	00746e69 	rsbseq	r6, r4, r9, ror #28
    5ad4:	46070402 	strmi	r0, [r7], -r2, lsl #8
    5ad8:	02000000 	andeq	r0, r0, #0
    5adc:	00980508 	addseq	r0, r8, r8, lsl #10
    5ae0:	08020000 	stmdaeq	r2, {}	; <UNPREDICTABLE>
    5ae4:	00003c07 	andeq	r3, r0, r7, lsl #24
    5ae8:	05040200 	streq	r0, [r4, #-512]	; 0x200
    5aec:	0000009d 	muleq	r0, sp, r0
    5af0:	33070402 	movwcc	r0, #29698	; 0x7402
    5af4:	04000002 	streq	r0, [r0], #-2
    5af8:	07040204 	streq	r0, [r4, -r4, lsl #4]
    5afc:	00000041 	andeq	r0, r0, r1, asr #32
    5b00:	007a0405 	rsbseq	r0, sl, r5, lsl #8
    5b04:	01020000 	mrseq	r0, (UNDEF: 2)
    5b08:	0002af08 	andeq	sl, r2, r8, lsl #30
    5b0c:	13aa0600 			; <UNDEFINED> instruction: 0x13aa0600
    5b10:	d4020000 	strle	r0, [r2], #-0
    5b14:	00000048 	andeq	r0, r0, r8, asr #32
    5b18:	00129607 	andseq	r9, r2, r7, lsl #12
    5b1c:	6b1b0300 	blvs	6c6724 <__bss_end__+0x6ba76c>
    5b20:	5c000000 	stcpl	0, cr0, [r0], {-0}
    5b24:	200000a3 	andcs	r0, r0, r3, lsr #1
    5b28:	01000000 	mrseq	r0, (UNDEF: 0)
    5b2c:	705f089c 			; <UNDEFINED> instruction: 0x705f089c
    5b30:	6b030100 	blvs	c5f38 <__bss_end__+0xb9f80>
    5b34:	01000000 	mrseq	r0, (UNDEF: 0)
    5b38:	00630850 	rsbeq	r0, r3, r0, asr r8
    5b3c:	00410301 	subeq	r0, r1, r1, lsl #6
    5b40:	51010000 	mrspl	r0, (UNDEF: 1)
    5b44:	01006e09 	tsteq	r0, r9, lsl #28
    5b48:	00008103 	andeq	r8, r0, r3, lsl #2
    5b4c:	002b7900 	eoreq	r7, fp, r0, lsl #18
    5b50:	00700a00 	rsbseq	r0, r0, r0, lsl #20
    5b54:	00740401 	rsbseq	r0, r4, r1, lsl #8
    5b58:	2b9a0000 	blcs	fe685b60 <__bss_end__+0xfe679ba8>
    5b5c:	650b0000 	strvs	r0, [fp, #-0]
    5b60:	74040100 	strvc	r0, [r4], #-256	; 0x100
    5b64:	01000000 	mrseq	r0, (UNDEF: 0)
    5b68:	c3000052 	movwgt	r0, #82	; 0x52
    5b6c:	04000001 	streq	r0, [r0], #-1
    5b70:	00167900 	andseq	r7, r6, r0, lsl #18
    5b74:	4e010400 	cfcpysmi	mvf0, mvf1
    5b78:	01000003 	tsteq	r0, r3
    5b7c:	000013c6 	andeq	r1, r0, r6, asr #7
    5b80:	000004d6 	ldrdeq	r0, [r0], -r6
    5b84:	0000a37c 	andeq	sl, r0, ip, ror r3
    5b88:	00000050 	andeq	r0, r0, r0, asr r0
    5b8c:	000014b9 			; <UNDEFINED> instruction: 0x000014b9
    5b90:	69050402 	stmdbvs	r5, {r1, sl}
    5b94:	0300746e 	movweq	r7, #1134	; 0x46e
    5b98:	000013aa 	andeq	r1, r0, sl, lsr #7
    5b9c:	0037d402 	eorseq	sp, r7, r2, lsl #8
    5ba0:	04040000 	streq	r0, [r4], #-0
    5ba4:	00004607 	andeq	r4, r0, r7, lsl #12
    5ba8:	06010400 	streq	r0, [r1], -r0, lsl #8
    5bac:	000002a8 	andeq	r0, r0, r8, lsr #5
    5bb0:	cd050204 	sfmgt	f0, 4, [r5, #-16]
    5bb4:	04000002 	streq	r0, [r0], #-2
    5bb8:	009d0504 	addseq	r0, sp, r4, lsl #10
    5bbc:	08040000 	stmdaeq	r4, {}	; <UNPREDICTABLE>
    5bc0:	00009805 	andeq	r9, r0, r5, lsl #16
    5bc4:	04630300 	strbteq	r0, [r3], #-768	; 0x300
    5bc8:	2e030000 	cdpcs	0, 0, cr0, cr3, cr0, {0}
    5bcc:	00000065 	andeq	r0, r0, r5, rrx
    5bd0:	a6080104 	strge	r0, [r8], -r4, lsl #2
    5bd4:	04000002 	streq	r0, [r0], #-2
    5bd8:	01a20702 			; <UNDEFINED> instruction: 0x01a20702
    5bdc:	13030000 	movwne	r0, #12288	; 0x3000
    5be0:	03000003 	movweq	r0, #3
    5be4:	00007e34 	andeq	r7, r0, r4, lsr lr
    5be8:	07040400 	streq	r0, [r4, -r0, lsl #8]
    5bec:	00000041 	andeq	r0, r0, r1, asr #32
    5bf0:	3c070804 	stccc	8, cr0, [r7], {4}
    5bf4:	04000000 	streq	r0, [r0], #-0
    5bf8:	02330704 	eorseq	r0, r3, #4, 14	; 0x100000
    5bfc:	04050000 	streq	r0, [r5], #-0
    5c00:	af080104 	svcge	0x00080104
    5c04:	06000002 	streq	r0, [r0], -r2
    5c08:	d30e040c 	movwle	r0, #58380	; 0xe40c
    5c0c:	07000000 	streq	r0, [r0, -r0]
    5c10:	04007874 	streq	r7, [r0], #-2164	; 0x874
    5c14:	00005a0f 	andeq	r5, r0, pc, lsl #20
    5c18:	72070000 	andvc	r0, r7, #0
    5c1c:	0f040078 	svceq	0x00040078
    5c20:	0000005a 	andeq	r0, r0, sl, asr r0
    5c24:	06520801 	ldrbeq	r0, [r2], -r1, lsl #16
    5c28:	10040000 	andne	r0, r4, r0
    5c2c:	00000073 	andeq	r0, r0, r3, ror r0
    5c30:	06030804 	streq	r0, [r3], -r4, lsl #16
    5c34:	11040000 	mrsne	r0, (UNDEF: 4)
    5c38:	00000073 	andeq	r0, r0, r3, ror r0
    5c3c:	3b030008 	blcc	c5c64 <__bss_end__+0xb9cac>
    5c40:	04000006 	streq	r0, [r0], #-6
    5c44:	00009c12 	andeq	r9, r0, r2, lsl ip
    5c48:	05010900 	streq	r0, [r1, #-2304]	; 0x900
    5c4c:	0000f910 	andeq	pc, r0, r0, lsl r9	; <UNPREDICTABLE>
    5c50:	06570a00 	ldrbeq	r0, [r7], -r0, lsl #20
    5c54:	0a010000 	beq	45c5c <__bss_end__+0x39ca4>
    5c58:	00000645 	andeq	r0, r0, r5, asr #12
    5c5c:	062d0a02 	strteq	r0, [sp], -r2, lsl #20
    5c60:	00030000 	andeq	r0, r3, r0
    5c64:	00066c03 	andeq	r6, r6, r3, lsl #24
    5c68:	de100500 	cfmul32le	mvfx0, mvfx0, mvfx0
    5c6c:	06000000 	streq	r0, [r0], -r0
    5c70:	31140514 	tstcc	r4, r4, lsl r5
    5c74:	08000001 	stmdaeq	r0, {r0}
    5c78:	000006d3 	ldrdeq	r0, [r0], -r3
    5c7c:	00371505 	eorseq	r1, r7, r5, lsl #10
    5c80:	08000000 	stmdaeq	r0, {}	; <UNPREDICTABLE>
    5c84:	000006c7 	andeq	r0, r0, r7, asr #13
    5c88:	00f91805 	rscseq	r1, r9, r5, lsl #16
    5c8c:	08040000 	stmdaeq	r4, {}	; <UNPREDICTABLE>
    5c90:	00000692 	muleq	r0, r2, r6
    5c94:	00d31b05 	sbcseq	r1, r3, r5, lsl #22
    5c98:	00080000 	andeq	r0, r8, r0
    5c9c:	00068403 	andeq	r8, r6, r3, lsl #8
    5ca0:	04200500 	strteq	r0, [r0], #-1280	; 0x500
    5ca4:	0b000001 	bleq	5cb0 <_start-0x2350>
    5ca8:	000013bf 			; <UNDEFINED> instruction: 0x000013bf
    5cac:	017e0501 	cmneq	lr, r1, lsl #10
    5cb0:	a37c0000 	cmnge	ip, #0
    5cb4:	00280000 	eoreq	r0, r8, r0
    5cb8:	9c010000 	stcls	0, cr0, [r1], {-0}
    5cbc:	0000017e 	andeq	r0, r0, lr, ror r1
    5cc0:	0100630c 	tsteq	r0, ip, lsl #6
    5cc4:	00017e06 	andeq	r7, r1, r6, lsl #28
    5cc8:	00000000 	andeq	r0, r0, r0
    5ccc:	a3900d09 	orrsge	r0, r0, #576	; 0x240
    5cd0:	01ab0000 			; <UNDEFINED> instruction: 0x01ab0000
    5cd4:	010e0000 	mrseq	r0, (UNDEF: 14)
    5cd8:	0e340152 	mrceq	1, 1, r0, cr4, cr2, {2}
    5cdc:	30015101 	andcc	r5, r1, r1, lsl #2
    5ce0:	0350010e 	cmpeq	r0, #-2147483645	; 0x80000003
    5ce4:	00244742 	eoreq	r4, r4, r2, asr #14
    5ce8:	31040f00 	tstcc	r4, r0, lsl #30
    5cec:	0b000001 	bleq	5cf8 <_start-0x2308>
    5cf0:	0000069a 	muleq	r0, sl, r6
    5cf4:	017e0c01 	cmneq	lr, r1, lsl #24
    5cf8:	a3a40000 			; <UNDEFINED> instruction: 0xa3a40000
    5cfc:	00280000 	eoreq	r0, r8, r0
    5d00:	9c010000 	stcls	0, cr0, [r1], {-0}
    5d04:	000001ab 	andeq	r0, r0, fp, lsr #3
    5d08:	0100630c 	tsteq	r0, ip, lsl #6
    5d0c:	00017e0d 	andeq	r7, r1, sp, lsl #28
    5d10:	00000000 	andeq	r0, r0, r0
    5d14:	96100009 	ldrls	r0, [r0], -r9
    5d18:	06000012 			; <UNDEFINED> instruction: 0x06000012
    5d1c:	0000931b 	andeq	r9, r0, fp, lsl r3
    5d20:	00931100 	addseq	r1, r3, r0, lsl #2
    5d24:	25110000 	ldrcs	r0, [r1, #-0]
    5d28:	11000000 	mrsne	r0, (UNDEF: 0)
    5d2c:	0000002c 	andeq	r0, r0, ip, lsr #32
	...

Disassembly of section .debug_abbrev:

00000000 <.debug_abbrev>:
       0:	25011101 	strcs	r1, [r1, #-257]	; 0x101
       4:	030b130e 	movweq	r1, #45838	; 0xb30e
       8:	110e1b0e 	tstne	lr, lr, lsl #22
       c:	10061201 	andne	r1, r6, r1, lsl #4
      10:	02000017 	andeq	r0, r0, #23
      14:	0b0b0024 	bleq	2c00ac <__bss_end__+0x2b40f4>
      18:	08030b3e 	stmdaeq	r3, {r1, r2, r3, r4, r5, r8, r9, fp}
      1c:	24030000 	strcs	r0, [r3], #-0
      20:	3e0b0b00 	vmlacc.f64	d0, d11, d0
      24:	000e030b 	andeq	r0, lr, fp, lsl #6
      28:	00160400 	andseq	r0, r6, r0, lsl #8
      2c:	0b3a0e03 	bleq	e83840 <__bss_end__+0xe77888>
      30:	13490b3b 	movtne	r0, #39739	; 0x9b3b
      34:	0f050000 	svceq	0x00050000
      38:	000b0b00 	andeq	r0, fp, r0, lsl #22
      3c:	000f0600 	andeq	r0, pc, r0, lsl #12
      40:	13490b0b 	movtne	r0, #39691	; 0x9b0b
      44:	26070000 	strcs	r0, [r7], -r0
      48:	00134900 	andseq	r4, r3, r0, lsl #18
      4c:	01010800 	tsteq	r1, r0, lsl #16
      50:	13011349 	movwne	r1, #4937	; 0x1349
      54:	21090000 	mrscs	r0, (UNDEF: 9)
      58:	2f134900 	svccs	0x00134900
      5c:	0a00000b 	beq	90 <_start-0x7f70>
      60:	0b0b0104 	bleq	2c0478 <__bss_end__+0x2b44c0>
      64:	0b3b0b3a 	bleq	ec2d54 <__bss_end__+0xeb6d9c>
      68:	00001301 	andeq	r1, r0, r1, lsl #6
      6c:	0300280b 	movweq	r2, #2059	; 0x80b
      70:	000d1c0e 	andeq	r1, sp, lr, lsl #24
      74:	01130c00 	tsteq	r3, r0, lsl #24
      78:	0b0b0e03 	bleq	2c388c <__bss_end__+0x2b78d4>
      7c:	0b3b0b3a 	bleq	ec2d6c <__bss_end__+0xeb6db4>
      80:	00001301 	andeq	r1, r0, r1, lsl #6
      84:	03000d0d 	movweq	r0, #3341	; 0xd0d
      88:	3b0b3a0e 	blcc	2ce8c8 <__bss_end__+0x2c2910>
      8c:	3813490b 	ldmdacc	r3, {r0, r1, r3, r8, fp, lr}
      90:	0e00000b 	cdpeq	0, 0, cr0, cr0, cr11, {0}
      94:	0e03012e 	adfeqsp	f0, f3, #0.5
      98:	0b3b0b3a 	bleq	ec2d88 <__bss_end__+0xeb6dd0>
      9c:	01111927 	tsteq	r1, r7, lsr #18
      a0:	18400612 	stmdane	r0, {r1, r4, r9, sl}^
      a4:	01194297 			; <UNDEFINED> instruction: 0x01194297
      a8:	0f000013 	svceq	0x00000013
      ac:	0e030005 	cdpeq	0, 0, cr0, cr3, cr5, {0}
      b0:	0b3b0b3a 	bleq	ec2da0 <__bss_end__+0xeb6de8>
      b4:	17021349 	strne	r1, [r2, -r9, asr #6]
      b8:	05100000 	ldreq	r0, [r0, #-0]
      bc:	3a080300 	bcc	200cc4 <__bss_end__+0x1f4d0c>
      c0:	490b3b0b 	stmdbmi	fp, {r0, r1, r3, r8, r9, fp, ip, sp}
      c4:	00170213 	andseq	r0, r7, r3, lsl r2
      c8:	00341100 	eorseq	r1, r4, r0, lsl #2
      cc:	0b3a0803 	bleq	e820e0 <__bss_end__+0xe76128>
      d0:	13490b3b 	movtne	r0, #39739	; 0x9b3b
      d4:	00001702 	andeq	r1, r0, r2, lsl #14
      d8:	11010b12 	tstne	r1, r2, lsl fp
      dc:	00061201 	andeq	r1, r6, r1, lsl #4
      e0:	82891300 	addhi	r1, r9, #0, 6
      e4:	01110001 	tsteq	r1, r1
      e8:	00001331 	andeq	r1, r0, r1, lsr r3
      ec:	03012e14 	movweq	r2, #7700	; 0x1e14
      f0:	3b0b3a0e 	blcc	2ce930 <__bss_end__+0x2c2978>
      f4:	4919270b 	ldmdbmi	r9, {r0, r1, r3, r8, r9, sl, sp}
      f8:	12011113 	andne	r1, r1, #-1073741820	; 0xc0000004
      fc:	97184006 	ldrls	r4, [r8, -r6]
     100:	13011942 	movwne	r1, #6466	; 0x1942
     104:	34150000 	ldrcc	r0, [r5], #-0
     108:	3a080300 	bcc	200d10 <__bss_end__+0x1f4d58>
     10c:	490b3b0b 	stmdbmi	fp, {r0, r1, r3, r8, r9, fp, ip, sp}
     110:	00180213 	andseq	r0, r8, r3, lsl r2
     114:	82891600 	addhi	r1, r9, #0, 12
     118:	01110101 	tsteq	r1, r1, lsl #2
     11c:	00001331 	andeq	r1, r0, r1, lsr r3
     120:	01828a17 	orreq	r8, r2, r7, lsl sl
     124:	91180200 	tstls	r8, r0, lsl #4
     128:	00001842 	andeq	r1, r0, r2, asr #16
     12c:	01828918 	orreq	r8, r2, r8, lsl r9
     130:	31011101 	tstcc	r1, r1, lsl #2
     134:	00130113 	andseq	r0, r3, r3, lsl r1
     138:	00261900 	eoreq	r1, r6, r0, lsl #18
     13c:	2e1a0000 	cdpcs	0, 1, cr0, cr10, cr0, {0}
     140:	03193f01 	tsteq	r9, #1, 30
     144:	3b0b3a0e 	blcc	2ce984 <__bss_end__+0x2c29cc>
     148:	1119270b 	tstne	r9, fp, lsl #14
     14c:	40061201 	andmi	r1, r6, r1, lsl #4
     150:	19429718 	stmdbne	r2, {r3, r4, r8, r9, sl, ip, pc}^
     154:	00001301 	andeq	r1, r0, r1, lsl #6
     158:	0300341b 	movweq	r3, #1051	; 0x41b
     15c:	3413490e 	ldrcc	r4, [r3], #-2318	; 0x90e
     160:	00180219 	andseq	r0, r8, r9, lsl r2
     164:	010b1c00 	tsteq	fp, r0, lsl #24
     168:	06120111 			; <UNDEFINED> instruction: 0x06120111
     16c:	00001301 	andeq	r1, r0, r1, lsl #6
     170:	0300341d 	movweq	r3, #1053	; 0x41d
     174:	3b0b3a0e 	blcc	2ce9b4 <__bss_end__+0x2c29fc>
     178:	0213490b 	andseq	r4, r3, #180224	; 0x2c000
     17c:	1e000017 	mcrne	0, 0, r0, cr0, cr7, {0}
     180:	0e030034 	mcreq	0, 0, r0, cr3, cr4, {1}
     184:	0b3b0b3a 	bleq	ec2e74 <__bss_end__+0xeb6ebc>
     188:	00001349 	andeq	r1, r0, r9, asr #6
     18c:	0300341f 	movweq	r3, #1055	; 0x41f
     190:	3b0b3a08 	blcc	2ce9b8 <__bss_end__+0x2c2a00>
     194:	0013490b 	andseq	r4, r3, fp, lsl #18
     198:	00342000 	eorseq	r2, r4, r0
     19c:	0b3a0e03 	bleq	e839b0 <__bss_end__+0xe779f8>
     1a0:	13490b3b 	movtne	r0, #39739	; 0x9b3b
     1a4:	00001802 	andeq	r1, r0, r2, lsl #16
     1a8:	55010b21 	strpl	r0, [r1, #-2849]	; 0xb21
     1ac:	00130117 	andseq	r0, r3, r7, lsl r1
     1b0:	00212200 	eoreq	r2, r1, r0, lsl #4
     1b4:	052f1349 	streq	r1, [pc, #-841]!	; fffffe73 <__bss_end__+0xffff3ebb>
     1b8:	34230000 	strtcc	r0, [r3], #-0
     1bc:	3a0e0300 	bcc	380dc4 <__bss_end__+0x374e0c>
     1c0:	490b3b0b 	stmdbmi	fp, {r0, r1, r3, r8, r9, fp, ip, sp}
     1c4:	02193f13 	andseq	r3, r9, #19, 30	; 0x4c
     1c8:	24000018 	strcs	r0, [r0], #-24
     1cc:	193f002e 	ldmdbne	pc!, {r1, r2, r3, r5}	; <UNPREDICTABLE>
     1d0:	0b3a0e03 	bleq	e839e4 <__bss_end__+0xe77a2c>
     1d4:	19270b3b 	stmdbne	r7!, {r0, r1, r3, r4, r5, r8, r9, fp}
     1d8:	193c1349 	ldmdbne	ip!, {r0, r3, r6, r8, r9, ip}
     1dc:	2e250000 	cdpcs	0, 2, cr0, cr5, cr0, {0}
     1e0:	03193f01 	tsteq	r9, #1, 30
     1e4:	3b0b3a0e 	blcc	2cea24 <__bss_end__+0x2c2a6c>
     1e8:	4919270b 	ldmdbmi	r9, {r0, r1, r3, r8, r9, sl, sp}
     1ec:	01193c13 	tsteq	r9, r3, lsl ip
     1f0:	26000013 			; <UNDEFINED> instruction: 0x26000013
     1f4:	13490005 	movtne	r0, #36869	; 0x9005
     1f8:	2e270000 	cdpcs	0, 2, cr0, cr7, cr0, {0}
     1fc:	03193f01 	tsteq	r9, #1, 30
     200:	3b0b3a0e 	blcc	2cea40 <__bss_end__+0x2c2a88>
     204:	3c19270b 	ldccc	7, cr2, [r9], {11}
     208:	00130119 	andseq	r0, r3, r9, lsl r1
     20c:	002e2800 	eoreq	r2, lr, r0, lsl #16
     210:	0e03193f 	mcreq	9, 0, r1, cr3, cr15, {1}
     214:	0b3b0b3a 	bleq	ec2f04 <__bss_end__+0xeb6f4c>
     218:	193c1927 	ldmdbne	ip!, {r0, r1, r2, r5, r8, fp, ip}
     21c:	18290000 	stmdane	r9!, {}	; <UNPREDICTABLE>
     220:	2a000000 	bcs	228 <_start-0x7dd8>
     224:	19270115 	stmdbne	r7!, {r0, r2, r4, r8}
     228:	00001349 	andeq	r1, r0, r9, asr #6
     22c:	01110100 	tsteq	r1, r0, lsl #2
     230:	0b130e25 	bleq	4c3acc <__bss_end__+0x4b7b14>
     234:	0e1b0e03 	cdpeq	14, 1, cr0, cr11, cr3, {0}
     238:	06120111 			; <UNDEFINED> instruction: 0x06120111
     23c:	00001710 	andeq	r1, r0, r0, lsl r7
     240:	03001602 	movweq	r1, #1538	; 0x602
     244:	3b0b3a0e 	blcc	2cea84 <__bss_end__+0x2c2acc>
     248:	0013490b 	andseq	r4, r3, fp, lsl #18
     24c:	01130300 	tsteq	r3, r0, lsl #6
     250:	0b0b0e03 	bleq	2c3a64 <__bss_end__+0x2b7aac>
     254:	0b3b0b3a 	bleq	ec2f44 <__bss_end__+0xeb6f8c>
     258:	00001301 	andeq	r1, r0, r1, lsl #6
     25c:	03000d04 	movweq	r0, #3332	; 0xd04
     260:	3813490e 	ldmdacc	r3, {r1, r2, r3, r8, fp, lr}
     264:	0019340b 	andseq	r3, r9, fp, lsl #8
     268:	000f0500 	andeq	r0, pc, r0, lsl #10
     26c:	00000b0b 	andeq	r0, r0, fp, lsl #22
     270:	0b002406 	bleq	9290 <sw_uart_getc_timeout+0xc0>
     274:	030b3e0b 	movweq	r3, #48651	; 0xbe0b
     278:	07000008 	streq	r0, [r0, -r8]
     27c:	0b0b0024 	bleq	2c0314 <__bss_end__+0x2b435c>
     280:	0e030b3e 	vmoveq.16	d3[0], r0
     284:	0f080000 	svceq	0x00080000
     288:	490b0b00 	stmdbmi	fp, {r8, r9, fp}
     28c:	09000013 	stmdbeq	r0, {r0, r1, r4}
     290:	13490026 	movtne	r0, #36902	; 0x9026
     294:	2e0a0000 	cdpcs	0, 0, cr0, cr10, cr0, {0}
     298:	03193f01 	tsteq	r9, #1, 30
     29c:	3b0b3a0e 	blcc	2ceadc <__bss_end__+0x2c2b24>
     2a0:	4919270b 	ldmdbmi	r9, {r0, r1, r3, r8, r9, sl, sp}
     2a4:	12011113 	andne	r1, r1, #-1073741820	; 0xc0000004
     2a8:	97184006 	ldrls	r4, [r8, -r6]
     2ac:	13011942 	movwne	r1, #6466	; 0x1942
     2b0:	050b0000 	streq	r0, [fp, #-0]
     2b4:	3a080300 	bcc	200ebc <__bss_end__+0x1f4f04>
     2b8:	490b3b0b 	stmdbmi	fp, {r0, r1, r3, r8, r9, fp, ip, sp}
     2bc:	00180213 	andseq	r0, r8, r3, lsl r2
     2c0:	00180c00 	andseq	r0, r8, r0, lsl #24
     2c4:	340d0000 	strcc	r0, [sp], #-0
     2c8:	3a080300 	bcc	200ed0 <__bss_end__+0x1f4f18>
     2cc:	490b3b0b 	stmdbmi	fp, {r0, r1, r3, r8, r9, fp, ip, sp}
     2d0:	00180213 	andseq	r0, r8, r3, lsl r2
     2d4:	00340e00 	eorseq	r0, r4, r0, lsl #28
     2d8:	0b3a0e03 	bleq	e83aec <__bss_end__+0xe77b34>
     2dc:	13490b3b 	movtne	r0, #39739	; 0x9b3b
     2e0:	00001802 	andeq	r1, r0, r2, lsl #16
     2e4:	0300340f 	movweq	r3, #1039	; 0x40f
     2e8:	3b0b3a08 	blcc	2ceb10 <__bss_end__+0x2c2b58>
     2ec:	0213490b 	andseq	r4, r3, #180224	; 0x2c000
     2f0:	10000017 	andne	r0, r0, r7, lsl r0
     2f4:	01018289 	smlabbeq	r1, r9, r2, r8
     2f8:	13310111 	teqne	r1, #1073741828	; 0x40000004
     2fc:	00001301 	andeq	r1, r0, r1, lsl #6
     300:	01828a11 	orreq	r8, r2, r1, lsl sl
     304:	91180200 	tstls	r8, r0, lsl #4
     308:	00001842 	andeq	r1, r0, r2, asr #16
     30c:	01828912 	orreq	r8, r2, r2, lsl r9
     310:	00011101 	andeq	r1, r1, r1, lsl #2
     314:	01011300 	mrseq	r1, SP_irq
     318:	13011349 	movwne	r1, #4937	; 0x1349
     31c:	21140000 	tstcs	r4, r0
     320:	2f134900 	svccs	0x00134900
     324:	15000005 	strne	r0, [r0, #-5]
     328:	19270115 	stmdbne	r7!, {r0, r2, r4, r8}
     32c:	13011349 	movwne	r1, #4937	; 0x1349
     330:	05160000 	ldreq	r0, [r6, #-0]
     334:	00134900 	andseq	r4, r3, r0, lsl #18
     338:	00341700 	eorseq	r1, r4, r0, lsl #14
     33c:	0b3a0e03 	bleq	e83b50 <__bss_end__+0xe77b98>
     340:	13490b3b 	movtne	r0, #39739	; 0x9b3b
     344:	193c193f 	ldmdbne	ip!, {r0, r1, r2, r3, r4, r5, r8, fp, ip}
     348:	2e180000 	cdpcs	0, 1, cr0, cr8, cr0, {0}
     34c:	03193f01 	tsteq	r9, #1, 30
     350:	3b0b3a0e 	blcc	2ceb90 <__bss_end__+0x2c2bd8>
     354:	4919270b 	ldmdbmi	r9, {r0, r1, r3, r8, r9, sl, sp}
     358:	00193c13 	andseq	r3, r9, r3, lsl ip
     35c:	11010000 	mrsne	r0, (UNDEF: 1)
     360:	130e2501 	movwne	r2, #58625	; 0xe501
     364:	1b0e030b 	blne	380f98 <__bss_end__+0x374fe0>
     368:	1201110e 	andne	r1, r1, #-2147483645	; 0x80000003
     36c:	00171006 	andseq	r1, r7, r6
     370:	00240200 	eoreq	r0, r4, r0, lsl #4
     374:	0b3e0b0b 	bleq	f82fa8 <__bss_end__+0xf76ff0>
     378:	00000803 	andeq	r0, r0, r3, lsl #16
     37c:	0b002403 	bleq	9390 <sw_uart_getc_timeout+0x1c0>
     380:	030b3e0b 	movweq	r3, #48651	; 0xbe0b
     384:	0400000e 	streq	r0, [r0], #-14
     388:	0e03012e 	adfeqsp	f0, f3, #0.5
     38c:	0b3b0b3a 	bleq	ec307c <__bss_end__+0xeb70c4>
     390:	13491927 	movtne	r1, #39207	; 0x9927
     394:	06120111 			; <UNDEFINED> instruction: 0x06120111
     398:	42971840 	addsmi	r1, r7, #64, 16	; 0x400000
     39c:	00130119 	andseq	r0, r3, r9, lsl r1
     3a0:	00050500 	andeq	r0, r5, r0, lsl #10
     3a4:	0b3a0803 	bleq	e823b8 <__bss_end__+0xe76400>
     3a8:	13490b3b 	movtne	r0, #39739	; 0x9b3b
     3ac:	00001702 	andeq	r1, r0, r2, lsl #14
     3b0:	01828906 	orreq	r8, r2, r6, lsl #18
     3b4:	31011101 	tstcc	r1, r1, lsl #2
     3b8:	07000013 	smladeq	r0, r3, r0, r0
     3bc:	0001828a 	andeq	r8, r1, sl, lsl #5
     3c0:	42911802 	addsmi	r1, r1, #131072	; 0x20000
     3c4:	08000018 	stmdaeq	r0, {r3, r4}
     3c8:	193f002e 	ldmdbne	pc!, {r1, r2, r3, r5}	; <UNPREDICTABLE>
     3cc:	0b3a0e03 	bleq	e83be0 <__bss_end__+0xe77c28>
     3d0:	19270b3b 	stmdbne	r7!, {r0, r1, r3, r4, r5, r8, r9, fp}
     3d4:	06120111 			; <UNDEFINED> instruction: 0x06120111
     3d8:	42971840 	addsmi	r1, r7, #64, 16	; 0x400000
     3dc:	09000019 	stmdbeq	r0, {r0, r3, r4}
     3e0:	193f012e 	ldmdbne	pc!, {r1, r2, r3, r5, r8}	; <UNPREDICTABLE>
     3e4:	0b3a0e03 	bleq	e83bf8 <__bss_end__+0xe77c40>
     3e8:	19270b3b 	stmdbne	r7!, {r0, r1, r3, r4, r5, r8, r9, fp}
     3ec:	06120111 			; <UNDEFINED> instruction: 0x06120111
     3f0:	42971840 	addsmi	r1, r7, #64, 16	; 0x400000
     3f4:	00130119 	andseq	r0, r3, r9, lsl r1
     3f8:	00050a00 	andeq	r0, r5, r0, lsl #20
     3fc:	0b3a0803 	bleq	e82410 <__bss_end__+0xe76458>
     400:	13490b3b 	movtne	r0, #39739	; 0x9b3b
     404:	00001802 	andeq	r1, r0, r2, lsl #16
     408:	2701150b 	strcs	r1, [r1, -fp, lsl #10]
     40c:	01134919 	tsteq	r3, r9, lsl r9
     410:	0c000013 	stceq	0, cr0, [r0], {19}
     414:	13490005 	movtne	r0, #36869	; 0x9005
     418:	0f0d0000 	svceq	0x000d0000
     41c:	490b0b00 	stmdbmi	fp, {r8, r9, fp}
     420:	0e000013 	mcreq	0, 0, r0, cr0, cr3, {0}
     424:	0e030034 	mcreq	0, 0, r0, cr3, cr4, {1}
     428:	0b3b0b3a 	bleq	ec3118 <__bss_end__+0xeb7160>
     42c:	193f1349 	ldmdbne	pc!, {r0, r3, r6, r8, r9, ip}	; <UNPREDICTABLE>
     430:	00001802 	andeq	r1, r0, r2, lsl #16
     434:	3f012e0f 	svccc	0x00012e0f
     438:	3a0e0319 	bcc	3810a4 <__bss_end__+0x3750ec>
     43c:	270b3b0b 	strcs	r3, [fp, -fp, lsl #22]
     440:	00193c19 	andseq	r3, r9, r9, lsl ip
     444:	11010000 	mrsne	r0, (UNDEF: 1)
     448:	130e2501 	movwne	r2, #58625	; 0xe501
     44c:	1b0e030b 	blne	381080 <__bss_end__+0x3750c8>
     450:	1201110e 	andne	r1, r1, #-2147483645	; 0x80000003
     454:	00171006 	andseq	r1, r7, r6
     458:	00240200 	eoreq	r0, r4, r0, lsl #4
     45c:	0b3e0b0b 	bleq	f83090 <__bss_end__+0xf770d8>
     460:	00000803 	andeq	r0, r0, r3, lsl #16
     464:	0b002403 	bleq	9478 <sw_uart_gets_timeout+0x50>
     468:	030b3e0b 	movweq	r3, #48651	; 0xbe0b
     46c:	0400000e 	streq	r0, [r0], #-14
     470:	0b0b000f 	bleq	2c04b4 <__bss_end__+0x2b44fc>
     474:	00001349 	andeq	r1, r0, r9, asr #6
     478:	49002605 	stmdbmi	r0, {r0, r2, r9, sl, sp}
     47c:	06000013 			; <UNDEFINED> instruction: 0x06000013
     480:	193f012e 	ldmdbne	pc!, {r1, r2, r3, r5, r8}	; <UNPREDICTABLE>
     484:	0b3a0e03 	bleq	e83c98 <__bss_end__+0xe77ce0>
     488:	19270b3b 	stmdbne	r7!, {r0, r1, r3, r4, r5, r8, r9, fp}
     48c:	01111349 	tsteq	r1, r9, asr #6
     490:	18400612 	stmdane	r0, {r1, r4, r9, sl}^
     494:	01194296 			; <UNDEFINED> instruction: 0x01194296
     498:	07000013 	smladeq	r0, r3, r0, r0
     49c:	08030005 	stmdaeq	r3, {r0, r2}
     4a0:	0b3b0b3a 	bleq	ec3190 <__bss_end__+0xeb71d8>
     4a4:	17021349 	strne	r1, [r2, -r9, asr #6]
     4a8:	15080000 	strne	r0, [r8, #-0]
     4ac:	49192701 	ldmdbmi	r9, {r0, r8, r9, sl, sp}
     4b0:	00130113 	andseq	r0, r3, r3, lsl r1
     4b4:	00050900 	andeq	r0, r5, r0, lsl #18
     4b8:	00001349 	andeq	r1, r0, r9, asr #6
     4bc:	0300340a 	movweq	r3, #1034	; 0x40a
     4c0:	3b0b3a0e 	blcc	2ced00 <__bss_end__+0x2c2d48>
     4c4:	3f13490b 	svccc	0x0013490b
     4c8:	00193c19 	andseq	r3, r9, r9, lsl ip
     4cc:	00340b00 	eorseq	r0, r4, r0, lsl #22
     4d0:	0b3a0e03 	bleq	e83ce4 <__bss_end__+0xe77d2c>
     4d4:	13490b3b 	movtne	r0, #39739	; 0x9b3b
     4d8:	1802193f 	stmdane	r2, {r0, r1, r2, r3, r4, r5, r8, fp, ip}
     4dc:	01000000 	mrseq	r0, (UNDEF: 0)
     4e0:	0e250111 	mcreq	1, 1, r0, cr5, cr1, {0}
     4e4:	0e030b13 	vmoveq.32	d3[0], r0
     4e8:	01110e1b 	tsteq	r1, fp, lsl lr
     4ec:	17100612 			; <UNDEFINED> instruction: 0x17100612
     4f0:	24020000 	strcs	r0, [r2], #-0
     4f4:	3e0b0b00 	vmlacc.f64	d0, d11, d0
     4f8:	0008030b 	andeq	r0, r8, fp, lsl #6
     4fc:	00240300 	eoreq	r0, r4, r0, lsl #6
     500:	0b3e0b0b 	bleq	f83134 <__bss_end__+0xf7717c>
     504:	00000e03 	andeq	r0, r0, r3, lsl #28
     508:	0b000f04 	bleq	4120 <_start-0x3ee0>
     50c:	0500000b 	streq	r0, [r0, #-11]
     510:	0b0b000f 	bleq	2c0554 <__bss_end__+0x2b459c>
     514:	00001349 	andeq	r1, r0, r9, asr #6
     518:	49002606 	stmdbmi	r0, {r1, r2, r9, sl, sp}
     51c:	07000013 	smladeq	r0, r3, r0, r0
     520:	0e030016 	mcreq	0, 0, r0, cr3, cr6, {0}
     524:	0b3b0b3a 	bleq	ec3214 <__bss_end__+0xeb725c>
     528:	00001349 	andeq	r1, r0, r9, asr #6
     52c:	03011308 	movweq	r1, #4872	; 0x1308
     530:	3a0b0b0e 	bcc	2c3170 <__bss_end__+0x2b71b8>
     534:	010b3b0b 	tsteq	fp, fp, lsl #22
     538:	09000013 	stmdbeq	r0, {r0, r1, r4}
     53c:	0e03000d 	cdpeq	0, 0, cr0, cr3, cr13, {0}
     540:	0b381349 	bleq	e0526c <__bss_end__+0xdf92b4>
     544:	00001934 	andeq	r1, r0, r4, lsr r9
     548:	03012e0a 	movweq	r2, #7690	; 0x1e0a
     54c:	3b0b3a0e 	blcc	2ced8c <__bss_end__+0x2c2dd4>
     550:	4919270b 	ldmdbmi	r9, {r0, r1, r3, r8, r9, sl, sp}
     554:	12011113 	andne	r1, r1, #-1073741820	; 0xc0000004
     558:	97184006 	ldrls	r4, [r8, -r6]
     55c:	13011942 	movwne	r1, #6466	; 0x1942
     560:	050b0000 	streq	r0, [fp, #-0]
     564:	3a080300 	bcc	20116c <__bss_end__+0x1f51b4>
     568:	490b3b0b 	stmdbmi	fp, {r0, r1, r3, r8, r9, fp, ip, sp}
     56c:	00170213 	andseq	r0, r7, r3, lsl r2
     570:	012e0c00 	teqeq	lr, r0, lsl #24
     574:	0b3a0803 	bleq	e82588 <__bss_end__+0xe765d0>
     578:	19270b3b 	stmdbne	r7!, {r0, r1, r3, r4, r5, r8, r9, fp}
     57c:	01111349 	tsteq	r1, r9, asr #6
     580:	18400612 	stmdane	r0, {r1, r4, r9, sl}^
     584:	01194297 			; <UNDEFINED> instruction: 0x01194297
     588:	0d000013 	stceq	0, cr0, [r0, #-76]	; 0xffffffb4
     58c:	0e030005 	cdpeq	0, 0, cr0, cr3, cr5, {0}
     590:	0b3b0b3a 	bleq	ec3280 <__bss_end__+0xeb72c8>
     594:	17021349 	strne	r1, [r2, -r9, asr #6]
     598:	050e0000 	streq	r0, [lr, #-0]
     59c:	3a0e0300 	bcc	3811a4 <__bss_end__+0x3751ec>
     5a0:	490b3b0b 	stmdbmi	fp, {r0, r1, r3, r8, r9, fp, ip, sp}
     5a4:	00180213 	andseq	r0, r8, r3, lsl r2
     5a8:	00340f00 	eorseq	r0, r4, r0, lsl #30
     5ac:	0b3a0803 	bleq	e825c0 <__bss_end__+0xe76608>
     5b0:	13490b3b 	movtne	r0, #39739	; 0x9b3b
     5b4:	00001802 	andeq	r1, r0, r2, lsl #16
     5b8:	03003410 	movweq	r3, #1040	; 0x410
     5bc:	3b0b3a08 	blcc	2cede4 <__bss_end__+0x2c2e2c>
     5c0:	0213490b 	andseq	r4, r3, #180224	; 0x2c000
     5c4:	11000017 	tstne	r0, r7, lsl r0
     5c8:	0e030034 	mcreq	0, 0, r0, cr3, cr4, {1}
     5cc:	19341349 	ldmdbne	r4!, {r0, r3, r6, r8, r9, ip}
     5d0:	00001802 	andeq	r1, r0, r2, lsl #16
     5d4:	11010b12 	tstne	r1, r2, lsl fp
     5d8:	01061201 	tsteq	r6, r1, lsl #4
     5dc:	13000013 	movwne	r0, #19
     5e0:	0e030034 	mcreq	0, 0, r0, cr3, cr4, {1}
     5e4:	0b3b0b3a 	bleq	ec32d4 <__bss_end__+0xeb731c>
     5e8:	17021349 	strne	r1, [r2, -r9, asr #6]
     5ec:	89140000 	ldmdbhi	r4, {}	; <UNPREDICTABLE>
     5f0:	11000182 	smlabbne	r0, r2, r1, r0
     5f4:	00133101 	andseq	r3, r3, r1, lsl #2
     5f8:	82891500 	addhi	r1, r9, #0, 10
     5fc:	01110101 	tsteq	r1, r1, lsl #2
     600:	13011331 	movwne	r1, #4913	; 0x1331
     604:	8a160000 	bhi	58060c <__bss_end__+0x574654>
     608:	02000182 	andeq	r0, r0, #-2147483616	; 0x80000020
     60c:	18429118 	stmdane	r2, {r3, r4, r8, ip, pc}^
     610:	89170000 	ldmdbhi	r7, {}	; <UNPREDICTABLE>
     614:	11010182 	smlabbne	r1, r2, r1, r0
     618:	00133101 	andseq	r3, r3, r1, lsl #2
     61c:	01011800 	tsteq	r1, r0, lsl #16
     620:	13011349 	movwne	r1, #4937	; 0x1349
     624:	21190000 	tstcs	r9, r0
     628:	2f134900 	svccs	0x00134900
     62c:	1a00000b 	bne	660 <_start-0x79a0>
     630:	193f012e 	ldmdbne	pc!, {r1, r2, r3, r5, r8}	; <UNPREDICTABLE>
     634:	0b3a0e03 	bleq	e83e48 <__bss_end__+0xe77e90>
     638:	19270b3b 	stmdbne	r7!, {r0, r1, r3, r4, r5, r8, r9, fp}
     63c:	06120111 			; <UNDEFINED> instruction: 0x06120111
     640:	42971840 	addsmi	r1, r7, #64, 16	; 0x400000
     644:	00130119 	andseq	r0, r3, r9, lsl r1
     648:	01151b00 	tsteq	r5, r0, lsl #22
     64c:	13491927 	movtne	r1, #39207	; 0x9927
     650:	00001301 	andeq	r1, r0, r1, lsl #6
     654:	4900051c 	stmdbmi	r0, {r2, r3, r4, r8, sl}
     658:	1d000013 	stcne	0, cr0, [r0, #-76]	; 0xffffffb4
     65c:	193f012e 	ldmdbne	pc!, {r1, r2, r3, r5, r8}	; <UNPREDICTABLE>
     660:	0b3a0e03 	bleq	e83e74 <__bss_end__+0xe77ebc>
     664:	19270b3b 	stmdbne	r7!, {r0, r1, r3, r4, r5, r8, r9, fp}
     668:	01111349 	tsteq	r1, r9, asr #6
     66c:	18400612 	stmdane	r0, {r1, r4, r9, sl}^
     670:	01194297 			; <UNDEFINED> instruction: 0x01194297
     674:	1e000013 	mcrne	0, 0, r0, cr0, cr3, {0}
     678:	1755010b 	ldrbne	r0, [r5, -fp, lsl #2]
     67c:	341f0000 	ldrcc	r0, [pc], #-0	; 684 <_start-0x797c>
     680:	3a0e0300 	bcc	381288 <__bss_end__+0x3752d0>
     684:	490b3b0b 	stmdbmi	fp, {r0, r1, r3, r8, r9, fp, ip, sp}
     688:	3c193f13 	ldccc	15, cr3, [r9], {19}
     68c:	20000019 	andcs	r0, r0, r9, lsl r0
     690:	193f002e 	ldmdbne	pc!, {r1, r2, r3, r5}	; <UNPREDICTABLE>
     694:	0b3a0e03 	bleq	e83ea8 <__bss_end__+0xe77ef0>
     698:	19270b3b 	stmdbne	r7!, {r0, r1, r3, r4, r5, r8, r9, fp}
     69c:	0000193c 	andeq	r1, r0, ip, lsr r9
     6a0:	3f012e21 	svccc	0x00012e21
     6a4:	3a0e0319 	bcc	381310 <__bss_end__+0x375358>
     6a8:	270b3b0b 	strcs	r3, [fp, -fp, lsl #22]
     6ac:	3c134919 	ldccc	9, cr4, [r3], {25}
     6b0:	00130119 	andseq	r0, r3, r9, lsl r1
     6b4:	00182200 	andseq	r2, r8, r0, lsl #4
     6b8:	01000000 	mrseq	r0, (UNDEF: 0)
     6bc:	0e250111 	mcreq	1, 1, r0, cr5, cr1, {0}
     6c0:	0e030b13 	vmoveq.32	d3[0], r0
     6c4:	01110e1b 	tsteq	r1, fp, lsl lr
     6c8:	17100612 			; <UNDEFINED> instruction: 0x17100612
     6cc:	24020000 	strcs	r0, [r2], #-0
     6d0:	3e0b0b00 	vmlacc.f64	d0, d11, d0
     6d4:	0008030b 	andeq	r0, r8, fp, lsl #6
     6d8:	00240300 	eoreq	r0, r4, r0, lsl #6
     6dc:	0b3e0b0b 	bleq	f83310 <__bss_end__+0xf77358>
     6e0:	00000e03 	andeq	r0, r0, r3, lsl #28
     6e4:	0b000f04 	bleq	42fc <_start-0x3d04>
     6e8:	0013490b 	andseq	r4, r3, fp, lsl #18
     6ec:	00260500 	eoreq	r0, r6, r0, lsl #10
     6f0:	00001349 	andeq	r1, r0, r9, asr #6
     6f4:	3f012e06 	svccc	0x00012e06
     6f8:	3a0e0319 	bcc	381364 <__bss_end__+0x3753ac>
     6fc:	270b3b0b 	strcs	r3, [fp, -fp, lsl #22]
     700:	12011119 	andne	r1, r1, #1073741830	; 0x40000006
     704:	97184006 	ldrls	r4, [r8, -r6]
     708:	13011942 	movwne	r1, #6466	; 0x1942
     70c:	89070000 	stmdbhi	r7, {}	; <UNPREDICTABLE>
     710:	11010182 	smlabbne	r1, r2, r1, r0
     714:	00130101 	andseq	r0, r3, r1, lsl #2
     718:	828a0800 	addhi	r0, sl, #0, 16
     71c:	18020001 	stmdane	r2, {r0}
     720:	00184291 	mulseq	r8, r1, r2
     724:	82890900 	addhi	r0, r9, #0, 18
     728:	01110101 	tsteq	r1, r1, lsl #2
     72c:	13011331 	movwne	r1, #4913	; 0x1331
     730:	890a0000 	stmdbhi	sl, {}	; <UNPREDICTABLE>
     734:	11000182 	smlabbne	r0, r2, r1, r0
     738:	00133101 	andseq	r3, r3, r1, lsl #2
     73c:	01150b00 	tsteq	r5, r0, lsl #22
     740:	13491927 	movtne	r1, #39207	; 0x9927
     744:	00001301 	andeq	r1, r0, r1, lsl #6
     748:	4900050c 	stmdbmi	r0, {r2, r3, r8, sl}
     74c:	0d000013 	stceq	0, cr0, [r0, #-76]	; 0xffffffb4
     750:	0e030034 	mcreq	0, 0, r0, cr3, cr4, {1}
     754:	0b3b0b3a 	bleq	ec3444 <__bss_end__+0xeb748c>
     758:	193f1349 	ldmdbne	pc!, {r0, r3, r6, r8, r9, ip}	; <UNPREDICTABLE>
     75c:	0000193c 	andeq	r1, r0, ip, lsr r9
     760:	3f012e0e 	svccc	0x00012e0e
     764:	3a0e0319 	bcc	3813d0 <__bss_end__+0x375418>
     768:	270b3b0b 	strcs	r3, [fp, -fp, lsl #22]
     76c:	01193c19 	tsteq	r9, r9, lsl ip
     770:	0f000013 	svceq	0x00000013
     774:	193f002e 	ldmdbne	pc!, {r1, r2, r3, r5}	; <UNPREDICTABLE>
     778:	0b3a0e03 	bleq	e83f8c <__bss_end__+0xe77fd4>
     77c:	19270b3b 	stmdbne	r7!, {r0, r1, r3, r4, r5, r8, r9, fp}
     780:	0000193c 	andeq	r1, r0, ip, lsr r9
     784:	01110100 	tsteq	r1, r0, lsl #2
     788:	0b130e25 	bleq	4c4024 <__bss_end__+0x4b806c>
     78c:	0e1b0e03 	cdpeq	14, 1, cr0, cr11, cr3, {0}
     790:	06120111 			; <UNDEFINED> instruction: 0x06120111
     794:	00001710 	andeq	r1, r0, r0, lsl r7
     798:	0b002402 	bleq	97a8 <uart_putc+0x10>
     79c:	030b3e0b 	movweq	r3, #48651	; 0xbe0b
     7a0:	03000008 	movweq	r0, #8
     7a4:	0b0b0024 	bleq	2c083c <__bss_end__+0x2b4884>
     7a8:	0e030b3e 	vmoveq.16	d3[0], r0
     7ac:	16040000 	strne	r0, [r4], -r0
     7b0:	3a0e0300 	bcc	3813b8 <__bss_end__+0x375400>
     7b4:	490b3b0b 	stmdbmi	fp, {r0, r1, r3, r8, r9, fp, ip, sp}
     7b8:	05000013 	streq	r0, [r0, #-19]
     7bc:	0b0b000f 	bleq	2c0800 <__bss_end__+0x2b4848>
     7c0:	00001349 	andeq	r1, r0, r9, asr #6
     7c4:	49002606 	stmdbmi	r0, {r1, r2, r9, sl, sp}
     7c8:	07000013 	smladeq	r0, r3, r0, r0
     7cc:	0b0b0113 	bleq	2c0c20 <__bss_end__+0x2b4c68>
     7d0:	0b3b0b3a 	bleq	ec34c0 <__bss_end__+0xeb7508>
     7d4:	00001301 	andeq	r1, r0, r1, lsl #6
     7d8:	03000d08 	movweq	r0, #3336	; 0xd08
     7dc:	3b0b3a08 	blcc	2cf004 <__bss_end__+0x2c304c>
     7e0:	3813490b 	ldmdacc	r3, {r0, r1, r3, r8, fp, lr}
     7e4:	0900000b 	stmdbeq	r0, {r0, r1, r3}
     7e8:	0e03000d 	cdpeq	0, 0, cr0, cr3, cr13, {0}
     7ec:	0b3b0b3a 	bleq	ec34dc <__bss_end__+0xeb7524>
     7f0:	0b381349 	bleq	e0551c <__bss_end__+0xdf9564>
     7f4:	040a0000 	streq	r0, [sl], #-0
     7f8:	3a0b0b01 	bcc	2c3404 <__bss_end__+0x2b744c>
     7fc:	010b3b0b 	tsteq	fp, fp, lsl #22
     800:	0b000013 	bleq	854 <_start-0x77ac>
     804:	0e030028 	cdpeq	0, 0, cr0, cr3, cr8, {1}
     808:	00000d1c 	andeq	r0, r0, ip, lsl sp
     80c:	03012e0c 	movweq	r2, #7692	; 0x1e0c
     810:	3b0b3a0e 	blcc	2cf050 <__bss_end__+0x2c3098>
     814:	4919270b 	ldmdbmi	r9, {r0, r1, r3, r8, r9, sl, sp}
     818:	12011113 	andne	r1, r1, #-1073741820	; 0xc0000004
     81c:	97184006 	ldrls	r4, [r8, -r6]
     820:	13011942 	movwne	r1, #6466	; 0x1942
     824:	050d0000 	streq	r0, [sp, #-0]
     828:	3a080300 	bcc	201430 <__bss_end__+0x1f5478>
     82c:	490b3b0b 	stmdbmi	fp, {r0, r1, r3, r8, r9, fp, ip, sp}
     830:	00170213 	andseq	r0, r7, r3, lsl r2
     834:	82890e00 	addhi	r0, r9, #0, 28
     838:	01110101 	tsteq	r1, r1, lsl #2
     83c:	00001331 	andeq	r1, r0, r1, lsr r3
     840:	01828a0f 	orreq	r8, r2, pc, lsl #20
     844:	91180200 	tstls	r8, r0, lsl #4
     848:	00001842 	andeq	r1, r0, r2, asr #16
     84c:	3f012e10 	svccc	0x00012e10
     850:	3a0e0319 	bcc	3814bc <__bss_end__+0x375504>
     854:	110b3b0b 	tstne	fp, fp, lsl #22
     858:	40061201 	andmi	r1, r6, r1, lsl #4
     85c:	19429718 	stmdbne	r2, {r3, r4, r8, r9, sl, ip, pc}^
     860:	00001301 	andeq	r1, r0, r1, lsl #6
     864:	03003411 	movweq	r3, #1041	; 0x411
     868:	3b0b3a0e 	blcc	2cf0a8 <__bss_end__+0x2c30f0>
     86c:	3f13490b 	svccc	0x0013490b
     870:	00193c19 	andseq	r3, r9, r9, lsl ip
     874:	002e1200 	eoreq	r1, lr, r0, lsl #4
     878:	0e03193f 	mcreq	9, 0, r1, cr3, cr15, {1}
     87c:	0b3b0b3a 	bleq	ec356c <__bss_end__+0xeb75b4>
     880:	193c1927 	ldmdbne	ip!, {r0, r1, r2, r5, r8, fp, ip}
     884:	34130000 	ldrcc	r0, [r3], #-0
     888:	3a080300 	bcc	201490 <__bss_end__+0x1f54d8>
     88c:	490b3b0b 	stmdbmi	fp, {r0, r1, r3, r8, r9, fp, ip, sp}
     890:	00170213 	andseq	r0, r7, r3, lsl r2
     894:	00341400 	eorseq	r1, r4, r0, lsl #8
     898:	0b3a0e03 	bleq	e840ac <__bss_end__+0xe780f4>
     89c:	13490b3b 	movtne	r0, #39739	; 0x9b3b
     8a0:	89150000 	ldmdbhi	r5, {}	; <UNPREDICTABLE>
     8a4:	11000182 	smlabbne	r0, r2, r1, r0
     8a8:	00133101 	andseq	r3, r3, r1, lsl #2
     8ac:	82891600 	addhi	r1, r9, #0, 12
     8b0:	01110101 	tsteq	r1, r1, lsl #2
     8b4:	13011331 	movwne	r1, #4913	; 0x1331
     8b8:	34170000 	ldrcc	r0, [r7], #-0
     8bc:	3a0e0300 	bcc	3814c4 <__bss_end__+0x37550c>
     8c0:	490b3b0b 	stmdbmi	fp, {r0, r1, r3, r8, r9, fp, ip, sp}
     8c4:	00180213 	andseq	r0, r8, r3, lsl r2
     8c8:	01151800 	tsteq	r5, r0, lsl #16
     8cc:	13491927 	movtne	r1, #39207	; 0x9927
     8d0:	00001301 	andeq	r1, r0, r1, lsl #6
     8d4:	49000519 	stmdbmi	r0, {r0, r3, r4, r8, sl}
     8d8:	1a000013 	bne	92c <_start-0x76d4>
     8dc:	193f012e 	ldmdbne	pc!, {r1, r2, r3, r5, r8}	; <UNPREDICTABLE>
     8e0:	0b3a0e03 	bleq	e840f4 <__bss_end__+0xe7813c>
     8e4:	19270b3b 	stmdbne	r7!, {r0, r1, r3, r4, r5, r8, r9, fp}
     8e8:	1301193c 	movwne	r1, #6460	; 0x193c
     8ec:	2e1b0000 	cdpcs	0, 1, cr0, cr11, cr0, {0}
     8f0:	03193f00 	tsteq	r9, #0, 30
     8f4:	3b0b3a0e 	blcc	2cf134 <__bss_end__+0x2c317c>
     8f8:	4919270b 	ldmdbmi	r9, {r0, r1, r3, r8, r9, sl, sp}
     8fc:	00193c13 	andseq	r3, r9, r3, lsl ip
     900:	012e1c00 	teqeq	lr, r0, lsl #24
     904:	0e03193f 	mcreq	9, 0, r1, cr3, cr15, {1}
     908:	0b3b0b3a 	bleq	ec35f8 <__bss_end__+0xeb7640>
     90c:	13491927 	movtne	r1, #39207	; 0x9927
     910:	1301193c 	movwne	r1, #6460	; 0x193c
     914:	181d0000 	ldmdane	sp, {}	; <UNPREDICTABLE>
     918:	00000000 	andeq	r0, r0, r0
     91c:	25011101 	strcs	r1, [r1, #-257]	; 0x101
     920:	030b130e 	movweq	r1, #45838	; 0xb30e
     924:	550e1b0e 	strpl	r1, [lr, #-2830]	; 0xb0e
     928:	10011117 	andne	r1, r1, r7, lsl r1
     92c:	02000017 	andeq	r0, r0, #23
     930:	0b0b0024 	bleq	2c09c8 <__bss_end__+0x2b4a10>
     934:	08030b3e 	stmdaeq	r3, {r1, r2, r3, r4, r5, r8, r9, fp}
     938:	24030000 	strcs	r0, [r3], #-0
     93c:	3e0b0b00 	vmlacc.f64	d0, d11, d0
     940:	000e030b 	andeq	r0, lr, fp, lsl #6
     944:	012e0400 	teqeq	lr, r0, lsl #8
     948:	0e03193f 	mcreq	9, 0, r1, cr3, cr15, {1}
     94c:	0b3b0b3a 	bleq	ec363c <__bss_end__+0xeb7684>
     950:	13491927 	movtne	r1, #39207	; 0x9927
     954:	06120111 			; <UNDEFINED> instruction: 0x06120111
     958:	42971840 	addsmi	r1, r7, #64, 16	; 0x400000
     95c:	00130119 	andseq	r0, r3, r9, lsl r1
     960:	00340500 	eorseq	r0, r4, r0, lsl #10
     964:	0b3a0e03 	bleq	e84178 <__bss_end__+0xe781c0>
     968:	13490b3b 	movtne	r0, #39739	; 0x9b3b
     96c:	00001702 	andeq	r1, r0, r2, lsl #14
     970:	3f012e06 	svccc	0x00012e06
     974:	3a0e0319 	bcc	3815e0 <__bss_end__+0x375628>
     978:	270b3b0b 	strcs	r3, [fp, -fp, lsl #22]
     97c:	12011119 	andne	r1, r1, #1073741830	; 0x40000006
     980:	97184006 	ldrls	r4, [r8, -r6]
     984:	13011942 	movwne	r1, #6466	; 0x1942
     988:	34070000 	strcc	r0, [r7], #-0
     98c:	3a0e0300 	bcc	381594 <__bss_end__+0x3755dc>
     990:	490b3b0b 	stmdbmi	fp, {r0, r1, r3, r8, r9, fp, ip, sp}
     994:	00061c13 	andeq	r1, r6, r3, lsl ip
     998:	00340800 	eorseq	r0, r4, r0, lsl #16
     99c:	0b3a0e03 	bleq	e841b0 <__bss_end__+0xe781f8>
     9a0:	13490b3b 	movtne	r0, #39739	; 0x9b3b
     9a4:	00000b1c 	andeq	r0, r0, ip, lsl fp
     9a8:	01828909 	orreq	r8, r2, r9, lsl #18
     9ac:	31011100 	mrscc	r1, (UNDEF: 17)
     9b0:	0a000013 	beq	a04 <_start-0x75fc>
     9b4:	01018289 	smlabbeq	r1, r9, r2, r8
     9b8:	13310111 	teqne	r1, #1073741828	; 0x40000004
     9bc:	00001301 	andeq	r1, r0, r1, lsl #6
     9c0:	01828a0b 	orreq	r8, r2, fp, lsl #20
     9c4:	91180200 	tstls	r8, r0, lsl #4
     9c8:	00001842 	andeq	r1, r0, r2, asr #16
     9cc:	0182890c 	orreq	r8, r2, ip, lsl #18
     9d0:	31011101 	tstcc	r1, r1, lsl #2
     9d4:	0d000013 	stceq	0, cr0, [r0, #-76]	; 0xffffffb4
     9d8:	13490026 	movtne	r0, #36902	; 0x9026
     9dc:	2e0e0000 	cdpcs	0, 0, cr0, cr14, cr0, {0}
     9e0:	03193f01 	tsteq	r9, #1, 30
     9e4:	3b0b3a0e 	blcc	2cf224 <__bss_end__+0x2c326c>
     9e8:	3c19270b 	ldccc	7, cr2, [r9], {11}
     9ec:	00130119 	andseq	r0, r3, r9, lsl r1
     9f0:	00050f00 	andeq	r0, r5, r0, lsl #30
     9f4:	00001349 	andeq	r1, r0, r9, asr #6
     9f8:	3f012e10 	svccc	0x00012e10
     9fc:	3a0e0319 	bcc	381668 <__bss_end__+0x3756b0>
     a00:	270b3b0b 	strcs	r3, [fp, -fp, lsl #22]
     a04:	00193c19 	andseq	r3, r9, r9, lsl ip
     a08:	11010000 	mrsne	r0, (UNDEF: 1)
     a0c:	130e2501 	movwne	r2, #58625	; 0xe501
     a10:	1b0e030b 	blne	381644 <__bss_end__+0x37568c>
     a14:	1201110e 	andne	r1, r1, #-2147483645	; 0x80000003
     a18:	00171006 	andseq	r1, r7, r6
     a1c:	00240200 	eoreq	r0, r4, r0, lsl #4
     a20:	0b3e0b0b 	bleq	f83654 <__bss_end__+0xf7769c>
     a24:	00000803 	andeq	r0, r0, r3, lsl #16
     a28:	0b002403 	bleq	9a3c <get32>
     a2c:	030b3e0b 	movweq	r3, #48651	; 0xbe0b
     a30:	0400000e 	streq	r0, [r0], #-14
     a34:	193f012e 	ldmdbne	pc!, {r1, r2, r3, r5, r8}	; <UNPREDICTABLE>
     a38:	0b3a0e03 	bleq	e8424c <__bss_end__+0xe78294>
     a3c:	19270b3b 	stmdbne	r7!, {r0, r1, r3, r4, r5, r8, r9, fp}
     a40:	06120111 			; <UNDEFINED> instruction: 0x06120111
     a44:	42971840 	addsmi	r1, r7, #64, 16	; 0x400000
     a48:	00130119 	andseq	r0, r3, r9, lsl r1
     a4c:	00050500 	andeq	r0, r5, r0, lsl #10
     a50:	0b3a0e03 	bleq	e84264 <__bss_end__+0xe782ac>
     a54:	13490b3b 	movtne	r0, #39739	; 0x9b3b
     a58:	00001702 	andeq	r1, r0, r2, lsl #14
     a5c:	3f012e06 	svccc	0x00012e06
     a60:	3a0e0319 	bcc	3816cc <__bss_end__+0x375714>
     a64:	270b3b0b 	strcs	r3, [fp, -fp, lsl #22]
     a68:	11134919 	tstne	r3, r9, lsl r9
     a6c:	40061201 	andmi	r1, r6, r1, lsl #4
     a70:	19429718 	stmdbne	r2, {r3, r4, r8, r9, sl, ip, pc}^
     a74:	00001301 	andeq	r1, r0, r1, lsl #6
     a78:	01828907 	orreq	r8, r2, r7, lsl #18
     a7c:	31011101 	tstcc	r1, r1, lsl #2
     a80:	08000013 	stmdaeq	r0, {r0, r1, r4}
     a84:	0001828a 	andeq	r8, r1, sl, lsl #5
     a88:	42911802 	addsmi	r1, r1, #131072	; 0x20000
     a8c:	09000018 	stmdbeq	r0, {r3, r4}
     a90:	08030034 	stmdaeq	r3, {r2, r4, r5}
     a94:	0b3b0b3a 	bleq	ec3784 <__bss_end__+0xeb77cc>
     a98:	18021349 	stmdane	r2, {r0, r3, r6, r8, r9, ip}
     a9c:	890a0000 	stmdbhi	sl, {}	; <UNPREDICTABLE>
     aa0:	11000182 	smlabbne	r0, r2, r1, r0
     aa4:	00133101 	andseq	r3, r3, r1, lsl #2
     aa8:	00050b00 	andeq	r0, r5, r0, lsl #22
     aac:	0b3a0803 	bleq	e82ac0 <__bss_end__+0xe76b08>
     ab0:	13490b3b 	movtne	r0, #39739	; 0x9b3b
     ab4:	00001702 	andeq	r1, r0, r2, lsl #14
     ab8:	11010b0c 	tstne	r1, ip, lsl #22
     abc:	01061201 	tsteq	r6, r1, lsl #4
     ac0:	0d000013 	stceq	0, cr0, [r0, #-76]	; 0xffffffb4
     ac4:	08030034 	stmdaeq	r3, {r2, r4, r5}
     ac8:	0b3b0b3a 	bleq	ec37b8 <__bss_end__+0xeb7800>
     acc:	17021349 	strne	r1, [r2, -r9, asr #6]
     ad0:	2e0e0000 	cdpcs	0, 0, cr0, cr14, cr0, {0}
     ad4:	03193f01 	tsteq	r9, #1, 30
     ad8:	3b0b3a0e 	blcc	2cf318 <__bss_end__+0x2c3360>
     adc:	4919270b 	ldmdbmi	r9, {r0, r1, r3, r8, r9, sl, sp}
     ae0:	00193c13 	andseq	r3, r9, r3, lsl ip
     ae4:	00050f00 	andeq	r0, r5, r0, lsl #30
     ae8:	00001349 	andeq	r1, r0, r9, asr #6
     aec:	01110100 	tsteq	r1, r0, lsl #2
     af0:	0b130e25 	bleq	4c438c <__bss_end__+0x4b83d4>
     af4:	0e1b0e03 	cdpeq	14, 1, cr0, cr11, cr3, {0}
     af8:	06120111 			; <UNDEFINED> instruction: 0x06120111
     afc:	00001710 	andeq	r1, r0, r0, lsl r7
     b00:	0b002402 	bleq	9b10 <reset_asm>
     b04:	030b3e0b 	movweq	r3, #48651	; 0xbe0b
     b08:	0300000e 	movweq	r0, #14
     b0c:	0b0b0024 	bleq	2c0ba4 <__bss_end__+0x2b4bec>
     b10:	08030b3e 	stmdaeq	r3, {r1, r2, r3, r4, r5, r8, r9, fp}
     b14:	04040000 	streq	r0, [r4], #-0
     b18:	3a0b0b01 	bcc	2c3724 <__bss_end__+0x2b776c>
     b1c:	010b3b0b 	tsteq	fp, fp, lsl #22
     b20:	05000013 	streq	r0, [r0, #-19]
     b24:	0e030028 	cdpeq	0, 0, cr0, cr3, cr8, {1}
     b28:	00000d1c 	andeq	r0, r0, ip, lsl sp
     b2c:	03001606 	movweq	r1, #1542	; 0x606
     b30:	3b0b3a0e 	blcc	2cf370 <__bss_end__+0x2c33b8>
     b34:	0013490b 	andseq	r4, r3, fp, lsl #18
     b38:	012e0700 	teqeq	lr, r0, lsl #14
     b3c:	0e03193f 	mcreq	9, 0, r1, cr3, cr15, {1}
     b40:	0b3b0b3a 	bleq	ec3830 <__bss_end__+0xeb7878>
     b44:	01111927 	tsteq	r1, r7, lsr #18
     b48:	18400612 	stmdane	r0, {r1, r4, r9, sl}^
     b4c:	01194297 			; <UNDEFINED> instruction: 0x01194297
     b50:	08000013 	stmdaeq	r0, {r0, r1, r4}
     b54:	08030005 	stmdaeq	r3, {r0, r2}
     b58:	0b3b0b3a 	bleq	ec3848 <__bss_end__+0xeb7890>
     b5c:	17021349 	strne	r1, [r2, -r9, asr #6]
     b60:	34090000 	strcc	r0, [r9], #-0
     b64:	3a0e0300 	bcc	38176c <__bss_end__+0x3757b4>
     b68:	490b3b0b 	stmdbmi	fp, {r0, r1, r3, r8, r9, fp, ip, sp}
     b6c:	00170213 	andseq	r0, r7, r3, lsl r2
     b70:	82890a00 	addhi	r0, r9, #0, 20
     b74:	01110101 	tsteq	r1, r1, lsl #2
     b78:	13011331 	movwne	r1, #4913	; 0x1331
     b7c:	8a0b0000 	bhi	2c0b84 <__bss_end__+0x2b4bcc>
     b80:	02000182 	andeq	r0, r0, #-2147483616	; 0x80000020
     b84:	18429118 	stmdane	r2, {r3, r4, r8, ip, pc}^
     b88:	890c0000 	stmdbhi	ip, {}	; <UNPREDICTABLE>
     b8c:	11010182 	smlabbne	r1, r2, r1, r0
     b90:	00133101 	andseq	r3, r3, r1, lsl #2
     b94:	000f0d00 	andeq	r0, pc, r0, lsl #26
     b98:	13490b0b 	movtne	r0, #39691	; 0x9b0b
     b9c:	350e0000 	strcc	r0, [lr, #-0]
     ba0:	00134900 	andseq	r4, r3, r0, lsl #18
     ba4:	012e0f00 	teqeq	lr, r0, lsl #30
     ba8:	0e03193f 	mcreq	9, 0, r1, cr3, cr15, {1}
     bac:	0b3b0b3a 	bleq	ec389c <__bss_end__+0xeb78e4>
     bb0:	13491927 	movtne	r1, #39207	; 0x9927
     bb4:	06120111 			; <UNDEFINED> instruction: 0x06120111
     bb8:	42971840 	addsmi	r1, r7, #64, 16	; 0x400000
     bbc:	00130119 	andseq	r0, r3, r9, lsl r1
     bc0:	00341000 	eorseq	r1, r4, r0
     bc4:	0b3a0803 	bleq	e82bd8 <__bss_end__+0xe76c20>
     bc8:	13490b3b 	movtne	r0, #39739	; 0x9b3b
     bcc:	00001702 	andeq	r1, r0, r2, lsl #14
     bd0:	01828911 	orreq	r8, r2, r1, lsl r9
     bd4:	31011100 	mrscc	r1, (UNDEF: 17)
     bd8:	12000013 	andne	r0, r0, #19
     bdc:	0e030005 	cdpeq	0, 0, cr0, cr3, cr5, {0}
     be0:	0b3b0b3a 	bleq	ec38d0 <__bss_end__+0xeb7918>
     be4:	17021349 	strne	r1, [r2, -r9, asr #6]
     be8:	2e130000 	cdpcs	0, 1, cr0, cr3, cr0, {0}
     bec:	03193f01 	tsteq	r9, #1, 30
     bf0:	3b0b3a0e 	blcc	2cf430 <__bss_end__+0x2c3478>
     bf4:	49192705 	ldmdbmi	r9, {r0, r2, r8, r9, sl, sp}
     bf8:	12011113 	andne	r1, r1, #-1073741820	; 0xc0000004
     bfc:	97184006 	ldrls	r4, [r8, -r6]
     c00:	13011942 	movwne	r1, #6466	; 0x1942
     c04:	05140000 	ldreq	r0, [r4, #-0]
     c08:	3a0e0300 	bcc	381810 <__bss_end__+0x375858>
     c0c:	49053b0b 	stmdbmi	r5, {r0, r1, r3, r8, r9, fp, ip, sp}
     c10:	00170213 	andseq	r0, r7, r3, lsl r2
     c14:	012e1500 	teqeq	lr, r0, lsl #10
     c18:	0e03193f 	mcreq	9, 0, r1, cr3, cr15, {1}
     c1c:	053b0b3a 	ldreq	r0, [fp, #-2874]!	; 0xb3a
     c20:	01111927 	tsteq	r1, r7, lsr #18
     c24:	18400612 	stmdane	r0, {r1, r4, r9, sl}^
     c28:	01194297 			; <UNDEFINED> instruction: 0x01194297
     c2c:	16000013 			; <UNDEFINED> instruction: 0x16000013
     c30:	08030005 	stmdaeq	r3, {r0, r2}
     c34:	053b0b3a 	ldreq	r0, [fp, #-2874]!	; 0xb3a
     c38:	17021349 	strne	r1, [r2, -r9, asr #6]
     c3c:	34170000 	ldrcc	r0, [r7], #-0
     c40:	3a0e0300 	bcc	381848 <__bss_end__+0x375890>
     c44:	49053b0b 	stmdbmi	r5, {r0, r1, r3, r8, r9, fp, ip, sp}
     c48:	00170213 	andseq	r0, r7, r3, lsl r2
     c4c:	010b1800 	tsteq	fp, r0, lsl #16
     c50:	06120111 			; <UNDEFINED> instruction: 0x06120111
     c54:	00001301 	andeq	r1, r0, r1, lsl #6
     c58:	03003419 	movweq	r3, #1049	; 0x419
     c5c:	3b0b3a0e 	blcc	2cf49c <__bss_end__+0x2c34e4>
     c60:	3f13490b 	svccc	0x0013490b
     c64:	00180219 	andseq	r0, r8, r9, lsl r2
     c68:	012e1a00 	teqeq	lr, r0, lsl #20
     c6c:	0e03193f 	mcreq	9, 0, r1, cr3, cr15, {1}
     c70:	0b3b0b3a 	bleq	ec3960 <__bss_end__+0xeb79a8>
     c74:	13491927 	movtne	r1, #39207	; 0x9927
     c78:	1301193c 	movwne	r1, #6460	; 0x193c
     c7c:	051b0000 	ldreq	r0, [fp, #-0]
     c80:	00134900 	andseq	r4, r3, r0, lsl #18
     c84:	00261c00 	eoreq	r1, r6, r0, lsl #24
     c88:	00001349 	andeq	r1, r0, r9, asr #6
     c8c:	0000351d 	andeq	r3, r0, sp, lsl r5
     c90:	012e1e00 	teqeq	lr, r0, lsl #28
     c94:	0e03193f 	mcreq	9, 0, r1, cr3, cr15, {1}
     c98:	0b3b0b3a 	bleq	ec3988 <__bss_end__+0xeb79d0>
     c9c:	193c1927 	ldmdbne	ip!, {r0, r1, r2, r5, r8, fp, ip}
     ca0:	00001301 	andeq	r1, r0, r1, lsl #6
     ca4:	3f002e1f 	svccc	0x00002e1f
     ca8:	3a0e0319 	bcc	381914 <__bss_end__+0x37595c>
     cac:	270b3b0b 	strcs	r3, [fp, -fp, lsl #22]
     cb0:	00193c19 	andseq	r3, r9, r9, lsl ip
     cb4:	11010000 	mrsne	r0, (UNDEF: 1)
     cb8:	130e2501 	movwne	r2, #58625	; 0xe501
     cbc:	1b0e030b 	blne	3818f0 <__bss_end__+0x375938>
     cc0:	1201110e 	andne	r1, r1, #-2147483645	; 0x80000003
     cc4:	00171006 	andseq	r1, r7, r6
     cc8:	00240200 	eoreq	r0, r4, r0, lsl #4
     ccc:	0b3e0b0b 	bleq	f83900 <__bss_end__+0xf77948>
     cd0:	00000803 	andeq	r0, r0, r3, lsl #16
     cd4:	0b002403 	bleq	9ce8 <uart_has_int+0xc0>
     cd8:	030b3e0b 	movweq	r3, #48651	; 0xbe0b
     cdc:	0400000e 	streq	r0, [r0], #-14
     ce0:	0e030016 	mcreq	0, 0, r0, cr3, cr6, {0}
     ce4:	0b3b0b3a 	bleq	ec39d4 <__bss_end__+0xeb7a1c>
     ce8:	00001349 	andeq	r1, r0, r9, asr #6
     cec:	0b000f05 	bleq	4908 <_start-0x36f8>
     cf0:	0600000b 	streq	r0, [r0], -fp
     cf4:	0b0b000f 	bleq	2c0d38 <__bss_end__+0x2b4d80>
     cf8:	00001349 	andeq	r1, r0, r9, asr #6
     cfc:	49002607 	stmdbmi	r0, {r0, r1, r2, r9, sl, sp}
     d00:	08000013 	stmdaeq	r0, {r0, r1, r4}
     d04:	0b0b0113 	bleq	2c1158 <__bss_end__+0x2b51a0>
     d08:	0b3b0b3a 	bleq	ec39f8 <__bss_end__+0xeb7a40>
     d0c:	00001301 	andeq	r1, r0, r1, lsl #6
     d10:	03000d09 	movweq	r0, #3337	; 0xd09
     d14:	3b0b3a08 	blcc	2cf53c <__bss_end__+0x2c3584>
     d18:	3813490b 	ldmdacc	r3, {r0, r1, r3, r8, fp, lr}
     d1c:	0a00000b 	beq	d50 <_start-0x72b0>
     d20:	0e03000d 	cdpeq	0, 0, cr0, cr3, cr13, {0}
     d24:	0b3b0b3a 	bleq	ec3a14 <__bss_end__+0xeb7a5c>
     d28:	0b381349 	bleq	e05a54 <__bss_end__+0xdf9a9c>
     d2c:	130b0000 	movwne	r0, #45056	; 0xb000
     d30:	0b0e0301 	bleq	38193c <__bss_end__+0x375984>
     d34:	3b0b3a0b 	blcc	2cf568 <__bss_end__+0x2c35b0>
     d38:	0013010b 	andseq	r0, r3, fp, lsl #2
     d3c:	000d0c00 	andeq	r0, sp, r0, lsl #24
     d40:	13490e03 	movtne	r0, #40451	; 0x9e03
     d44:	19340b38 	ldmdbne	r4!, {r3, r4, r5, r8, r9, fp}
     d48:	2e0d0000 	cdpcs	0, 0, cr0, cr13, cr0, {0}
     d4c:	3a0e0301 	bcc	381958 <__bss_end__+0x3759a0>
     d50:	270b3b0b 	strcs	r3, [fp, -fp, lsl #22]
     d54:	010b2019 	tsteq	fp, r9, lsl r0
     d58:	0e000013 	mcreq	0, 0, r0, cr0, cr3, {0}
     d5c:	0e030005 	cdpeq	0, 0, cr0, cr3, cr5, {0}
     d60:	0b3b0b3a 	bleq	ec3a50 <__bss_end__+0xeb7a98>
     d64:	00001349 	andeq	r1, r0, r9, asr #6
     d68:	0300050f 	movweq	r0, #1295	; 0x50f
     d6c:	3b0b3a08 	blcc	2cf594 <__bss_end__+0x2c35dc>
     d70:	0013490b 	andseq	r4, r3, fp, lsl #18
     d74:	010b1000 	mrseq	r1, (UNDEF: 11)
     d78:	34110000 	ldrcc	r0, [r1], #-0
     d7c:	3a0e0300 	bcc	381984 <__bss_end__+0x3759cc>
     d80:	490b3b0b 	stmdbmi	fp, {r0, r1, r3, r8, r9, fp, ip, sp}
     d84:	12000013 	andne	r0, r0, #19
     d88:	193f012e 	ldmdbne	pc!, {r1, r2, r3, r5, r8}	; <UNPREDICTABLE>
     d8c:	0b3a0e03 	bleq	e845a0 <__bss_end__+0xe785e8>
     d90:	19270b3b 	stmdbne	r7!, {r0, r1, r3, r4, r5, r8, r9, fp}
     d94:	06120111 			; <UNDEFINED> instruction: 0x06120111
     d98:	42971840 	addsmi	r1, r7, #64, 16	; 0x400000
     d9c:	00130119 	andseq	r0, r3, r9, lsl r1
     da0:	00051300 	andeq	r1, r5, r0, lsl #6
     da4:	0b3a0e03 	bleq	e845b8 <__bss_end__+0xe78600>
     da8:	13490b3b 	movtne	r0, #39739	; 0x9b3b
     dac:	00001702 	andeq	r1, r0, r2, lsl #14
     db0:	03000514 	movweq	r0, #1300	; 0x514
     db4:	3b0b3a08 	blcc	2cf5dc <__bss_end__+0x2c3624>
     db8:	0213490b 	andseq	r4, r3, #180224	; 0x2c000
     dbc:	15000017 	strne	r0, [r0, #-23]
     dc0:	08030034 	stmdaeq	r3, {r2, r4, r5}
     dc4:	0b3b0b3a 	bleq	ec3ab4 <__bss_end__+0xeb7afc>
     dc8:	18021349 	stmdane	r2, {r0, r3, r6, r8, r9, ip}
     dcc:	34160000 	ldrcc	r0, [r6], #-0
     dd0:	3a080300 	bcc	2019d8 <__bss_end__+0x1f5a20>
     dd4:	490b3b0b 	stmdbmi	fp, {r0, r1, r3, r8, r9, fp, ip, sp}
     dd8:	00170213 	andseq	r0, r7, r3, lsl r2
     ddc:	010b1700 	tsteq	fp, r0, lsl #14
     de0:	06120111 			; <UNDEFINED> instruction: 0x06120111
     de4:	00001301 	andeq	r1, r0, r1, lsl #6
     de8:	03003418 	movweq	r3, #1048	; 0x418
     dec:	3b0b3a0e 	blcc	2cf62c <__bss_end__+0x2c3674>
     df0:	0213490b 	andseq	r4, r3, #180224	; 0x2c000
     df4:	19000018 	stmdbne	r0, {r3, r4}
     df8:	1331011d 	teqne	r1, #1073741831	; 0x40000007
     dfc:	06120111 			; <UNDEFINED> instruction: 0x06120111
     e00:	0b590b58 	bleq	1643b68 <__bss_end__+0x1637bb0>
     e04:	00001301 	andeq	r1, r0, r1, lsl #6
     e08:	3100051a 	tstcc	r0, sl, lsl r5
     e0c:	00170213 	andseq	r0, r7, r3, lsl r2
     e10:	00051b00 	andeq	r1, r5, r0, lsl #22
     e14:	18021331 	stmdane	r2, {r0, r4, r5, r8, r9, ip}
     e18:	051c0000 	ldreq	r0, [ip, #-0]
     e1c:	1c133100 	ldfnes	f3, [r3], {-0}
     e20:	1d00000b 	stcne	0, cr0, [r0, #-44]	; 0xffffffd4
     e24:	0111010b 	tsteq	r1, fp, lsl #2
     e28:	00000612 	andeq	r0, r0, r2, lsl r6
     e2c:	3100341e 	tstcc	r0, lr, lsl r4
     e30:	00170213 	andseq	r0, r7, r3, lsl r2
     e34:	82891f00 	addhi	r1, r9, #0, 30
     e38:	01110101 	tsteq	r1, r1, lsl #2
     e3c:	00001331 	andeq	r1, r0, r1, lsr r3
     e40:	01828a20 	orreq	r8, r2, r0, lsr #20
     e44:	91180200 	tstls	r8, r0, lsl #4
     e48:	00001842 	andeq	r1, r0, r2, asr #16
     e4c:	31011d21 	tstcc	r1, r1, lsr #26
     e50:	12011113 	andne	r1, r1, #-1073741820	; 0xc0000004
     e54:	590b5806 	stmdbpl	fp, {r1, r2, fp, ip, lr}
     e58:	2200000b 	andcs	r0, r0, #11
     e5c:	0e03012e 	adfeqsp	f0, f3, #0.5
     e60:	0b3b0b3a 	bleq	ec3b50 <__bss_end__+0xeb7b98>
     e64:	13491927 	movtne	r1, #39207	; 0x9927
     e68:	13010b20 	movwne	r0, #6944	; 0x1b20
     e6c:	2e230000 	cdpcs	0, 2, cr0, cr3, cr0, {0}
     e70:	03193f01 	tsteq	r9, #1, 30
     e74:	3b0b3a0e 	blcc	2cf6b4 <__bss_end__+0x2c36fc>
     e78:	4919270b 	ldmdbmi	r9, {r0, r1, r3, r8, r9, sl, sp}
     e7c:	12011113 	andne	r1, r1, #-1073741820	; 0xc0000004
     e80:	97184006 	ldrls	r4, [r8, -r6]
     e84:	13011942 	movwne	r1, #6466	; 0x1942
     e88:	89240000 	stmdbhi	r4!, {}	; <UNPREDICTABLE>
     e8c:	11000182 	smlabbne	r0, r2, r1, r0
     e90:	00133101 	andseq	r3, r3, r1, lsl #2
     e94:	82892500 	addhi	r2, r9, #0, 10
     e98:	01110101 	tsteq	r1, r1, lsl #2
     e9c:	13011331 	movwne	r1, #4913	; 0x1331
     ea0:	34260000 	strtcc	r0, [r6], #-0
     ea4:	3a0e0300 	bcc	381aac <__bss_end__+0x375af4>
     ea8:	490b3b0b 	stmdbmi	fp, {r0, r1, r3, r8, r9, fp, ip, sp}
     eac:	00170213 	andseq	r0, r7, r3, lsl r2
     eb0:	00052700 	andeq	r2, r5, r0, lsl #14
     eb4:	00001331 	andeq	r1, r0, r1, lsr r3
     eb8:	03000528 	movweq	r0, #1320	; 0x528
     ebc:	3b0b3a0e 	blcc	2cf6fc <__bss_end__+0x2c3744>
     ec0:	0213490b 	andseq	r4, r3, #180224	; 0x2c000
     ec4:	29000018 	stmdbcs	r0, {r3, r4}
     ec8:	0e030034 	mcreq	0, 0, r0, cr3, cr4, {1}
     ecc:	19341349 	ldmdbne	r4!, {r0, r3, r6, r8, r9, ip}
     ed0:	00001802 	andeq	r1, r0, r2, lsl #16
     ed4:	4901012a 	stmdbmi	r1, {r1, r3, r5, r8}
     ed8:	00130113 	andseq	r0, r3, r3, lsl r1
     edc:	00212b00 	eoreq	r2, r1, r0, lsl #22
     ee0:	0b2f1349 	bleq	bc5c0c <__bss_end__+0xbb9c54>
     ee4:	342c0000 	strtcc	r0, [ip], #-0
     ee8:	3a080300 	bcc	201af0 <__bss_end__+0x1f5b38>
     eec:	490b3b0b 	stmdbmi	fp, {r0, r1, r3, r8, r9, fp, ip, sp}
     ef0:	00061c13 	andeq	r1, r6, r3, lsl ip
     ef4:	00342d00 	eorseq	r2, r4, r0, lsl #26
     ef8:	0b3a0803 	bleq	e82f0c <__bss_end__+0xe76f54>
     efc:	13490b3b 	movtne	r0, #39739	; 0x9b3b
     f00:	00000b1c 	andeq	r0, r0, ip, lsl fp
     f04:	0300052e 	movweq	r0, #1326	; 0x52e
     f08:	3b0b3a08 	blcc	2cf730 <__bss_end__+0x2c3778>
     f0c:	0213490b 	andseq	r4, r3, #180224	; 0x2c000
     f10:	2f000018 	svccs	0x00000018
     f14:	00000018 	andeq	r0, r0, r8, lsl r0
     f18:	49002130 	stmdbmi	r0, {r4, r5, r8, sp}
     f1c:	00052f13 	andeq	r2, r5, r3, lsl pc
     f20:	012e3100 	teqeq	lr, r0, lsl #2
     f24:	0e03193f 	mcreq	9, 0, r1, cr3, cr15, {1}
     f28:	0b3b0b3a 	bleq	ec3c18 <__bss_end__+0xeb7c60>
     f2c:	193c1927 	ldmdbne	ip!, {r0, r1, r2, r5, r8, fp, ip}
     f30:	00001301 	andeq	r1, r0, r1, lsl #6
     f34:	49000532 	stmdbmi	r0, {r1, r4, r5, r8, sl}
     f38:	33000013 	movwcc	r0, #19
     f3c:	193f002e 	ldmdbne	pc!, {r1, r2, r3, r5}	; <UNPREDICTABLE>
     f40:	0b3a0e03 	bleq	e84754 <__bss_end__+0xe7879c>
     f44:	19270b3b 	stmdbne	r7!, {r0, r1, r3, r4, r5, r8, r9, fp}
     f48:	193c1349 	ldmdbne	ip!, {r0, r3, r6, r8, r9, ip}
     f4c:	2e340000 	cdpcs	0, 3, cr0, cr4, cr0, {0}
     f50:	03193f01 	tsteq	r9, #1, 30
     f54:	3b0b3a0e 	blcc	2cf794 <__bss_end__+0x2c37dc>
     f58:	4919270b 	ldmdbmi	r9, {r0, r1, r3, r8, r9, sl, sp}
     f5c:	01193c13 	tsteq	r9, r3, lsl ip
     f60:	35000013 	strcc	r0, [r0, #-19]
     f64:	193f002e 	ldmdbne	pc!, {r1, r2, r3, r5}	; <UNPREDICTABLE>
     f68:	0b3a0e03 	bleq	e8477c <__bss_end__+0xe787c4>
     f6c:	19270b3b 	stmdbne	r7!, {r0, r1, r3, r4, r5, r8, r9, fp}
     f70:	0000193c 	andeq	r1, r0, ip, lsr r9
     f74:	3f012e36 	svccc	0x00012e36
     f78:	3a0e0319 	bcc	381be4 <__bss_end__+0x375c2c>
     f7c:	270b3b0b 	strcs	r3, [fp, -fp, lsl #22]
     f80:	3c134919 	ldccc	9, cr4, [r3], {25}
     f84:	00000019 	andeq	r0, r0, r9, lsl r0
     f88:	25011101 	strcs	r1, [r1, #-257]	; 0x101
     f8c:	030b130e 	movweq	r1, #45838	; 0xb30e
     f90:	110e1b0e 	tstne	lr, lr, lsl #22
     f94:	10061201 	andne	r1, r6, r1, lsl #4
     f98:	02000017 	andeq	r0, r0, #23
     f9c:	0b0b0024 	bleq	2c1034 <__bss_end__+0x2b507c>
     fa0:	08030b3e 	stmdaeq	r3, {r1, r2, r3, r4, r5, r8, r9, fp}
     fa4:	24030000 	strcs	r0, [r3], #-0
     fa8:	3e0b0b00 	vmlacc.f64	d0, d11, d0
     fac:	000e030b 	andeq	r0, lr, fp, lsl #6
     fb0:	01040400 	tsteq	r4, r0, lsl #8
     fb4:	0b3a0b0b 	bleq	e83be8 <__bss_end__+0xe77c30>
     fb8:	13010b3b 	movwne	r0, #6971	; 0x1b3b
     fbc:	28050000 	stmdacs	r5, {}	; <UNPREDICTABLE>
     fc0:	1c0e0300 	stcne	3, cr0, [lr], {-0}
     fc4:	0600000d 	streq	r0, [r0], -sp
     fc8:	0e030016 	mcreq	0, 0, r0, cr3, cr6, {0}
     fcc:	0b3b0b3a 	bleq	ec3cbc <__bss_end__+0xeb7d04>
     fd0:	00001349 	andeq	r1, r0, r9, asr #6
     fd4:	3f012e07 	svccc	0x00012e07
     fd8:	3a0e0319 	bcc	381c44 <__bss_end__+0x375c8c>
     fdc:	270b3b0b 	strcs	r3, [fp, -fp, lsl #22]
     fe0:	12011119 	andne	r1, r1, #1073741830	; 0x40000006
     fe4:	97184006 	ldrls	r4, [r8, -r6]
     fe8:	13011942 	movwne	r1, #6466	; 0x1942
     fec:	89080000 	stmdbhi	r8, {}	; <UNPREDICTABLE>
     ff0:	11000182 	smlabbne	r0, r2, r1, r0
     ff4:	00133101 	andseq	r3, r3, r1, lsl #2
     ff8:	82890900 	addhi	r0, r9, #0, 18
     ffc:	01110101 	tsteq	r1, r1, lsl #2
    1000:	13011331 	movwne	r1, #4913	; 0x1331
    1004:	8a0a0000 	bhi	28100c <__bss_end__+0x275054>
    1008:	02000182 	andeq	r0, r0, #-2147483616	; 0x80000020
    100c:	18429118 	stmdane	r2, {r3, r4, r8, ip, pc}^
    1010:	2e0b0000 	cdpcs	0, 0, cr0, cr11, cr0, {0}
    1014:	03193f01 	tsteq	r9, #1, 30
    1018:	3b0b3a0e 	blcc	2cf858 <__bss_end__+0x2c38a0>
    101c:	4919270b 	ldmdbmi	r9, {r0, r1, r3, r8, r9, sl, sp}
    1020:	12011113 	andne	r1, r1, #-1073741820	; 0xc0000004
    1024:	97184006 	ldrls	r4, [r8, -r6]
    1028:	13011942 	movwne	r1, #6466	; 0x1942
    102c:	050c0000 	streq	r0, [ip, #-0]
    1030:	3a080300 	bcc	201c38 <__bss_end__+0x1f5c80>
    1034:	490b3b0b 	stmdbmi	fp, {r0, r1, r3, r8, r9, fp, ip, sp}
    1038:	00170213 	andseq	r0, r7, r3, lsl r2
    103c:	82890d00 	addhi	r0, r9, #0, 26
    1040:	01110101 	tsteq	r1, r1, lsl #2
    1044:	00001331 	andeq	r1, r0, r1, lsr r3
    1048:	0300340e 	movweq	r3, #1038	; 0x40e
    104c:	3b0b3a0e 	blcc	2cf88c <__bss_end__+0x2c38d4>
    1050:	3f13490b 	svccc	0x0013490b
    1054:	00180219 	andseq	r0, r8, r9, lsl r2
    1058:	000f0f00 	andeq	r0, pc, r0, lsl #30
    105c:	13490b0b 	movtne	r0, #39691	; 0x9b0b
    1060:	35100000 	ldrcc	r0, [r0, #-0]
    1064:	00134900 	andseq	r4, r3, r0, lsl #18
    1068:	002e1100 	eoreq	r1, lr, r0, lsl #2
    106c:	0e03193f 	mcreq	9, 0, r1, cr3, cr15, {1}
    1070:	0b3b0b3a 	bleq	ec3d60 <__bss_end__+0xeb7da8>
    1074:	193c1927 	ldmdbne	ip!, {r0, r1, r2, r5, r8, fp, ip}
    1078:	2e120000 	cdpcs	0, 1, cr0, cr2, cr0, {0}
    107c:	03193f01 	tsteq	r9, #1, 30
    1080:	3b0b3a0e 	blcc	2cf8c0 <__bss_end__+0x2c3908>
    1084:	3c19270b 	ldccc	7, cr2, [r9], {11}
    1088:	00130119 	andseq	r0, r3, r9, lsl r1
    108c:	00051300 	andeq	r1, r5, r0, lsl #6
    1090:	00001349 	andeq	r1, r0, r9, asr #6
    1094:	3f012e14 	svccc	0x00012e14
    1098:	3a0e0319 	bcc	381d04 <__bss_end__+0x375d4c>
    109c:	270b3b0b 	strcs	r3, [fp, -fp, lsl #22]
    10a0:	3c134919 	ldccc	9, cr4, [r3], {25}
    10a4:	00130119 	andseq	r0, r3, r9, lsl r1
    10a8:	00261500 	eoreq	r1, r6, r0, lsl #10
    10ac:	00001349 	andeq	r1, r0, r9, asr #6
    10b0:	00003516 	andeq	r3, r0, r6, lsl r5
    10b4:	11010000 	mrsne	r0, (UNDEF: 1)
    10b8:	130e2501 	movwne	r2, #58625	; 0xe501
    10bc:	1b0e030b 	blne	381cf0 <__bss_end__+0x375d38>
    10c0:	1201110e 	andne	r1, r1, #-2147483645	; 0x80000003
    10c4:	00171006 	andseq	r1, r7, r6
    10c8:	00240200 	eoreq	r0, r4, r0, lsl #4
    10cc:	0b3e0b0b 	bleq	f83d00 <__bss_end__+0xf77d48>
    10d0:	00000803 	andeq	r0, r0, r3, lsl #16
    10d4:	0b002403 	bleq	a0e8 <uart_int_flush_all+0x18>
    10d8:	030b3e0b 	movweq	r3, #48651	; 0xbe0b
    10dc:	0400000e 	streq	r0, [r0], #-14
    10e0:	0b0b000f 	bleq	2c1124 <__bss_end__+0x2b516c>
    10e4:	00001349 	andeq	r1, r0, r9, asr #6
    10e8:	49002605 	stmdbmi	r0, {r0, r2, r9, sl, sp}
    10ec:	06000013 			; <UNDEFINED> instruction: 0x06000013
    10f0:	13490101 	movtne	r0, #37121	; 0x9101
    10f4:	00001301 	andeq	r1, r0, r1, lsl #6
    10f8:	49002107 	stmdbmi	r0, {r0, r1, r2, r8, sp}
    10fc:	000b2f13 	andeq	r2, fp, r3, lsl pc
    1100:	01040800 	tsteq	r4, r0, lsl #16
    1104:	0b3a0b0b 	bleq	e83d38 <__bss_end__+0xe77d80>
    1108:	13010b3b 	movwne	r0, #6971	; 0x1b3b
    110c:	28090000 	stmdacs	r9, {}	; <UNPREDICTABLE>
    1110:	1c0e0300 	stcne	3, cr0, [lr], {-0}
    1114:	0a00000d 	beq	1150 <_start-0x6eb0>
    1118:	193f012e 	ldmdbne	pc!, {r1, r2, r3, r5, r8}	; <UNPREDICTABLE>
    111c:	0b3a0e03 	bleq	e84930 <__bss_end__+0xe78978>
    1120:	19270b3b 	stmdbne	r7!, {r0, r1, r3, r4, r5, r8, r9, fp}
    1124:	06120111 			; <UNDEFINED> instruction: 0x06120111
    1128:	42971840 	addsmi	r1, r7, #64, 16	; 0x400000
    112c:	00130119 	andseq	r0, r3, r9, lsl r1
    1130:	00340b00 	eorseq	r0, r4, r0, lsl #22
    1134:	0b3a0e03 	bleq	e84948 <__bss_end__+0xe78990>
    1138:	13490b3b 	movtne	r0, #39739	; 0x9b3b
    113c:	193c193f 	ldmdbne	ip!, {r0, r1, r2, r3, r4, r5, r8, fp, ip}
    1140:	340c0000 	strcc	r0, [ip], #-0
    1144:	3a080300 	bcc	201d4c <__bss_end__+0x1f5d94>
    1148:	490b3b0b 	stmdbmi	fp, {r0, r1, r3, r8, r9, fp, ip, sp}
    114c:	000b1c13 	andeq	r1, fp, r3, lsl ip
    1150:	00340d00 	eorseq	r0, r4, r0, lsl #26
    1154:	0b3a0803 	bleq	e83168 <__bss_end__+0xe771b0>
    1158:	13490b3b 	movtne	r0, #39739	; 0x9b3b
    115c:	340e0000 	strcc	r0, [lr], #-0
    1160:	3a080300 	bcc	201d68 <__bss_end__+0x1f5db0>
    1164:	490b3b0b 	stmdbmi	fp, {r0, r1, r3, r8, r9, fp, ip, sp}
    1168:	00180213 	andseq	r0, r8, r3, lsl r2
    116c:	010b0f00 	tsteq	fp, r0, lsl #30
    1170:	06120111 			; <UNDEFINED> instruction: 0x06120111
    1174:	00001301 	andeq	r1, r0, r1, lsl #6
    1178:	03003410 	movweq	r3, #1040	; 0x410
    117c:	3b0b3a08 	blcc	2cf9a4 <__bss_end__+0x2c39ec>
    1180:	0213490b 	andseq	r4, r3, #180224	; 0x2c000
    1184:	11000017 	tstne	r0, r7, lsl r0
    1188:	01018289 	smlabbeq	r1, r9, r2, r8
    118c:	13310111 	teqne	r1, #1073741828	; 0x40000004
    1190:	00001301 	andeq	r1, r0, r1, lsl #6
    1194:	01828a12 	orreq	r8, r2, r2, lsl sl
    1198:	91180200 	tstls	r8, r0, lsl #4
    119c:	00001842 	andeq	r1, r0, r2, asr #16
    11a0:	01828913 	orreq	r8, r2, r3, lsl r9
    11a4:	31011100 	mrscc	r1, (UNDEF: 17)
    11a8:	14000013 	strne	r0, [r0], #-19
    11ac:	08030005 	stmdaeq	r3, {r0, r2}
    11b0:	0b3b0b3a 	bleq	ec3ea0 <__bss_end__+0xeb7ee8>
    11b4:	17021349 	strne	r1, [r2, -r9, asr #6]
    11b8:	34150000 	ldrcc	r0, [r5], #-0
    11bc:	490e0300 	stmdbmi	lr, {r8, r9}
    11c0:	02193413 	andseq	r3, r9, #318767104	; 0x13000000
    11c4:	16000018 			; <UNDEFINED> instruction: 0x16000018
    11c8:	193f012e 	ldmdbne	pc!, {r1, r2, r3, r5, r8}	; <UNPREDICTABLE>
    11cc:	0b3a0e03 	bleq	e849e0 <__bss_end__+0xe78a28>
    11d0:	19270b3b 	stmdbne	r7!, {r0, r1, r3, r4, r5, r8, r9, fp}
    11d4:	1301193c 	movwne	r1, #6460	; 0x193c
    11d8:	05170000 	ldreq	r0, [r7, #-0]
    11dc:	00134900 	andseq	r4, r3, r0, lsl #18
    11e0:	002e1800 	eoreq	r1, lr, r0, lsl #16
    11e4:	0e03193f 	mcreq	9, 0, r1, cr3, cr15, {1}
    11e8:	0b3b0b3a 	bleq	ec3ed8 <__bss_end__+0xeb7f20>
    11ec:	193c1927 	ldmdbne	ip!, {r0, r1, r2, r5, r8, fp, ip}
    11f0:	2e190000 	cdpcs	0, 1, cr0, cr9, cr0, {0}
    11f4:	03193f01 	tsteq	r9, #1, 30
    11f8:	3b0b3a0e 	blcc	2cfa38 <__bss_end__+0x2c3a80>
    11fc:	4919270b 	ldmdbmi	r9, {r0, r1, r3, r8, r9, sl, sp}
    1200:	01193c13 	tsteq	r9, r3, lsl ip
    1204:	1a000013 	bne	1258 <_start-0x6da8>
    1208:	00000018 	andeq	r0, r0, r8, lsl r0
    120c:	01110100 	tsteq	r1, r0, lsl #2
    1210:	0b130e25 	bleq	4c4aac <__bss_end__+0x4b8af4>
    1214:	0e1b0e03 	cdpeq	14, 1, cr0, cr11, cr3, {0}
    1218:	06120111 			; <UNDEFINED> instruction: 0x06120111
    121c:	00001710 	andeq	r1, r0, r0, lsl r7
    1220:	0b002402 	bleq	a230 <uart_getc_int+0x8>
    1224:	030b3e0b 	movweq	r3, #48651	; 0xbe0b
    1228:	03000008 	movweq	r0, #8
    122c:	0b0b0024 	bleq	2c12c4 <__bss_end__+0x2b530c>
    1230:	0e030b3e 	vmoveq.16	d3[0], r0
    1234:	35040000 	strcc	r0, [r4, #-0]
    1238:	00134900 	andseq	r4, r3, r0, lsl #18
    123c:	00160500 	andseq	r0, r6, r0, lsl #10
    1240:	0b3a0e03 	bleq	e84a54 <__bss_end__+0xe78a9c>
    1244:	13490b3b 	movtne	r0, #39739	; 0x9b3b
    1248:	0f060000 	svceq	0x00060000
    124c:	490b0b00 	stmdbmi	fp, {r8, r9, fp}
    1250:	07000013 	smladeq	r0, r3, r0, r0
    1254:	0e030013 	mcreq	0, 0, r0, cr3, cr3, {0}
    1258:	0000193c 	andeq	r1, r0, ip, lsr r9
    125c:	03001608 	movweq	r1, #1544	; 0x608
    1260:	3b0b3a0e 	blcc	2cfaa0 <__bss_end__+0x2c3ae8>
    1264:	00134905 	andseq	r4, r3, r5, lsl #18
    1268:	01170900 	tsteq	r7, r0, lsl #18
    126c:	0b3a0b0b 	bleq	e83ea0 <__bss_end__+0xe77ee8>
    1270:	13010b3b 	movwne	r0, #6971	; 0x1b3b
    1274:	0d0a0000 	stceq	0, cr0, [sl, #-0]
    1278:	3a0e0300 	bcc	381e80 <__bss_end__+0x375ec8>
    127c:	490b3b0b 	stmdbmi	fp, {r0, r1, r3, r8, r9, fp, ip, sp}
    1280:	0b000013 	bleq	12d4 <_start-0x6d2c>
    1284:	13490101 	movtne	r0, #37121	; 0x9101
    1288:	00001301 	andeq	r1, r0, r1, lsl #6
    128c:	4900210c 	stmdbmi	r0, {r2, r3, r8, sp}
    1290:	000b2f13 	andeq	r2, fp, r3, lsl pc
    1294:	01130d00 	tsteq	r3, r0, lsl #26
    1298:	0b3a0b0b 	bleq	e83ecc <__bss_end__+0xe77f14>
    129c:	13010b3b 	movwne	r0, #6971	; 0x1b3b
    12a0:	0d0e0000 	stceq	0, cr0, [lr, #-0]
    12a4:	3a0e0300 	bcc	381eac <__bss_end__+0x375ef4>
    12a8:	490b3b0b 	stmdbmi	fp, {r0, r1, r3, r8, r9, fp, ip, sp}
    12ac:	000b3813 	andeq	r3, fp, r3, lsl r8
    12b0:	000f0f00 	andeq	r0, pc, r0, lsl #30
    12b4:	00000b0b 	andeq	r0, r0, fp, lsl #22
    12b8:	49002610 	stmdbmi	r0, {r4, r9, sl, sp}
    12bc:	11000013 	tstne	r0, r3, lsl r0
    12c0:	0e030113 	mcreq	1, 0, r0, cr3, cr3, {0}
    12c4:	0b3a0b0b 	bleq	e83ef8 <__bss_end__+0xe77f40>
    12c8:	13010b3b 	movwne	r0, #6971	; 0x1b3b
    12cc:	0d120000 	ldceq	0, cr0, [r2, #-0]
    12d0:	3a080300 	bcc	201ed8 <__bss_end__+0x1f5f20>
    12d4:	490b3b0b 	stmdbmi	fp, {r0, r1, r3, r8, r9, fp, ip, sp}
    12d8:	000b3813 	andeq	r3, fp, r3, lsl r8
    12dc:	01131300 	tsteq	r3, r0, lsl #6
    12e0:	050b0e03 	streq	r0, [fp, #-3587]	; 0xe03
    12e4:	0b3b0b3a 	bleq	ec3fd4 <__bss_end__+0xeb801c>
    12e8:	00001301 	andeq	r1, r0, r1, lsl #6
    12ec:	03000d14 	movweq	r0, #3348	; 0xd14
    12f0:	3b0b3a0e 	blcc	2cfb30 <__bss_end__+0x2c3b78>
    12f4:	3813490b 	ldmdacc	r3, {r0, r1, r3, r8, fp, lr}
    12f8:	15000005 	strne	r0, [r0, #-5]
    12fc:	19270015 	stmdbne	r7!, {r0, r2, r4}
    1300:	15160000 	ldrne	r0, [r6, #-0]
    1304:	49192701 	ldmdbmi	r9, {r0, r8, r9, sl, sp}
    1308:	00130113 	andseq	r0, r3, r3, lsl r1
    130c:	00051700 	andeq	r1, r5, r0, lsl #14
    1310:	00001349 	andeq	r1, r0, r9, asr #6
    1314:	03011318 	movweq	r1, #4888	; 0x1318
    1318:	3a050b0e 	bcc	143f58 <__bss_end__+0x137fa0>
    131c:	01053b0b 	tsteq	r5, fp, lsl #22
    1320:	19000013 	stmdbne	r0, {r0, r1, r4}
    1324:	0e03000d 	cdpeq	0, 0, cr0, cr3, cr13, {0}
    1328:	053b0b3a 	ldreq	r0, [fp, #-2874]!	; 0xb3a
    132c:	0b381349 	bleq	e06058 <__bss_end__+0xdfa0a0>
    1330:	0d1a0000 	ldceq	0, cr0, [sl, #-0]
    1334:	3a0e0300 	bcc	381f3c <__bss_end__+0x375f84>
    1338:	49053b0b 	stmdbmi	r5, {r0, r1, r3, r8, r9, fp, ip, sp}
    133c:	00053813 	andeq	r3, r5, r3, lsl r8
    1340:	01131b00 	tsteq	r3, r0, lsl #22
    1344:	0b0b0e03 	bleq	2c4b58 <__bss_end__+0x2b8ba0>
    1348:	053b0b3a 	ldreq	r0, [fp, #-2874]!	; 0xb3a
    134c:	00001301 	andeq	r1, r0, r1, lsl #6
    1350:	0b01131c 	bleq	45fc8 <__bss_end__+0x3a010>
    1354:	3b0b3a0b 	blcc	2cfb88 <__bss_end__+0x2c3bd0>
    1358:	00130105 	andseq	r0, r3, r5, lsl #2
    135c:	01171d00 	tsteq	r7, r0, lsl #26
    1360:	0b3a0b0b 	bleq	e83f94 <__bss_end__+0xe77fdc>
    1364:	1301053b 	movwne	r0, #5435	; 0x153b
    1368:	0d1e0000 	ldceq	0, cr0, [lr, #-0]
    136c:	3a0e0300 	bcc	381f74 <__bss_end__+0x375fbc>
    1370:	49053b0b 	stmdbmi	r5, {r0, r1, r3, r8, r9, fp, ip, sp}
    1374:	1f000013 	svcne	0x00000013
    1378:	19270115 	stmdbne	r7!, {r0, r2, r4, r8}
    137c:	00001301 	andeq	r1, r0, r1, lsl #6
    1380:	03003420 	movweq	r3, #1056	; 0x420
    1384:	3b0b3a0e 	blcc	2cfbc4 <__bss_end__+0x2c3c0c>
    1388:	3f134905 	svccc	0x00134905
    138c:	00193c19 	andseq	r3, r9, r9, lsl ip
    1390:	00342100 	eorseq	r2, r4, r0, lsl #2
    1394:	0b3a0e03 	bleq	e84ba8 <__bss_end__+0xe78bf0>
    1398:	13490b3b 	movtne	r0, #39739	; 0x9b3b
    139c:	193c193f 	ldmdbne	ip!, {r0, r1, r2, r3, r4, r5, r8, fp, ip}
    13a0:	04220000 	strteq	r0, [r2], #-0
    13a4:	0b0b3e01 	bleq	2d0bb0 <__bss_end__+0x2c4bf8>
    13a8:	3a13490b 	bcc	4d37dc <__bss_end__+0x4c7824>
    13ac:	010b3b0b 	tsteq	fp, fp, lsl #22
    13b0:	23000013 	movwcs	r0, #19
    13b4:	0e030028 	cdpeq	0, 0, cr0, cr3, cr8, {1}
    13b8:	0000061c 	andeq	r0, r0, ip, lsl r6
    13bc:	03002824 	movweq	r2, #2084	; 0x824
    13c0:	000b1c0e 	andeq	r1, fp, lr, lsl #24
    13c4:	00282500 	eoreq	r2, r8, r0, lsl #10
    13c8:	051c0e03 	ldreq	r0, [ip, #-3587]	; 0xe03
    13cc:	34260000 	strtcc	r0, [r6], #-0
    13d0:	3a0e0300 	bcc	381fd8 <__bss_end__+0x376020>
    13d4:	490b3b0b 	stmdbmi	fp, {r0, r1, r3, r8, r9, fp, ip, sp}
    13d8:	00061c13 	andeq	r1, r6, r3, lsl ip
    13dc:	01132700 	tsteq	r3, r0, lsl #14
    13e0:	0b3a050b 	bleq	e82814 <__bss_end__+0xe7685c>
    13e4:	13010b3b 	movwne	r0, #6971	; 0x1b3b
    13e8:	0d280000 	stceq	0, cr0, [r8, #-0]
    13ec:	3a0e0300 	bcc	381ff4 <__bss_end__+0x37603c>
    13f0:	490b3b0b 	stmdbmi	fp, {r0, r1, r3, r8, r9, fp, ip, sp}
    13f4:	0d0b0b13 	vstreq	d0, [fp, #-76]	; 0xffffffb4
    13f8:	380b0c0b 	stmdacc	fp, {r0, r1, r3, sl, fp}
    13fc:	29000005 	stmdbcs	r0, {r0, r2}
    1400:	13490021 	movtne	r0, #36897	; 0x9021
    1404:	0000052f 	andeq	r0, r0, pc, lsr #10
    1408:	0300342a 	movweq	r3, #1066	; 0x42a
    140c:	3b0b3a0e 	blcc	2cfc4c <__bss_end__+0x2c3c94>
    1410:	0213490b 	andseq	r4, r3, #180224	; 0x2c000
    1414:	2b000018 	blcs	147c <_start-0x6b84>
    1418:	13470034 	movtne	r0, #28724	; 0x7034
    141c:	0b3b0b3a 	bleq	ec410c <__bss_end__+0xeb8154>
    1420:	00001802 	andeq	r1, r0, r2, lsl #16
    1424:	3f012e2c 	svccc	0x00012e2c
    1428:	3a0e0319 	bcc	382094 <__bss_end__+0x3760dc>
    142c:	270b3b0b 	strcs	r3, [fp, -fp, lsl #22]
    1430:	11134919 	tstne	r3, r9, lsl r9
    1434:	40061201 	andmi	r1, r6, r1, lsl #4
    1438:	19429718 	stmdbne	r2, {r3, r4, r8, r9, sl, ip, pc}^
    143c:	00001301 	andeq	r1, r0, r1, lsl #6
    1440:	0300052d 	movweq	r0, #1325	; 0x52d
    1444:	3b0b3a08 	blcc	2cfc6c <__bss_end__+0x2c3cb4>
    1448:	0213490b 	andseq	r4, r3, #180224	; 0x2c000
    144c:	2e000017 	mcrcs	0, 0, r0, cr0, cr7, {0}
    1450:	0e030034 	mcreq	0, 0, r0, cr3, cr4, {1}
    1454:	19341349 	ldmdbne	r4!, {r0, r3, r6, r8, r9, ip}
    1458:	00001802 	andeq	r1, r0, r2, lsl #16
    145c:	0300342f 	movweq	r3, #1071	; 0x42f
    1460:	3b0b3a08 	blcc	2cfc88 <__bss_end__+0x2c3cd0>
    1464:	0013490b 	andseq	r4, r3, fp, lsl #18
    1468:	011d3000 	tsteq	sp, r0
    146c:	01111331 	tsteq	r1, r1, lsr r3
    1470:	0b580612 	bleq	1602cc0 <__bss_end__+0x15f6d08>
    1474:	13010b59 	movwne	r0, #7001	; 0x1b59
    1478:	05310000 	ldreq	r0, [r1, #-0]!
    147c:	02133100 	andseq	r3, r3, #0, 2
    1480:	32000017 	andcc	r0, r0, #23
    1484:	0111010b 	tsteq	r1, fp, lsl #2
    1488:	00000612 	andeq	r0, r0, r2, lsl r6
    148c:	31003433 	tstcc	r0, r3, lsr r4
    1490:	00170213 	andseq	r0, r7, r3, lsl r2
    1494:	011d3400 	tsteq	sp, r0, lsl #8
    1498:	01111331 	tsteq	r1, r1, lsr r3
    149c:	0b580612 	bleq	1602cec <__bss_end__+0x15f6d34>
    14a0:	00000b59 	andeq	r0, r0, r9, asr fp
    14a4:	31003435 	tstcc	r0, r5, lsr r4
    14a8:	36000013 			; <UNDEFINED> instruction: 0x36000013
    14ac:	00018289 	andeq	r8, r1, r9, lsl #5
    14b0:	13310111 	teqne	r1, #1073741828	; 0x40000004
    14b4:	89370000 	ldmdbhi	r7!, {}	; <UNPREDICTABLE>
    14b8:	11010182 	smlabbne	r1, r2, r1, r0
    14bc:	01133101 	tsteq	r3, r1, lsl #2
    14c0:	38000013 	stmdacc	r0, {r0, r1, r4}
    14c4:	0001828a 	andeq	r8, r1, sl, lsl #5
    14c8:	42911802 	addsmi	r1, r1, #131072	; 0x20000
    14cc:	39000018 	stmdbcc	r0, {r3, r4}
    14d0:	1331011d 	teqne	r1, #1073741831	; 0x40000007
    14d4:	17550152 			; <UNDEFINED> instruction: 0x17550152
    14d8:	0b590b58 	bleq	1644240 <__bss_end__+0x1638288>
    14dc:	00001301 	andeq	r1, r0, r1, lsl #6
    14e0:	55010b3a 	strpl	r0, [r1, #-2874]	; 0xb3a
    14e4:	3b000017 	blcc	1548 <_start-0x6ab8>
    14e8:	0e030034 	mcreq	0, 0, r0, cr3, cr4, {1}
    14ec:	0b3b0b3a 	bleq	ec41dc <__bss_end__+0xeb8224>
    14f0:	00001349 	andeq	r1, r0, r9, asr #6
    14f4:	3f012e3c 	svccc	0x00012e3c
    14f8:	3a0e0319 	bcc	382164 <__bss_end__+0x3761ac>
    14fc:	270b3b0b 	strcs	r3, [fp, -fp, lsl #22]
    1500:	12011119 	andne	r1, r1, #1073741830	; 0x40000006
    1504:	97184006 	ldrls	r4, [r8, -r6]
    1508:	13011942 	movwne	r1, #6466	; 0x1942
    150c:	053d0000 	ldreq	r0, [sp, #-0]!
    1510:	3a0e0300 	bcc	382118 <__bss_end__+0x376160>
    1514:	490b3b0b 	stmdbmi	fp, {r0, r1, r3, r8, r9, fp, ip, sp}
    1518:	00170213 	andseq	r0, r7, r3, lsl r2
    151c:	00343e00 	eorseq	r3, r4, r0, lsl #28
    1520:	0b3a0803 	bleq	e83534 <__bss_end__+0xe7757c>
    1524:	13490b3b 	movtne	r0, #39739	; 0x9b3b
    1528:	00001702 	andeq	r1, r0, r2, lsl #14
    152c:	03012e3f 	movweq	r2, #7743	; 0x1e3f
    1530:	3b0b3a0e 	blcc	2cfd70 <__bss_end__+0x2c3db8>
    1534:	1119270b 	tstne	r9, fp, lsl #14
    1538:	40061201 	andmi	r1, r6, r1, lsl #4
    153c:	19429718 	stmdbne	r2, {r3, r4, r8, r9, sl, ip, pc}^
    1540:	00001301 	andeq	r1, r0, r1, lsl #6
    1544:	01828940 	orreq	r8, r2, r0, asr #18
    1548:	31011101 	tstcc	r1, r1, lsl #2
    154c:	41000013 	tstmi	r0, r3, lsl r0
    1550:	00000035 	andeq	r0, r0, r5, lsr r0
    1554:	03012e42 	movweq	r2, #7746	; 0x1e42
    1558:	3b0b3a0e 	blcc	2cfd98 <__bss_end__+0x2c3de0>
    155c:	2019270b 	andscs	r2, r9, fp, lsl #14
    1560:	0013010b 	andseq	r0, r3, fp, lsl #2
    1564:	00054300 	andeq	r4, r5, r0, lsl #6
    1568:	0b3a0803 	bleq	e8357c <__bss_end__+0xe775c4>
    156c:	13490b3b 	movtne	r0, #39739	; 0x9b3b
    1570:	05440000 	strbeq	r0, [r4, #-0]
    1574:	3a0e0300 	bcc	38217c <__bss_end__+0x3761c4>
    1578:	490b3b0b 	stmdbmi	fp, {r0, r1, r3, r8, r9, fp, ip, sp}
    157c:	45000013 	strmi	r0, [r0, #-19]
    1580:	0e030034 	mcreq	0, 0, r0, cr3, cr4, {1}
    1584:	19341349 	ldmdbne	r4!, {r0, r3, r6, r8, r9, ip}
    1588:	00000e1c 	andeq	r0, r0, ip, lsl lr
    158c:	03012e46 	movweq	r2, #7750	; 0x1e46
    1590:	3b0b3a0e 	blcc	2cfdd0 <__bss_end__+0x2c3e18>
    1594:	4919270b 	ldmdbmi	r9, {r0, r1, r3, r8, r9, sl, sp}
    1598:	010b2013 	tsteq	fp, r3, lsl r0
    159c:	47000013 	smladmi	r0, r3, r0, r0
    15a0:	193f002e 	ldmdbne	pc!, {r1, r2, r3, r5}	; <UNPREDICTABLE>
    15a4:	0b3a0e03 	bleq	e84db8 <__bss_end__+0xe78e00>
    15a8:	19270b3b 	stmdbne	r7!, {r0, r1, r3, r4, r5, r8, r9, fp}
    15ac:	01111349 	tsteq	r1, r9, asr #6
    15b0:	18400612 	stmdane	r0, {r1, r4, r9, sl}^
    15b4:	00194297 	mulseq	r9, r7, r2
    15b8:	002e4800 	eoreq	r4, lr, r0, lsl #16
    15bc:	0b3a0e03 	bleq	e84dd0 <__bss_end__+0xe78e18>
    15c0:	19270b3b 	stmdbne	r7!, {r0, r1, r3, r4, r5, r8, r9, fp}
    15c4:	0b201349 	bleq	8062f0 <__bss_end__+0x7fa338>
    15c8:	2e490000 	cdpcs	0, 4, cr0, cr9, cr0, {0}
    15cc:	3c193f00 	ldccc	15, cr3, [r9], {-0}
    15d0:	030e6e19 	movweq	r6, #60953	; 0xee19
    15d4:	3b0b3a0e 	blcc	2cfe14 <__bss_end__+0x2c3e5c>
    15d8:	0000000b 	andeq	r0, r0, fp
    15dc:	25011101 	strcs	r1, [r1, #-257]	; 0x101
    15e0:	030b130e 	movweq	r1, #45838	; 0xb30e
    15e4:	110e1b0e 	tstne	lr, lr, lsl #22
    15e8:	10061201 	andne	r1, r6, r1, lsl #4
    15ec:	02000017 	andeq	r0, r0, #23
    15f0:	0b0b0024 	bleq	2c1688 <__bss_end__+0x2b56d0>
    15f4:	0e030b3e 	vmoveq.16	d3[0], r0
    15f8:	24030000 	strcs	r0, [r3], #-0
    15fc:	3e0b0b00 	vmlacc.f64	d0, d11, d0
    1600:	0008030b 	andeq	r0, r8, fp, lsl #6
    1604:	000f0400 	andeq	r0, pc, r0, lsl #8
    1608:	00000b0b 	andeq	r0, r0, fp, lsl #22
    160c:	0b000f05 	bleq	5228 <_start-0x2dd8>
    1610:	0013490b 	andseq	r4, r3, fp, lsl #18
    1614:	00160600 	andseq	r0, r6, r0, lsl #12
    1618:	0b3a0e03 	bleq	e84e2c <__bss_end__+0xe78e74>
    161c:	13490b3b 	movtne	r0, #39739	; 0x9b3b
    1620:	2e070000 	cdpcs	0, 0, cr0, cr7, cr0, {0}
    1624:	03193f01 	tsteq	r9, #1, 30
    1628:	3b0b3a0e 	blcc	2cfe68 <__bss_end__+0x2c3eb0>
    162c:	4919270b 	ldmdbmi	r9, {r0, r1, r3, r8, r9, sl, sp}
    1630:	12011113 	andne	r1, r1, #-1073741820	; 0xc0000004
    1634:	97184006 	ldrls	r4, [r8, -r6]
    1638:	00001942 	andeq	r1, r0, r2, asr #18
    163c:	03000508 	movweq	r0, #1288	; 0x508
    1640:	3b0b3a08 	blcc	2cfe68 <__bss_end__+0x2c3eb0>
    1644:	0213490b 	andseq	r4, r3, #180224	; 0x2c000
    1648:	09000018 	stmdbeq	r0, {r3, r4}
    164c:	08030005 	stmdaeq	r3, {r0, r2}
    1650:	0b3b0b3a 	bleq	ec4340 <__bss_end__+0xeb8388>
    1654:	17021349 	strne	r1, [r2, -r9, asr #6]
    1658:	340a0000 	strcc	r0, [sl], #-0
    165c:	3a080300 	bcc	202264 <__bss_end__+0x1f62ac>
    1660:	490b3b0b 	stmdbmi	fp, {r0, r1, r3, r8, r9, fp, ip, sp}
    1664:	00170213 	andseq	r0, r7, r3, lsl r2
    1668:	00340b00 	eorseq	r0, r4, r0, lsl #22
    166c:	0b3a0803 	bleq	e83680 <__bss_end__+0xe776c8>
    1670:	13490b3b 	movtne	r0, #39739	; 0x9b3b
    1674:	00001802 	andeq	r1, r0, r2, lsl #16
    1678:	01110100 	tsteq	r1, r0, lsl #2
    167c:	0b130e25 	bleq	4c4f18 <__bss_end__+0x4b8f60>
    1680:	0e1b0e03 	cdpeq	14, 1, cr0, cr11, cr3, {0}
    1684:	06120111 			; <UNDEFINED> instruction: 0x06120111
    1688:	00001710 	andeq	r1, r0, r0, lsl r7
    168c:	0b002402 	bleq	a69c <__FUNCTION__.4277+0x8>
    1690:	030b3e0b 	movweq	r3, #48651	; 0xbe0b
    1694:	03000008 	movweq	r0, #8
    1698:	0e030016 	mcreq	0, 0, r0, cr3, cr6, {0}
    169c:	0b3b0b3a 	bleq	ec438c <__bss_end__+0xeb83d4>
    16a0:	00001349 	andeq	r1, r0, r9, asr #6
    16a4:	0b002404 	bleq	a6bc <__FUNCTION__.4291+0x10>
    16a8:	030b3e0b 	movweq	r3, #48651	; 0xbe0b
    16ac:	0500000e 	streq	r0, [r0, #-14]
    16b0:	0b0b000f 	bleq	2c16f4 <__bss_end__+0x2b573c>
    16b4:	13060000 	movwne	r0, #24576	; 0x6000
    16b8:	3a0b0b01 	bcc	2c42c4 <__bss_end__+0x2b830c>
    16bc:	010b3b0b 	tsteq	fp, fp, lsl #22
    16c0:	07000013 	smladeq	r0, r3, r0, r0
    16c4:	0803000d 	stmdaeq	r3, {r0, r2, r3}
    16c8:	0b3b0b3a 	bleq	ec43b8 <__bss_end__+0xeb8400>
    16cc:	0b381349 	bleq	e063f8 <__bss_end__+0xdfa440>
    16d0:	0d080000 	stceq	0, cr0, [r8, #-0]
    16d4:	3a0e0300 	bcc	3822dc <__bss_end__+0x376324>
    16d8:	490b3b0b 	stmdbmi	fp, {r0, r1, r3, r8, r9, fp, ip, sp}
    16dc:	000b3813 	andeq	r3, fp, r3, lsl r8
    16e0:	01040900 	tsteq	r4, r0, lsl #18
    16e4:	0b3a0b0b 	bleq	e84318 <__bss_end__+0xe78360>
    16e8:	13010b3b 	movwne	r0, #6971	; 0x1b3b
    16ec:	280a0000 	stmdacs	sl, {}	; <UNPREDICTABLE>
    16f0:	1c0e0300 	stcne	3, cr0, [lr], {-0}
    16f4:	0b00000d 	bleq	1730 <_start-0x68d0>
    16f8:	193f012e 	ldmdbne	pc!, {r1, r2, r3, r5, r8}	; <UNPREDICTABLE>
    16fc:	0b3a0e03 	bleq	e84f10 <__bss_end__+0xe78f58>
    1700:	19270b3b 	stmdbne	r7!, {r0, r1, r3, r4, r5, r8, r9, fp}
    1704:	01111349 	tsteq	r1, r9, asr #6
    1708:	18400612 	stmdane	r0, {r1, r4, r9, sl}^
    170c:	01194297 			; <UNDEFINED> instruction: 0x01194297
    1710:	0c000013 	stceq	0, cr0, [r0], {19}
    1714:	08030034 	stmdaeq	r3, {r2, r4, r5}
    1718:	0b3b0b3a 	bleq	ec4408 <__bss_end__+0xeb8450>
    171c:	061c1349 	ldreq	r1, [ip], -r9, asr #6
    1720:	890d0000 	stmdbhi	sp, {}	; <UNPREDICTABLE>
    1724:	11010182 	smlabbne	r1, r2, r1, r0
    1728:	00133101 	andseq	r3, r3, r1, lsl #2
    172c:	828a0e00 	addhi	r0, sl, #0, 28
    1730:	18020001 	stmdane	r2, {r0}
    1734:	00184291 	mulseq	r8, r1, r2
    1738:	000f0f00 	andeq	r0, pc, r0, lsl #30
    173c:	13490b0b 	movtne	r0, #39691	; 0x9b0b
    1740:	2e100000 	cdpcs	0, 1, cr0, cr0, cr0, {0}
    1744:	03193f01 	tsteq	r9, #1, 30
    1748:	3b0b3a0e 	blcc	2cff88 <__bss_end__+0x2c3fd0>
    174c:	4919270b 	ldmdbmi	r9, {r0, r1, r3, r8, r9, sl, sp}
    1750:	00193c13 	andseq	r3, r9, r3, lsl ip
    1754:	00051100 	andeq	r1, r5, r0, lsl #2
    1758:	00001349 	andeq	r1, r0, r9, asr #6
	...

Disassembly of section .debug_loc:

00000000 <.debug_loc>:
       0:	00000000 	andeq	r0, r0, r0
       4:	00000014 	andeq	r0, r0, r4, lsl r0
       8:	14500001 	ldrbne	r0, [r0], #-1
       c:	2c000000 	stccs	0, cr0, [r0], {-0}
      10:	01000000 	mrseq	r0, (UNDEF: 0)
      14:	00005600 	andeq	r5, r0, r0, lsl #12
	...
      20:	00140000 	andseq	r0, r4, r0
      24:	00010000 	andeq	r0, r1, r0
      28:	00001451 	andeq	r1, r0, r1, asr r4
      2c:	00002c00 	andeq	r2, r0, r0, lsl #24
      30:	55000100 	strpl	r0, [r0, #-256]	; 0x100
	...
      3c:	0000000c 	andeq	r0, r0, ip
      40:	00000014 	andeq	r0, r0, r4, lsl r0
      44:	14500001 	ldrbne	r0, [r0], #-1
      48:	2c000000 	stccs	0, cr0, [r0], {-0}
      4c:	01000000 	mrseq	r0, (UNDEF: 0)
      50:	00005600 	andeq	r5, r0, r0, lsl #12
      54:	00000000 	andeq	r0, r0, r0
      58:	000c0000 	andeq	r0, ip, r0
      5c:	00140000 	andseq	r0, r4, r0
      60:	00020000 	andeq	r0, r2, r0
      64:	00149f30 	andseq	r9, r4, r0, lsr pc
      68:	002c0000 	eoreq	r0, ip, r0
      6c:	00010000 	andeq	r0, r1, r0
      70:	00000054 	andeq	r0, r0, r4, asr r0
      74:	00000000 	andeq	r0, r0, r0
      78:	00004c00 	andeq	r4, r0, r0, lsl #24
      7c:	00005800 	andeq	r5, r0, r0, lsl #16
      80:	50000100 	andpl	r0, r0, r0, lsl #2
      84:	00000058 	andeq	r0, r0, r8, asr r0
      88:	0000006c 	andeq	r0, r0, ip, rrx
      8c:	00540001 	subseq	r0, r4, r1
      90:	00000000 	andeq	r0, r0, r0
      94:	54000000 	strpl	r0, [r0], #-0
      98:	58000000 	stmdapl	r0, {}	; <UNPREDICTABLE>
      9c:	01000000 	mrseq	r0, (UNDEF: 0)
      a0:	00585000 	subseq	r5, r8, r0
      a4:	006c0000 	rsbeq	r0, ip, r0
      a8:	00010000 	andeq	r0, r1, r0
      ac:	00000054 	andeq	r0, r0, r4, asr r0
      b0:	00000000 	andeq	r0, r0, r0
      b4:	00006c00 	andeq	r6, r0, r0, lsl #24
      b8:	00008000 	andeq	r8, r0, r0
      bc:	50000100 	andpl	r0, r0, r0, lsl #2
      c0:	00000080 	andeq	r0, r0, r0, lsl #1
      c4:	00000098 	muleq	r0, r8, r0
      c8:	00560001 	subseq	r0, r6, r1
      cc:	00000000 	andeq	r0, r0, r0
      d0:	6c000000 	stcvs	0, cr0, [r0], {-0}
      d4:	80000000 	andhi	r0, r0, r0
      d8:	01000000 	mrseq	r0, (UNDEF: 0)
      dc:	00805100 	addeq	r5, r0, r0, lsl #2
      e0:	00980000 	addseq	r0, r8, r0
      e4:	00010000 	andeq	r0, r1, r0
      e8:	00000055 	andeq	r0, r0, r5, asr r0
      ec:	00000000 	andeq	r0, r0, r0
      f0:	00007800 	andeq	r7, r0, r0, lsl #16
      f4:	00008000 	andeq	r8, r0, r0
      f8:	50000100 	andpl	r0, r0, r0, lsl #2
      fc:	00000080 	andeq	r0, r0, r0, lsl #1
     100:	00000098 	muleq	r0, r8, r0
     104:	00560001 	subseq	r0, r6, r1
     108:	00000000 	andeq	r0, r0, r0
     10c:	78000000 	stmdavc	r0, {}	; <UNPREDICTABLE>
     110:	80000000 	andhi	r0, r0, r0
     114:	02000000 	andeq	r0, r0, #0
     118:	809f3000 	addshi	r3, pc, r0
     11c:	98000000 	stmdals	r0, {}	; <UNPREDICTABLE>
     120:	01000000 	mrseq	r0, (UNDEF: 0)
     124:	00005400 	andeq	r5, r0, r0, lsl #8
     128:	00000000 	andeq	r0, r0, r0
     12c:	00980000 	addseq	r0, r8, r0
     130:	00ac0000 	adceq	r0, ip, r0
     134:	00010000 	andeq	r0, r1, r0
     138:	0000ac50 	andeq	sl, r0, r0, asr ip
     13c:	0000b300 	andeq	fp, r0, r0, lsl #6
     140:	70000200 	andvc	r0, r0, r0, lsl #4
     144:	0000b300 	andeq	fp, r0, r0, lsl #6
     148:	0000bc00 	andeq	fp, r0, r0, lsl #24
     14c:	91000200 	mrsls	r0, R8_usr
     150:	0000006c 	andeq	r0, r0, ip, rrx
     154:	00000000 	andeq	r0, r0, r0
     158:	0000bc00 	andeq	fp, r0, r0, lsl #24
     15c:	0000cc00 	andeq	ip, r0, r0, lsl #24
     160:	50000100 	andpl	r0, r0, r0, lsl #2
     164:	000000cc 	andeq	r0, r0, ip, asr #1
     168:	000000d4 	ldrdeq	r0, [r0], -r4
     16c:	01f30004 	mvnseq	r0, r4
     170:	00009f50 	andeq	r9, r0, r0, asr pc
     174:	00000000 	andeq	r0, r0, r0
     178:	00d40000 	sbcseq	r0, r4, r0
     17c:	00db0000 	sbcseq	r0, fp, r0
     180:	00010000 	andeq	r0, r1, r0
     184:	0000db50 	andeq	sp, r0, r0, asr fp
     188:	0000e000 	andeq	lr, r0, r0
     18c:	f3000400 	vshl.u8	d0, d0, d0
     190:	009f5001 	addseq	r5, pc, r1
     194:	00000000 	andeq	r0, r0, r0
     198:	54000000 	strpl	r0, [r0], #-0
     19c:	a7000001 	strge	r0, [r0, -r1]
     1a0:	01000001 	tsteq	r0, r1
     1a4:	01a75000 			; <UNDEFINED> instruction: 0x01a75000
     1a8:	01bc0000 			; <UNDEFINED> instruction: 0x01bc0000
     1ac:	00010000 	andeq	r0, r1, r0
     1b0:	0001bc54 	andeq	fp, r1, r4, asr ip
     1b4:	0001bf00 	andeq	fp, r1, r0, lsl #30
     1b8:	50000100 	andpl	r0, r0, r0, lsl #2
     1bc:	000001bf 			; <UNDEFINED> instruction: 0x000001bf
     1c0:	000001c8 	andeq	r0, r0, r8, asr #3
     1c4:	dc540001 	mrrcle	0, 0, r0, r4, cr1
     1c8:	df000001 	svcle	0x00000001
     1cc:	01000001 	tsteq	r0, r1
     1d0:	01df5000 	bicseq	r5, pc, r0
     1d4:	02000000 	andeq	r0, r0, #0
     1d8:	00010000 	andeq	r0, r1, r0
     1dc:	00020054 	andeq	r0, r2, r4, asr r0
     1e0:	00020400 	andeq	r0, r2, r0, lsl #8
     1e4:	50000100 	andpl	r0, r0, r0, lsl #2
     1e8:	00000204 	andeq	r0, r0, r4, lsl #4
     1ec:	00000228 	andeq	r0, r0, r8, lsr #4
     1f0:	70540001 	subsvc	r0, r4, r1
     1f4:	74000002 	strvc	r0, [r0], #-2
     1f8:	01000002 	tsteq	r0, r2
     1fc:	02745000 	rsbseq	r5, r4, #0
     200:	02840000 	addeq	r0, r4, #0
     204:	00010000 	andeq	r0, r1, r0
     208:	00028454 	andeq	r8, r2, r4, asr r4
     20c:	00028700 	andeq	r8, r2, r0, lsl #14
     210:	50000100 	andpl	r0, r0, r0, lsl #2
     214:	00000287 	andeq	r0, r0, r7, lsl #5
     218:	0000029c 	muleq	r0, ip, r2
     21c:	9c540001 	mrrcls	0, 0, r0, r4, cr1
     220:	9f000002 	svcls	0x00000002
     224:	01000002 	tsteq	r0, r2
     228:	029f5000 	addseq	r5, pc, #0
     22c:	02ac0000 	adceq	r0, ip, #0
     230:	00010000 	andeq	r0, r1, r0
     234:	0002c054 	andeq	ip, r2, r4, asr r0
     238:	0002c300 	andeq	ip, r2, r0, lsl #6
     23c:	50000100 	andpl	r0, r0, r0, lsl #2
     240:	000002c3 	andeq	r0, r0, r3, asr #5
     244:	000002d8 	ldrdeq	r0, [r0], -r8
     248:	d8540001 	ldmdale	r4, {r0}^
     24c:	db000002 	blle	25c <_start-0x7da4>
     250:	01000002 	tsteq	r0, r2
     254:	02db5000 	sbcseq	r5, fp, #0
     258:	02fc0000 	rscseq	r0, ip, #0
     25c:	00010000 	andeq	r0, r1, r0
     260:	0002fc54 	andeq	pc, r2, r4, asr ip	; <UNPREDICTABLE>
     264:	0002ff00 	andeq	pc, r2, r0, lsl #30
     268:	50000100 	andpl	r0, r0, r0, lsl #2
     26c:	000002ff 	strdeq	r0, [r0], -pc	; <UNPREDICTABLE>
     270:	00000314 	andeq	r0, r0, r4, lsl r3
     274:	14540001 	ldrbne	r0, [r4], #-1
     278:	17000003 	strne	r0, [r0, -r3]
     27c:	01000003 	tsteq	r0, r3
     280:	03175000 	tsteq	r7, #0
     284:	032c0000 	teqeq	ip, #0
     288:	00010000 	andeq	r0, r1, r0
     28c:	00032c54 	andeq	r2, r3, r4, asr ip
     290:	00032f00 	andeq	r2, r3, r0, lsl #30
     294:	50000100 	andpl	r0, r0, r0, lsl #2
     298:	0000032f 	andeq	r0, r0, pc, lsr #6
     29c:	00000334 	andeq	r0, r0, r4, lsr r3
     2a0:	00540001 	subseq	r0, r4, r1
     2a4:	00000000 	andeq	r0, r0, r0
     2a8:	88000000 	stmdahi	r0, {}	; <UNPREDICTABLE>
     2ac:	8f000002 	svchi	0x00000002
     2b0:	01000002 	tsteq	r0, r2
     2b4:	02a05000 	adceq	r5, r0, #0
     2b8:	02a70000 	adceq	r0, r7, #0
     2bc:	00010000 	andeq	r0, r1, r0
     2c0:	0002c450 	andeq	ip, r2, r0, asr r4
     2c4:	0002cb00 	andeq	ip, r2, r0, lsl #22
     2c8:	50000100 	andpl	r0, r0, r0, lsl #2
     2cc:	000002e0 	andeq	r0, r0, r0, ror #5
     2d0:	000002e3 	andeq	r0, r0, r3, ror #5
     2d4:	e3500001 	cmp	r0, #1
     2d8:	fc000002 	stc2	0, cr0, [r0], {2}
     2dc:	01000002 	tsteq	r0, r2
     2e0:	03005500 	movweq	r5, #1280	; 0x500
     2e4:	03070000 	movweq	r0, #28672	; 0x7000
     2e8:	00010000 	andeq	r0, r1, r0
     2ec:	00031850 	andeq	r1, r3, r0, asr r8
     2f0:	00031f00 	andeq	r1, r3, r0, lsl #30
     2f4:	50000100 	andpl	r0, r0, r0, lsl #2
	...
     300:	000001c0 	andeq	r0, r0, r0, asr #3
     304:	000001c3 	andeq	r0, r0, r3, asr #3
     308:	e4500001 	ldrb	r0, [r0], #-1
     30c:	e7000001 	str	r0, [r0, -r1]
     310:	01000001 	tsteq	r0, r1
     314:	01e75000 	mvneq	r5, r0
     318:	02000000 	andeq	r0, r0, #0
     31c:	00010000 	andeq	r0, r1, r0
     320:	00000055 	andeq	r0, r0, r5, asr r0
     324:	00000000 	andeq	r0, r0, r0
     328:	0001c800 	andeq	ip, r1, r0, lsl #16
     32c:	0001cc00 	andeq	ip, r1, r0, lsl #24
     330:	50000100 	andpl	r0, r0, r0, lsl #2
     334:	000001cc 	andeq	r0, r0, ip, asr #3
     338:	000001dc 	ldrdeq	r0, [r0], -ip
     33c:	ec540001 	mrrc	0, 0, r0, r4, cr1
     340:	f0000001 			; <UNDEFINED> instruction: 0xf0000001
     344:	01000001 	tsteq	r0, r1
     348:	01f05000 	mvnseq	r5, r0
     34c:	01f30000 	mvnseq	r0, r0
     350:	00010000 	andeq	r0, r1, r0
     354:	0002ac51 	andeq	sl, r2, r1, asr ip
     358:	0002b000 	andeq	fp, r2, r0
     35c:	50000100 	andpl	r0, r0, r0, lsl #2
     360:	000002b0 			; <UNDEFINED> instruction: 0x000002b0
     364:	000002c0 	andeq	r0, r0, r0, asr #5
     368:	e8540001 	ldmda	r4, {r0}^
     36c:	ec000002 	stc	0, cr0, [r0], {2}
     370:	01000002 	tsteq	r0, r2
     374:	02ec5000 	rsceq	r5, ip, #0
     378:	02ef0000 	rsceq	r0, pc, #0
     37c:	00010000 	andeq	r0, r1, r0
     380:	00000051 	andeq	r0, r0, r1, asr r0
     384:	00000000 	andeq	r0, r0, r0
     388:	00022400 	andeq	r2, r2, r0, lsl #8
     38c:	00022c00 	andeq	r2, r2, r0, lsl #24
     390:	30000200 	andcc	r0, r0, r0, lsl #4
     394:	00022c9f 	muleq	r2, pc, ip	; <UNPREDICTABLE>
     398:	00024400 	andeq	r4, r2, r0, lsl #8
     39c:	54000100 	strpl	r0, [r0], #-256	; 0x100
	...
     3a8:	00000248 	andeq	r0, r0, r8, asr #4
     3ac:	00000270 	andeq	r0, r0, r0, ror r2
     3b0:	00540001 	subseq	r0, r4, r1
     3b4:	00000000 	andeq	r0, r0, r0
     3b8:	2c000000 	stccs	0, cr0, [r0], {-0}
     3bc:	38000000 	stmdacc	r0, {}	; <UNPREDICTABLE>
     3c0:	01000000 	mrseq	r0, (UNDEF: 0)
     3c4:	00385000 	eorseq	r5, r8, r0
     3c8:	00480000 	subeq	r0, r8, r0
     3cc:	00010000 	andeq	r0, r1, r0
     3d0:	00004855 	andeq	r4, r0, r5, asr r8
     3d4:	00005800 	andeq	r5, r0, r0, lsl #16
     3d8:	50000100 	andpl	r0, r0, r0, lsl #2
	...
     3e8:	0000000b 	andeq	r0, r0, fp
     3ec:	0b500001 	bleq	14003f8 <__bss_end__+0x13f4440>
     3f0:	14000000 	strne	r0, [r0], #-0
     3f4:	01000000 	mrseq	r0, (UNDEF: 0)
     3f8:	00005400 	andeq	r5, r0, r0, lsl #8
	...
     404:	00100000 	andseq	r0, r0, r0
     408:	00010000 	andeq	r0, r1, r0
     40c:	00001050 	andeq	r1, r0, r0, asr r0
     410:	00003400 	andeq	r3, r0, r0, lsl #8
     414:	54000100 	strpl	r0, [r0], #-256	; 0x100
	...
     424:	00000004 	andeq	r0, r0, r4
     428:	04500001 	ldrbeq	r0, [r0], #-1
     42c:	0c000000 	stceq	0, cr0, [r0], {-0}
     430:	03000000 	movweq	r0, #0
     434:	9f307000 	svcls	0x00307000
     438:	0000000c 	andeq	r0, r0, ip
     43c:	00000014 	andeq	r0, r0, r4, lsl r0
     440:	01f30004 	mvnseq	r0, r4
     444:	00009f50 	andeq	r9, r0, r0, asr pc
     448:	00000000 	andeq	r0, r0, r0
     44c:	00140000 	andseq	r0, r4, r0
     450:	00200000 	eoreq	r0, r0, r0
     454:	00010000 	andeq	r0, r1, r0
     458:	00002050 	andeq	r2, r0, r0, asr r0
     45c:	00002c00 	andeq	r2, r0, r0, lsl #24
     460:	70000300 	andvc	r0, r0, r0, lsl #6
     464:	002c9f01 	eoreq	r9, ip, r1, lsl #30
     468:	00400000 	subeq	r0, r0, r0
     46c:	00010000 	andeq	r0, r1, r0
     470:	00000050 	andeq	r0, r0, r0, asr r0
     474:	00000000 	andeq	r0, r0, r0
     478:	00001400 	andeq	r1, r0, r0, lsl #8
     47c:	00001800 	andeq	r1, r0, r0, lsl #16
     480:	51000100 	mrspl	r0, (UNDEF: 16)
     484:	00000018 	andeq	r0, r0, r8, lsl r0
     488:	00000040 	andeq	r0, r0, r0, asr #32
     48c:	01f30004 	mvnseq	r0, r4
     490:	00009f51 	andeq	r9, r0, r1, asr pc
     494:	00000000 	andeq	r0, r0, r0
     498:	00400000 	subeq	r0, r0, r0
     49c:	00600000 	rsbeq	r0, r0, r0
     4a0:	00010000 	andeq	r0, r1, r0
     4a4:	00006050 	andeq	r6, r0, r0, asr r0
     4a8:	00006c00 	andeq	r6, r0, r0, lsl #24
     4ac:	71000300 	mrsvc	r0, LR_irq
     4b0:	006c9f01 	rsbeq	r9, ip, r1, lsl #30
     4b4:	00740000 	rsbseq	r0, r4, r0
     4b8:	00010000 	andeq	r0, r1, r0
     4bc:	00007451 	andeq	r7, r0, r1, asr r4
     4c0:	00008000 	andeq	r8, r0, r0
     4c4:	71000300 	mrsvc	r0, LR_irq
     4c8:	00009f01 	andeq	r9, r0, r1, lsl #30
     4cc:	00000000 	andeq	r0, r0, r0
     4d0:	00400000 	subeq	r0, r0, r0
     4d4:	00500000 	subseq	r0, r0, r0
     4d8:	00010000 	andeq	r0, r1, r0
     4dc:	00005051 	andeq	r5, r0, r1, asr r0
     4e0:	00008000 	andeq	r8, r0, r0
     4e4:	f3000400 	vshl.u8	d0, d0, d0
     4e8:	009f5101 	addseq	r5, pc, r1, lsl #2
     4ec:	00000000 	andeq	r0, r0, r0
     4f0:	40000000 	andmi	r0, r0, r0
     4f4:	58000000 	stmdapl	r0, {}	; <UNPREDICTABLE>
     4f8:	01000000 	mrseq	r0, (UNDEF: 0)
     4fc:	00585200 	subseq	r5, r8, r0, lsl #4
     500:	00640000 	rsbeq	r0, r4, r0
     504:	00010000 	andeq	r0, r1, r0
     508:	00006452 	andeq	r6, r0, r2, asr r4
     50c:	00006800 	andeq	r6, r0, r0, lsl #16
     510:	72000300 	andvc	r0, r0, #0, 6
     514:	00689f01 	rsbeq	r9, r8, r1, lsl #30
     518:	00800000 	addeq	r0, r0, r0
     51c:	00010000 	andeq	r0, r1, r0
     520:	00000052 	andeq	r0, r0, r2, asr r0
     524:	00000000 	andeq	r0, r0, r0
     528:	00004000 	andeq	r4, r0, r0
     52c:	00005400 	andeq	r5, r0, r0, lsl #8
     530:	53000100 	movwpl	r0, #256	; 0x100
     534:	00000054 	andeq	r0, r0, r4, asr r0
     538:	00000078 	andeq	r0, r0, r8, ror r0
     53c:	00530001 	subseq	r0, r3, r1
     540:	00000000 	andeq	r0, r0, r0
     544:	48000000 	stmdami	r0, {}	; <UNPREDICTABLE>
     548:	60000000 	andvs	r0, r0, r0
     54c:	01000000 	mrseq	r0, (UNDEF: 0)
     550:	00605c00 	rsbeq	r5, r0, r0, lsl #24
     554:	00800000 	addeq	r0, r0, r0
     558:	000a0000 	andeq	r0, sl, r0
     55c:	f35201f3 	vbsl	q8, q9, <illegal reg q9.5>
     560:	231c5301 	tstcs	ip, #67108864	; 0x4000000
     564:	00009f01 	andeq	r9, r0, r1, lsl #30
     568:	00000000 	andeq	r0, r0, r0
     56c:	00800000 	addeq	r0, r0, r0
     570:	00a40000 	adceq	r0, r4, r0
     574:	00010000 	andeq	r0, r1, r0
     578:	0000a450 	andeq	sl, r0, r0, asr r4
     57c:	00011800 	andeq	r1, r1, r0, lsl #16
     580:	70000300 	andvc	r0, r0, r0, lsl #6
     584:	01189f02 	tsteq	r8, r2, lsl #30
     588:	021c0000 	andseq	r0, ip, #0
     58c:	00040000 	andeq	r0, r4, r0
     590:	9f5001f3 	svcls	0x005001f3
	...
     59c:	00000080 	andeq	r0, r0, r0, lsl #1
     5a0:	000000f0 	strdeq	r0, [r0], -r0	; <UNPREDICTABLE>
     5a4:	f0510001 			; <UNDEFINED> instruction: 0xf0510001
     5a8:	60000000 	andvs	r0, r0, r0
     5ac:	01000001 	tsteq	r0, r1
     5b0:	01605500 	cmneq	r0, r0, lsl #10
     5b4:	01680000 	cmneq	r8, r0
     5b8:	00010000 	andeq	r0, r1, r0
     5bc:	00016851 	andeq	r6, r1, r1, asr r8
     5c0:	00018800 	andeq	r8, r1, r0, lsl #16
     5c4:	55000100 	strpl	r0, [r0, #-256]	; 0x100
     5c8:	00000188 	andeq	r0, r0, r8, lsl #3
     5cc:	0000019c 	muleq	r0, ip, r1
     5d0:	9c510001 	mrrcls	0, 0, r0, r1, cr1
     5d4:	bc000001 	stclt	0, cr0, [r0], {1}
     5d8:	01000001 	tsteq	r0, r1
     5dc:	01bc5500 			; <UNDEFINED> instruction: 0x01bc5500
     5e0:	01bf0000 			; <UNDEFINED> instruction: 0x01bf0000
     5e4:	00010000 	andeq	r0, r1, r0
     5e8:	0001bf51 	andeq	fp, r1, r1, asr pc
     5ec:	00020000 	andeq	r0, r2, r0
     5f0:	55000100 	strpl	r0, [r0, #-256]	; 0x100
     5f4:	00000200 	andeq	r0, r0, r0, lsl #4
     5f8:	0000021c 	andeq	r0, r0, ip, lsl r2
     5fc:	01f30004 	mvnseq	r0, r4
     600:	00009f51 	andeq	r9, r0, r1, asr pc
     604:	00000000 	andeq	r0, r0, r0
     608:	00800000 	addeq	r0, r0, r0
     60c:	00940000 	addseq	r0, r4, r0
     610:	00010000 	andeq	r0, r1, r0
     614:	00009452 	andeq	r9, r0, r2, asr r4
     618:	00020000 	andeq	r0, r2, r0
     61c:	54000100 	strpl	r0, [r0], #-256	; 0x100
     620:	00000200 	andeq	r0, r0, r0, lsl #4
     624:	0000021c 	andeq	r0, r0, ip, lsl r2
     628:	01f30004 	mvnseq	r0, r4
     62c:	00009f52 	andeq	r9, r0, r2, asr pc
     630:	00000000 	andeq	r0, r0, r0
     634:	00800000 	addeq	r0, r0, r0
     638:	01000000 	mrseq	r0, (UNDEF: 0)
     63c:	00010000 	andeq	r0, r1, r0
     640:	00010453 	andeq	r0, r1, r3, asr r4
     644:	00010800 	andeq	r0, r1, r0, lsl #16
     648:	53000100 	movwpl	r0, #256	; 0x100
     64c:	00000160 	andeq	r0, r0, r0, ror #2
     650:	00000168 	andeq	r0, r0, r8, ror #2
     654:	68530001 	ldmdavs	r3, {r0}^
     658:	88000001 	stmdahi	r0, {r0}
     65c:	04000001 	streq	r0, [r0], #-1
     660:	5301f300 	movwpl	pc, #4864	; 0x1300	; <UNPREDICTABLE>
     664:	0001889f 	muleq	r1, pc, r8	; <UNPREDICTABLE>
     668:	00019000 	andeq	r9, r1, r0
     66c:	53000100 	movwpl	r0, #256	; 0x100
     670:	00000190 	muleq	r0, r0, r1
     674:	00000194 	muleq	r0, r4, r1
     678:	945c0001 	ldrbls	r0, [ip], #-1
     67c:	9c000001 	stcls	0, cr0, [r0], {1}
     680:	01000001 	tsteq	r0, r1
     684:	019c5300 	orrseq	r5, ip, r0, lsl #6
     688:	01bc0000 			; <UNDEFINED> instruction: 0x01bc0000
     68c:	00040000 	andeq	r0, r4, r0
     690:	9f5301f3 	svcls	0x005301f3
     694:	000001bc 			; <UNDEFINED> instruction: 0x000001bc
     698:	000001bf 			; <UNDEFINED> instruction: 0x000001bf
     69c:	bf530001 	svclt	0x00530001
     6a0:	d8000001 	stmdale	r0, {r0}
     6a4:	04000001 	streq	r0, [r0], #-1
     6a8:	5301f300 	movwpl	pc, #4864	; 0x1300	; <UNPREDICTABLE>
     6ac:	0000009f 	muleq	r0, pc, r0	; <UNPREDICTABLE>
     6b0:	00000000 	andeq	r0, r0, r0
     6b4:	00008000 	andeq	r8, r0, r0
     6b8:	00009c00 	andeq	r9, r0, r0, lsl #24
     6bc:	91000200 	mrsls	r0, R8_usr
     6c0:	00009c00 	andeq	r9, r0, r0, lsl #24
     6c4:	0001bf00 	andeq	fp, r1, r0, lsl #30
     6c8:	52000100 	andpl	r0, r0, #0, 2
     6cc:	000001d8 	ldrdeq	r0, [r0], -r8
     6d0:	000001e3 	andeq	r0, r0, r3, ror #3
     6d4:	00520001 	subseq	r0, r2, r1
     6d8:	00000000 	andeq	r0, r0, r0
     6dc:	9c000000 	stcls	0, cr0, [r0], {-0}
     6e0:	18000000 	stmdane	r0, {}	; <UNPREDICTABLE>
     6e4:	01000001 	tsteq	r0, r1
     6e8:	01185d00 	tsteq	r8, r0, lsl #26
     6ec:	011c0000 	tsteq	ip, r0
     6f0:	00010000 	andeq	r0, r1, r0
     6f4:	00011c53 	andeq	r1, r1, r3, asr ip
     6f8:	00012000 	andeq	r2, r1, r0
     6fc:	51000100 	mrspl	r0, (UNDEF: 16)
     700:	00000120 	andeq	r0, r0, r0, lsr #2
     704:	00000160 	andeq	r0, r0, r0, ror #2
     708:	60530001 	subsvs	r0, r3, r1
     70c:	68000001 	stmdavs	r0, {r0}
     710:	01000001 	tsteq	r0, r1
     714:	01685d00 	cmneq	r8, r0, lsl #26
     718:	016c0000 	cmneq	ip, r0
     71c:	00010000 	andeq	r0, r1, r0
     720:	00016c5e 	andeq	r6, r1, lr, asr ip
     724:	00018800 	andeq	r8, r1, r0, lsl #16
     728:	53000100 	movwpl	r0, #256	; 0x100
     72c:	00000188 	andeq	r0, r0, r8, lsl #3
     730:	00000190 	muleq	r0, r0, r1
     734:	a1910004 	orrsge	r0, r1, r4
     738:	01909f7f 	orrseq	r9, r0, pc, ror pc
     73c:	01940000 	orrseq	r0, r4, r0
     740:	00010000 	andeq	r0, r1, r0
     744:	00019453 	andeq	r9, r1, r3, asr r4
     748:	00019c00 	andeq	r9, r1, r0, lsl #24
     74c:	5d000100 	stfpls	f0, [r0, #-0]
     750:	0000019c 	muleq	r0, ip, r1
     754:	000001a0 	andeq	r0, r0, r0, lsr #3
     758:	a05e0001 	subsge	r0, lr, r1
     75c:	bc000001 	stclt	0, cr0, [r0], {1}
     760:	01000001 	tsteq	r0, r1
     764:	01bc5300 			; <UNDEFINED> instruction: 0x01bc5300
     768:	01d80000 	bicseq	r0, r8, r0
     76c:	00010000 	andeq	r0, r1, r0
     770:	0001d85d 	andeq	sp, r1, sp, asr r8
     774:	0001e300 	andeq	lr, r1, r0, lsl #6
     778:	53000100 	movwpl	r0, #256	; 0x100
	...
     784:	000000a0 	andeq	r0, r0, r0, lsr #1
     788:	000000ec 	andeq	r0, r0, ip, ror #1
     78c:	ec5c0001 	mrrc	0, 0, r0, ip, cr1
     790:	00000000 	andeq	r0, r0, r0
     794:	01000001 	tsteq	r0, r1
     798:	01005300 	mrseq	r5, LR_irq
     79c:	01040000 	mrseq	r0, (UNDEF: 4)
     7a0:	00010000 	andeq	r0, r1, r0
     7a4:	0001045c 	andeq	r0, r1, ip, asr r4
     7a8:	00010800 	andeq	r0, r1, r0, lsl #16
     7ac:	53000100 	movwpl	r0, #256	; 0x100
     7b0:	00000108 	andeq	r0, r0, r8, lsl #2
     7b4:	00000118 	andeq	r0, r0, r8, lsl r1
     7b8:	185c0001 	ldmdane	ip, {r0}^
     7bc:	1c000001 	stcne	0, cr0, [r0], {1}
     7c0:	01000001 	tsteq	r0, r1
     7c4:	011c5000 	tsteq	ip, r0
     7c8:	013c0000 	teqeq	ip, r0
     7cc:	00010000 	andeq	r0, r1, r0
     7d0:	0001445c 	andeq	r4, r1, ip, asr r4
     7d4:	00015800 	andeq	r5, r1, r0, lsl #16
     7d8:	50000100 	andpl	r0, r0, r0, lsl #2
     7dc:	00000158 	andeq	r0, r0, r8, asr r1
     7e0:	00000160 	andeq	r0, r0, r0, ror #2
     7e4:	605c0001 	subsvs	r0, ip, r1
     7e8:	68000001 	stmdavs	r0, {r0}
     7ec:	01000001 	tsteq	r0, r1
     7f0:	01685300 	cmneq	r8, r0, lsl #6
     7f4:	01780000 	cmneq	r8, r0
     7f8:	00010000 	andeq	r0, r1, r0
     7fc:	0001785c 	andeq	r7, r1, ip, asr r8
     800:	00018000 	andeq	r8, r1, r0
     804:	7c000500 	cfstr32vc	mvfx0, [r0], {-0}
     808:	9f253400 	svcls	0x00253400
     80c:	00000180 	andeq	r0, r0, r0, lsl #3
     810:	00000188 	andeq	r0, r0, r8, lsl #3
     814:	885c0001 	ldmdahi	ip, {r0}^
     818:	90000001 	andls	r0, r0, r1
     81c:	01000001 	tsteq	r0, r1
     820:	01905300 	orrseq	r5, r0, r0, lsl #6
     824:	01940000 	orrseq	r0, r4, r0
     828:	00010000 	andeq	r0, r1, r0
     82c:	0001945c 	andeq	r9, r1, ip, asr r4
     830:	00019c00 	andeq	r9, r1, r0, lsl #24
     834:	53000100 	movwpl	r0, #256	; 0x100
     838:	0000019c 	muleq	r0, ip, r1
     83c:	000001ac 	andeq	r0, r0, ip, lsr #3
     840:	ac5c0001 	mrrcge	0, 0, r0, ip, cr1
     844:	b4000001 	strlt	r0, [r0], #-1
     848:	05000001 	streq	r0, [r0, #-1]
     84c:	31007c00 	tstcc	r0, r0, lsl #24
     850:	01b49f25 			; <UNDEFINED> instruction: 0x01b49f25
     854:	01bc0000 			; <UNDEFINED> instruction: 0x01bc0000
     858:	00010000 	andeq	r0, r1, r0
     85c:	0001bc5c 	andeq	fp, r1, ip, asr ip
     860:	0001bf00 	andeq	fp, r1, r0, lsl #30
     864:	53000100 	movwpl	r0, #256	; 0x100
     868:	000001bf 			; <UNDEFINED> instruction: 0x000001bf
     86c:	000001d8 	ldrdeq	r0, [r0], -r8
     870:	01f30004 	mvnseq	r0, r4
     874:	01d89f53 	bicseq	r9, r8, r3, asr pc
     878:	01e30000 	mvneq	r0, r0
     87c:	00010000 	andeq	r0, r1, r0
     880:	0000005c 	andeq	r0, r0, ip, asr r0
     884:	00000000 	andeq	r0, r0, r0
     888:	0000ec00 	andeq	lr, r0, r0, lsl #24
     88c:	0000fc00 	andeq	pc, r0, r0, lsl #24
     890:	30000200 	andcc	r0, r0, r0, lsl #4
     894:	0000fc9f 	muleq	r0, pc, ip	; <UNPREDICTABLE>
     898:	00010400 	andeq	r0, r1, r0, lsl #8
     89c:	31000200 	mrscc	r0, R8_usr
     8a0:	0001049f 	muleq	r1, pc, r4	; <UNPREDICTABLE>
     8a4:	00010800 	andeq	r0, r1, r0, lsl #16
     8a8:	30000200 	andcc	r0, r0, r0, lsl #4
     8ac:	0000009f 	muleq	r0, pc, r0	; <UNPREDICTABLE>
     8b0:	00000000 	andeq	r0, r0, r0
     8b4:	00021c00 	andeq	r1, r2, r0, lsl #24
     8b8:	00022b00 	andeq	r2, r2, r0, lsl #22
     8bc:	50000100 	andpl	r0, r0, r0, lsl #2
     8c0:	0000022b 	andeq	r0, r0, fp, lsr #4
     8c4:	00000244 	andeq	r0, r0, r4, asr #4
     8c8:	01f30004 	mvnseq	r0, r4
     8cc:	02449f50 	subeq	r9, r4, #80, 30	; 0x140
     8d0:	02700000 	rsbseq	r0, r0, #0
     8d4:	00010000 	andeq	r0, r1, r0
     8d8:	00000050 	andeq	r0, r0, r0, asr r0
     8dc:	00000000 	andeq	r0, r0, r0
     8e0:	00021c00 	andeq	r1, r2, r0, lsl #24
     8e4:	00022b00 	andeq	r2, r2, r0, lsl #22
     8e8:	51000100 	mrspl	r0, (UNDEF: 16)
     8ec:	0000022b 	andeq	r0, r0, fp, lsr #4
     8f0:	00000244 	andeq	r0, r0, r4, asr #4
     8f4:	01f30004 	mvnseq	r0, r4
     8f8:	02449f51 	subeq	r9, r4, #324	; 0x144
     8fc:	02700000 	rsbseq	r0, r0, #0
     900:	00010000 	andeq	r0, r1, r0
     904:	00000051 	andeq	r0, r0, r1, asr r0
     908:	00000000 	andeq	r0, r0, r0
     90c:	00027000 	andeq	r7, r2, r0
     910:	00029c00 	andeq	r9, r2, r0, lsl #24
     914:	50000100 	andpl	r0, r0, r0, lsl #2
     918:	0000029c 	muleq	r0, ip, r2
     91c:	000004e4 	andeq	r0, r0, r4, ror #9
     920:	e45a0001 	ldrb	r0, [sl], #-1
     924:	f8000004 			; <UNDEFINED> instruction: 0xf8000004
     928:	04000004 	streq	r0, [r0], #-4
     92c:	5001f300 	andpl	pc, r1, r0, lsl #6
     930:	0000009f 	muleq	r0, pc, r0	; <UNPREDICTABLE>
     934:	00000000 	andeq	r0, r0, r0
     938:	00027000 	andeq	r7, r2, r0
     93c:	00028400 	andeq	r8, r2, r0, lsl #8
     940:	51000100 	mrspl	r0, (UNDEF: 16)
     944:	00000284 	andeq	r0, r0, r4, lsl #5
     948:	0000029c 	muleq	r0, ip, r2
     94c:	01710003 	cmneq	r1, r3
     950:	00029c9f 	muleq	r2, pc, ip	; <UNPREDICTABLE>
     954:	0004f800 	andeq	pc, r4, r0, lsl #16
     958:	f3000400 	vshl.u8	d0, d0, d0
     95c:	009f5101 	addseq	r5, pc, r1, lsl #2
     960:	00000000 	andeq	r0, r0, r0
     964:	70000000 	andvc	r0, r0, r0
     968:	a4000002 	strge	r0, [r0], #-2
     96c:	01000002 	tsteq	r0, r2
     970:	02a45200 	adceq	r5, r4, #0, 4
     974:	02cc0000 	sbceq	r0, ip, #0
     978:	00010000 	andeq	r0, r1, r0
     97c:	0002cc52 	andeq	ip, r2, r2, asr ip
     980:	00049400 	andeq	r9, r4, r0, lsl #8
     984:	56000100 	strpl	r0, [r0], -r0, lsl #2
     988:	00000494 	muleq	r0, r4, r4
     98c:	000004f8 	strdeq	r0, [r0], -r8
     990:	00520001 	subseq	r0, r2, r1
     994:	00000000 	andeq	r0, r0, r0
     998:	70000000 	andvc	r0, r0, r0
     99c:	8c000002 	stchi	0, cr0, [r0], {2}
     9a0:	01000002 	tsteq	r0, r2
     9a4:	00005300 	andeq	r5, r0, r0, lsl #6
     9a8:	00000000 	andeq	r0, r0, r0
     9ac:	02800000 	addeq	r0, r0, #0
     9b0:	029c0000 	addseq	r0, ip, #0
     9b4:	00010000 	andeq	r0, r1, r0
     9b8:	00029c50 	andeq	r9, r2, r0, asr ip
     9bc:	0002a000 	andeq	sl, r2, r0
     9c0:	54000100 	strpl	r0, [r0], #-256	; 0x100
     9c4:	000002a0 	andeq	r0, r0, r0, lsr #5
     9c8:	000002ac 	andeq	r0, r0, ip, lsr #5
     9cc:	01740003 	cmneq	r4, r3
     9d0:	0002ac9f 	muleq	r2, pc, ip	; <UNPREDICTABLE>
     9d4:	0002b800 	andeq	fp, r2, r0, lsl #16
     9d8:	54000100 	strpl	r0, [r0], #-256	; 0x100
     9dc:	000002b8 			; <UNDEFINED> instruction: 0x000002b8
     9e0:	000002c4 	andeq	r0, r0, r4, asr #5
     9e4:	01740003 	cmneq	r4, r3
     9e8:	0002c49f 	muleq	r2, pc, r4	; <UNPREDICTABLE>
     9ec:	00049800 	andeq	r9, r4, r0, lsl #16
     9f0:	54000100 	strpl	r0, [r0], #-256	; 0x100
     9f4:	00000498 	muleq	r0, r8, r4
     9f8:	000004a4 	andeq	r0, r0, r4, lsr #9
     9fc:	01740003 	cmneq	r4, r3
     a00:	0004a49f 	muleq	r4, pc, r4	; <UNPREDICTABLE>
     a04:	0004d000 	andeq	sp, r4, r0
     a08:	54000100 	strpl	r0, [r0], #-256	; 0x100
     a0c:	000004d0 	ldrdeq	r0, [r0], -r0	; <UNPREDICTABLE>
     a10:	000004dc 	ldrdeq	r0, [r0], -ip
     a14:	dc500001 	mrrcle	0, 0, r0, r0, cr1	; <UNPREDICTABLE>
     a18:	e4000004 	str	r0, [r0], #-4
     a1c:	03000004 	movweq	r0, #4
     a20:	9f017400 	svcls	0x00017400
	...
     a2c:	00000288 	andeq	r0, r0, r8, lsl #5
     a30:	000004e4 	andeq	r0, r0, r4, ror #9
     a34:	e4580001 	ldrb	r0, [r8], #-1
     a38:	f8000004 			; <UNDEFINED> instruction: 0xf8000004
     a3c:	0a000004 	beq	a54 <_start-0x75ac>
     a40:	5101f300 	mrspl	pc, SP_irq	; <UNPREDICTABLE>
     a44:	225001f3 	subscs	r0, r0, #-1073741764	; 0xc000003c
     a48:	009f1c31 	addseq	r1, pc, r1, lsr ip	; <UNPREDICTABLE>
     a4c:	00000000 	andeq	r0, r0, r0
     a50:	cc000000 	stcgt	0, cr0, [r0], {-0}
     a54:	d0000003 	andle	r0, r0, r3
     a58:	01000003 	tsteq	r0, r3
     a5c:	03f05000 	mvnseq	r5, #0
     a60:	03f40000 	mvnseq	r0, #0
     a64:	00010000 	andeq	r0, r1, r0
     a68:	00041450 	andeq	r1, r4, r0, asr r4
     a6c:	00041800 	andeq	r1, r4, r0, lsl #16
     a70:	50000100 	andpl	r0, r0, r0, lsl #2
     a74:	00000438 	andeq	r0, r0, r8, lsr r4
     a78:	0000043c 	andeq	r0, r0, ip, lsr r4
     a7c:	44500001 	ldrbmi	r0, [r0], #-1
     a80:	48000004 	stmdami	r0, {r2}
     a84:	01000004 	tsteq	r0, r4
     a88:	04685000 	strbteq	r5, [r8], #-0
     a8c:	046c0000 	strbteq	r0, [ip], #-0
     a90:	00010000 	andeq	r0, r1, r0
     a94:	00049050 	andeq	r9, r4, r0, asr r0
     a98:	0004b800 	andeq	fp, r4, r0, lsl #16
     a9c:	50000100 	andpl	r0, r0, r0, lsl #2
	...
     aa8:	000002cc 	andeq	r0, r0, ip, asr #5
     aac:	000002d4 	ldrdeq	r0, [r0], -r4
     ab0:	9f300002 	svcls	0x00300002
     ab4:	000002d4 	ldrdeq	r0, [r0], -r4
     ab8:	000002d8 	ldrdeq	r0, [r0], -r8
     abc:	e4570001 	ldrb	r0, [r7], #-1
     ac0:	b8000002 	stmdalt	r0, {r1}
     ac4:	01000004 	tsteq	r0, r4
     ac8:	00005700 	andeq	r5, r0, r0, lsl #14
	...
     ad4:	000c0000 	andeq	r0, ip, r0
     ad8:	00010000 	andeq	r0, r1, r0
     adc:	00000c50 	andeq	r0, r0, r0, asr ip
     ae0:	00002000 	andeq	r2, r0, r0
     ae4:	54000100 	strpl	r0, [r0], #-256	; 0x100
	...
     af0:	00000034 	andeq	r0, r0, r4, lsr r0
     af4:	0000003c 	andeq	r0, r0, ip, lsr r0
     af8:	04730003 	ldrbteq	r0, [r3], #-3
     afc:	00003c9f 	muleq	r0, pc, ip	; <UNPREDICTABLE>
     b00:	00004700 	andeq	r4, r0, r0, lsl #14
     b04:	53000100 	movwpl	r0, #256	; 0x100
	...
     b10:	00000048 	andeq	r0, r0, r8, asr #32
     b14:	00000074 	andeq	r0, r0, r4, ror r0
     b18:	74500001 	ldrbvc	r0, [r0], #-1
     b1c:	83000000 	movwhi	r0, #0
     b20:	03000000 	movweq	r0, #0
     b24:	9f787300 	svcls	0x00787300
	...
     b30:	00008a18 	andeq	r8, r0, r8, lsl sl
     b34:	00008a1c 	andeq	r8, r0, ip, lsl sl
     b38:	9f300002 	svcls	0x00300002
     b3c:	00008a1c 	andeq	r8, r0, ip, lsl sl
     b40:	00008a20 	andeq	r8, r0, r0, lsr #20
     b44:	00500001 	subseq	r0, r0, r1
     b48:	00000000 	andeq	r0, r0, r0
     b4c:	30000000 	andcc	r0, r0, r0
     b50:	3400008a 	strcc	r0, [r0], #-138	; 0x8a
     b54:	0200008a 	andeq	r0, r0, #138	; 0x8a
     b58:	349f3000 	ldrcc	r3, [pc], #0	; b60 <_start-0x74a0>
     b5c:	3800008a 	stmdacc	r0, {r1, r3, r7}
     b60:	0100008a 	smlabbeq	r0, sl, r0, r0
     b64:	8a3c5300 	bhi	f1576c <__bss_end__+0xf097b4>
     b68:	8a440000 	bhi	1100b70 <__bss_end__+0x10f4bb8>
     b6c:	00010000 	andeq	r0, r1, r0
     b70:	00000053 	andeq	r0, r0, r3, asr r0
	...
     b7c:	00000400 	andeq	r0, r0, r0, lsl #8
     b80:	50000100 	andpl	r0, r0, r0, lsl #2
     b84:	00000004 	andeq	r0, r0, r4
     b88:	0000000c 	andeq	r0, r0, ip
     b8c:	0c530001 	mrrceq	0, 0, r0, r3, cr1
     b90:	10000000 	andne	r0, r0, r0
     b94:	01000000 	mrseq	r0, (UNDEF: 0)
     b98:	00105000 	andseq	r5, r0, r0
     b9c:	001c0000 	andseq	r0, ip, r0
     ba0:	00010000 	andeq	r0, r1, r0
     ba4:	00000053 	andeq	r0, r0, r3, asr r0
     ba8:	00000000 	andeq	r0, r0, r0
     bac:	00003c00 	andeq	r3, r0, r0, lsl #24
     bb0:	00004700 	andeq	r4, r0, r0, lsl #14
     bb4:	50000100 	andpl	r0, r0, r0, lsl #2
     bb8:	00000047 	andeq	r0, r0, r7, asr #32
     bbc:	00000060 	andeq	r0, r0, r0, rrx
     bc0:	00550001 	subseq	r0, r5, r1
     bc4:	00000000 	andeq	r0, r0, r0
     bc8:	50000000 	andpl	r0, r0, r0
     bcc:	54000000 	strpl	r0, [r0], #-0
     bd0:	01000000 	mrseq	r0, (UNDEF: 0)
     bd4:	00005000 	andeq	r5, r0, r0
     bd8:	00000000 	andeq	r0, r0, r0
     bdc:	00600000 	rsbeq	r0, r0, r0
     be0:	006c0000 	rsbeq	r0, ip, r0
     be4:	00010000 	andeq	r0, r1, r0
     be8:	00006c50 	andeq	r6, r0, r0, asr ip
     bec:	00007400 	andeq	r7, r0, r0, lsl #8
     bf0:	f3000400 	vshl.u8	d0, d0, d0
     bf4:	009f5001 	addseq	r5, pc, r1
     bf8:	00000000 	andeq	r0, r0, r0
     bfc:	74000000 	strvc	r0, [r0], #-0
     c00:	80000000 	andhi	r0, r0, r0
     c04:	01000000 	mrseq	r0, (UNDEF: 0)
     c08:	00805000 	addeq	r5, r0, r0
     c0c:	00880000 	addeq	r0, r8, r0
     c10:	00040000 	andeq	r0, r4, r0
     c14:	9f5001f3 	svcls	0x005001f3
	...
     c24:	00000090 	muleq	r0, r0, r0
     c28:	90500001 	subsls	r0, r0, r1
     c2c:	d4000000 	strle	r0, [r0], #-0
     c30:	01000000 	mrseq	r0, (UNDEF: 0)
     c34:	00005400 	andeq	r5, r0, r0, lsl #8
     c38:	00000000 	andeq	r0, r0, r0
     c3c:	00480000 	subeq	r0, r8, r0
     c40:	004c0000 	subeq	r0, ip, r0
     c44:	00010000 	andeq	r0, r1, r0
     c48:	00005455 	andeq	r5, r0, r5, asr r4
     c4c:	00005800 	andeq	r5, r0, r0, lsl #16
     c50:	55000100 	strpl	r0, [r0, #-256]	; 0x100
     c54:	00000060 	andeq	r0, r0, r0, rrx
     c58:	00000064 	andeq	r0, r0, r4, rrx
     c5c:	6c550001 	mrrcvs	0, 0, r0, r5, cr1
     c60:	70000000 	andvc	r0, r0, r0
     c64:	01000000 	mrseq	r0, (UNDEF: 0)
     c68:	00785500 	rsbseq	r5, r8, r0, lsl #10
     c6c:	007c0000 	rsbseq	r0, ip, r0
     c70:	00010000 	andeq	r0, r1, r0
     c74:	00008455 	andeq	r8, r0, r5, asr r4
     c78:	00008800 	andeq	r8, r0, r0, lsl #16
     c7c:	55000100 	strpl	r0, [r0, #-256]	; 0x100
     c80:	0000008c 	andeq	r0, r0, ip, lsl #1
     c84:	000000d4 	ldrdeq	r0, [r0], -r4
     c88:	00550001 	subseq	r0, r5, r1
     c8c:	00000000 	andeq	r0, r0, r0
     c90:	1c000000 	stcne	0, cr0, [r0], {-0}
     c94:	44000000 	strmi	r0, [r0], #-0
     c98:	01000000 	mrseq	r0, (UNDEF: 0)
     c9c:	00445300 	subeq	r5, r4, r0, lsl #6
     ca0:	004c0000 	subeq	r0, ip, r0
     ca4:	001c0000 	andseq	r0, ip, r0
     ca8:	2cf70070 	ldclcs	0, cr0, [r7], #448	; 0x1c0
     cac:	25f425f7 	ldrbcs	r2, [r4, #1527]!	; 0x5f7
     cb0:	cccccd08 	stclgt	13, cr12, [ip], {8}
     cb4:	000000cc 	andeq	r0, r0, ip, asr #1
     cb8:	20081e00 	andcs	r1, r8, r0, lsl #28
     cbc:	f72525f7 			; <UNDEFINED> instruction: 0xf72525f7
     cc0:	9f25332c 	svcls	0x0025332c
     cc4:	0000004c 	andeq	r0, r0, ip, asr #32
     cc8:	00000050 	andeq	r0, r0, r0, asr r0
     ccc:	50530001 	subspl	r0, r3, r1
     cd0:	58000000 	stmdapl	r0, {}	; <UNPREDICTABLE>
     cd4:	1c000000 	stcne	0, cr0, [r0], {-0}
     cd8:	f7007000 			; <UNDEFINED> instruction: 0xf7007000
     cdc:	f425f72c 	vld1.8	{d15}, [r5 :128], ip
     ce0:	cccd0825 	stclgt	8, cr0, [sp], {37}	; 0x25
     ce4:	0000cccc 	andeq	ip, r0, ip, asr #25
     ce8:	081e0000 	ldmdaeq	lr, {}	; <UNPREDICTABLE>
     cec:	2525f720 	strcs	pc, [r5, #-1824]!	; 0x720
     cf0:	25332cf7 	ldrcs	r2, [r3, #-3319]!	; 0xcf7
     cf4:	0000589f 	muleq	r0, pc, r8	; <UNPREDICTABLE>
     cf8:	00005c00 	andeq	r5, r0, r0, lsl #24
     cfc:	53000100 	movwpl	r0, #256	; 0x100
     d00:	0000005c 	andeq	r0, r0, ip, asr r0
     d04:	00000064 	andeq	r0, r0, r4, rrx
     d08:	0070001c 	rsbseq	r0, r0, ip, lsl r0
     d0c:	25f72cf7 	ldrbcs	r2, [r7, #3319]!	; 0xcf7
     d10:	cd0825f4 	cfstr32gt	mvfx2, [r8, #-976]	; 0xfffffc30
     d14:	00cccccc 	sbceq	ip, ip, ip, asr #25
     d18:	1e000000 	cdpne	0, 0, cr0, cr0, cr0, {0}
     d1c:	25f72008 	ldrbcs	r2, [r7, #8]!
     d20:	332cf725 	msrcc	CPSR_fs, #9699328	; 0x940000
     d24:	00649f25 	rsbeq	r9, r4, r5, lsr #30
     d28:	00680000 	rsbeq	r0, r8, r0
     d2c:	00010000 	andeq	r0, r1, r0
     d30:	00006853 	andeq	r6, r0, r3, asr r8
     d34:	00007000 	andeq	r7, r0, r0
     d38:	70001c00 	andvc	r1, r0, r0, lsl #24
     d3c:	f72cf700 			; <UNDEFINED> instruction: 0xf72cf700
     d40:	0825f425 	stmdaeq	r5!, {r0, r2, r5, sl, ip, sp, lr, pc}
     d44:	cccccccd 	stclgt	12, cr12, [ip], {205}	; 0xcd
     d48:	00000000 	andeq	r0, r0, r0
     d4c:	f720081e 			; <UNDEFINED> instruction: 0xf720081e
     d50:	2cf72525 	cfldr64cs	mvdx2, [r7], #148	; 0x94
     d54:	709f2533 	addsvc	r2, pc, r3, lsr r5	; <UNPREDICTABLE>
     d58:	74000000 	strvc	r0, [r0], #-0
     d5c:	01000000 	mrseq	r0, (UNDEF: 0)
     d60:	00745300 	rsbseq	r5, r4, r0, lsl #6
     d64:	007c0000 	rsbseq	r0, ip, r0
     d68:	001c0000 	andseq	r0, ip, r0
     d6c:	2cf70070 	ldclcs	0, cr0, [r7], #448	; 0x1c0
     d70:	25f425f7 	ldrbcs	r2, [r4, #1527]!	; 0x5f7
     d74:	cccccd08 	stclgt	13, cr12, [ip], {8}
     d78:	000000cc 	andeq	r0, r0, ip, asr #1
     d7c:	20081e00 	andcs	r1, r8, r0, lsl #28
     d80:	f72525f7 			; <UNDEFINED> instruction: 0xf72525f7
     d84:	9f25332c 	svcls	0x0025332c
     d88:	0000007c 	andeq	r0, r0, ip, ror r0
     d8c:	00000080 	andeq	r0, r0, r0, lsl #1
     d90:	80530001 	subshi	r0, r3, r1
     d94:	88000000 	stmdahi	r0, {}	; <UNPREDICTABLE>
     d98:	1c000000 	stcne	0, cr0, [r0], {-0}
     d9c:	f7007000 			; <UNDEFINED> instruction: 0xf7007000
     da0:	f425f72c 	vld1.8	{d15}, [r5 :128], ip
     da4:	cccd0825 	stclgt	8, cr0, [sp], {37}	; 0x25
     da8:	0000cccc 	andeq	ip, r0, ip, asr #25
     dac:	081e0000 	ldmdaeq	lr, {}	; <UNPREDICTABLE>
     db0:	2525f720 	strcs	pc, [r5, #-1824]!	; 0x720
     db4:	25332cf7 	ldrcs	r2, [r3, #-3319]!	; 0xcf7
     db8:	0000889f 	muleq	r0, pc, r8	; <UNPREDICTABLE>
     dbc:	00008c00 	andeq	r8, r0, r0, lsl #24
     dc0:	53000100 	movwpl	r0, #256	; 0x100
     dc4:	0000008c 	andeq	r0, r0, ip, lsl #1
     dc8:	00000090 	muleq	r0, r0, r0
     dcc:	0070001c 	rsbseq	r0, r0, ip, lsl r0
     dd0:	25f72cf7 	ldrbcs	r2, [r7, #3319]!	; 0xcf7
     dd4:	cd0825f4 	cfstr32gt	mvfx2, [r8, #-976]	; 0xfffffc30
     dd8:	00cccccc 	sbceq	ip, ip, ip, asr #25
     ddc:	1e000000 	cdpne	0, 0, cr0, cr0, cr0, {0}
     de0:	25f72008 	ldrbcs	r2, [r7, #8]!
     de4:	332cf725 	msrcc	CPSR_fs, #9699328	; 0x940000
     de8:	00909f25 	addseq	r9, r0, r5, lsr #30
     dec:	00980000 	addseq	r0, r8, r0
     df0:	001c0000 	andseq	r0, ip, r0
     df4:	2cf70074 	ldclcs	0, cr0, [r7], #464	; 0x1d0
     df8:	25f425f7 	ldrbcs	r2, [r4, #1527]!	; 0x5f7
     dfc:	cccccd08 	stclgt	13, cr12, [ip], {8}
     e00:	000000cc 	andeq	r0, r0, ip, asr #1
     e04:	20081e00 	andcs	r1, r8, r0, lsl #28
     e08:	f72525f7 			; <UNDEFINED> instruction: 0xf72525f7
     e0c:	9f25332c 	svcls	0x0025332c
     e10:	00000098 	muleq	r0, r8, r0
     e14:	0000009c 	muleq	r0, ip, r0
     e18:	00740017 	rsbseq	r0, r4, r7, lsl r0
     e1c:	25f72cf7 	ldrbcs	r2, [r7, #3319]!	; 0xcf7
     e20:	2cf70071 	ldclcs	0, cr0, [r7], #452	; 0x1c4
     e24:	081e25f7 	ldmdaeq	lr, {r0, r1, r2, r4, r5, r6, r7, r8, sl, sp}
     e28:	2525f720 	strcs	pc, [r5, #-1824]!	; 0x720
     e2c:	25332cf7 	ldrcs	r2, [r3, #-3319]!	; 0xcf7
     e30:	00009c9f 	muleq	r0, pc, ip	; <UNPREDICTABLE>
     e34:	0000d400 	andeq	sp, r0, r0, lsl #8
     e38:	74001c00 	strvc	r1, [r0], #-3072	; 0xc00
     e3c:	f72cf700 			; <UNDEFINED> instruction: 0xf72cf700
     e40:	0825f425 	stmdaeq	r5!, {r0, r2, r5, sl, ip, sp, lr, pc}
     e44:	cccccccd 	stclgt	12, cr12, [ip], {205}	; 0xcd
     e48:	00000000 	andeq	r0, r0, r0
     e4c:	f720081e 			; <UNDEFINED> instruction: 0xf720081e
     e50:	2cf72525 	cfldr64cs	mvdx2, [r7], #148	; 0x94
     e54:	009f2533 	addseq	r2, pc, r3, lsr r5	; <UNPREDICTABLE>
     e58:	00000000 	andeq	r0, r0, r0
     e5c:	94000000 	strls	r0, [r0], #-0
     e60:	b8000000 	stmdalt	r0, {}	; <UNPREDICTABLE>
     e64:	01000000 	mrseq	r0, (UNDEF: 0)
     e68:	00b85000 	adcseq	r5, r8, r0
     e6c:	00c40000 	sbceq	r0, r4, r0
     e70:	00080000 	andeq	r0, r8, r0
     e74:	24007131 	strcs	r7, [r0], #-305	; 0x131
     e78:	9f210073 	svcls	0x00210073
     e7c:	000000c4 	andeq	r0, r0, r4, asr #1
     e80:	000000c7 	andeq	r0, r0, r7, asr #1
     e84:	00510001 	subseq	r0, r1, r1
     e88:	00000000 	andeq	r0, r0, r0
     e8c:	d4000000 	strle	r0, [r0], #-0
     e90:	f8000000 			; <UNDEFINED> instruction: 0xf8000000
     e94:	01000000 	mrseq	r0, (UNDEF: 0)
     e98:	00f85000 	rscseq	r5, r8, r0
     e9c:	010c0000 	mrseq	r0, (UNDEF: 12)
     ea0:	00040000 	andeq	r0, r4, r0
     ea4:	9f5001f3 	svcls	0x005001f3
	...
     eb0:	000000e0 	andeq	r0, r0, r0, ror #1
     eb4:	000000e8 	andeq	r0, r0, r8, ror #1
     eb8:	9f300002 	svcls	0x00300002
     ebc:	000000e8 	andeq	r0, r0, r8, ror #1
     ec0:	000000e8 	andeq	r0, r0, r8, ror #1
     ec4:	e8520001 	ldmda	r2, {r0}^
     ec8:	f0000000 			; <UNDEFINED> instruction: 0xf0000000
     ecc:	02000000 	andeq	r0, r0, #0
     ed0:	f09f3000 			; <UNDEFINED> instruction: 0xf09f3000
     ed4:	03000000 	movweq	r0, #0
     ed8:	01000001 	tsteq	r0, r1
     edc:	00005200 	andeq	r5, r0, r0, lsl #4
     ee0:	00000000 	andeq	r0, r0, r0
     ee4:	00e00000 	rsceq	r0, r0, r0
     ee8:	00f40000 	rscseq	r0, r4, r0
     eec:	00020000 	andeq	r0, r2, r0
     ef0:	00f49f30 	rscseq	r9, r4, r0, lsr pc
     ef4:	01000000 	mrseq	r0, (UNDEF: 0)
     ef8:	00050000 	andeq	r0, r5, r0
     efc:	24007331 	strcs	r7, [r0], #-817	; 0x331
     f00:	0001009f 	muleq	r1, pc, r0	; <UNPREDICTABLE>
     f04:	00010300 	andeq	r0, r1, r0, lsl #6
     f08:	51000100 	mrspl	r0, (UNDEF: 16)
     f0c:	00000103 	andeq	r0, r0, r3, lsl #2
     f10:	0000010c 	andeq	r0, r0, ip, lsl #2
     f14:	f3310008 	vhadd.u<illegal width 64>	d0, d1, d8
     f18:	1a4f5001 	bne	13d4f24 <__bss_end__+0x13c8f6c>
     f1c:	00009f24 	andeq	r9, r0, r4, lsr #30
     f20:	00000000 	andeq	r0, r0, r0
     f24:	010c0000 	mrseq	r0, (UNDEF: 12)
     f28:	01300000 	teqeq	r0, r0
     f2c:	00010000 	andeq	r0, r1, r0
     f30:	00013050 	andeq	r3, r1, r0, asr r0
     f34:	00014400 	andeq	r4, r1, r0, lsl #8
     f38:	f3000400 	vshl.u8	d0, d0, d0
     f3c:	009f5001 	addseq	r5, pc, r1
     f40:	00000000 	andeq	r0, r0, r0
     f44:	18000000 	stmdane	r0, {}	; <UNPREDICTABLE>
     f48:	20000001 	andcs	r0, r0, r1
     f4c:	02000001 	andeq	r0, r0, #1
     f50:	209f3000 	addscs	r3, pc, r0
     f54:	20000001 	andcs	r0, r0, r1
     f58:	01000001 	tsteq	r0, r1
     f5c:	01205200 	teqeq	r0, r0, lsl #4
     f60:	01280000 	teqeq	r8, r0
     f64:	00020000 	andeq	r0, r2, r0
     f68:	01289f30 	teqeq	r8, r0, lsr pc
     f6c:	013b0000 	teqeq	fp, r0
     f70:	00010000 	andeq	r0, r1, r0
     f74:	00000052 	andeq	r0, r0, r2, asr r0
     f78:	00000000 	andeq	r0, r0, r0
     f7c:	00011800 	andeq	r1, r1, r0, lsl #16
     f80:	00012c00 	andeq	r2, r1, r0, lsl #24
     f84:	30000200 	andcc	r0, r0, r0, lsl #4
     f88:	00012c9f 	muleq	r1, pc, ip	; <UNPREDICTABLE>
     f8c:	00013800 	andeq	r3, r1, r0, lsl #16
     f90:	31000500 	tstcc	r0, r0, lsl #10
     f94:	9f240073 	svcls	0x00240073
     f98:	00000138 	andeq	r0, r0, r8, lsr r1
     f9c:	0000013b 	andeq	r0, r0, fp, lsr r1
     fa0:	3b510001 	blcc	1440fac <__bss_end__+0x1434ff4>
     fa4:	44000001 	strmi	r0, [r0], #-1
     fa8:	08000001 	stmdaeq	r0, {r0}
     fac:	01f33100 	mvnseq	r3, r0, lsl #2
     fb0:	241a4f50 	ldrcs	r4, [sl], #-3920	; 0xf50
     fb4:	0000009f 	muleq	r0, pc, r0	; <UNPREDICTABLE>
     fb8:	00000000 	andeq	r0, r0, r0
     fbc:	00014400 	andeq	r4, r1, r0, lsl #8
     fc0:	0001d400 	andeq	sp, r1, r0, lsl #8
     fc4:	50000100 	andpl	r0, r0, r0, lsl #2
     fc8:	000001d4 	ldrdeq	r0, [r0], -r4
     fcc:	00000210 	andeq	r0, r0, r0, lsl r2
     fd0:	00540001 	subseq	r0, r4, r1
     fd4:	00000000 	andeq	r0, r0, r0
     fd8:	8c000000 	stchi	0, cr0, [r0], {-0}
     fdc:	90000001 	andls	r0, r0, r1
     fe0:	01000001 	tsteq	r0, r1
     fe4:	01985500 	orrseq	r5, r8, r0, lsl #10
     fe8:	019c0000 	orrseq	r0, ip, r0
     fec:	00010000 	andeq	r0, r1, r0
     ff0:	0001a455 	andeq	sl, r1, r5, asr r4
     ff4:	0001a800 	andeq	sl, r1, r0, lsl #16
     ff8:	55000100 	strpl	r0, [r0, #-256]	; 0x100
     ffc:	000001b0 			; <UNDEFINED> instruction: 0x000001b0
    1000:	000001b4 			; <UNDEFINED> instruction: 0x000001b4
    1004:	bc550001 	mrrclt	0, 0, r0, r5, cr1
    1008:	c0000001 	andgt	r0, r0, r1
    100c:	01000001 	tsteq	r0, r1
    1010:	01c85500 	biceq	r5, r8, r0, lsl #10
    1014:	01cc0000 	biceq	r0, ip, r0
    1018:	00010000 	andeq	r0, r1, r0
    101c:	0001d055 	andeq	sp, r1, r5, asr r0
    1020:	00021000 	andeq	r1, r2, r0
    1024:	55000100 	strpl	r0, [r0, #-256]	; 0x100
	...
    1030:	00000160 	andeq	r0, r0, r0, ror #2
    1034:	00000188 	andeq	r0, r0, r8, lsl #3
    1038:	88530001 	ldmdahi	r3, {r0}^
    103c:	90000001 	andls	r0, r0, r1
    1040:	1c000001 	stcne	0, cr0, [r0], {1}
    1044:	f7007000 			; <UNDEFINED> instruction: 0xf7007000
    1048:	f425f72c 	vld1.8	{d15}, [r5 :128], ip
    104c:	cccd0825 	stclgt	8, cr0, [sp], {37}	; 0x25
    1050:	0000cccc 	andeq	ip, r0, ip, asr #25
    1054:	081e0000 	ldmdaeq	lr, {}	; <UNPREDICTABLE>
    1058:	2525f720 	strcs	pc, [r5, #-1824]!	; 0x720
    105c:	25332cf7 	ldrcs	r2, [r3, #-3319]!	; 0xcf7
    1060:	0001909f 	muleq	r1, pc, r0	; <UNPREDICTABLE>
    1064:	00019400 	andeq	r9, r1, r0, lsl #8
    1068:	53000100 	movwpl	r0, #256	; 0x100
    106c:	00000194 	muleq	r0, r4, r1
    1070:	0000019c 	muleq	r0, ip, r1
    1074:	0070001c 	rsbseq	r0, r0, ip, lsl r0
    1078:	25f72cf7 	ldrbcs	r2, [r7, #3319]!	; 0xcf7
    107c:	cd0825f4 	cfstr32gt	mvfx2, [r8, #-976]	; 0xfffffc30
    1080:	00cccccc 	sbceq	ip, ip, ip, asr #25
    1084:	1e000000 	cdpne	0, 0, cr0, cr0, cr0, {0}
    1088:	25f72008 	ldrbcs	r2, [r7, #8]!
    108c:	332cf725 	msrcc	CPSR_fs, #9699328	; 0x940000
    1090:	019c9f25 	orrseq	r9, ip, r5, lsr #30
    1094:	01a00000 	moveq	r0, r0
    1098:	00010000 	andeq	r0, r1, r0
    109c:	0001a053 	andeq	sl, r1, r3, asr r0
    10a0:	0001a800 	andeq	sl, r1, r0, lsl #16
    10a4:	70001c00 	andvc	r1, r0, r0, lsl #24
    10a8:	f72cf700 			; <UNDEFINED> instruction: 0xf72cf700
    10ac:	0825f425 	stmdaeq	r5!, {r0, r2, r5, sl, ip, sp, lr, pc}
    10b0:	cccccccd 	stclgt	12, cr12, [ip], {205}	; 0xcd
    10b4:	00000000 	andeq	r0, r0, r0
    10b8:	f720081e 			; <UNDEFINED> instruction: 0xf720081e
    10bc:	2cf72525 	cfldr64cs	mvdx2, [r7], #148	; 0x94
    10c0:	a89f2533 	ldmge	pc, {r0, r1, r4, r5, r8, sl, sp}	; <UNPREDICTABLE>
    10c4:	ac000001 	stcge	0, cr0, [r0], {1}
    10c8:	01000001 	tsteq	r0, r1
    10cc:	01ac5300 			; <UNDEFINED> instruction: 0x01ac5300
    10d0:	01b40000 			; <UNDEFINED> instruction: 0x01b40000
    10d4:	001c0000 	andseq	r0, ip, r0
    10d8:	2cf70070 	ldclcs	0, cr0, [r7], #448	; 0x1c0
    10dc:	25f425f7 	ldrbcs	r2, [r4, #1527]!	; 0x5f7
    10e0:	cccccd08 	stclgt	13, cr12, [ip], {8}
    10e4:	000000cc 	andeq	r0, r0, ip, asr #1
    10e8:	20081e00 	andcs	r1, r8, r0, lsl #28
    10ec:	f72525f7 			; <UNDEFINED> instruction: 0xf72525f7
    10f0:	9f25332c 	svcls	0x0025332c
    10f4:	000001b4 			; <UNDEFINED> instruction: 0x000001b4
    10f8:	000001b8 			; <UNDEFINED> instruction: 0x000001b8
    10fc:	b8530001 	ldmdalt	r3, {r0}^
    1100:	c0000001 	andgt	r0, r0, r1
    1104:	1c000001 	stcne	0, cr0, [r0], {1}
    1108:	f7007000 			; <UNDEFINED> instruction: 0xf7007000
    110c:	f425f72c 	vld1.8	{d15}, [r5 :128], ip
    1110:	cccd0825 	stclgt	8, cr0, [sp], {37}	; 0x25
    1114:	0000cccc 	andeq	ip, r0, ip, asr #25
    1118:	081e0000 	ldmdaeq	lr, {}	; <UNPREDICTABLE>
    111c:	2525f720 	strcs	pc, [r5, #-1824]!	; 0x720
    1120:	25332cf7 	ldrcs	r2, [r3, #-3319]!	; 0xcf7
    1124:	0001c09f 	muleq	r1, pc, r0	; <UNPREDICTABLE>
    1128:	0001c400 	andeq	ip, r1, r0, lsl #8
    112c:	53000100 	movwpl	r0, #256	; 0x100
    1130:	000001c4 	andeq	r0, r0, r4, asr #3
    1134:	000001cc 	andeq	r0, r0, ip, asr #3
    1138:	0070001c 	rsbseq	r0, r0, ip, lsl r0
    113c:	25f72cf7 	ldrbcs	r2, [r7, #3319]!	; 0xcf7
    1140:	cd0825f4 	cfstr32gt	mvfx2, [r8, #-976]	; 0xfffffc30
    1144:	00cccccc 	sbceq	ip, ip, ip, asr #25
    1148:	1e000000 	cdpne	0, 0, cr0, cr0, cr0, {0}
    114c:	25f72008 	ldrbcs	r2, [r7, #8]!
    1150:	332cf725 	msrcc	CPSR_fs, #9699328	; 0x940000
    1154:	01cc9f25 	biceq	r9, ip, r5, lsr #30
    1158:	01d00000 	bicseq	r0, r0, r0
    115c:	00010000 	andeq	r0, r1, r0
    1160:	0001d053 	andeq	sp, r1, r3, asr r0
    1164:	0001d400 	andeq	sp, r1, r0, lsl #8
    1168:	70001c00 	andvc	r1, r0, r0, lsl #24
    116c:	f72cf700 			; <UNDEFINED> instruction: 0xf72cf700
    1170:	0825f425 	stmdaeq	r5!, {r0, r2, r5, sl, ip, sp, lr, pc}
    1174:	cccccccd 	stclgt	12, cr12, [ip], {205}	; 0xcd
    1178:	00000000 	andeq	r0, r0, r0
    117c:	f720081e 			; <UNDEFINED> instruction: 0xf720081e
    1180:	2cf72525 	cfldr64cs	mvdx2, [r7], #148	; 0x94
    1184:	d49f2533 	ldrle	r2, [pc], #1331	; 118c <_start-0x6e74>
    1188:	dc000001 	stcle	0, cr0, [r0], {1}
    118c:	1c000001 	stcne	0, cr0, [r0], {1}
    1190:	f7007400 			; <UNDEFINED> instruction: 0xf7007400
    1194:	f425f72c 	vld1.8	{d15}, [r5 :128], ip
    1198:	cccd0825 	stclgt	8, cr0, [sp], {37}	; 0x25
    119c:	0000cccc 	andeq	ip, r0, ip, asr #25
    11a0:	081e0000 	ldmdaeq	lr, {}	; <UNPREDICTABLE>
    11a4:	2525f720 	strcs	pc, [r5, #-1824]!	; 0x720
    11a8:	25332cf7 	ldrcs	r2, [r3, #-3319]!	; 0xcf7
    11ac:	0001dc9f 	muleq	r1, pc, ip	; <UNPREDICTABLE>
    11b0:	0001e000 	andeq	lr, r1, r0
    11b4:	74001700 	strvc	r1, [r0], #-1792	; 0x700
    11b8:	f72cf700 			; <UNDEFINED> instruction: 0xf72cf700
    11bc:	f7007125 			; <UNDEFINED> instruction: 0xf7007125
    11c0:	1e25f72c 	cdpne	7, 2, cr15, cr5, cr12, {1}
    11c4:	25f72008 	ldrbcs	r2, [r7, #8]!
    11c8:	332cf725 	msrcc	CPSR_fs, #9699328	; 0x940000
    11cc:	01e09f25 	mvneq	r9, r5, lsr #30
    11d0:	02100000 	andseq	r0, r0, #0
    11d4:	001c0000 	andseq	r0, ip, r0
    11d8:	2cf70074 	ldclcs	0, cr0, [r7], #464	; 0x1d0
    11dc:	25f425f7 	ldrbcs	r2, [r4, #1527]!	; 0x5f7
    11e0:	cccccd08 	stclgt	13, cr12, [ip], {8}
    11e4:	000000cc 	andeq	r0, r0, ip, asr #1
    11e8:	20081e00 	andcs	r1, r8, r0, lsl #28
    11ec:	f72525f7 			; <UNDEFINED> instruction: 0xf72525f7
    11f0:	9f25332c 	svcls	0x0025332c
	...
    11fc:	000001d8 	ldrdeq	r0, [r0], -r8
    1200:	000001fc 	strdeq	r0, [r0], -ip
    1204:	fc500001 	mrrc2	0, 0, r0, r0, cr1	; <UNPREDICTABLE>
    1208:	03000001 	movweq	r0, #1
    120c:	01000002 	tsteq	r0, r2
    1210:	00005100 	andeq	r5, r0, r0, lsl #2
    1214:	00000000 	andeq	r0, r0, r0
    1218:	02100000 	andseq	r0, r0, #0
    121c:	022c0000 	eoreq	r0, ip, #0
    1220:	00010000 	andeq	r0, r1, r0
    1224:	00022c50 	andeq	r2, r2, r0, asr ip
    1228:	00023400 	andeq	r3, r2, r0, lsl #8
    122c:	54000100 	strpl	r0, [r0], #-256	; 0x100
    1230:	00000234 	andeq	r0, r0, r4, lsr r2
    1234:	0000023c 	andeq	r0, r0, ip, lsr r2
    1238:	3c500001 	mrrccc	0, 0, r0, r0, cr1	; <UNPREDICTABLE>
    123c:	44000002 	strmi	r0, [r0], #-2
    1240:	01000002 	tsteq	r0, r2
    1244:	02445400 	subeq	r5, r4, #0, 8
    1248:	02500000 	subseq	r0, r0, #0
    124c:	00040000 	andeq	r0, r4, r0
    1250:	9f5001f3 	svcls	0x005001f3
    1254:	00000250 	andeq	r0, r0, r0, asr r2
    1258:	00000254 	andeq	r0, r0, r4, asr r2
    125c:	54500001 	ldrbpl	r0, [r0], #-1
    1260:	5c000002 	stcpl	0, cr0, [r0], {2}
    1264:	01000002 	tsteq	r0, r2
    1268:	00005400 	andeq	r5, r0, r0, lsl #8
    126c:	00000000 	andeq	r0, r0, r0
    1270:	02200000 	eoreq	r0, r0, #0
    1274:	02300000 	eorseq	r0, r0, #0
    1278:	00020000 	andeq	r0, r2, r0
    127c:	02309f30 	eorseq	r9, r0, #48, 30	; 0xc0
    1280:	02340000 	eorseq	r0, r4, #0
    1284:	00010000 	andeq	r0, r1, r0
    1288:	00023450 	andeq	r3, r2, r0, asr r4
    128c:	00024000 	andeq	r4, r2, r0
    1290:	30000200 	andcc	r0, r0, r0, lsl #4
    1294:	0002409f 	muleq	r2, pc, r0	; <UNPREDICTABLE>
    1298:	00024c00 	andeq	r4, r2, r0, lsl #24
    129c:	50000100 	andpl	r0, r0, r0, lsl #2
	...
    12a8:	0000025c 	andeq	r0, r0, ip, asr r2
    12ac:	00000273 	andeq	r0, r0, r3, ror r2
    12b0:	73500001 	cmpvc	r0, #1
    12b4:	78000002 	stmdavc	r0, {r1}
    12b8:	04000002 	streq	r0, [r0], #-2
    12bc:	5001f300 	andpl	pc, r1, r0, lsl #6
    12c0:	0002789f 	muleq	r2, pc, r8	; <UNPREDICTABLE>
    12c4:	00027b00 	andeq	r7, r2, r0, lsl #22
    12c8:	50000100 	andpl	r0, r0, r0, lsl #2
    12cc:	0000027b 	andeq	r0, r0, fp, ror r2
    12d0:	00000280 	andeq	r0, r0, r0, lsl #5
    12d4:	01f30004 	mvnseq	r0, r4
    12d8:	00009f50 	andeq	r9, r0, r0, asr pc
    12dc:	00000000 	andeq	r0, r0, r0
    12e0:	025c0000 	subseq	r0, ip, #0
    12e4:	02730000 	rsbseq	r0, r3, #0
    12e8:	00010000 	andeq	r0, r1, r0
    12ec:	00027351 	andeq	r7, r2, r1, asr r3
    12f0:	00027800 	andeq	r7, r2, r0, lsl #16
    12f4:	f3000400 	vshl.u8	d0, d0, d0
    12f8:	789f5101 	ldmvc	pc, {r0, r8, ip, lr}	; <UNPREDICTABLE>
    12fc:	7b000002 	blvc	130c <_start-0x6cf4>
    1300:	01000002 	tsteq	r0, r2
    1304:	027b5100 	rsbseq	r5, fp, #0, 2
    1308:	02800000 	addeq	r0, r0, #0
    130c:	00040000 	andeq	r0, r4, r0
    1310:	9f5101f3 	svcls	0x005101f3
	...
    131c:	00000280 	andeq	r0, r0, r0, lsl #5
    1320:	00000318 	andeq	r0, r0, r8, lsl r3
    1324:	18500001 	ldmdane	r0, {r0}^
    1328:	58000003 	stmdapl	r0, {r0, r1}
    132c:	01000003 	tsteq	r0, r3
    1330:	00005400 	andeq	r5, r0, r0, lsl #8
    1334:	00000000 	andeq	r0, r0, r0
    1338:	02800000 	addeq	r0, r0, #0
    133c:	031b0000 	tsteq	fp, #0
    1340:	00010000 	andeq	r0, r1, r0
    1344:	00031b51 	andeq	r1, r3, r1, asr fp
    1348:	00035800 	andeq	r5, r3, r0, lsl #16
    134c:	f3000400 	vshl.u8	d0, d0, d0
    1350:	009f5101 	addseq	r5, pc, r1, lsl #2
    1354:	00000000 	andeq	r0, r0, r0
    1358:	d0000000 	andle	r0, r0, r0
    135c:	d4000002 	strle	r0, [r0], #-2
    1360:	01000002 	tsteq	r0, r2
    1364:	02dc5600 	sbcseq	r5, ip, #0, 12
    1368:	02e00000 	rsceq	r0, r0, #0
    136c:	00010000 	andeq	r0, r1, r0
    1370:	0002e856 	andeq	lr, r2, r6, asr r8
    1374:	0002ec00 	andeq	lr, r2, r0, lsl #24
    1378:	56000100 	strpl	r0, [r0], -r0, lsl #2
    137c:	000002f4 	strdeq	r0, [r0], -r4
    1380:	000002f8 	strdeq	r0, [r0], -r8
    1384:	00560001 	subseq	r0, r6, r1
    1388:	04000003 	streq	r0, [r0], #-3
    138c:	01000003 	tsteq	r0, r3
    1390:	030c5600 	movweq	r5, #50688	; 0xc600
    1394:	03100000 	tsteq	r0, #0
    1398:	00010000 	andeq	r0, r1, r0
    139c:	00031456 	andeq	r1, r3, r6, asr r4
    13a0:	00035800 	andeq	r5, r3, r0, lsl #16
    13a4:	56000100 	strpl	r0, [r0], -r0, lsl #2
	...
    13b0:	000002a4 	andeq	r0, r0, r4, lsr #5
    13b4:	000002cc 	andeq	r0, r0, ip, asr #5
    13b8:	cc530001 	mrrcgt	0, 0, r0, r3, cr1
    13bc:	d4000002 	strle	r0, [r0], #-2
    13c0:	1c000002 	stcne	0, cr0, [r0], {2}
    13c4:	f7007000 			; <UNDEFINED> instruction: 0xf7007000
    13c8:	f425f72c 	vld1.8	{d15}, [r5 :128], ip
    13cc:	cccd0825 	stclgt	8, cr0, [sp], {37}	; 0x25
    13d0:	0000cccc 	andeq	ip, r0, ip, asr #25
    13d4:	081e0000 	ldmdaeq	lr, {}	; <UNPREDICTABLE>
    13d8:	2525f720 	strcs	pc, [r5, #-1824]!	; 0x720
    13dc:	25332cf7 	ldrcs	r2, [r3, #-3319]!	; 0xcf7
    13e0:	0002d49f 	muleq	r2, pc, r4	; <UNPREDICTABLE>
    13e4:	0002d800 	andeq	sp, r2, r0, lsl #16
    13e8:	53000100 	movwpl	r0, #256	; 0x100
    13ec:	000002d8 	ldrdeq	r0, [r0], -r8
    13f0:	000002e0 	andeq	r0, r0, r0, ror #5
    13f4:	0070001c 	rsbseq	r0, r0, ip, lsl r0
    13f8:	25f72cf7 	ldrbcs	r2, [r7, #3319]!	; 0xcf7
    13fc:	cd0825f4 	cfstr32gt	mvfx2, [r8, #-976]	; 0xfffffc30
    1400:	00cccccc 	sbceq	ip, ip, ip, asr #25
    1404:	1e000000 	cdpne	0, 0, cr0, cr0, cr0, {0}
    1408:	25f72008 	ldrbcs	r2, [r7, #8]!
    140c:	332cf725 	msrcc	CPSR_fs, #9699328	; 0x940000
    1410:	02e09f25 	rsceq	r9, r0, #37, 30	; 0x94
    1414:	02e40000 	rsceq	r0, r4, #0
    1418:	00010000 	andeq	r0, r1, r0
    141c:	0002e453 	andeq	lr, r2, r3, asr r4
    1420:	0002ec00 	andeq	lr, r2, r0, lsl #24
    1424:	70001c00 	andvc	r1, r0, r0, lsl #24
    1428:	f72cf700 			; <UNDEFINED> instruction: 0xf72cf700
    142c:	0825f425 	stmdaeq	r5!, {r0, r2, r5, sl, ip, sp, lr, pc}
    1430:	cccccccd 	stclgt	12, cr12, [ip], {205}	; 0xcd
    1434:	00000000 	andeq	r0, r0, r0
    1438:	f720081e 			; <UNDEFINED> instruction: 0xf720081e
    143c:	2cf72525 	cfldr64cs	mvdx2, [r7], #148	; 0x94
    1440:	ec9f2533 	cfldr32	mvfx2, [pc], {51}	; 0x33
    1444:	f0000002 			; <UNDEFINED> instruction: 0xf0000002
    1448:	01000002 	tsteq	r0, r2
    144c:	02f05300 	rscseq	r5, r0, #0, 6
    1450:	02f80000 	rscseq	r0, r8, #0
    1454:	001c0000 	andseq	r0, ip, r0
    1458:	2cf70070 	ldclcs	0, cr0, [r7], #448	; 0x1c0
    145c:	25f425f7 	ldrbcs	r2, [r4, #1527]!	; 0x5f7
    1460:	cccccd08 	stclgt	13, cr12, [ip], {8}
    1464:	000000cc 	andeq	r0, r0, ip, asr #1
    1468:	20081e00 	andcs	r1, r8, r0, lsl #28
    146c:	f72525f7 			; <UNDEFINED> instruction: 0xf72525f7
    1470:	9f25332c 	svcls	0x0025332c
    1474:	000002f8 	strdeq	r0, [r0], -r8
    1478:	000002fc 	strdeq	r0, [r0], -ip
    147c:	fc530001 	mrrc2	0, 0, r0, r3, cr1
    1480:	04000002 	streq	r0, [r0], #-2
    1484:	1c000003 	stcne	0, cr0, [r0], {3}
    1488:	f7007000 			; <UNDEFINED> instruction: 0xf7007000
    148c:	f425f72c 	vld1.8	{d15}, [r5 :128], ip
    1490:	cccd0825 	stclgt	8, cr0, [sp], {37}	; 0x25
    1494:	0000cccc 	andeq	ip, r0, ip, asr #25
    1498:	081e0000 	ldmdaeq	lr, {}	; <UNPREDICTABLE>
    149c:	2525f720 	strcs	pc, [r5, #-1824]!	; 0x720
    14a0:	25332cf7 	ldrcs	r2, [r3, #-3319]!	; 0xcf7
    14a4:	0003049f 	muleq	r3, pc, r4	; <UNPREDICTABLE>
    14a8:	00030800 	andeq	r0, r3, r0, lsl #16
    14ac:	53000100 	movwpl	r0, #256	; 0x100
    14b0:	00000308 	andeq	r0, r0, r8, lsl #6
    14b4:	00000310 	andeq	r0, r0, r0, lsl r3
    14b8:	0070001c 	rsbseq	r0, r0, ip, lsl r0
    14bc:	25f72cf7 	ldrbcs	r2, [r7, #3319]!	; 0xcf7
    14c0:	cd0825f4 	cfstr32gt	mvfx2, [r8, #-976]	; 0xfffffc30
    14c4:	00cccccc 	sbceq	ip, ip, ip, asr #25
    14c8:	1e000000 	cdpne	0, 0, cr0, cr0, cr0, {0}
    14cc:	25f72008 	ldrbcs	r2, [r7, #8]!
    14d0:	332cf725 	msrcc	CPSR_fs, #9699328	; 0x940000
    14d4:	03109f25 	tsteq	r0, #37, 30	; 0x94
    14d8:	03140000 	tsteq	r4, #0
    14dc:	00010000 	andeq	r0, r1, r0
    14e0:	00031453 	andeq	r1, r3, r3, asr r4
    14e4:	00031800 	andeq	r1, r3, r0, lsl #16
    14e8:	70001c00 	andvc	r1, r0, r0, lsl #24
    14ec:	f72cf700 			; <UNDEFINED> instruction: 0xf72cf700
    14f0:	0825f425 	stmdaeq	r5!, {r0, r2, r5, sl, ip, sp, lr, pc}
    14f4:	cccccccd 	stclgt	12, cr12, [ip], {205}	; 0xcd
    14f8:	00000000 	andeq	r0, r0, r0
    14fc:	f720081e 			; <UNDEFINED> instruction: 0xf720081e
    1500:	2cf72525 	cfldr64cs	mvdx2, [r7], #148	; 0x94
    1504:	189f2533 	ldmne	pc, {r0, r1, r4, r5, r8, sl, sp}	; <UNPREDICTABLE>
    1508:	20000003 	andcs	r0, r0, r3
    150c:	1c000003 	stcne	0, cr0, [r0], {3}
    1510:	f7007400 			; <UNDEFINED> instruction: 0xf7007400
    1514:	f425f72c 	vld1.8	{d15}, [r5 :128], ip
    1518:	cccd0825 	stclgt	8, cr0, [sp], {37}	; 0x25
    151c:	0000cccc 	andeq	ip, r0, ip, asr #25
    1520:	081e0000 	ldmdaeq	lr, {}	; <UNPREDICTABLE>
    1524:	2525f720 	strcs	pc, [r5, #-1824]!	; 0x720
    1528:	25332cf7 	ldrcs	r2, [r3, #-3319]!	; 0xcf7
    152c:	0003209f 	muleq	r3, pc, r0	; <UNPREDICTABLE>
    1530:	00032400 	andeq	r2, r3, r0, lsl #8
    1534:	74001700 	strvc	r1, [r0], #-1792	; 0x700
    1538:	f72cf700 			; <UNDEFINED> instruction: 0xf72cf700
    153c:	f7007325 			; <UNDEFINED> instruction: 0xf7007325
    1540:	1e25f72c 	cdpne	7, 2, cr15, cr5, cr12, {1}
    1544:	25f72008 	ldrbcs	r2, [r7, #8]!
    1548:	332cf725 	msrcc	CPSR_fs, #9699328	; 0x940000
    154c:	03249f25 	teqeq	r4, #37, 30	; 0x94
    1550:	03580000 	cmpeq	r8, #0
    1554:	001c0000 	andseq	r0, ip, r0
    1558:	2cf70074 	ldclcs	0, cr0, [r7], #464	; 0x1d0
    155c:	25f425f7 	ldrbcs	r2, [r4, #1527]!	; 0x5f7
    1560:	cccccd08 	stclgt	13, cr12, [ip], {8}
    1564:	000000cc 	andeq	r0, r0, ip, asr #1
    1568:	20081e00 	andcs	r1, r8, r0, lsl #28
    156c:	f72525f7 			; <UNDEFINED> instruction: 0xf72525f7
    1570:	9f25332c 	svcls	0x0025332c
	...
    157c:	0000031c 	andeq	r0, r0, ip, lsl r3
    1580:	00000340 	andeq	r0, r0, r0, asr #6
    1584:	40500001 	subsmi	r0, r0, r1
    1588:	48000003 	stmdami	r0, {r0, r1}
    158c:	09000003 	stmdbeq	r0, {r0, r1}
    1590:	73007500 	movwvc	r7, #1280	; 0x500
    1594:	00712400 	rsbseq	r2, r1, r0, lsl #8
    1598:	03489f21 	movteq	r9, #36641	; 0x8f21
    159c:	034b0000 	movteq	r0, #45056	; 0xb000
    15a0:	00010000 	andeq	r0, r1, r0
    15a4:	00000051 	andeq	r0, r0, r1, asr r0
    15a8:	00000000 	andeq	r0, r0, r0
    15ac:	00035800 	andeq	r5, r3, r0, lsl #16
    15b0:	00036400 	andeq	r6, r3, r0, lsl #8
    15b4:	50000100 	andpl	r0, r0, r0, lsl #2
    15b8:	00000364 	andeq	r0, r0, r4, ror #6
    15bc:	00000384 	andeq	r0, r0, r4, lsl #7
    15c0:	01f30004 	mvnseq	r0, r4
    15c4:	00009f50 	andeq	r9, r0, r0, asr pc
    15c8:	00000000 	andeq	r0, r0, r0
    15cc:	03840000 	orreq	r0, r4, #0
    15d0:	03970000 	orrseq	r0, r7, #0
    15d4:	00010000 	andeq	r0, r1, r0
    15d8:	00039750 	andeq	r9, r3, r0, asr r7
    15dc:	0003d000 	andeq	sp, r3, r0
    15e0:	54000100 	strpl	r0, [r0], #-256	; 0x100
    15e4:	000003d0 	ldrdeq	r0, [r0], -r0	; <UNPREDICTABLE>
    15e8:	00000408 	andeq	r0, r0, r8, lsl #8
    15ec:	01f30004 	mvnseq	r0, r4
    15f0:	00009f50 	andeq	r9, r0, r0, asr pc
    15f4:	00000000 	andeq	r0, r0, r0
    15f8:	03f00000 	mvnseq	r0, #0
    15fc:	03f40000 	mvnseq	r0, #0
    1600:	00010000 	andeq	r0, r1, r0
    1604:	0003f450 	andeq	pc, r3, r0, asr r4	; <UNPREDICTABLE>
    1608:	0003fb00 	andeq	pc, r3, r0, lsl #22
    160c:	51000100 	mrspl	r0, (UNDEF: 16)
	...
    1618:	000003ac 	andeq	r0, r0, ip, lsr #7
    161c:	000003b4 			; <UNDEFINED> instruction: 0x000003b4
    1620:	b4500001 	ldrblt	r0, [r0], #-1
    1624:	bb000003 	bllt	1638 <_start-0x69c8>
    1628:	01000003 	tsteq	r0, r3
    162c:	00005100 	andeq	r5, r0, r0, lsl #2
    1630:	00000000 	andeq	r0, r0, r0
    1634:	03cc0000 	biceq	r0, ip, #0
    1638:	03d80000 	bicseq	r0, r8, #0
    163c:	00010000 	andeq	r0, r1, r0
    1640:	0003d850 	andeq	sp, r3, r0, asr r8
    1644:	0003df00 	andeq	sp, r3, r0, lsl #30
    1648:	51000100 	mrspl	r0, (UNDEF: 16)
	...
    1654:	00000408 	andeq	r0, r0, r8, lsl #8
    1658:	0000041b 	andeq	r0, r0, fp, lsl r4
    165c:	1b500001 	blne	1401668 <__bss_end__+0x13f56b0>
    1660:	54000004 	strpl	r0, [r0], #-4
    1664:	01000004 	tsteq	r0, r4
    1668:	04545400 	ldrbeq	r5, [r4], #-1024	; 0x400
    166c:	048c0000 	streq	r0, [ip], #0
    1670:	00040000 	andeq	r0, r4, r0
    1674:	9f5001f3 	svcls	0x005001f3
	...
    1680:	00000474 	andeq	r0, r0, r4, ror r4
    1684:	00000478 	andeq	r0, r0, r8, ror r4
    1688:	78500001 	ldmdavc	r0, {r0}^
    168c:	7f000004 	svcvc	0x00000004
    1690:	01000004 	tsteq	r0, r4
    1694:	00005100 	andeq	r5, r0, r0, lsl #2
    1698:	00000000 	andeq	r0, r0, r0
    169c:	04300000 	ldrteq	r0, [r0], #-0
    16a0:	04380000 	ldrteq	r0, [r8], #-0
    16a4:	00010000 	andeq	r0, r1, r0
    16a8:	00043850 	andeq	r3, r4, r0, asr r8
    16ac:	00043f00 	andeq	r3, r4, r0, lsl #30
    16b0:	51000100 	mrspl	r0, (UNDEF: 16)
	...
    16bc:	00000450 	andeq	r0, r0, r0, asr r4
    16c0:	0000045c 	andeq	r0, r0, ip, asr r4
    16c4:	5c500001 	mrrcpl	0, 0, r0, r0, cr1	; <UNPREDICTABLE>
    16c8:	63000004 	movwvs	r0, #4
    16cc:	01000004 	tsteq	r0, r4
    16d0:	00005100 	andeq	r5, r0, r0, lsl #2
    16d4:	00000000 	andeq	r0, r0, r0
    16d8:	048c0000 	streq	r0, [ip], #0
    16dc:	049f0000 	ldreq	r0, [pc], #0	; 16e4 <_start-0x691c>
    16e0:	00010000 	andeq	r0, r1, r0
    16e4:	00049f50 	andeq	r9, r4, r0, asr pc
    16e8:	0004e000 	andeq	lr, r4, r0
    16ec:	54000100 	strpl	r0, [r0], #-256	; 0x100
    16f0:	000004e0 	andeq	r0, r0, r0, ror #9
    16f4:	00000504 	andeq	r0, r0, r4, lsl #10
    16f8:	01f30004 	mvnseq	r0, r4
    16fc:	05049f50 	streq	r9, [r4, #-3920]	; 0xf50
    1700:	05080000 	streq	r0, [r8, #-0]
    1704:	00010000 	andeq	r0, r1, r0
    1708:	00050850 	andeq	r0, r5, r0, asr r8
    170c:	00051000 	andeq	r1, r5, r0
    1710:	54000100 	strpl	r0, [r0], #-256	; 0x100
	...
    171c:	000004b4 			; <UNDEFINED> instruction: 0x000004b4
    1720:	000004c3 	andeq	r0, r0, r3, asr #9
    1724:	74310008 	ldrtvc	r0, [r1], #-8
    1728:	00702400 	rsbseq	r2, r0, r0, lsl #8
    172c:	00009f1a 	andeq	r9, r0, sl, lsl pc
    1730:	00000000 	andeq	r0, r0, r0
    1734:	04e00000 	strbteq	r0, [r0], #0
    1738:	04f80000 	ldrbteq	r0, [r8], #0
    173c:	00010000 	andeq	r0, r1, r0
    1740:	00000054 	andeq	r0, r0, r4, asr r0
    1744:	00000000 	andeq	r0, r0, r0
    1748:	00051000 	andeq	r1, r5, r0
    174c:	00052300 	andeq	r2, r5, r0, lsl #6
    1750:	50000100 	andpl	r0, r0, r0, lsl #2
    1754:	00000523 	andeq	r0, r0, r3, lsr #10
    1758:	00000548 	andeq	r0, r0, r8, asr #10
    175c:	48540001 	ldmdami	r4, {r0}^
    1760:	68000005 	stmdavs	r0, {r0, r2}
    1764:	04000005 	streq	r0, [r0], #-5
    1768:	5001f300 	andpl	pc, r1, r0, lsl #6
    176c:	0000009f 	muleq	r0, pc, r0	; <UNPREDICTABLE>
	...
    1778:	00001800 	andeq	r1, r0, r0, lsl #16
    177c:	50000100 	andpl	r0, r0, r0, lsl #2
    1780:	00000018 	andeq	r0, r0, r8, lsl r0
    1784:	00000154 	andeq	r0, r0, r4, asr r1
    1788:	01f30004 	mvnseq	r0, r4
    178c:	00009f50 	andeq	r9, r0, r0, asr pc
	...
    1798:	001c0000 	andseq	r0, ip, r0
    179c:	00010000 	andeq	r0, r1, r0
    17a0:	00001c51 	andeq	r1, r0, r1, asr ip
    17a4:	00015400 	andeq	r5, r1, r0, lsl #8
    17a8:	f3000400 	vshl.u8	d0, d0, d0
    17ac:	009f5101 	addseq	r5, pc, r1, lsl #2
    17b0:	00000000 	andeq	r0, r0, r0
    17b4:	10000000 	andne	r0, r0, r0
    17b8:	34000000 	strcc	r0, [r0], #-0
    17bc:	01000001 	tsteq	r0, r1
    17c0:	00005500 	andeq	r5, r0, r0, lsl #10
    17c4:	00000000 	andeq	r0, r0, r0
    17c8:	00100000 	andseq	r0, r0, r0
    17cc:	00340000 	eorseq	r0, r4, r0
    17d0:	00010000 	andeq	r0, r1, r0
    17d4:	00003455 	andeq	r3, r0, r5, asr r4
    17d8:	00013400 	andeq	r3, r1, r0, lsl #8
    17dc:	58000100 	stmdapl	r0, {r8}
    17e0:	00000134 	andeq	r0, r0, r4, lsr r1
    17e4:	00000154 	andeq	r0, r0, r4, asr r1
    17e8:	00550001 	subseq	r0, r5, r1
    17ec:	00000000 	andeq	r0, r0, r0
    17f0:	14000000 	strne	r0, [r0], #-0
    17f4:	34000000 	strcc	r0, [r0], #-0
    17f8:	01000001 	tsteq	r0, r1
    17fc:	00005500 	andeq	r5, r0, r0, lsl #10
    1800:	00000000 	andeq	r0, r0, r0
    1804:	00200000 	eoreq	r0, r0, r0
    1808:	01340000 	teqeq	r4, r0
    180c:	00010000 	andeq	r0, r1, r0
    1810:	00000055 	andeq	r0, r0, r5, asr r0
    1814:	00000000 	andeq	r0, r0, r0
    1818:	00002400 	andeq	r2, r0, r0, lsl #8
    181c:	00002800 	andeq	r2, r0, r0, lsl #16
    1820:	53000100 	movwpl	r0, #256	; 0x100
	...
    182c:	00000034 	andeq	r0, r0, r4, lsr r0
    1830:	00000054 	andeq	r0, r0, r4, asr r0
    1834:	54580001 	ldrbpl	r0, [r8], #-1
    1838:	34000000 	strcc	r0, [r0], #-0
    183c:	05000001 	streq	r0, [r0, #-1]
    1840:	31007500 	tstcc	r0, r0, lsl #10
    1844:	00009f24 	andeq	r9, r0, r4, lsr #30
    1848:	00000000 	andeq	r0, r0, r0
    184c:	00340000 	eorseq	r0, r4, r0
    1850:	003c0000 	eorseq	r0, ip, r0
    1854:	00050000 	andeq	r0, r5, r0
    1858:	1a310077 	bne	c41a3c <__bss_end__+0xc35a84>
    185c:	00003c9f 	muleq	r0, pc, ip	; <UNPREDICTABLE>
    1860:	00003f00 	andeq	r3, r0, r0, lsl #30
    1864:	51000100 	mrspl	r0, (UNDEF: 16)
    1868:	0000003f 	andeq	r0, r0, pc, lsr r0
    186c:	00000154 	andeq	r0, r0, r4, asr r1
    1870:	00770005 	rsbseq	r0, r7, r5
    1874:	009f1a31 	addseq	r1, pc, r1, lsr sl	; <UNPREDICTABLE>
    1878:	00000000 	andeq	r0, r0, r0
    187c:	40000000 	andmi	r0, r0, r0
    1880:	54000000 	strpl	r0, [r0], #-0
    1884:	01000000 	mrseq	r0, (UNDEF: 0)
    1888:	00545800 	subseq	r5, r4, r0, lsl #16
    188c:	01340000 	teqeq	r4, r0
    1890:	00050000 	andeq	r0, r5, r0
    1894:	24310075 	ldrtcs	r0, [r1], #-117	; 0x75
    1898:	0000009f 	muleq	r0, pc, r0	; <UNPREDICTABLE>
    189c:	00000000 	andeq	r0, r0, r0
    18a0:	00004400 	andeq	r4, r0, r0, lsl #8
    18a4:	00004800 	andeq	r4, r0, r0, lsl #16
    18a8:	53000100 	movwpl	r0, #256	; 0x100
	...
    18b4:	00000054 	andeq	r0, r0, r4, asr r0
    18b8:	00000074 	andeq	r0, r0, r4, ror r0
    18bc:	74580001 	ldrbvc	r0, [r8], #-1
    18c0:	34000000 	strcc	r0, [r0], #-0
    18c4:	08000001 	stmdaeq	r0, {r0}
    18c8:	31007500 	tstcc	r0, r0, lsl #10
    18cc:	22007524 	andcs	r7, r0, #36, 10	; 0x9000000
    18d0:	0000009f 	muleq	r0, pc, r0	; <UNPREDICTABLE>
    18d4:	00000000 	andeq	r0, r0, r0
    18d8:	00006000 	andeq	r6, r0, r0
    18dc:	00007400 	andeq	r7, r0, r0, lsl #8
    18e0:	58000100 	stmdapl	r0, {r8}
    18e4:	00000074 	andeq	r0, r0, r4, ror r0
    18e8:	00000134 	andeq	r0, r0, r4, lsr r1
    18ec:	00750008 	rsbseq	r0, r5, r8
    18f0:	00752431 	rsbseq	r2, r5, r1, lsr r4
    18f4:	00009f22 	andeq	r9, r0, r2, lsr #30
    18f8:	00000000 	andeq	r0, r0, r0
    18fc:	00640000 	rsbeq	r0, r4, r0
    1900:	00680000 	rsbeq	r0, r8, r0
    1904:	00010000 	andeq	r0, r1, r0
    1908:	00000053 	andeq	r0, r0, r3, asr r0
    190c:	00000000 	andeq	r0, r0, r0
    1910:	00007400 	andeq	r7, r0, r0, lsl #8
    1914:	00009400 	andeq	r9, r0, r0, lsl #8
    1918:	58000100 	stmdapl	r0, {r8}
    191c:	00000094 	muleq	r0, r4, r0
    1920:	00000134 	andeq	r0, r0, r4, lsr r1
    1924:	00750005 	rsbseq	r0, r5, r5
    1928:	009f2432 	addseq	r2, pc, r2, lsr r4	; <UNPREDICTABLE>
    192c:	00000000 	andeq	r0, r0, r0
    1930:	80000000 	andhi	r0, r0, r0
    1934:	94000000 	strls	r0, [r0], #-0
    1938:	01000000 	mrseq	r0, (UNDEF: 0)
    193c:	00945800 	addseq	r5, r4, r0, lsl #16
    1940:	01340000 	teqeq	r4, r0
    1944:	00050000 	andeq	r0, r5, r0
    1948:	24320075 	ldrtcs	r0, [r2], #-117	; 0x75
    194c:	0000009f 	muleq	r0, pc, r0	; <UNPREDICTABLE>
    1950:	00000000 	andeq	r0, r0, r0
    1954:	00008400 	andeq	r8, r0, r0, lsl #8
    1958:	00008800 	andeq	r8, r0, r0, lsl #16
    195c:	53000100 	movwpl	r0, #256	; 0x100
	...
    1968:	00000094 	muleq	r0, r4, r0
    196c:	000000b4 	strheq	r0, [r0], -r4
    1970:	b4580001 	ldrblt	r0, [r8], #-1
    1974:	34000000 	strcc	r0, [r0], #-0
    1978:	08000001 	stmdaeq	r0, {r0}
    197c:	32007500 	andcc	r7, r0, #0, 10
    1980:	22007524 	andcs	r7, r0, #36, 10	; 0x9000000
    1984:	0000009f 	muleq	r0, pc, r0	; <UNPREDICTABLE>
    1988:	00000000 	andeq	r0, r0, r0
    198c:	0000a000 	andeq	sl, r0, r0
    1990:	0000b400 	andeq	fp, r0, r0, lsl #8
    1994:	58000100 	stmdapl	r0, {r8}
    1998:	000000b4 	strheq	r0, [r0], -r4
    199c:	00000134 	andeq	r0, r0, r4, lsr r1
    19a0:	00750008 	rsbseq	r0, r5, r8
    19a4:	00752432 	rsbseq	r2, r5, r2, lsr r4
    19a8:	00009f22 	andeq	r9, r0, r2, lsr #30
    19ac:	00000000 	andeq	r0, r0, r0
    19b0:	00a40000 	adceq	r0, r4, r0
    19b4:	00a80000 	adceq	r0, r8, r0
    19b8:	00010000 	andeq	r0, r1, r0
    19bc:	00000053 	andeq	r0, r0, r3, asr r0
    19c0:	00000000 	andeq	r0, r0, r0
    19c4:	0000b400 	andeq	fp, r0, r0, lsl #8
    19c8:	0000d400 	andeq	sp, r0, r0, lsl #8
    19cc:	58000100 	stmdapl	r0, {r8}
    19d0:	000000d4 	ldrdeq	r0, [r0], -r4
    19d4:	00000134 	andeq	r0, r0, r4, lsr r1
    19d8:	0075000a 	rsbseq	r0, r5, sl
    19dc:	00752432 	rsbseq	r2, r5, r2, lsr r4
    19e0:	9f222431 	svcls	0x00222431
	...
    19ec:	000000c0 	andeq	r0, r0, r0, asr #1
    19f0:	000000d4 	ldrdeq	r0, [r0], -r4
    19f4:	d4580001 	ldrble	r0, [r8], #-1
    19f8:	34000000 	strcc	r0, [r0], #-0
    19fc:	0a000001 	beq	1a08 <_start-0x65f8>
    1a00:	32007500 	andcc	r7, r0, #0, 10
    1a04:	31007524 	tstcc	r0, r4, lsr #10
    1a08:	009f2224 	addseq	r2, pc, r4, lsr #4
    1a0c:	00000000 	andeq	r0, r0, r0
    1a10:	c4000000 	strgt	r0, [r0], #-0
    1a14:	c8000000 	stmdagt	r0, {}	; <UNPREDICTABLE>
    1a18:	01000000 	mrseq	r0, (UNDEF: 0)
    1a1c:	00005300 	andeq	r5, r0, r0, lsl #6
    1a20:	00000000 	andeq	r0, r0, r0
    1a24:	00d40000 	sbcseq	r0, r4, r0
    1a28:	00f40000 	rscseq	r0, r4, r0
    1a2c:	00010000 	andeq	r0, r1, r0
    1a30:	0000f458 	andeq	pc, r0, r8, asr r4	; <UNPREDICTABLE>
    1a34:	00013400 	andeq	r3, r1, r0, lsl #8
    1a38:	75000d00 	strvc	r0, [r0, #-3328]	; 0xd00
    1a3c:	75243200 	strvc	r3, [r4, #-512]!	; 0x200
    1a40:	22243100 	eorcs	r3, r4, #0, 2
    1a44:	9f220075 	svcls	0x00220075
	...
    1a50:	000000e0 	andeq	r0, r0, r0, ror #1
    1a54:	000000f4 	strdeq	r0, [r0], -r4
    1a58:	f4580001 			; <UNDEFINED> instruction: 0xf4580001
    1a5c:	34000000 	strcc	r0, [r0], #-0
    1a60:	0d000001 	stceq	0, cr0, [r0, #-4]
    1a64:	32007500 	andcc	r7, r0, #0, 10
    1a68:	31007524 	tstcc	r0, r4, lsr #10
    1a6c:	00752224 	rsbseq	r2, r5, r4, lsr #4
    1a70:	00009f22 	andeq	r9, r0, r2, lsr #30
    1a74:	00000000 	andeq	r0, r0, r0
    1a78:	00e40000 	rsceq	r0, r4, r0
    1a7c:	00e80000 	rsceq	r0, r8, r0
    1a80:	00010000 	andeq	r0, r1, r0
    1a84:	00000053 	andeq	r0, r0, r3, asr r0
    1a88:	00000000 	andeq	r0, r0, r0
    1a8c:	0000f400 	andeq	pc, r0, r0, lsl #8
    1a90:	00011400 	andeq	r1, r1, r0, lsl #8
    1a94:	58000100 	stmdapl	r0, {r8}
    1a98:	00000114 	andeq	r0, r0, r4, lsl r1
    1a9c:	00000134 	andeq	r0, r0, r4, lsr r1
    1aa0:	00750005 	rsbseq	r0, r5, r5
    1aa4:	009f2433 	addseq	r2, pc, r3, lsr r4	; <UNPREDICTABLE>
	...
    1ab0:	14000001 	strne	r0, [r0], #-1
    1ab4:	01000001 	tsteq	r0, r1
    1ab8:	01145800 	tsteq	r4, r0, lsl #16
    1abc:	01340000 	teqeq	r4, r0
    1ac0:	00050000 	andeq	r0, r5, r0
    1ac4:	24330075 	ldrtcs	r0, [r3], #-117	; 0x75
    1ac8:	0000009f 	muleq	r0, pc, r0	; <UNPREDICTABLE>
    1acc:	00000000 	andeq	r0, r0, r0
    1ad0:	00010400 	andeq	r0, r1, r0, lsl #8
    1ad4:	00010800 	andeq	r0, r1, r0, lsl #16
    1ad8:	53000100 	movwpl	r0, #256	; 0x100
	...
    1ae4:	00000114 	andeq	r0, r0, r4, lsl r1
    1ae8:	0000011c 	andeq	r0, r0, ip, lsl r1
    1aec:	00770006 	rsbseq	r0, r7, r6
    1af0:	9f1a8008 	svcls	0x001a8008
    1af4:	0000011c 	andeq	r0, r0, ip, lsl r1
    1af8:	0000011f 	andeq	r0, r0, pc, lsl r1
    1afc:	1f510001 	svcne	0x00510001
    1b00:	54000001 	strpl	r0, [r0], #-1
    1b04:	06000001 	streq	r0, [r0], -r1
    1b08:	08007700 	stmdaeq	r0, {r8, r9, sl, ip, sp, lr}
    1b0c:	009f1a80 	addseq	r1, pc, r0, lsl #21
    1b10:	00000000 	andeq	r0, r0, r0
    1b14:	24000000 	strcs	r0, [r0], #-0
    1b18:	28000001 	stmdacs	r0, {r0}
    1b1c:	01000001 	tsteq	r0, r1
    1b20:	00005300 	andeq	r5, r0, r0, lsl #6
    1b24:	00000000 	andeq	r0, r0, r0
    1b28:	01440000 	mrseq	r0, (UNDEF: 68)
    1b2c:	01480000 	mrseq	r0, (UNDEF: 72)
    1b30:	00010000 	andeq	r0, r1, r0
    1b34:	00000053 	andeq	r0, r0, r3, asr r0
    1b38:	00000000 	andeq	r0, r0, r0
    1b3c:	00015400 	andeq	r5, r1, r0, lsl #8
    1b40:	00016b00 	andeq	r6, r1, r0, lsl #22
    1b44:	50000100 	andpl	r0, r0, r0, lsl #2
    1b48:	0000016b 	andeq	r0, r0, fp, ror #2
    1b4c:	000001d0 	ldrdeq	r0, [r0], -r0	; <UNPREDICTABLE>
    1b50:	d0590001 	subsle	r0, r9, r1
    1b54:	0c000001 	stceq	0, cr0, [r0], {1}
    1b58:	04000003 	streq	r0, [r0], #-3
    1b5c:	5001f300 	andpl	pc, r1, r0, lsl #6
    1b60:	00030c9f 	muleq	r3, pc, ip	; <UNPREDICTABLE>
    1b64:	00031400 	andeq	r1, r3, r0, lsl #8
    1b68:	59000100 	stmdbpl	r0, {r8}
    1b6c:	00000314 	andeq	r0, r0, r4, lsl r3
    1b70:	0000031c 	andeq	r0, r0, ip, lsl r3
    1b74:	01f30004 	mvnseq	r0, r4
    1b78:	00009f50 	andeq	r9, r0, r0, asr pc
    1b7c:	00000000 	andeq	r0, r0, r0
    1b80:	01540000 	cmpeq	r4, r0
    1b84:	016b0000 	cmneq	fp, r0
    1b88:	00010000 	andeq	r0, r1, r0
    1b8c:	00016b51 	andeq	r6, r1, r1, asr fp
    1b90:	00031c00 	andeq	r1, r3, r0, lsl #24
    1b94:	56000100 	strpl	r0, [r0], -r0, lsl #2
	...
    1ba0:	000001a8 	andeq	r0, r0, r8, lsr #3
    1ba4:	00000298 	muleq	r0, r8, r2
    1ba8:	00580001 	subseq	r0, r8, r1
    1bac:	00000000 	andeq	r0, r0, r0
    1bb0:	ac000000 	stcge	0, cr0, [r0], {-0}
    1bb4:	d0000001 	andle	r0, r0, r1
    1bb8:	01000002 	tsteq	r0, r2
    1bbc:	00005400 	andeq	r5, r0, r0, lsl #8
    1bc0:	00000000 	andeq	r0, r0, r0
    1bc4:	01ac0000 			; <UNDEFINED> instruction: 0x01ac0000
    1bc8:	02d00000 	sbcseq	r0, r0, #0
    1bcc:	00050000 	andeq	r0, r5, r0
    1bd0:	25310074 	ldrcs	r0, [r1, #-116]!	; 0x74
    1bd4:	0000009f 	muleq	r0, pc, r0	; <UNPREDICTABLE>
    1bd8:	00000000 	andeq	r0, r0, r0
    1bdc:	0001ac00 	andeq	sl, r1, r0, lsl #24
    1be0:	0001d000 	andeq	sp, r1, r0
    1be4:	30000200 	andcc	r0, r0, r0, lsl #4
    1be8:	0001d09f 	muleq	r1, pc, r0	; <UNPREDICTABLE>
    1bec:	00030c00 	andeq	r0, r3, r0, lsl #24
    1bf0:	59000100 	stmdbpl	r0, {r8}
    1bf4:	00000314 	andeq	r0, r0, r4, lsl r3
    1bf8:	0000031c 	andeq	r0, r0, ip, lsl r3
    1bfc:	00590001 	subseq	r0, r9, r1
    1c00:	00000000 	andeq	r0, r0, r0
    1c04:	68000000 	stmdavs	r0, {}	; <UNPREDICTABLE>
    1c08:	6b000001 	blvs	1c14 <_start-0x63ec>
    1c0c:	01000001 	tsteq	r0, r1
    1c10:	016b5100 	cmneq	fp, r0, lsl #2
    1c14:	031c0000 	tsteq	ip, #0
    1c18:	00010000 	andeq	r0, r1, r0
    1c1c:	00000056 	andeq	r0, r0, r6, asr r0
    1c20:	00000000 	andeq	r0, r0, r0
    1c24:	00017000 	andeq	r7, r1, r0
    1c28:	0001ac00 	andeq	sl, r1, r0, lsl #24
    1c2c:	54000100 	strpl	r0, [r0], #-256	; 0x100
    1c30:	0000030c 	andeq	r0, r0, ip, lsl #6
    1c34:	00000314 	andeq	r0, r0, r4, lsl r3
    1c38:	00540001 	subseq	r0, r4, r1
    1c3c:	00000000 	andeq	r0, r0, r0
    1c40:	a8000000 	stmdage	r0, {}	; <UNPREDICTABLE>
    1c44:	c4000001 	strgt	r0, [r0], #-1
    1c48:	01000001 	tsteq	r0, r1
    1c4c:	00005800 	andeq	r5, r0, r0, lsl #16
    1c50:	00000000 	andeq	r0, r0, r0
    1c54:	01b00000 	movseq	r0, r0
    1c58:	01cb0000 	biceq	r0, fp, r0
    1c5c:	00010000 	andeq	r0, r1, r0
    1c60:	0001cb52 	andeq	ip, r1, r2, asr fp
    1c64:	0002d000 	andeq	sp, r2, r0
    1c68:	74000800 	strvc	r0, [r0], #-2048	; 0x800
    1c6c:	74253100 	strtvc	r3, [r5], #-256	; 0x100
    1c70:	009f2200 	addseq	r2, pc, r0, lsl #4
    1c74:	00000000 	andeq	r0, r0, r0
    1c78:	b0000000 	andlt	r0, r0, r0
    1c7c:	c4000001 	strgt	r0, [r0], #-1
    1c80:	01000001 	tsteq	r0, r1
    1c84:	00005800 	andeq	r5, r0, r0, lsl #16
    1c88:	00000000 	andeq	r0, r0, r0
    1c8c:	01b40000 			; <UNDEFINED> instruction: 0x01b40000
    1c90:	01b80000 			; <UNDEFINED> instruction: 0x01b80000
    1c94:	00010000 	andeq	r0, r1, r0
    1c98:	00000053 	andeq	r0, r0, r3, asr r0
    1c9c:	00000000 	andeq	r0, r0, r0
    1ca0:	0001d000 	andeq	sp, r1, r0
    1ca4:	0002d000 	andeq	sp, r2, r0
    1ca8:	54000100 	strpl	r0, [r0], #-256	; 0x100
	...
    1cb4:	000001d0 	ldrdeq	r0, [r0], -r0	; <UNPREDICTABLE>
    1cb8:	000001e4 	andeq	r0, r0, r4, ror #3
    1cbc:	00580001 	subseq	r0, r8, r1
    1cc0:	00000000 	andeq	r0, r0, r0
    1cc4:	d4000000 	strle	r0, [r0], #-0
    1cc8:	d8000001 	stmdale	r0, {r0}
    1ccc:	01000001 	tsteq	r0, r1
    1cd0:	00005300 	andeq	r5, r0, r0, lsl #6
    1cd4:	00000000 	andeq	r0, r0, r0
    1cd8:	01f40000 	mvnseq	r0, r0
    1cdc:	02d00000 	sbcseq	r0, r0, #0
    1ce0:	00010000 	andeq	r0, r1, r0
    1ce4:	00000054 	andeq	r0, r0, r4, asr r0
    1ce8:	00000000 	andeq	r0, r0, r0
    1cec:	0001f400 	andeq	pc, r1, r0, lsl #8
    1cf0:	00020800 	andeq	r0, r2, r0, lsl #16
    1cf4:	58000100 	stmdapl	r0, {r8}
	...
    1d00:	000001f8 	strdeq	r0, [r0], -r8
    1d04:	000001fc 	strdeq	r0, [r0], -ip
    1d08:	00530001 	subseq	r0, r3, r1
    1d0c:	00000000 	andeq	r0, r0, r0
    1d10:	18000000 	stmdane	r0, {}	; <UNPREDICTABLE>
    1d14:	d0000002 	andle	r0, r0, r2
    1d18:	01000002 	tsteq	r0, r2
    1d1c:	00005400 	andeq	r5, r0, r0, lsl #8
    1d20:	00000000 	andeq	r0, r0, r0
    1d24:	02180000 	andseq	r0, r8, #0
    1d28:	022c0000 	eoreq	r0, ip, #0
    1d2c:	00010000 	andeq	r0, r1, r0
    1d30:	00000058 	andeq	r0, r0, r8, asr r0
    1d34:	00000000 	andeq	r0, r0, r0
    1d38:	00021c00 	andeq	r1, r2, r0, lsl #24
    1d3c:	00022000 	andeq	r2, r2, r0
    1d40:	53000100 	movwpl	r0, #256	; 0x100
	...
    1d4c:	0000023c 	andeq	r0, r0, ip, lsr r2
    1d50:	000002d0 	ldrdeq	r0, [r0], -r0	; <UNPREDICTABLE>
    1d54:	00540001 	subseq	r0, r4, r1
    1d58:	00000000 	andeq	r0, r0, r0
    1d5c:	3c000000 	stccc	0, cr0, [r0], {-0}
    1d60:	50000002 	andpl	r0, r0, r2
    1d64:	01000002 	tsteq	r0, r2
    1d68:	00005800 	andeq	r5, r0, r0, lsl #16
    1d6c:	00000000 	andeq	r0, r0, r0
    1d70:	02400000 	subeq	r0, r0, #0
    1d74:	02440000 	subeq	r0, r4, #0
    1d78:	00010000 	andeq	r0, r1, r0
    1d7c:	00000053 	andeq	r0, r0, r3, asr r0
    1d80:	00000000 	andeq	r0, r0, r0
    1d84:	00026000 	andeq	r6, r2, r0
    1d88:	0002d000 	andeq	sp, r2, r0
    1d8c:	54000100 	strpl	r0, [r0], #-256	; 0x100
	...
    1d98:	00000260 	andeq	r0, r0, r0, ror #4
    1d9c:	00000274 	andeq	r0, r0, r4, ror r2
    1da0:	00580001 	subseq	r0, r8, r1
    1da4:	00000000 	andeq	r0, r0, r0
    1da8:	64000000 	strvs	r0, [r0], #-0
    1dac:	68000002 	stmdavs	r0, {r1}
    1db0:	01000002 	tsteq	r0, r2
    1db4:	00005300 	andeq	r5, r0, r0, lsl #6
    1db8:	00000000 	andeq	r0, r0, r0
    1dbc:	02840000 	addeq	r0, r4, #0
    1dc0:	02d00000 	sbcseq	r0, r0, #0
    1dc4:	00010000 	andeq	r0, r1, r0
    1dc8:	00000054 	andeq	r0, r0, r4, asr r0
    1dcc:	00000000 	andeq	r0, r0, r0
    1dd0:	00028400 	andeq	r8, r2, r0, lsl #8
    1dd4:	00029800 	andeq	r9, r2, r0, lsl #16
    1dd8:	58000100 	stmdapl	r0, {r8}
	...
    1de4:	00000288 	andeq	r0, r0, r8, lsl #5
    1de8:	0000028c 	andeq	r0, r0, ip, lsl #5
    1dec:	00530001 	subseq	r0, r3, r1
    1df0:	00000000 	andeq	r0, r0, r0
    1df4:	a8000000 	stmdage	r0, {}	; <UNPREDICTABLE>
    1df8:	d0000002 	andle	r0, r0, r2
    1dfc:	01000002 	tsteq	r0, r2
    1e00:	00005400 	andeq	r5, r0, r0, lsl #8
    1e04:	00000000 	andeq	r0, r0, r0
    1e08:	02ac0000 	adceq	r0, ip, #0
    1e0c:	02b00000 	adcseq	r0, r0, #0
    1e10:	00010000 	andeq	r0, r1, r0
    1e14:	00000053 	andeq	r0, r0, r3, asr r0
    1e18:	00000000 	andeq	r0, r0, r0
    1e1c:	0002c800 	andeq	ip, r2, r0, lsl #16
    1e20:	00030c00 	andeq	r0, r3, r0, lsl #24
    1e24:	30000200 	andcc	r0, r0, r0, lsl #4
    1e28:	0003149f 	muleq	r3, pc, r4	; <UNPREDICTABLE>
    1e2c:	00031c00 	andeq	r1, r3, r0, lsl #24
    1e30:	30000200 	andcc	r0, r0, r0, lsl #4
    1e34:	0000009f 	muleq	r0, pc, r0	; <UNPREDICTABLE>
    1e38:	00000000 	andeq	r0, r0, r0
    1e3c:	0002c800 	andeq	ip, r2, r0, lsl #16
    1e40:	00030c00 	andeq	r0, r3, r0, lsl #24
    1e44:	55000100 	strpl	r0, [r0, #-256]	; 0x100
    1e48:	00000314 	andeq	r0, r0, r4, lsl r3
    1e4c:	0000031c 	andeq	r0, r0, ip, lsl r3
    1e50:	00550001 	subseq	r0, r5, r1
    1e54:	00000000 	andeq	r0, r0, r0
    1e58:	d0000000 	andle	r0, r0, r0
    1e5c:	0c000002 	stceq	0, cr0, [r0], {2}
    1e60:	01000003 	tsteq	r0, r3
    1e64:	03145400 	tsteq	r4, #0, 8
    1e68:	031c0000 	tsteq	ip, #0
    1e6c:	00010000 	andeq	r0, r1, r0
    1e70:	00000054 	andeq	r0, r0, r4, asr r0
    1e74:	00000000 	andeq	r0, r0, r0
    1e78:	00031c00 	andeq	r1, r3, r0, lsl #24
    1e7c:	00033b00 	andeq	r3, r3, r0, lsl #22
    1e80:	50000100 	andpl	r0, r0, r0, lsl #2
    1e84:	0000033b 	andeq	r0, r0, fp, lsr r3
    1e88:	00000354 	andeq	r0, r0, r4, asr r3
    1e8c:	54580001 	ldrbpl	r0, [r8], #-1
    1e90:	64000003 	strvs	r0, [r0], #-3
    1e94:	01000003 	tsteq	r0, r3
    1e98:	03645000 	cmneq	r4, #0
    1e9c:	03ac0000 			; <UNDEFINED> instruction: 0x03ac0000
    1ea0:	00010000 	andeq	r0, r1, r0
    1ea4:	00000058 	andeq	r0, r0, r8, asr r0
    1ea8:	00000000 	andeq	r0, r0, r0
    1eac:	00031c00 	andeq	r1, r3, r0, lsl #24
    1eb0:	00033b00 	andeq	r3, r3, r0, lsl #22
    1eb4:	51000100 	mrspl	r0, (UNDEF: 16)
    1eb8:	0000033b 	andeq	r0, r0, fp, lsr r3
    1ebc:	00000354 	andeq	r0, r0, r4, asr r3
    1ec0:	54560001 	ldrbpl	r0, [r6], #-1
    1ec4:	64000003 	strvs	r0, [r0], #-3
    1ec8:	01000003 	tsteq	r0, r3
    1ecc:	03645100 	cmneq	r4, #0, 2
    1ed0:	03ac0000 			; <UNDEFINED> instruction: 0x03ac0000
    1ed4:	00010000 	andeq	r0, r1, r0
    1ed8:	00000056 	andeq	r0, r0, r6, asr r0
    1edc:	00000000 	andeq	r0, r0, r0
    1ee0:	00031c00 	andeq	r1, r3, r0, lsl #24
    1ee4:	00033b00 	andeq	r3, r3, r0, lsl #22
    1ee8:	52000100 	andpl	r0, r0, #0, 2
    1eec:	0000033b 	andeq	r0, r0, fp, lsr r3
    1ef0:	00000354 	andeq	r0, r0, r4, asr r3
    1ef4:	01f30004 	mvnseq	r0, r4
    1ef8:	03549f52 	cmpeq	r4, #328	; 0x148
    1efc:	03640000 	cmneq	r4, #0
    1f00:	00010000 	andeq	r0, r1, r0
    1f04:	00036452 	andeq	r6, r3, r2, asr r4
    1f08:	0003ac00 	andeq	sl, r3, r0, lsl #24
    1f0c:	77000300 	strvc	r0, [r0, -r0, lsl #6]
    1f10:	00009f01 	andeq	r9, r0, r1, lsl #30
    1f14:	00000000 	andeq	r0, r0, r0
    1f18:	031c0000 	tsteq	ip, #0
    1f1c:	033b0000 	teqeq	fp, #0
    1f20:	00010000 	andeq	r0, r1, r0
    1f24:	00033b53 	andeq	r3, r3, r3, asr fp
    1f28:	00035400 	andeq	r5, r3, r0, lsl #8
    1f2c:	f3000400 	vshl.u8	d0, d0, d0
    1f30:	549f5301 	ldrpl	r5, [pc], #769	; 1f38 <_start-0x60c8>
    1f34:	64000003 	strvs	r0, [r0], #-3
    1f38:	01000003 	tsteq	r0, r3
    1f3c:	03645300 	cmneq	r4, #0, 6
    1f40:	03ac0000 			; <UNDEFINED> instruction: 0x03ac0000
    1f44:	00040000 	andeq	r0, r4, r0
    1f48:	9f5301f3 	svcls	0x005301f3
	...
    1f54:	0000035c 	andeq	r0, r0, ip, asr r3
    1f58:	00000364 	andeq	r0, r0, r4, ror #6
    1f5c:	9f300002 	svcls	0x00300002
    1f60:	00000364 	andeq	r0, r0, r4, ror #6
    1f64:	000003ac 	andeq	r0, r0, ip, lsr #7
    1f68:	00540001 	subseq	r0, r4, r1
    1f6c:	00000000 	andeq	r0, r0, r0
    1f70:	74000000 	strvc	r0, [r0], #-0
    1f74:	84000003 	strhi	r0, [r0], #-3
    1f78:	01000003 	tsteq	r0, r3
    1f7c:	00005000 	andeq	r5, r0, r0
    1f80:	00000000 	andeq	r0, r0, r0
    1f84:	03ac0000 			; <UNDEFINED> instruction: 0x03ac0000
    1f88:	03c70000 	biceq	r0, r7, #0
    1f8c:	00010000 	andeq	r0, r1, r0
    1f90:	0003c750 	andeq	ip, r3, r0, asr r7
    1f94:	0003e000 	andeq	lr, r3, r0
    1f98:	57000100 	strpl	r0, [r0, -r0, lsl #2]
    1f9c:	000003e0 	andeq	r0, r0, r0, ror #7
    1fa0:	000003f0 	strdeq	r0, [r0], -r0	; <UNPREDICTABLE>
    1fa4:	f0500001 			; <UNDEFINED> instruction: 0xf0500001
    1fa8:	28000003 	stmdacs	r0, {r0, r1}
    1fac:	01000004 	tsteq	r0, r4
    1fb0:	00005700 	andeq	r5, r0, r0, lsl #14
    1fb4:	00000000 	andeq	r0, r0, r0
    1fb8:	03ac0000 			; <UNDEFINED> instruction: 0x03ac0000
    1fbc:	03c70000 	biceq	r0, r7, #0
    1fc0:	00010000 	andeq	r0, r1, r0
    1fc4:	0003c751 	andeq	ip, r3, r1, asr r7
    1fc8:	0003e000 	andeq	lr, r3, r0
    1fcc:	55000100 	strpl	r0, [r0, #-256]	; 0x100
    1fd0:	000003e0 	andeq	r0, r0, r0, ror #7
    1fd4:	000003f0 	strdeq	r0, [r0], -r0	; <UNPREDICTABLE>
    1fd8:	f0510001 			; <UNDEFINED> instruction: 0xf0510001
    1fdc:	28000003 	stmdacs	r0, {r0, r1}
    1fe0:	01000004 	tsteq	r0, r4
    1fe4:	00005500 	andeq	r5, r0, r0, lsl #10
    1fe8:	00000000 	andeq	r0, r0, r0
    1fec:	03ac0000 			; <UNDEFINED> instruction: 0x03ac0000
    1ff0:	03c70000 	biceq	r0, r7, #0
    1ff4:	00010000 	andeq	r0, r1, r0
    1ff8:	0003c752 	andeq	ip, r3, r2, asr r7
    1ffc:	0003e000 	andeq	lr, r3, r0
    2000:	f3000400 	vshl.u8	d0, d0, d0
    2004:	e09f5201 	adds	r5, pc, r1, lsl #4
    2008:	f0000003 			; <UNDEFINED> instruction: 0xf0000003
    200c:	01000003 	tsteq	r0, r3
    2010:	03f05200 	mvnseq	r5, #0, 4
    2014:	04280000 	strteq	r0, [r8], #-0
    2018:	00030000 	andeq	r0, r3, r0
    201c:	009f0176 	addseq	r0, pc, r6, ror r1	; <UNPREDICTABLE>
    2020:	00000000 	andeq	r0, r0, r0
    2024:	ac000000 	stcge	0, cr0, [r0], {-0}
    2028:	c7000003 	strgt	r0, [r0, -r3]
    202c:	01000003 	tsteq	r0, r3
    2030:	03c75300 	biceq	r5, r7, #0, 6
    2034:	03e00000 	mvneq	r0, #0
    2038:	00010000 	andeq	r0, r1, r0
    203c:	0003e058 	andeq	lr, r3, r8, asr r0
    2040:	0003f000 	andeq	pc, r3, r0
    2044:	53000100 	movwpl	r0, #256	; 0x100
    2048:	000003f0 	strdeq	r0, [r0], -r0	; <UNPREDICTABLE>
    204c:	00000428 	andeq	r0, r0, r8, lsr #8
    2050:	00580001 	subseq	r0, r8, r1
    2054:	00000000 	andeq	r0, r0, r0
    2058:	e8000000 	stmda	r0, {}	; <UNPREDICTABLE>
    205c:	f0000003 			; <UNDEFINED> instruction: 0xf0000003
    2060:	02000003 	andeq	r0, r0, #3
    2064:	f09f3000 			; <UNDEFINED> instruction: 0xf09f3000
    2068:	28000003 	stmdacs	r0, {r0, r1}
    206c:	01000004 	tsteq	r0, r4
    2070:	00005400 	andeq	r5, r0, r0, lsl #8
    2074:	00000000 	andeq	r0, r0, r0
    2078:	04280000 	strteq	r0, [r8], #-0
    207c:	04470000 	strbeq	r0, [r7], #-0
    2080:	00010000 	andeq	r0, r1, r0
    2084:	00044751 	andeq	r4, r4, r1, asr r7
    2088:	0004e800 	andeq	lr, r4, r0, lsl #16
    208c:	f3000400 	vshl.u8	d0, d0, d0
    2090:	009f5101 	addseq	r5, pc, r1, lsl #2
    2094:	00000000 	andeq	r0, r0, r0
    2098:	28000000 	stmdacs	r0, {}	; <UNPREDICTABLE>
    209c:	47000004 	strmi	r0, [r0, -r4]
    20a0:	01000004 	tsteq	r0, r4
    20a4:	04475200 	strbeq	r5, [r7], #-512	; 0x200
    20a8:	04e80000 	strbteq	r0, [r8], #0
    20ac:	00040000 	andeq	r0, r4, r0
    20b0:	9f5201f3 	svcls	0x005201f3
	...
    20bc:	00000428 	andeq	r0, r0, r8, lsr #8
    20c0:	00000447 	andeq	r0, r0, r7, asr #8
    20c4:	47530001 	ldrbmi	r0, [r3, -r1]
    20c8:	e8000004 	stmda	r0, {r2}
    20cc:	01000004 	tsteq	r0, r4
    20d0:	00005500 	andeq	r5, r0, r0, lsl #10
    20d4:	00000000 	andeq	r0, r0, r0
    20d8:	04680000 	strbteq	r0, [r8], #-0
    20dc:	04a70000 	strteq	r0, [r7], #0
    20e0:	00010000 	andeq	r0, r1, r0
    20e4:	0004a752 	andeq	sl, r4, r2, asr r7
    20e8:	0004c000 	andeq	ip, r4, r0
    20ec:	75000600 	strvc	r0, [r0, #-1536]	; 0x600
    20f0:	1e007700 	cdpne	7, 0, cr7, cr0, cr0, {0}
    20f4:	0004c09f 	muleq	r4, pc, r0	; <UNPREDICTABLE>
    20f8:	0004e800 	andeq	lr, r4, r0, lsl #16
    20fc:	52000100 	andpl	r0, r0, #0, 2
	...
    2108:	000004e8 	andeq	r0, r0, r8, ror #9
    210c:	000004f3 	strdeq	r0, [r0], -r3
    2110:	f3500001 	vhadd.u16	d16, d0, d1
    2114:	24000004 	strcs	r0, [r0], #-4
    2118:	04000005 	streq	r0, [r0], #-5
    211c:	5001f300 	andpl	pc, r1, r0, lsl #6
    2120:	0000009f 	muleq	r0, pc, r0	; <UNPREDICTABLE>
    2124:	00000000 	andeq	r0, r0, r0
    2128:	0004f400 	andeq	pc, r4, r0, lsl #8
    212c:	0004ff00 	andeq	pc, r4, r0, lsl #30
    2130:	50000100 	andpl	r0, r0, r0, lsl #2
	...
    213c:	00000524 	andeq	r0, r0, r4, lsr #10
    2140:	00000534 	andeq	r0, r0, r4, lsr r5
    2144:	34500001 	ldrbcc	r0, [r0], #-1
    2148:	50000005 	andpl	r0, r0, r5
    214c:	01000005 	tsteq	r0, r5
    2150:	00005500 	andeq	r5, r0, r0, lsl #10
    2154:	00000000 	andeq	r0, r0, r0
    2158:	05240000 	streq	r0, [r4, #-0]!
    215c:	05340000 	ldreq	r0, [r4, #-0]!
    2160:	00010000 	andeq	r0, r1, r0
    2164:	00053451 	andeq	r3, r5, r1, asr r4
    2168:	00055000 	andeq	r5, r5, r0
    216c:	54000100 	strpl	r0, [r0], #-256	; 0x100
	...
    2178:	00000550 	andeq	r0, r0, r0, asr r5
    217c:	0000056c 	andeq	r0, r0, ip, ror #10
    2180:	6c500001 	mrrcvs	0, 0, r0, r0, cr1	; <UNPREDICTABLE>
    2184:	bc000005 	stclt	0, cr0, [r0], {5}
    2188:	01000005 	tsteq	r0, r5
    218c:	05bc5500 	ldreq	r5, [ip, #1280]!	; 0x500
    2190:	05d40000 	ldrbeq	r0, [r4]
    2194:	00040000 	andeq	r0, r4, r0
    2198:	9f5001f3 	svcls	0x005001f3
	...
    21a4:	0000057c 	andeq	r0, r0, ip, ror r5
    21a8:	0000058b 	andeq	r0, r0, fp, lsl #11
    21ac:	8b500001 	blhi	14021b8 <__bss_end__+0x13f6200>
    21b0:	a4000005 	strge	r0, [r0], #-5
    21b4:	01000005 	tsteq	r0, r5
    21b8:	05a45400 	streq	r5, [r4, #1024]!	; 0x400
    21bc:	05a80000 	streq	r0, [r8, #0]!
    21c0:	00010000 	andeq	r0, r1, r0
    21c4:	0005a850 	andeq	sl, r5, r0, asr r8
    21c8:	0005bc00 	andeq	fp, r5, r0, lsl #24
    21cc:	54000100 	strpl	r0, [r0], #-256	; 0x100
    21d0:	000005bc 			; <UNDEFINED> instruction: 0x000005bc
    21d4:	000005d4 	ldrdeq	r0, [r0], -r4
    21d8:	00500001 	subseq	r0, r0, r1
    21dc:	00000000 	andeq	r0, r0, r0
    21e0:	d4000000 	strle	r0, [r0], #-0
    21e4:	e7000005 	str	r0, [r0, -r5]
    21e8:	01000005 	tsteq	r0, r5
    21ec:	05e75000 	strbeq	r5, [r7, #0]!
    21f0:	06200000 	strteq	r0, [r0], -r0
    21f4:	00040000 	andeq	r0, r4, r0
    21f8:	9f5001f3 	svcls	0x005001f3
	...
    2204:	000005d4 	ldrdeq	r0, [r0], -r4
    2208:	000005e7 	andeq	r0, r0, r7, ror #11
    220c:	e7510001 	ldrb	r0, [r1, -r1]
    2210:	20000005 	andcs	r0, r0, r5
    2214:	04000006 	streq	r0, [r0], #-6
    2218:	5101f300 	mrspl	pc, SP_irq	; <UNPREDICTABLE>
    221c:	0000009f 	muleq	r0, pc, r0	; <UNPREDICTABLE>
    2220:	00000000 	andeq	r0, r0, r0
    2224:	0005d400 	andeq	sp, r5, r0, lsl #8
    2228:	0005e700 	andeq	lr, r5, r0, lsl #14
    222c:	52000100 	andpl	r0, r0, #0, 2
    2230:	000005e7 	andeq	r0, r0, r7, ror #11
    2234:	00000620 	andeq	r0, r0, r0, lsr #12
    2238:	01f30004 	mvnseq	r0, r4
    223c:	00009f52 	andeq	r9, r0, r2, asr pc
    2240:	00000000 	andeq	r0, r0, r0
    2244:	05d40000 	ldrbeq	r0, [r4]
    2248:	05e70000 	strbeq	r0, [r7, #0]!
    224c:	00010000 	andeq	r0, r1, r0
    2250:	0005e753 	andeq	lr, r5, r3, asr r7
    2254:	00062000 	andeq	r2, r6, r0
    2258:	f3000400 	vshl.u8	d0, d0, d0
    225c:	009f5301 	addseq	r5, pc, r1, lsl #6
    2260:	00000000 	andeq	r0, r0, r0
    2264:	e8000000 	stmda	r0, {}	; <UNPREDICTABLE>
    2268:	f3000005 	vhadd.u8	d0, d0, d5
    226c:	01000005 	tsteq	r0, r5
    2270:	060c5000 	streq	r5, [ip], -r0
    2274:	06200000 	strteq	r0, [r0], -r0
    2278:	00010000 	andeq	r0, r1, r0
    227c:	00000050 	andeq	r0, r0, r0, asr r0
    2280:	00000000 	andeq	r0, r0, r0
    2284:	0000fc00 	andeq	pc, r0, r0, lsl #24
    2288:	00010400 	andeq	r0, r1, r0, lsl #8
    228c:	50000100 	andpl	r0, r0, r0, lsl #2
    2290:	00000104 	andeq	r0, r0, r4, lsl #2
    2294:	00000128 	andeq	r0, r0, r8, lsr #2
    2298:	00540001 	subseq	r0, r4, r1
    229c:	00000000 	andeq	r0, r0, r0
    22a0:	30000000 	andcc	r0, r0, r0
    22a4:	3c000000 	stccc	0, cr0, [r0], {-0}
    22a8:	02000000 	andeq	r0, r0, #0
    22ac:	3c9f3000 	ldccc	0, cr3, [pc], {0}
    22b0:	68000000 	stmdavs	r0, {}	; <UNPREDICTABLE>
    22b4:	01000000 	mrseq	r0, (UNDEF: 0)
    22b8:	00005300 	andeq	r5, r0, r0, lsl #6
    22bc:	00000000 	andeq	r0, r0, r0
    22c0:	00680000 	rsbeq	r0, r8, r0
    22c4:	00770000 	rsbseq	r0, r7, r0
    22c8:	00010000 	andeq	r0, r1, r0
    22cc:	00007750 	andeq	r7, r0, r0, asr r7
    22d0:	0000ac00 	andeq	sl, r0, r0, lsl #24
    22d4:	54000100 	strpl	r0, [r0], #-256	; 0x100
	...
    22e0:	000000ac 	andeq	r0, r0, ip, lsr #1
    22e4:	000000bb 	strheq	r0, [r0], -fp
    22e8:	bb500001 	bllt	14022f4 <__bss_end__+0x13f633c>
    22ec:	f0000000 			; <UNDEFINED> instruction: 0xf0000000
    22f0:	01000000 	mrseq	r0, (UNDEF: 0)
    22f4:	00005400 	andeq	r5, r0, r0, lsl #8
    22f8:	00000000 	andeq	r0, r0, r0
    22fc:	00f00000 	rscseq	r0, r0, r0
    2300:	00ff0000 	rscseq	r0, pc, r0
    2304:	00010000 	andeq	r0, r1, r0
    2308:	0000ff50 	andeq	pc, r0, r0, asr pc	; <UNPREDICTABLE>
    230c:	00013400 	andeq	r3, r1, r0, lsl #8
    2310:	54000100 	strpl	r0, [r0], #-256	; 0x100
	...
    231c:	00000134 	andeq	r0, r0, r4, lsr r1
    2320:	00000143 	andeq	r0, r0, r3, asr #2
    2324:	43500001 	cmpmi	r0, #1
    2328:	78000001 	stmdavc	r0, {r0}
    232c:	01000001 	tsteq	r0, r1
    2330:	00005400 	andeq	r5, r0, r0, lsl #8
    2334:	00000000 	andeq	r0, r0, r0
    2338:	01780000 	cmneq	r8, r0
    233c:	01870000 	orreq	r0, r7, r0
    2340:	00010000 	andeq	r0, r1, r0
    2344:	00018750 	andeq	r8, r1, r0, asr r7
    2348:	0001bc00 	andeq	fp, r1, r0, lsl #24
    234c:	54000100 	strpl	r0, [r0], #-256	; 0x100
	...
    2358:	000001bc 			; <UNDEFINED> instruction: 0x000001bc
    235c:	000001cb 	andeq	r0, r0, fp, asr #3
    2360:	cb500001 	blgt	140236c <__bss_end__+0x13f63b4>
    2364:	00000001 	andeq	r0, r0, r1
    2368:	01000002 	tsteq	r0, r2
    236c:	00005400 	andeq	r5, r0, r0, lsl #8
    2370:	00000000 	andeq	r0, r0, r0
    2374:	076c0000 	strbeq	r0, [ip, -r0]!
    2378:	07980000 	ldreq	r0, [r8, r0]
    237c:	00010000 	andeq	r0, r1, r0
    2380:	00079850 	andeq	r9, r7, r0, asr r8
    2384:	00082c00 	andeq	r2, r8, r0, lsl #24
    2388:	f3000400 	vshl.u8	d0, d0, d0
    238c:	009f5001 	addseq	r5, pc, r1
    2390:	00000000 	andeq	r0, r0, r0
    2394:	70000000 	andvc	r0, r0, r0
    2398:	b8000007 	stmdalt	r0, {r0, r1, r2}
    239c:	01000007 	tsteq	r0, r7
    23a0:	00005000 	andeq	r5, r0, r0
    23a4:	00000000 	andeq	r0, r0, r0
    23a8:	07700000 	ldrbeq	r0, [r0, -r0]!
    23ac:	07b80000 	ldreq	r0, [r8, r0]!
    23b0:	00060000 	andeq	r0, r6, r0
    23b4:	00b79c03 	adcseq	r9, r7, r3, lsl #24
    23b8:	00009f00 	andeq	r9, r0, r0, lsl #30
    23bc:	00000000 	andeq	r0, r0, r0
    23c0:	07780000 	ldrbeq	r0, [r8, -r0]!
    23c4:	07b80000 	ldreq	r0, [r8, r0]!
    23c8:	00010000 	andeq	r0, r1, r0
    23cc:	00000052 	andeq	r0, r0, r2, asr r0
    23d0:	00000000 	andeq	r0, r0, r0
    23d4:	00077800 	andeq	r7, r7, r0, lsl #16
    23d8:	00078c00 	andeq	r8, r7, r0, lsl #24
    23dc:	03000600 	movweq	r0, #1536	; 0x600
    23e0:	0000b79c 	muleq	r0, ip, r7
    23e4:	0000009f 	muleq	r0, pc, r0	; <UNPREDICTABLE>
    23e8:	00000000 	andeq	r0, r0, r0
    23ec:	00070c00 	andeq	r0, r7, r0, lsl #24
    23f0:	00073c00 	andeq	r3, r7, r0, lsl #24
    23f4:	03000600 	movweq	r0, #1536	; 0x600
    23f8:	0000af88 	andeq	sl, r0, r8, lsl #31
    23fc:	0007409f 	muleq	r7, pc, r0	; <UNPREDICTABLE>
    2400:	00076c00 	andeq	r6, r7, r0, lsl #24
    2404:	03000600 	movweq	r0, #1536	; 0x600
    2408:	0000af88 	andeq	sl, r0, r8, lsl #31
    240c:	0000009f 	muleq	r0, pc, r0	; <UNPREDICTABLE>
    2410:	00000000 	andeq	r0, r0, r0
    2414:	00070c00 	andeq	r0, r7, r0, lsl #24
    2418:	00072c00 	andeq	r2, r7, r0, lsl #24
    241c:	30000200 	andcc	r0, r0, r0, lsl #4
    2420:	00072c9f 	muleq	r7, pc, ip	; <UNPREDICTABLE>
    2424:	00073c00 	andeq	r3, r7, r0, lsl #24
    2428:	50000100 	andpl	r0, r0, r0, lsl #2
    242c:	00000740 	andeq	r0, r0, r0, asr #14
    2430:	0000076c 	andeq	r0, r0, ip, ror #14
    2434:	9f300002 	svcls	0x00300002
	...
    2440:	0000070c 	andeq	r0, r0, ip, lsl #14
    2444:	0000073c 	andeq	r0, r0, ip, lsr r7
    2448:	4ff20006 	svcmi	0x00f20006
    244c:	0000004b 	andeq	r0, r0, fp, asr #32
	...
    2458:	0000070c 	andeq	r0, r0, ip, lsl #14
    245c:	0000073c 	andeq	r0, r0, ip, lsr r7
    2460:	88030006 	stmdahi	r3, {r1, r2}
    2464:	9f0000af 	svcls	0x000000af
	...
    2470:	00000728 	andeq	r0, r0, r8, lsr #14
    2474:	00000730 	andeq	r0, r0, r0, lsr r7
    2478:	30530001 	subscc	r0, r3, r1
    247c:	3c000007 	stccc	0, cr0, [r0], {7}
    2480:	05000007 	streq	r0, [r0, #-7]
    2484:	b7900300 	ldrlt	r0, [r0, r0, lsl #6]
	...
    2490:	070c0000 	streq	r0, [ip, -r0]
    2494:	07180000 	ldreq	r0, [r8, -r0]
    2498:	00060000 	andeq	r0, r6, r0
    249c:	00af8803 	adceq	r8, pc, r3, lsl #16
    24a0:	00009f00 	andeq	r9, r0, r0, lsl #30
    24a4:	00000000 	andeq	r0, r0, r0
    24a8:	06d80000 	ldrbeq	r0, [r8], r0
    24ac:	06e80000 	strbteq	r0, [r8], r0
    24b0:	00060000 	andeq	r0, r6, r0
    24b4:	00af8803 	adceq	r8, pc, r3, lsl #16
    24b8:	00009f00 	andeq	r9, r0, r0, lsl #30
    24bc:	00000000 	andeq	r0, r0, r0
    24c0:	064c0000 	strbeq	r0, [ip], -r0
    24c4:	068c0000 	streq	r0, [ip], r0
    24c8:	00010000 	andeq	r0, r1, r0
    24cc:	00000050 	andeq	r0, r0, r0, asr r0
    24d0:	00000000 	andeq	r0, r0, r0
    24d4:	00064c00 	andeq	r4, r6, r0, lsl #24
    24d8:	00068c00 	andeq	r8, r6, r0, lsl #24
    24dc:	03000600 	movweq	r0, #1536	; 0x600
    24e0:	0000af88 	andeq	sl, r0, r8, lsl #31
    24e4:	0000009f 	muleq	r0, pc, r0	; <UNPREDICTABLE>
    24e8:	00000000 	andeq	r0, r0, r0
    24ec:	00065400 	andeq	r5, r6, r0, lsl #8
    24f0:	00067c00 	andeq	r7, r6, r0, lsl #24
    24f4:	51000100 	mrspl	r0, (UNDEF: 16)
    24f8:	0000067c 	andeq	r0, r0, ip, ror r6
    24fc:	00000688 	andeq	r0, r0, r8, lsl #13
    2500:	8c030005 	stchi	0, cr0, [r3], {5}
    2504:	000000b7 	strheq	r0, [r0], -r7
    2508:	00000000 	andeq	r0, r0, r0
    250c:	54000000 	strpl	r0, [r0], #-0
    2510:	68000006 	stmdavs	r0, {r1, r2}
    2514:	06000006 	streq	r0, [r0], -r6
    2518:	af880300 	svcge	0x00880300
    251c:	009f0000 	addseq	r0, pc, r0
    2520:	00000000 	andeq	r0, r0, r0
    2524:	8c000000 	stchi	0, cr0, [r0], {-0}
    2528:	a4000006 	strge	r0, [r0], #-6
    252c:	06000006 	streq	r0, [r0], -r6
    2530:	b79c0300 	ldrlt	r0, [ip, r0, lsl #6]
    2534:	009f0000 	addseq	r0, pc, r0
    2538:	00000000 	andeq	r0, r0, r0
    253c:	d8000000 	stmdale	r0, {}	; <UNPREDICTABLE>
    2540:	f0000005 			; <UNDEFINED> instruction: 0xf0000005
    2544:	06000005 	streq	r0, [r0], -r5
    2548:	b79c0300 	ldrlt	r0, [ip, r0, lsl #6]
    254c:	009f0000 	addseq	r0, pc, r0
    2550:	00000000 	andeq	r0, r0, r0
    2554:	dc000000 	stcle	0, cr0, [r0], {-0}
    2558:	f4000004 	vst4.8	{d0-d3}, [r0], r4
    255c:	06000004 	streq	r0, [r0], -r4
    2560:	b79c0300 	ldrlt	r0, [ip, r0, lsl #6]
    2564:	009f0000 	addseq	r0, pc, r0
    2568:	00000000 	andeq	r0, r0, r0
    256c:	08000000 	stmdaeq	r0, {}	; <UNPREDICTABLE>
    2570:	40000005 	andmi	r0, r0, r5
    2574:	06000005 	streq	r0, [r0], -r5
    2578:	b79c0300 	ldrlt	r0, [ip, r0, lsl #6]
    257c:	649f0000 	ldrvs	r0, [pc], #0	; 2584 <_start-0x5a7c>
    2580:	a0000005 	andge	r0, r0, r5
    2584:	06000005 	streq	r0, [r0], -r5
    2588:	b79c0300 	ldrlt	r0, [ip, r0, lsl #6]
    258c:	009f0000 	addseq	r0, pc, r0
    2590:	00000000 	andeq	r0, r0, r0
    2594:	08000000 	stmdaeq	r0, {}	; <UNPREDICTABLE>
    2598:	30000005 	andcc	r0, r0, r5
    259c:	02000005 	andeq	r0, r0, #5
    25a0:	309f3000 	addscc	r3, pc, r0
    25a4:	40000005 	andmi	r0, r0, r5
    25a8:	01000005 	tsteq	r0, r5
    25ac:	05645000 	strbeq	r5, [r4, #-0]!
    25b0:	05a00000 	streq	r0, [r0, #0]!
    25b4:	00020000 	andeq	r0, r2, r0
    25b8:	00009f30 	andeq	r9, r0, r0, lsr pc
    25bc:	00000000 	andeq	r0, r0, r0
    25c0:	05080000 	streq	r0, [r8, #-0]
    25c4:	05400000 	strbeq	r0, [r0, #-0]
    25c8:	00060000 	andeq	r0, r6, r0
    25cc:	004e9df2 	strdeq	r9, [lr], #-210	; 0xffffff2e
	...
    25d8:	05080000 	streq	r0, [r8, #-0]
    25dc:	05400000 	strbeq	r0, [r0, #-0]
    25e0:	00060000 	andeq	r0, r6, r0
    25e4:	00b79c03 	adcseq	r9, r7, r3, lsl #24
    25e8:	00009f00 	andeq	r9, r0, r0, lsl #30
    25ec:	00000000 	andeq	r0, r0, r0
    25f0:	05280000 	streq	r0, [r8, #-0]!
    25f4:	05340000 	ldreq	r0, [r4, #-0]!
    25f8:	00010000 	andeq	r0, r1, r0
    25fc:	00053453 	andeq	r3, r5, r3, asr r4
    2600:	00054000 	andeq	r4, r5, r0
    2604:	03000500 	movweq	r0, #1280	; 0x500
    2608:	0000bfa4 	andeq	fp, r0, r4, lsr #31
	...
    2614:	00000508 	andeq	r0, r0, r8, lsl #10
    2618:	00000514 	andeq	r0, r0, r4, lsl r5
    261c:	9c030006 	stcls	0, cr0, [r3], {6}
    2620:	9f0000b7 	svcls	0x000000b7
	...
    262c:	00000218 	andeq	r0, r0, r8, lsl r2
    2630:	000002b4 			; <UNDEFINED> instruction: 0x000002b4
    2634:	9f310002 	svcls	0x00310002
    2638:	00000380 	andeq	r0, r0, r0, lsl #7
    263c:	0000040c 	andeq	r0, r0, ip, lsl #8
    2640:	9f310002 	svcls	0x00310002
	...
    264c:	00000218 	andeq	r0, r0, r8, lsl r2
    2650:	000002b4 			; <UNDEFINED> instruction: 0x000002b4
    2654:	88030006 	stmdahi	r3, {r1, r2}
    2658:	9f0000af 	svcls	0x000000af
    265c:	00000380 	andeq	r0, r0, r0, lsl #7
    2660:	0000040c 	andeq	r0, r0, ip, lsl #8
    2664:	88030006 	stmdahi	r3, {r1, r2}
    2668:	9f0000af 	svcls	0x000000af
	...
    2674:	000002a0 	andeq	r0, r0, r0, lsr #5
    2678:	000002b4 			; <UNDEFINED> instruction: 0x000002b4
    267c:	9f420002 	svcls	0x00420002
    2680:	000003d4 	ldrdeq	r0, [r0], -r4
    2684:	000003e0 	andeq	r0, r0, r0, ror #7
    2688:	9f420002 	svcls	0x00420002
	...
    2694:	00000250 	andeq	r0, r0, r0, asr r2
    2698:	00000258 	andeq	r0, r0, r8, asr r2
    269c:	88030006 	stmdahi	r3, {r1, r2}
    26a0:	9f0000af 	svcls	0x000000af
	...
    26ac:	00000260 	andeq	r0, r0, r0, ror #4
    26b0:	00000278 	andeq	r0, r0, r8, ror r2
    26b4:	88030006 	stmdahi	r3, {r1, r2}
    26b8:	9f0000af 	svcls	0x000000af
	...
    26c4:	00000280 	andeq	r0, r0, r0, lsl #5
    26c8:	00000298 	muleq	r0, r8, r2
    26cc:	88030006 	stmdahi	r3, {r1, r2}
    26d0:	9f0000af 	svcls	0x000000af
	...
    26dc:	000002a0 	andeq	r0, r0, r0, lsr #5
    26e0:	000002b4 			; <UNDEFINED> instruction: 0x000002b4
    26e4:	eef20006 	cdp	0, 15, cr0, cr2, cr6, {0}
    26e8:	0000004f 	andeq	r0, r0, pc, asr #32
    26ec:	000003d4 	ldrdeq	r0, [r0], -r4
    26f0:	000003f0 	strdeq	r0, [r0], -r0	; <UNPREDICTABLE>
    26f4:	eef20006 	cdp	0, 15, cr0, cr2, cr6, {0}
    26f8:	0000004f 	andeq	r0, r0, pc, asr #32
	...
    2704:	000002a0 	andeq	r0, r0, r0, lsr #5
    2708:	000002b4 			; <UNDEFINED> instruction: 0x000002b4
    270c:	88030006 	stmdahi	r3, {r1, r2}
    2710:	9f0000af 	svcls	0x000000af
    2714:	000003d4 	ldrdeq	r0, [r0], -r4
    2718:	000003f0 	strdeq	r0, [r0], -r0	; <UNPREDICTABLE>
    271c:	88030006 	stmdahi	r3, {r1, r2}
    2720:	9f0000af 	svcls	0x000000af
	...
    272c:	000003dc 	ldrdeq	r0, [r0], -ip
    2730:	000003e4 	andeq	r0, r0, r4, ror #7
    2734:	e4530001 	ldrb	r0, [r3], #-1
    2738:	f0000003 			; <UNDEFINED> instruction: 0xf0000003
    273c:	05000003 	streq	r0, [r0, #-3]
    2740:	b7900300 	ldrlt	r0, [r0, r0, lsl #6]
	...
    274c:	02a00000 	adceq	r0, r0, #0
    2750:	02ac0000 	adceq	r0, ip, #0
    2754:	00060000 	andeq	r0, r6, r0
    2758:	00af8803 	adceq	r8, pc, r3, lsl #16
    275c:	00009f00 	andeq	r9, r0, r0, lsl #30
    2760:	00000000 	andeq	r0, r0, r0
    2764:	02b40000 	adcseq	r0, r4, #0
    2768:	03580000 	cmpeq	r8, #0
    276c:	00020000 	andeq	r0, r2, r0
    2770:	040c9f31 	streq	r9, [ip], #-3889	; 0xf31
    2774:	04cc0000 	strbeq	r0, [ip], #0
    2778:	00020000 	andeq	r0, r2, r0
    277c:	00009f31 	andeq	r9, r0, r1, lsr pc
    2780:	00000000 	andeq	r0, r0, r0
    2784:	02b40000 	adcseq	r0, r4, #0
    2788:	03580000 	cmpeq	r8, #0
    278c:	00060000 	andeq	r0, r6, r0
    2790:	00b79c03 	adcseq	r9, r7, r3, lsl #24
    2794:	040c9f00 	streq	r9, [ip], #-3840	; 0xf00
    2798:	04cc0000 	strbeq	r0, [ip], #0
    279c:	00060000 	andeq	r0, r6, r0
    27a0:	00b79c03 	adcseq	r9, r7, r3, lsl #24
    27a4:	00009f00 	andeq	r9, r0, r0, lsl #30
    27a8:	00000000 	andeq	r0, r0, r0
    27ac:	03440000 	movteq	r0, #16384	; 0x4000
    27b0:	03580000 	cmpeq	r8, #0
    27b4:	00020000 	andeq	r0, r2, r0
    27b8:	04609f42 	strbteq	r9, [r0], #-3906	; 0xf42
    27bc:	04740000 	ldrbteq	r0, [r4], #-0
    27c0:	00020000 	andeq	r0, r2, r0
    27c4:	00009f42 	andeq	r9, r0, r2, asr #30
    27c8:	00000000 	andeq	r0, r0, r0
    27cc:	02f40000 	rscseq	r0, r4, #0
    27d0:	02fc0000 	rscseq	r0, ip, #0
    27d4:	00060000 	andeq	r0, r6, r0
    27d8:	00b79c03 	adcseq	r9, r7, r3, lsl #24
    27dc:	00009f00 	andeq	r9, r0, r0, lsl #30
    27e0:	00000000 	andeq	r0, r0, r0
    27e4:	03040000 	movweq	r0, #16384	; 0x4000
    27e8:	031c0000 	tsteq	ip, #0
    27ec:	00060000 	andeq	r0, r6, r0
    27f0:	00b79c03 	adcseq	r9, r7, r3, lsl #24
    27f4:	00009f00 	andeq	r9, r0, r0, lsl #30
    27f8:	00000000 	andeq	r0, r0, r0
    27fc:	03240000 	teqeq	r4, #0
    2800:	033c0000 	teqeq	ip, #0
    2804:	00060000 	andeq	r0, r6, r0
    2808:	00b79c03 	adcseq	r9, r7, r3, lsl #24
    280c:	00009f00 	andeq	r9, r0, r0, lsl #30
    2810:	00000000 	andeq	r0, r0, r0
    2814:	03440000 	movteq	r0, #16384	; 0x4000
    2818:	03580000 	cmpeq	r8, #0
    281c:	00060000 	andeq	r0, r6, r0
    2820:	0051ecf2 	ldrsheq	lr, [r1], #-194	; 0xffffff3e
    2824:	04600000 	strbteq	r0, [r0], #-0
    2828:	04840000 	streq	r0, [r4], #0
    282c:	00060000 	andeq	r0, r6, r0
    2830:	0051ecf2 	ldrsheq	lr, [r1], #-194	; 0xffffff3e
	...
    283c:	03440000 	movteq	r0, #16384	; 0x4000
    2840:	03580000 	cmpeq	r8, #0
    2844:	00060000 	andeq	r0, r6, r0
    2848:	00b79c03 	adcseq	r9, r7, r3, lsl #24
    284c:	04609f00 	strbteq	r9, [r0], #-3840	; 0xf00
    2850:	04840000 	streq	r0, [r4], #0
    2854:	00060000 	andeq	r0, r6, r0
    2858:	00b79c03 	adcseq	r9, r7, r3, lsl #24
    285c:	00009f00 	andeq	r9, r0, r0, lsl #30
    2860:	00000000 	andeq	r0, r0, r0
    2864:	046c0000 	strbteq	r0, [ip], #-0
    2868:	04780000 	ldrbteq	r0, [r8], #-0
    286c:	00010000 	andeq	r0, r1, r0
    2870:	00047853 	andeq	r7, r4, r3, asr r8
    2874:	00048400 	andeq	r8, r4, r0, lsl #8
    2878:	03000500 	movweq	r0, #1280	; 0x500
    287c:	0000bfa4 	andeq	fp, r0, r4, lsr #31
	...
    2888:	00000344 	andeq	r0, r0, r4, asr #6
    288c:	00000350 	andeq	r0, r0, r0, asr r3
    2890:	9c030006 	stcls	0, cr0, [r3], {6}
    2894:	9f0000b7 	svcls	0x000000b7
	...
    28a0:	000001d4 	ldrdeq	r0, [r0], -r4
    28a4:	000001df 	ldrdeq	r0, [r0], -pc	; <UNPREDICTABLE>
    28a8:	df500001 	svcle	0x00500001
    28ac:	f4000001 	vst4.8	{d0-d3}, [r0], r1
    28b0:	01000001 	tsteq	r0, r1
    28b4:	01f45400 	mvnseq	r5, r0, lsl #8
    28b8:	02140000 	andseq	r0, r4, #0
    28bc:	00040000 	andeq	r0, r4, r0
    28c0:	9f5001f3 	svcls	0x005001f3
	...
    28cc:	000000f8 	strdeq	r0, [r0], -r8
    28d0:	00000107 	andeq	r0, r0, r7, lsl #2
    28d4:	07500001 	ldrbeq	r0, [r0, -r1]
    28d8:	1c000001 	stcne	0, cr0, [r0], {1}
    28dc:	01000001 	tsteq	r0, r1
    28e0:	011c5400 	tsteq	ip, r0, lsl #8
    28e4:	01a40000 			; <UNDEFINED> instruction: 0x01a40000
    28e8:	00040000 	andeq	r0, r4, r0
    28ec:	9f5001f3 	svcls	0x005001f3
    28f0:	000001a4 	andeq	r0, r0, r4, lsr #3
    28f4:	000001a8 	andeq	r0, r0, r8, lsr #3
    28f8:	a8540001 	ldmdage	r4, {r0}^
    28fc:	d4000001 	strle	r0, [r0], #-1
    2900:	04000001 	streq	r0, [r0], #-1
    2904:	5001f300 	andpl	pc, r1, r0, lsl #6
    2908:	0000009f 	muleq	r0, pc, r0	; <UNPREDICTABLE>
    290c:	00000000 	andeq	r0, r0, r0
    2910:	00011000 	andeq	r1, r1, r0
    2914:	00014800 	andeq	r4, r1, r0, lsl #16
    2918:	50000100 	andpl	r0, r0, r0, lsl #2
    291c:	00000148 	andeq	r0, r0, r8, asr #2
    2920:	0000014c 	andeq	r0, r0, ip, asr #2
    2924:	4c540001 	mrrcmi	0, 0, r0, r4, cr1
    2928:	4f000001 	svcmi	0x00000001
    292c:	01000001 	tsteq	r0, r1
    2930:	014f5000 	mrseq	r5, SPSR
    2934:	01680000 	cmneq	r8, r0
    2938:	00010000 	andeq	r0, r1, r0
    293c:	00016854 	andeq	r6, r1, r4, asr r8
    2940:	00016b00 	andeq	r6, r1, r0, lsl #22
    2944:	50000100 	andpl	r0, r0, r0, lsl #2
    2948:	0000016b 	andeq	r0, r0, fp, ror #2
    294c:	00000184 	andeq	r0, r0, r4, lsl #3
    2950:	84540001 	ldrbhi	r0, [r4], #-1
    2954:	87000001 	strhi	r0, [r0, -r1]
    2958:	01000001 	tsteq	r0, r1
    295c:	01875000 	orreq	r5, r7, r0
    2960:	01a40000 			; <UNDEFINED> instruction: 0x01a40000
    2964:	00010000 	andeq	r0, r1, r0
    2968:	0001a454 	andeq	sl, r1, r4, asr r4
    296c:	0001a800 	andeq	sl, r1, r0, lsl #16
    2970:	50000100 	andpl	r0, r0, r0, lsl #2
    2974:	000001b0 			; <UNDEFINED> instruction: 0x000001b0
    2978:	000001b4 			; <UNDEFINED> instruction: 0x000001b4
    297c:	b4500001 	ldrblt	r0, [r0], #-1
    2980:	d4000001 	strle	r0, [r0], #-1
    2984:	01000001 	tsteq	r0, r1
    2988:	00005400 	andeq	r5, r0, r0, lsl #8
    298c:	00000000 	andeq	r0, r0, r0
    2990:	01240000 	teqeq	r4, r0
    2994:	014f0000 	mrseq	r0, SPSR
    2998:	00010000 	andeq	r0, r1, r0
    299c:	00014f53 	andeq	r4, r1, r3, asr pc
    29a0:	00016800 	andeq	r6, r1, r0, lsl #16
    29a4:	74000700 	strvc	r0, [r0], #-1792	; 0x700
    29a8:	33253100 	teqcc	r5, #0, 2
    29ac:	01689f1a 	cmneq	r8, sl, lsl pc
    29b0:	016b0000 	cmneq	fp, r0
    29b4:	00010000 	andeq	r0, r1, r0
    29b8:	00016b53 	andeq	r6, r1, r3, asr fp
    29bc:	00018400 	andeq	r8, r1, r0, lsl #8
    29c0:	74000700 	strvc	r0, [r0], #-1792	; 0x700
    29c4:	33253100 	teqcc	r5, #0, 2
    29c8:	01849f1a 	orreq	r9, r4, sl, lsl pc
    29cc:	01870000 	orreq	r0, r7, r0
    29d0:	00010000 	andeq	r0, r1, r0
    29d4:	00018753 	andeq	r8, r1, r3, asr r7
    29d8:	0001a400 	andeq	sl, r1, r0, lsl #8
    29dc:	74000700 	strvc	r0, [r0], #-1792	; 0x700
    29e0:	33253100 	teqcc	r5, #0, 2
    29e4:	01b09f1a 	lslseq	r9, sl, pc
    29e8:	01d40000 	bicseq	r0, r4, r0
    29ec:	00010000 	andeq	r0, r1, r0
    29f0:	00000053 	andeq	r0, r0, r3, asr r0
    29f4:	00000000 	andeq	r0, r0, r0
    29f8:	0000c400 	andeq	ip, r0, r0, lsl #8
    29fc:	0000cf00 	andeq	ip, r0, r0, lsl #30
    2a00:	50000100 	andpl	r0, r0, r0, lsl #2
    2a04:	000000cf 	andeq	r0, r0, pc, asr #1
    2a08:	000000dc 	ldrdeq	r0, [r0], -ip
    2a0c:	00540001 	subseq	r0, r4, r1
    2a10:	00000000 	andeq	r0, r0, r0
    2a14:	dc000000 	stcle	0, cr0, [r0], {-0}
    2a18:	e4000000 	str	r0, [r0], #-0
    2a1c:	01000000 	mrseq	r0, (UNDEF: 0)
    2a20:	00e45000 	rsceq	r5, r4, r0
    2a24:	00e70000 	rsceq	r0, r7, r0
    2a28:	00030000 	andeq	r0, r3, r0
    2a2c:	e79f7c70 			; <UNDEFINED> instruction: 0xe79f7c70
    2a30:	f8000000 			; <UNDEFINED> instruction: 0xf8000000
    2a34:	04000000 	streq	r0, [r0], #-0
    2a38:	5001f300 	andpl	pc, r1, r0, lsl #6
    2a3c:	0000009f 	muleq	r0, pc, r0	; <UNPREDICTABLE>
    2a40:	00000000 	andeq	r0, r0, r0
    2a44:	0000b000 	andeq	fp, r0, r0
    2a48:	0000bc00 	andeq	fp, r0, r0, lsl #24
    2a4c:	50000100 	andpl	r0, r0, r0, lsl #2
    2a50:	000000bc 	strheq	r0, [r0], -ip
    2a54:	000000bf 	strheq	r0, [r0], -pc	; <UNPREDICTABLE>
    2a58:	7c700003 	ldclvc	0, cr0, [r0], #-12
    2a5c:	0000bf9f 	muleq	r0, pc, pc	; <UNPREDICTABLE>
    2a60:	0000c400 	andeq	ip, r0, r0, lsl #8
    2a64:	f3000400 	vshl.u8	d0, d0, d0
    2a68:	009f5001 	addseq	r5, pc, r1
    2a6c:	00000000 	andeq	r0, r0, r0
    2a70:	90000000 	andls	r0, r0, r0
    2a74:	9c000000 	stcls	0, cr0, [r0], {-0}
    2a78:	01000000 	mrseq	r0, (UNDEF: 0)
    2a7c:	009c5000 	addseq	r5, ip, r0
    2a80:	009f0000 	addseq	r0, pc, r0
    2a84:	00030000 	andeq	r0, r3, r0
    2a88:	9f9f7c70 	svcls	0x009f7c70
    2a8c:	b0000000 	andlt	r0, r0, r0
    2a90:	03000000 	movweq	r0, #0
    2a94:	9f7c7400 	svcls	0x007c7400
	...
    2aa0:	0000007c 	andeq	r0, r0, ip, ror r0
    2aa4:	00000088 	andeq	r0, r0, r8, lsl #1
    2aa8:	88500001 	ldmdahi	r0, {r0}^
    2aac:	8b000000 	blhi	2ab4 <_start-0x554c>
    2ab0:	03000000 	movweq	r0, #0
    2ab4:	9f7c7000 	svcls	0x007c7000
    2ab8:	0000008b 	andeq	r0, r0, fp, lsl #1
    2abc:	00000090 	muleq	r0, r0, r0
    2ac0:	01f30004 	mvnseq	r0, r4
    2ac4:	00009f50 	andeq	r9, r0, r0, asr pc
    2ac8:	00000000 	andeq	r0, r0, r0
    2acc:	005c0000 	subseq	r0, ip, r0
    2ad0:	00680000 	rsbeq	r0, r8, r0
    2ad4:	00010000 	andeq	r0, r1, r0
    2ad8:	00006850 	andeq	r6, r0, r0, asr r8
    2adc:	00006b00 	andeq	r6, r0, r0, lsl #22
    2ae0:	70000300 	andvc	r0, r0, r0, lsl #6
    2ae4:	006b9f7c 	rsbeq	r9, fp, ip, ror pc
    2ae8:	007c0000 	rsbseq	r0, ip, r0
    2aec:	00030000 	andeq	r0, r3, r0
    2af0:	009f7c74 	addseq	r7, pc, r4, ror ip	; <UNPREDICTABLE>
    2af4:	00000000 	andeq	r0, r0, r0
    2af8:	2c000000 	stccs	0, cr0, [r0], {-0}
    2afc:	33000000 	movwcc	r0, #0
    2b00:	01000000 	mrseq	r0, (UNDEF: 0)
    2b04:	00335000 	eorseq	r5, r3, r0
    2b08:	00380000 	eorseq	r0, r8, r0
    2b0c:	00040000 	andeq	r0, r4, r0
    2b10:	9f5001f3 	svcls	0x005001f3
	...
    2b1c:	0000002c 	andeq	r0, r0, ip, lsr #32
    2b20:	00000033 	andeq	r0, r0, r3, lsr r0
    2b24:	33510001 	cmpcc	r1, #1
    2b28:	38000000 	stmdacc	r0, {}	; <UNPREDICTABLE>
    2b2c:	04000000 	streq	r0, [r0], #-0
    2b30:	5101f300 	mrspl	pc, SP_irq	; <UNPREDICTABLE>
    2b34:	0000009f 	muleq	r0, pc, r0	; <UNPREDICTABLE>
	...
    2b40:	00000f00 	andeq	r0, r0, r0, lsl #30
    2b44:	50000100 	andpl	r0, r0, r0, lsl #2
    2b48:	0000000f 	andeq	r0, r0, pc
    2b4c:	0000002c 	andeq	r0, r0, ip, lsr #32
    2b50:	00540001 	subseq	r0, r4, r1
	...
    2b5c:	0f000000 	svceq	0x00000000
    2b60:	01000000 	mrseq	r0, (UNDEF: 0)
    2b64:	000f5100 	andeq	r5, pc, r0, lsl #2
    2b68:	002c0000 	eoreq	r0, ip, r0
    2b6c:	00010000 	andeq	r0, r1, r0
    2b70:	00000055 	andeq	r0, r0, r5, asr r0
	...
    2b7c:	00000400 	andeq	r0, r0, r0, lsl #8
    2b80:	52000100 	andpl	r0, r0, #0, 2
    2b84:	00000004 	andeq	r0, r0, r4
    2b88:	00000020 	andeq	r0, r0, r0, lsr #32
    2b8c:	01f30004 	mvnseq	r0, r4
    2b90:	00009f52 	andeq	r9, r0, r2, asr pc
	...
    2b9c:	000c0000 	andeq	r0, ip, r0
    2ba0:	00010000 	andeq	r0, r1, r0
    2ba4:	00000c50 	andeq	r0, r0, r0, asr ip
    2ba8:	00001400 	andeq	r1, r0, r0, lsl #8
    2bac:	73000300 	movwvc	r0, #768	; 0x300
    2bb0:	00149f01 	andseq	r9, r4, r1, lsl #30
    2bb4:	00200000 	eoreq	r0, r0, r0
    2bb8:	00010000 	andeq	r0, r1, r0
    2bbc:	00000053 	andeq	r0, r0, r3, asr r0
    2bc0:	00000000 	andeq	r0, r0, r0
	...

Disassembly of section .debug_aranges:

00000000 <.debug_aranges>:
   0:	0000001c 	andeq	r0, r0, ip, lsl r0
   4:	00000002 	andeq	r0, r0, r2
   8:	00040000 	andeq	r0, r4, r0
   c:	00000000 	andeq	r0, r0, r0
  10:	00008010 	andeq	r8, r0, r0, lsl r0
  14:	00000370 	andeq	r0, r0, r0, ror r3
	...
  20:	0000001c 	andeq	r0, r0, ip, lsl r0
  24:	099e0002 	ldmibeq	lr, {r1}
  28:	00040000 	andeq	r0, r4, r0
  2c:	00000000 	andeq	r0, r0, r0
  30:	00008380 	andeq	r8, r0, r0, lsl #7
  34:	00000058 	andeq	r0, r0, r8, asr r0
	...
  40:	0000001c 	andeq	r0, r0, ip, lsl r0
  44:	0b330002 	bleq	cc0054 <__bss_end__+0xcb409c>
  48:	00040000 	andeq	r0, r4, r0
  4c:	00000000 	andeq	r0, r0, r0
  50:	000083d8 	ldrdeq	r8, [r0], -r8	; <UNPREDICTABLE>
  54:	0000003c 	andeq	r0, r0, ip, lsr r0
	...
  60:	0000001c 	andeq	r0, r0, ip, lsl r0
  64:	0c4a0002 	mcrreq	0, 0, r0, sl, cr2
  68:	00040000 	andeq	r0, r4, r0
  6c:	00000000 	andeq	r0, r0, r0
  70:	00008414 	andeq	r8, r0, r4, lsl r4
  74:	00000034 	andeq	r0, r0, r4, lsr r0
	...
  80:	0000001c 	andeq	r0, r0, ip, lsl r0
  84:	0d3c0002 	ldceq	0, cr0, [ip, #-8]!
  88:	00040000 	andeq	r0, r4, r0
  8c:	00000000 	andeq	r0, r0, r0
  90:	00008448 	andeq	r8, r0, r8, asr #8
  94:	000004f8 	strdeq	r0, [r0], -r8
	...
  a0:	0000001c 	andeq	r0, r0, ip, lsl r0
  a4:	13c10002 	bicne	r0, r1, #2
  a8:	00040000 	andeq	r0, r4, r0
  ac:	00000000 	andeq	r0, r0, r0
  b0:	00008940 	andeq	r8, r0, r0, asr #18
  b4:	00000028 	andeq	r0, r0, r8, lsr #32
	...
  c0:	0000001c 	andeq	r0, r0, ip, lsl r0
  c4:	14c40002 	strbne	r0, [r4], #2
  c8:	00040000 	andeq	r0, r4, r0
  cc:	00000000 	andeq	r0, r0, r0
  d0:	00008968 	andeq	r8, r0, r8, ror #18
  d4:	000000b0 	strheq	r0, [r0], -r0	; <UNPREDICTABLE>
	...
  e0:	0000001c 	andeq	r0, r0, ip, lsl r0
  e4:	17a50002 	strne	r0, [r5, r2]!
  e8:	00040000 	andeq	r0, r4, r0
  ec:	00000000 	andeq	r0, r0, r0
  f0:	00008a18 	andeq	r8, r0, r8, lsl sl
  f4:	00000074 	andeq	r0, r0, r4, ror r0
	...
 100:	0000001c 	andeq	r0, r0, ip, lsl r0
 104:	19560002 	ldmdbne	r6, {r1}^
 108:	00040000 	andeq	r0, r4, r0
 10c:	00000000 	andeq	r0, r0, r0
 110:	00008a8c 	andeq	r8, r0, ip, lsl #21
 114:	00000088 	andeq	r0, r0, r8, lsl #1
	...
 120:	0000001c 	andeq	r0, r0, ip, lsl r0
 124:	1b320002 	blne	c80134 <__bss_end__+0xc7417c>
 128:	00040000 	andeq	r0, r4, r0
 12c:	00000000 	andeq	r0, r0, r0
 130:	00008b14 	andeq	r8, r0, r4, lsl fp
 134:	00000568 	andeq	r0, r0, r8, ror #10
	...
 140:	0000001c 	andeq	r0, r0, ip, lsl r0
 144:	23570002 	cmpcs	r7, #2
 148:	00040000 	andeq	r0, r4, r0
 14c:	00000000 	andeq	r0, r0, r0
 150:	0000907c 	andeq	r9, r0, ip, ror r0
 154:	00000620 	andeq	r0, r0, r0, lsr #12
	...
 160:	0000001c 	andeq	r0, r0, ip, lsl r0
 164:	35250002 	strcc	r0, [r5, #-2]!
 168:	00040000 	andeq	r0, r4, r0
 16c:	00000000 	andeq	r0, r0, r0
 170:	0000969c 	muleq	r0, ip, r6
 174:	00000154 	andeq	r0, r0, r4, asr r1
	...
 180:	0000001c 	andeq	r0, r0, ip, lsl r0
 184:	39280002 	stmdbcc	r8!, {r1}
 188:	00040000 	andeq	r0, r4, r0
 18c:	00000000 	andeq	r0, r0, r0
 190:	000097f0 	strdeq	r9, [r0], -r0
 194:	00000200 	andeq	r0, r0, r0, lsl #4
	...
 1a0:	0000001c 	andeq	r0, r0, ip, lsl r0
 1a4:	3eb90002 	cdpcc	0, 11, cr0, cr9, cr2, {0}
 1a8:	00040000 	andeq	r0, r4, r0
 1ac:	00000000 	andeq	r0, r0, r0
 1b0:	00009b30 	andeq	r9, r0, r0, lsr fp
 1b4:	0000082c 	andeq	r0, r0, ip, lsr #16
	...
 1c0:	0000001c 	andeq	r0, r0, ip, lsl r0
 1c4:	5a8c0002 	bpl	fe3001d4 <__bss_end__+0xfe2f421c>
 1c8:	00040000 	andeq	r0, r4, r0
 1cc:	00000000 	andeq	r0, r0, r0
 1d0:	0000a35c 	andeq	sl, r0, ip, asr r3
 1d4:	00000020 	andeq	r0, r0, r0, lsr #32
	...
 1e0:	0000001c 	andeq	r0, r0, ip, lsl r0
 1e4:	5b6b0002 	blpl	1ac01f4 <__bss_end__+0x1ab423c>
 1e8:	00040000 	andeq	r0, r4, r0
 1ec:	00000000 	andeq	r0, r0, r0
 1f0:	0000a37c 	andeq	sl, r0, ip, ror r3
 1f4:	00000050 	andeq	r0, r0, r0, asr r0
	...

Disassembly of section .debug_ranges:

00000000 <.debug_ranges>:
   0:	0000013c 	andeq	r0, r0, ip, lsr r1
   4:	00000144 	andeq	r0, r0, r4, asr #2
   8:	00000224 	andeq	r0, r0, r4, lsr #4
   c:	00000248 	andeq	r0, r0, r8, asr #4
	...
  18:	00000294 	muleq	r0, r4, r2
  1c:	00000298 	muleq	r0, r8, r2
  20:	000002c8 	andeq	r0, r0, r8, asr #5
  24:	000004b8 			; <UNDEFINED> instruction: 0x000004b8
	...
  30:	00008a18 	andeq	r8, r0, r8, lsl sl
  34:	00008a8c 	andeq	r8, r0, ip, lsl #21
	...
  40:	00000218 	andeq	r0, r0, r8, lsl r2
  44:	000002b4 			; <UNDEFINED> instruction: 0x000002b4
  48:	00000380 	andeq	r0, r0, r0, lsl #7
  4c:	0000040c 	andeq	r0, r0, ip, lsl #8
	...
  58:	000002a0 	andeq	r0, r0, r0, lsr #5
  5c:	000002b4 			; <UNDEFINED> instruction: 0x000002b4
  60:	000003d4 	ldrdeq	r0, [r0], -r4
  64:	000003f0 	strdeq	r0, [r0], -r0	; <UNPREDICTABLE>
	...
  70:	000002b4 			; <UNDEFINED> instruction: 0x000002b4
  74:	00000358 	andeq	r0, r0, r8, asr r3
  78:	0000040c 	andeq	r0, r0, ip, lsl #8
  7c:	000004cc 	andeq	r0, r0, ip, asr #9
	...
  88:	00000344 	andeq	r0, r0, r4, asr #6
  8c:	00000358 	andeq	r0, r0, r8, asr r3
  90:	00000460 	andeq	r0, r0, r0, ror #8
  94:	00000484 	andeq	r0, r0, r4, lsl #9
	...
  a0:	00000508 	andeq	r0, r0, r8, lsl #10
  a4:	00000540 	andeq	r0, r0, r0, asr #10
  a8:	00000564 	andeq	r0, r0, r4, ror #10
  ac:	000005a0 	andeq	r0, r0, r0, lsr #11
	...
  b8:	0000070c 	andeq	r0, r0, ip, lsl #14
  bc:	0000073c 	andeq	r0, r0, ip, lsr r7
  c0:	00000740 	andeq	r0, r0, r0, asr #14
  c4:	0000076c 	andeq	r0, r0, ip, ror #14
	...

Disassembly of section .debug_line:

00000000 <.debug_line>:
       0:	00000287 	andeq	r0, r0, r7, lsl #5
       4:	01bf0002 			; <UNDEFINED> instruction: 0x01bf0002
       8:	01020000 	mrseq	r0, (UNDEF: 2)
       c:	000d0efb 	strdeq	r0, [sp], -fp
      10:	01010101 	tsteq	r1, r1, lsl #2
      14:	01000000 	mrseq	r0, (UNDEF: 0)
      18:	2f010000 	svccs	0x00010000
      1c:	2f727375 	svccs	0x00727375
      20:	61636f6c 	cmnvs	r3, ip, ror #30
      24:	65432f6c 	strbvs	r2, [r3, #-3948]	; 0xf6c
      28:	72616c6c 	rsbvc	r6, r1, #108, 24	; 0x6c00
      2c:	6d72612f 	ldfvse	f6, [r2, #-188]!	; 0xffffff44
      30:	6e6f6e2d 	cdpvs	14, 6, cr6, cr15, cr13, {1}
      34:	61652d65 	cmnvs	r5, r5, ror #26
      38:	342f6962 	strtcc	r6, [pc], #-2402	; 40 <_start-0x7fc0>
      3c:	332e382e 	teqcc	lr, #3014656	; 0x2e0000
      40:	3173632d 	cmncc	r3, sp, lsr #6
      44:	2f653037 	svccs	0x00653037
      48:	2f62696c 	svccs	0x0062696c
      4c:	2f636367 	svccs	0x00636367
      50:	2d6d7261 	sfmcs	f7, 2, [sp, #-388]!	; 0xfffffe7c
      54:	656e6f6e 	strbvs	r6, [lr, #-3950]!	; 0xf6e
      58:	6261652d 	rsbvs	r6, r1, #188743680	; 0xb400000
      5c:	2e342f69 	cdpcs	15, 3, cr2, cr4, cr9, {3}
      60:	2f332e38 	svccs	0x00332e38
      64:	6c636e69 	stclvs	14, cr6, [r3], #-420	; 0xfffffe5c
      68:	00656475 	rsbeq	r6, r5, r5, ror r4
      6c:	6573552f 	ldrbvs	r5, [r3, #-1327]!	; 0x52f
      70:	622f7372 	eorvs	r7, pc, #-939524095	; 0xc8000001
      74:	6e616972 	mcrvs	9, 3, r6, cr1, cr2, {3}
      78:	2f6e756a 	svccs	0x006e756a
      7c:	6b736544 	blvs	1cd9594 <__bss_end__+0x1ccd5dc>
      80:	2f706f74 	svccs	0x00706f74
      84:	6f686373 	svcvs	0x00686373
      88:	572f6c6f 	strpl	r6, [pc, -pc, ror #24]!
      8c:	65746e69 	ldrbvs	r6, [r4, #-3689]!	; 0xe69
      90:	32393172 	eorscc	r3, r9, #-2147483620	; 0x8000001c
      94:	53432f30 	movtpl	r2, #16176	; 0x3f30
      98:	45303431 	ldrmi	r3, [r0, #-1073]!	; 0x431
      9c:	3173632f 	cmncc	r3, pc, lsr #6
      a0:	2d653034 	stclcs	0, cr3, [r5, #-208]!	; 0xffffff30
      a4:	69773032 	ldmdbvs	r7!, {r1, r4, r5, ip, sp}^
      a8:	696c2f6e 	stmdbvs	ip!, {r1, r2, r3, r5, r6, r8, r9, sl, fp, sp}^
      ac:	2f697062 	svccs	0x00697062
      b0:	34317363 	ldrtcc	r7, [r1], #-867	; 0x363
      b4:	692d6530 	pushvs	{r4, r5, r8, sl, sp, lr}
      b8:	7265746e 	rsbvc	r7, r5, #1845493760	; 0x6e000000
      bc:	74707572 	ldrbtvc	r7, [r0], #-1394	; 0x572
      c0:	73552f00 	cmpvc	r5, #0, 30
      c4:	2f737265 	svccs	0x00737265
      c8:	61697262 	cmnvs	r9, r2, ror #4
      cc:	6e756a6e 	vsubvs.f32	s13, s10, s29
      d0:	7365442f 	cmnvc	r5, #788529152	; 0x2f000000
      d4:	706f746b 	rsbvc	r7, pc, fp, ror #8
      d8:	6863732f 	stmdavs	r3!, {r0, r1, r2, r3, r5, r8, r9, ip, sp, lr}^
      dc:	2f6c6f6f 	svccs	0x006c6f6f
      e0:	746e6957 	strbtvc	r6, [lr], #-2391	; 0x957
      e4:	39317265 	ldmdbcc	r1!, {r0, r2, r5, r6, r9, ip, sp, lr}
      e8:	432f3032 	teqmi	pc, #50	; 0x32
      ec:	30343153 	eorscc	r3, r4, r3, asr r1
      f0:	73632f45 	cmnvc	r3, #276	; 0x114
      f4:	65303431 	ldrvs	r3, [r0, #-1073]!	; 0x431
      f8:	7730322d 	ldrvc	r3, [r0, -sp, lsr #4]!
      fc:	6c2f6e69 	stcvs	14, cr6, [pc], #-420	; ffffff60 <__bss_end__+0xffff3fa8>
     100:	69706269 	ldmdbvs	r0!, {r0, r3, r5, r6, r9, sp, lr}^
     104:	73552f00 	cmpvc	r5, #0, 30
     108:	2f737265 	svccs	0x00737265
     10c:	61697262 	cmnvs	r9, r2, ror #4
     110:	6e756a6e 	vsubvs.f32	s13, s10, s29
     114:	7365442f 	cmnvc	r5, #788529152	; 0x2f000000
     118:	706f746b 	rsbvc	r7, pc, fp, ror #8
     11c:	6863732f 	stmdavs	r3!, {r0, r1, r2, r3, r5, r8, r9, ip, sp, lr}^
     120:	2f6c6f6f 	svccs	0x006c6f6f
     124:	746e6957 	strbtvc	r6, [lr], #-2391	; 0x957
     128:	39317265 	ldmdbcc	r1!, {r0, r2, r5, r6, r9, ip, sp, lr}
     12c:	432f3032 	teqmi	pc, #50	; 0x32
     130:	30343153 	eorscc	r3, r4, r3, asr r1
     134:	73632f45 	cmnvc	r3, #276	; 0x114
     138:	65303431 	ldrvs	r3, [r0, #-1073]!	; 0x431
     13c:	7730322d 	ldrvc	r3, [r0, -sp, lsr #4]!
     140:	6c2f6e69 	stcvs	14, cr6, [pc], #-420	; ffffffa4 <__bss_end__+0xffff3fec>
     144:	69706269 	ldmdbvs	r0!, {r0, r3, r5, r6, r9, sp, lr}^
     148:	3173632f 	cmncc	r3, pc, lsr #6
     14c:	2d653034 	stclcs	0, cr3, [r5, #-208]!	; 0xffffff30
     150:	00637273 	rsbeq	r7, r3, r3, ror r2
     154:	2d697000 	stclcs	0, cr7, [r9, #-0]
     158:	2e6d6d76 	mcrcs	13, 3, r6, cr13, cr6, {3}
     15c:	00000063 	andeq	r0, r0, r3, rrx
     160:	64747300 	ldrbtvs	r7, [r4], #-768	; 0x300
     164:	2d746e69 	ldclcs	14, cr6, [r4, #-420]!	; 0xfffffe5c
     168:	2e636367 	cdpcs	3, 6, cr6, cr3, cr7, {3}
     16c:	00010068 	andeq	r0, r1, r8, rrx
     170:	69707200 	ldmdbvs	r0!, {r9, ip, sp, lr}^
     174:	6d72612d 	ldfvse	f6, [r2, #-180]!	; 0xffffff4c
     178:	656d6974 	strbvs	r6, [sp, #-2420]!	; 0x974
     17c:	00682e72 	rsbeq	r2, r8, r2, ror lr
     180:	70000002 	andvc	r0, r0, r2
     184:	656d2d69 	strbvs	r2, [sp, #-3433]!	; 0xd69
     188:	67617373 			; <UNDEFINED> instruction: 0x67617373
     18c:	00682e65 	rsbeq	r2, r8, r5, ror #28
     190:	75000003 	strvc	r0, [r0, #-3]
     194:	2d747261 	lfmcs	f7, 2, [r4, #-388]!	; 0xfffffe7c
     198:	2e746e69 	cdpcs	14, 7, cr6, cr4, cr9, {3}
     19c:	00020068 	andeq	r0, r2, r8, rrx
     1a0:	69707200 	ldmdbvs	r0!, {r9, ip, sp, lr}^
     1a4:	0300682e 	movweq	r6, #2094	; 0x82e
     1a8:	70670000 	rsbvc	r0, r7, r0
     1ac:	682e6f69 	stmdavs	lr!, {r0, r3, r5, r6, r8, r9, sl, fp, sp, lr}
     1b0:	00000400 	andeq	r0, r0, r0, lsl #8
     1b4:	2d697072 	stclcs	0, cr7, [r9, #-456]!	; 0xfffffe38
     1b8:	65746e69 	ldrbvs	r6, [r4, #-3689]!	; 0xe69
     1bc:	70757272 	rsbsvc	r7, r5, r2, ror r2
     1c0:	682e7374 	stmdavs	lr!, {r2, r4, r5, r6, r8, r9, ip, sp, lr}
     1c4:	00000200 	andeq	r0, r0, r0, lsl #4
     1c8:	02050000 	andeq	r0, r5, #0
     1cc:	00008010 	andeq	r8, r0, r0, lsl r0
     1d0:	68012403 	stmdavs	r1, {r0, r1, sl, sp}
     1d4:	02040200 	andeq	r0, r4, #0, 4
     1d8:	0402004b 	streq	r0, [r2], #-75	; 0x4b
     1dc:	02004902 	andeq	r4, r0, #32768	; 0x8000
     1e0:	2e060104 	adfcss	f0, f6, f4
     1e4:	4c344c06 	ldcmi	12, cr4, [r4], #-24	; 0xffffffe8
     1e8:	660c0368 	strvs	r0, [ip], -r8, ror #6
     1ec:	034c4b4c 	movteq	r4, #52044	; 0xcb4c
     1f0:	00684a66 	rsbeq	r4, r8, r6, ror #20
     1f4:	4b020402 	blmi	81204 <__bss_end__+0x7524c>
     1f8:	02040200 	andeq	r0, r4, #0, 4
     1fc:	04020049 	streq	r0, [r2], #-73	; 0x49
     200:	062e0601 	strteq	r0, [lr], -r1, lsl #12
     204:	6783344c 	strvs	r3, [r3, ip, asr #8]
     208:	2f4a6a03 	svccs	0x004a6a03
     20c:	6674034b 	ldrbtvs	r0, [r4], -fp, asr #6
     210:	4a2f032f 	bmi	bc0ed4 <__bss_end__+0xbb4f1c>
     214:	312f2f67 	teqcc	pc, r7, ror #30
     218:	4dd76751 	ldclmi	7, cr6, [r7, #324]	; 0x144
     21c:	034a2203 	movteq	r2, #41475	; 0xa203
     220:	032f2e19 	teqeq	pc, #400	; 0x190
     224:	032f2e0a 	teqeq	pc, #10, 28	; 0xa0
     228:	024b2e47 	subeq	r2, fp, #1136	; 0x470
     22c:	4b2f1528 	blmi	bc56d4 <__bss_end__+0xbb971c>
     230:	2e0b034b 	cdpcs	3, 0, cr0, cr11, cr11, {2}
     234:	4b4b4b2f 	blmi	12d2ef8 <__bss_end__+0x12c6f40>
     238:	4b4b4b30 	blmi	12d2f00 <__bss_end__+0x12c6f48>
     23c:	2f4b334b 	svccs	0x004b334b
     240:	354b4b2f 	strbcc	r4, [fp, #-2863]	; 0xb2f
     244:	02040200 	andeq	r0, r4, #0, 4
     248:	0402004b 	streq	r0, [r2], #-75	; 0x4b
     24c:	02004902 	andeq	r4, r0, #32768	; 0x8000
     250:	2e060104 	adfcss	f0, f6, f4
     254:	02040200 	andeq	r0, r4, #0, 4
     258:	02008706 	andeq	r8, r0, #1572864	; 0x180000
     25c:	00810204 	addeq	r0, r1, r4, lsl #4
     260:	06010402 	streq	r0, [r1], -r2, lsl #8
     264:	4b4e062e 	blmi	1381b24 <__bss_end__+0x1375b6c>
     268:	334c4b30 	movtcc	r4, #52016	; 0xcb30
     26c:	304b4b2f 	subcc	r4, fp, pc, lsr #22
     270:	4b4b672f 	blmi	12d9f34 <__bss_end__+0x12cdf7c>
     274:	4b4b2f30 	blmi	12cbf3c <__bss_end__+0x12bff84>
     278:	4b4b4b30 	blmi	12d2f40 <__bss_end__+0x12c6f88>
     27c:	4b2f304b 	blmi	bcc3b0 <__bss_end__+0xbc03f8>
     280:	4b2f304b 	blmi	bcc3b4 <__bss_end__+0xbc03fc>
     284:	2202304b 	andcs	r3, r2, #75	; 0x4b
     288:	02010100 	andeq	r0, r1, #0, 2
     28c:	02000001 	andeq	r0, r0, #1
     290:	0000eb00 	andeq	lr, r0, r0, lsl #22
     294:	fb010200 	blx	40a9e <__bss_end__+0x34ae6>
     298:	01000d0e 	tsteq	r0, lr, lsl #26
     29c:	00010101 	andeq	r0, r1, r1, lsl #2
     2a0:	00010000 	andeq	r0, r1, r0
     2a4:	696c0100 	stmdbvs	ip!, {r8}^
     2a8:	2f006362 	svccs	0x00006362
     2ac:	2f727375 	svccs	0x00727375
     2b0:	61636f6c 	cmnvs	r3, ip, ror #30
     2b4:	65432f6c 	strbvs	r2, [r3, #-3948]	; 0xf6c
     2b8:	72616c6c 	rsbvc	r6, r1, #108, 24	; 0x6c00
     2bc:	6d72612f 	ldfvse	f6, [r2, #-188]!	; 0xffffff44
     2c0:	6e6f6e2d 	cdpvs	14, 6, cr6, cr15, cr13, {1}
     2c4:	61652d65 	cmnvs	r5, r5, ror #26
     2c8:	342f6962 	strtcc	r6, [pc], #-2402	; 2d0 <_start-0x7d30>
     2cc:	332e382e 	teqcc	lr, #3014656	; 0x2e0000
     2d0:	3173632d 	cmncc	r3, sp, lsr #6
     2d4:	2f653037 	svccs	0x00653037
     2d8:	2f62696c 	svccs	0x0062696c
     2dc:	2f636367 	svccs	0x00636367
     2e0:	2d6d7261 	sfmcs	f7, 2, [sp, #-388]!	; 0xfffffe7c
     2e4:	656e6f6e 	strbvs	r6, [lr, #-3950]!	; 0xf6e
     2e8:	6261652d 	rsbvs	r6, r1, #188743680	; 0xb400000
     2ec:	2e342f69 	cdpcs	15, 3, cr2, cr4, cr9, {3}
     2f0:	2f332e38 	svccs	0x00332e38
     2f4:	6c636e69 	stclvs	14, cr6, [r3], #-420	; 0xfffffe5c
     2f8:	00656475 	rsbeq	r6, r5, r5, ror r4
     2fc:	6573552f 	ldrbvs	r5, [r3, #-1327]!	; 0x52f
     300:	622f7372 	eorvs	r7, pc, #-939524095	; 0xc8000001
     304:	6e616972 	mcrvs	9, 3, r6, cr1, cr2, {3}
     308:	2f6e756a 	svccs	0x006e756a
     30c:	6b736544 	blvs	1cd9824 <__bss_end__+0x1ccd86c>
     310:	2f706f74 	svccs	0x00706f74
     314:	6f686373 	svcvs	0x00686373
     318:	572f6c6f 	strpl	r6, [pc, -pc, ror #24]!
     31c:	65746e69 	ldrbvs	r6, [r4, #-3689]!	; 0xe69
     320:	32393172 	eorscc	r3, r9, #-2147483620	; 0x8000001c
     324:	53432f30 	movtpl	r2, #16176	; 0x3f30
     328:	45303431 	ldrmi	r3, [r0, #-1073]!	; 0x431
     32c:	3173632f 	cmncc	r3, pc, lsr #6
     330:	2d653034 	stclcs	0, cr3, [r5, #-208]!	; 0xffffff30
     334:	69773032 	ldmdbvs	r7!, {r1, r4, r5, ip, sp}^
     338:	696c2f6e 	stmdbvs	ip!, {r1, r2, r3, r5, r6, r8, r9, sl, fp, sp}^
     33c:	00697062 	rsbeq	r7, r9, r2, rrx
     340:	69727000 	ldmdbvs	r2!, {ip, sp, lr}^
     344:	2e6b746e 	cdpcs	4, 6, cr7, cr11, cr14, {3}
     348:	00010063 	andeq	r0, r1, r3, rrx
     34c:	64747300 	ldrbtvs	r7, [r4], #-768	; 0x300
     350:	2e677261 	cdpcs	2, 6, cr7, cr7, cr1, {3}
     354:	00020068 	andeq	r0, r2, r8, rrx
     358:	75623c00 	strbvc	r3, [r2, #-3072]!	; 0xc00
     35c:	2d746c69 	ldclcs	12, cr6, [r4, #-420]!	; 0xfffffe5c
     360:	003e6e69 	eorseq	r6, lr, r9, ror #28
     364:	72000000 	andvc	r0, r0, #0
     368:	682e6970 	stmdavs	lr!, {r4, r5, r6, r8, fp, sp, lr}
     36c:	00000300 	andeq	r0, r0, r0, lsl #6
     370:	702d6176 	eorvc	r6, sp, r6, ror r1
     374:	746e6972 	strbtvc	r6, [lr], #-2418	; 0x972
     378:	00682e6b 	rsbeq	r2, r8, fp, ror #28
     37c:	00000001 	andeq	r0, r0, r1
     380:	80020500 	andhi	r0, r2, r0, lsl #10
     384:	17000083 	strne	r0, [r0, -r3, lsl #1]
     388:	89bf4b6b 	ldmibhi	pc!, {r0, r1, r3, r5, r6, r8, r9, fp, lr}	; <UNPREDICTABLE>
     38c:	01000e02 	tsteq	r0, r2, lsl #28
     390:	00008a01 	andeq	r8, r0, r1, lsl #20
     394:	72000200 	andvc	r0, r0, #0, 4
     398:	02000000 	andeq	r0, r0, #0
     39c:	0d0efb01 	vstreq	d15, [lr, #-4]
     3a0:	01010100 	mrseq	r0, (UNDEF: 17)
     3a4:	00000001 	andeq	r0, r0, r1
     3a8:	01000001 	tsteq	r0, r1
     3ac:	6362696c 	cmnvs	r2, #108, 18	; 0x1b0000
     3b0:	73552f00 	cmpvc	r5, #0, 30
     3b4:	2f737265 	svccs	0x00737265
     3b8:	61697262 	cmnvs	r9, r2, ror #4
     3bc:	6e756a6e 	vsubvs.f32	s13, s10, s29
     3c0:	7365442f 	cmnvc	r5, #788529152	; 0x2f000000
     3c4:	706f746b 	rsbvc	r7, pc, fp, ror #8
     3c8:	6863732f 	stmdavs	r3!, {r0, r1, r2, r3, r5, r8, r9, ip, sp, lr}^
     3cc:	2f6c6f6f 	svccs	0x006c6f6f
     3d0:	746e6957 	strbtvc	r6, [lr], #-2391	; 0x957
     3d4:	39317265 	ldmdbcc	r1!, {r0, r2, r5, r6, r9, ip, sp, lr}
     3d8:	432f3032 	teqmi	pc, #50	; 0x32
     3dc:	30343153 	eorscc	r3, r4, r3, asr r1
     3e0:	73632f45 	cmnvc	r3, #276	; 0x114
     3e4:	65303431 	ldrvs	r3, [r0, #-1073]!	; 0x431
     3e8:	7730322d 	ldrvc	r3, [r0, -sp, lsr #4]!
     3ec:	6c2f6e69 	stcvs	14, cr6, [pc], #-420	; 250 <_start-0x7db0>
     3f0:	69706269 	ldmdbvs	r0!, {r0, r3, r5, r6, r9, sp, lr}^
     3f4:	75700000 	ldrbvc	r0, [r0, #-0]!
     3f8:	61686374 	smcvs	34356	; 0x8634
     3fc:	00632e72 	rsbeq	r2, r3, r2, ror lr
     400:	72000001 	andvc	r0, r0, #1
     404:	682e6970 	stmdavs	lr!, {r4, r5, r6, r8, fp, sp, lr}
     408:	00000200 	andeq	r0, r0, r0, lsl #4
     40c:	02050000 	andeq	r0, r5, #0
     410:	000083d8 	ldrdeq	r8, [r0], -r8	; <UNPREDICTABLE>
     414:	136b4a14 	cmnne	fp, #20, 20	; 0x14000
     418:	080213bc 	stmdaeq	r2, {r2, r3, r4, r5, r7, r8, r9, ip}
     41c:	96010100 	strls	r0, [r1], -r0, lsl #2
     420:	02000000 	andeq	r0, r0, #0
     424:	00006f00 	andeq	r6, r0, r0, lsl #30
     428:	fb010200 	blx	40c32 <__bss_end__+0x34c7a>
     42c:	01000d0e 	tsteq	r0, lr, lsl #26
     430:	00010101 	andeq	r0, r1, r1, lsl #2
     434:	00010000 	andeq	r0, r1, r0
     438:	696c0100 	stmdbvs	ip!, {r8}^
     43c:	2f006362 	svccs	0x00006362
     440:	72657355 	rsbvc	r7, r5, #1409286145	; 0x54000001
     444:	72622f73 	rsbvc	r2, r2, #460	; 0x1cc
     448:	6a6e6169 	bvs	1b989f4 <__bss_end__+0x1b8ca3c>
     44c:	442f6e75 	strtmi	r6, [pc], #-3701	; 454 <_start-0x7bac>
     450:	746b7365 	strbtvc	r7, [fp], #-869	; 0x365
     454:	732f706f 	teqvc	pc, #111	; 0x6f
     458:	6f6f6863 	svcvs	0x006f6863
     45c:	69572f6c 	ldmdbvs	r7, {r2, r3, r5, r6, r8, r9, sl, fp, sp}^
     460:	7265746e 	rsbvc	r7, r5, #1845493760	; 0x6e000000
     464:	30323931 	eorscc	r3, r2, r1, lsr r9
     468:	3153432f 	cmpcc	r3, pc, lsr #6
     46c:	2f453034 	svccs	0x00453034
     470:	34317363 	ldrtcc	r7, [r1], #-867	; 0x363
     474:	322d6530 	eorcc	r6, sp, #48, 10	; 0xc000000
     478:	6e697730 	mcrvs	7, 3, r7, cr9, cr0, {1}
     47c:	62696c2f 	rsbvs	r6, r9, #12032	; 0x2f00
     480:	00006970 	andeq	r6, r0, r0, ror r9
     484:	6b747570 	blvs	1d1da4c <__bss_end__+0x1d11a94>
     488:	0100632e 	tsteq	r0, lr, lsr #6
     48c:	70720000 	rsbsvc	r0, r2, r0
     490:	00682e69 	rsbeq	r2, r8, r9, ror #28
     494:	00000002 	andeq	r0, r0, r2
     498:	14020500 	strne	r0, [r2], #-1280	; 0x500
     49c:	15000084 	strne	r0, [r0, #-132]	; 0x84
     4a0:	02002d4c 	andeq	r2, r0, #76, 26	; 0x1300
     4a4:	002f0204 	eoreq	r0, pc, r4, lsl #4
     4a8:	49020402 	stmdbmi	r2, {r1, sl}
     4ac:	01040200 	mrseq	r0, R12_usr
     4b0:	6b062e06 	blvs	18bcd0 <__bss_end__+0x17fd18>
     4b4:	01000602 	tsteq	r0, r2, lsl #12
     4b8:	0001de01 	andeq	sp, r1, r1, lsl #28
     4bc:	df000200 	svcle	0x00000200
     4c0:	02000000 	andeq	r0, r0, #0
     4c4:	0d0efb01 	vstreq	d15, [lr, #-4]
     4c8:	01010100 	mrseq	r0, (UNDEF: 17)
     4cc:	00000001 	andeq	r0, r0, r1
     4d0:	01000001 	tsteq	r0, r1
     4d4:	6362696c 	cmnvs	r2, #108, 18	; 0x1b0000
     4d8:	73752f00 	cmnvc	r5, #0, 30
     4dc:	6f6c2f72 	svcvs	0x006c2f72
     4e0:	2f6c6163 	svccs	0x006c6163
     4e4:	6c6c6543 	cfstr64vs	mvdx6, [ip], #-268	; 0xfffffef4
     4e8:	612f7261 	teqvs	pc, r1, ror #4
     4ec:	6e2d6d72 	mcrvs	13, 1, r6, cr13, cr2, {3}
     4f0:	2d656e6f 	stclcs	14, cr6, [r5, #-444]!	; 0xfffffe44
     4f4:	69626165 	stmdbvs	r2!, {r0, r2, r5, r6, r8, sp, lr}^
     4f8:	382e342f 	stmdacc	lr!, {r0, r1, r2, r3, r5, sl, ip, sp}
     4fc:	632d332e 	teqvs	sp, #-1207959552	; 0xb8000000
     500:	30373173 	eorscc	r3, r7, r3, ror r1
     504:	696c2f65 	stmdbvs	ip!, {r0, r2, r5, r6, r8, r9, sl, fp, sp}^
     508:	63672f62 	cmnvs	r7, #392	; 0x188
     50c:	72612f63 	rsbvc	r2, r1, #396	; 0x18c
     510:	6f6e2d6d 	svcvs	0x006e2d6d
     514:	652d656e 	strvs	r6, [sp, #-1390]!	; 0x56e
     518:	2f696261 	svccs	0x00696261
     51c:	2e382e34 	mrccs	14, 1, r2, cr8, cr4, {1}
     520:	6e692f33 	mcrvs	15, 3, r2, cr9, cr3, {1}
     524:	64756c63 	ldrbtvs	r6, [r5], #-3171	; 0xc63
     528:	552f0065 	strpl	r0, [pc, #-101]!	; 4cb <_start-0x7b35>
     52c:	73726573 	cmnvc	r2, #482344960	; 0x1cc00000
     530:	6972622f 	ldmdbvs	r2!, {r0, r1, r2, r3, r5, r9, sp, lr}^
     534:	756a6e61 	strbvc	r6, [sl, #-3681]!	; 0xe61
     538:	65442f6e 	strbvs	r2, [r4, #-3950]	; 0xf6e
     53c:	6f746b73 	svcvs	0x00746b73
     540:	63732f70 	cmnvs	r3, #112, 30	; 0x1c0
     544:	6c6f6f68 	stclvs	15, cr6, [pc], #-416	; 3ac <_start-0x7c54>
     548:	6e69572f 	cdpvs	7, 6, cr5, cr9, cr15, {1}
     54c:	31726574 	cmncc	r2, r4, ror r5
     550:	2f303239 	svccs	0x00303239
     554:	34315343 	ldrtcc	r5, [r1], #-835	; 0x343
     558:	632f4530 	teqvs	pc, #48, 10	; 0xc000000
     55c:	30343173 	eorscc	r3, r4, r3, ror r1
     560:	30322d65 	eorscc	r2, r2, r5, ror #26
     564:	2f6e6977 	svccs	0x006e6977
     568:	7062696c 	rsbvc	r6, r2, ip, ror #18
     56c:	76000069 	strvc	r0, [r0], -r9, rrx
     570:	72702d61 	rsbsvc	r2, r0, #6208	; 0x1840
     574:	6b746e69 	blvs	1d1bf20 <__bss_end__+0x1d0ff68>
     578:	0100632e 	tsteq	r0, lr, lsr #6
     57c:	74730000 	ldrbtvc	r0, [r3], #-0
     580:	67726164 	ldrbvs	r6, [r2, -r4, ror #2]!
     584:	0200682e 	andeq	r6, r0, #3014656	; 0x2e0000
     588:	70720000 	rsbsvc	r0, r2, r0
     58c:	00682e69 	rsbeq	r2, r8, r9, ror #28
     590:	3c000003 	stccc	0, cr0, [r0], {3}
     594:	6c697562 	cfstr64vs	mvdx7, [r9], #-392	; 0xfffffe78
     598:	6e692d74 	mcrvs	13, 3, r2, cr9, cr4, {3}
     59c:	0000003e 	andeq	r0, r0, lr, lsr r0
     5a0:	05000000 	streq	r0, [r0, #-0]
     5a4:	00844802 	addeq	r4, r4, r2, lsl #16
     5a8:	01260300 	teqeq	r6, r0, lsl #6
     5ac:	3113a501 	tstcc	r3, r1, lsl #10
     5b0:	0402002d 	streq	r0, [r2], #-45	; 0x2d
     5b4:	02002f02 	andeq	r2, r0, #2, 30
     5b8:	002d0204 	eoreq	r0, sp, r4, lsl #4
     5bc:	2f020402 	svccs	0x00020402
     5c0:	01040200 	mrseq	r0, R12_usr
     5c4:	304c4c2d 	subcc	r4, ip, sp, lsr #24
     5c8:	4f2f4b14 	svcmi	0x002f4b14
     5cc:	02040200 	andeq	r0, r4, #0, 4
     5d0:	04020067 	streq	r0, [r2], #-103	; 0x67
     5d4:	4d4c6501 	cfstr64mi	mvdx6, [ip, #-4]
     5d8:	312fa030 	teqcc	pc, r0, lsr r0	; <UNPREDICTABLE>
     5dc:	16260230 			; <UNDEFINED> instruction: 0x16260230
     5e0:	002c2d84 	eoreq	r2, ip, r4, lsl #27
     5e4:	30010402 	andcc	r0, r1, r2, lsl #8
     5e8:	01040200 	mrseq	r0, R12_usr
     5ec:	00660633 	rsbeq	r0, r6, r3, lsr r6
     5f0:	2e010402 	cdpcs	4, 0, cr0, cr1, cr2, {0}
     5f4:	01040200 	mrseq	r0, R12_usr
     5f8:	67210806 	strvs	r0, [r1, -r6, lsl #16]!
     5fc:	8273032f 	rsbshi	r0, r3, #-1140850688	; 0xbc000000
     600:	002e1303 	eoreq	r1, lr, r3, lsl #6
     604:	06010402 	streq	r0, [r1], -r2, lsl #8
     608:	0402002e 	streq	r0, [r2], #-46	; 0x2e
     60c:	6a9f0601 	bvs	fe7c1e18 <__bss_end__+0xfe7b5e60>
     610:	2e67034b 	cdpcs	3, 6, cr0, cr7, cr11, {2}
     614:	002e2103 	eoreq	r2, lr, r3, lsl #2
     618:	06010402 	streq	r0, [r1], -r2, lsl #8
     61c:	0402002e 	streq	r0, [r2], #-46	; 0x2e
     620:	009f0601 	addseq	r0, pc, r1, lsl #12
     624:	6a010402 	bvs	41634 <__bss_end__+0x3567c>
     628:	a603f3d9 			; <UNDEFINED> instruction: 0xa603f3d9
     62c:	2f20087f 	svccs	0x0020087f
     630:	01040200 	mrseq	r0, R12_usr
     634:	d7064a06 	strle	r4, [r6, -r6, lsl #20]
     638:	da032f4b 	ble	cc36c <__bss_end__+0xc03b4>
     63c:	4c83f200 	sfmmi	f7, 1, [r3], {0}
     640:	2e0e0348 	cdpcs	3, 0, cr0, cr14, cr8, {2}
     644:	2f2e7503 	svccs	0x002e7503
     648:	2f4b842f 	svccs	0x004b842f
     64c:	30314d2d 	eorscc	r4, r1, sp, lsr #26
     650:	0200832f 	andeq	r8, r0, #-1140850688	; 0xbc000000
     654:	a22c0104 	eorge	r0, ip, #4, 2
     658:	01040200 	mrseq	r0, R12_usr
     65c:	d8064a06 	stmdale	r6, {r1, r2, r9, fp, lr}
     660:	03163602 	tsteq	r6, #2097152	; 0x200000
     664:	2108d60e 	tstcs	r8, lr, lsl #12
     668:	f331f330 	vcge.u<illegal width 64>	d15, d1, d16
     66c:	4b30f330 	blmi	c3d334 <__bss_end__+0xc3137c>
     670:	0830f330 	ldmdaeq	r0!, {r4, r5, r8, r9, ip, sp, lr, pc}
     674:	002f3123 	eoreq	r3, pc, r3, lsr #2
     678:	65010402 	strvs	r0, [r1, #-1026]	; 0x402
     67c:	02040200 	andeq	r0, r4, #0, 4
     680:	02004a06 	andeq	r4, r0, #24576	; 0x6000
     684:	03060104 	movweq	r0, #24836	; 0x6104
     688:	02006642 	andeq	r6, r0, #69206016	; 0x4200000
     68c:	66060204 	strvs	r0, [r6], -r4, lsl #4
     690:	00c20306 	sbceq	r0, r2, r6, lsl #6
     694:	1002684a 	andne	r6, r2, sl, asr #16
     698:	93010100 	movwls	r0, #4352	; 0x1100
     69c:	02000000 	andeq	r0, r0, #0
     6a0:	00007d00 	andeq	r7, r0, r0, lsl #26
     6a4:	fb010200 	blx	40eae <__bss_end__+0x34ef6>
     6a8:	01000d0e 	tsteq	r0, lr, lsl #26
     6ac:	00010101 	andeq	r0, r1, r1, lsl #2
     6b0:	00010000 	andeq	r0, r1, r0
     6b4:	73630100 	cmnvc	r3, #0, 2
     6b8:	65303431 	ldrvs	r3, [r0, #-1073]!	; 0x431
     6bc:	6372732d 	cmnvs	r2, #-1275068416	; 0xb4000000
     6c0:	73552f00 	cmpvc	r5, #0, 30
     6c4:	2f737265 	svccs	0x00737265
     6c8:	61697262 	cmnvs	r9, r2, ror #4
     6cc:	6e756a6e 	vsubvs.f32	s13, s10, s29
     6d0:	7365442f 	cmnvc	r5, #788529152	; 0x2f000000
     6d4:	706f746b 	rsbvc	r7, pc, fp, ror #8
     6d8:	6863732f 	stmdavs	r3!, {r0, r1, r2, r3, r5, r8, r9, ip, sp, lr}^
     6dc:	2f6c6f6f 	svccs	0x006c6f6f
     6e0:	746e6957 	strbtvc	r6, [lr], #-2391	; 0x957
     6e4:	39317265 	ldmdbcc	r1!, {r0, r2, r5, r6, r9, ip, sp, lr}
     6e8:	432f3032 	teqmi	pc, #50	; 0x32
     6ec:	30343153 	eorscc	r3, r4, r3, asr r1
     6f0:	73632f45 	cmnvc	r3, #276	; 0x114
     6f4:	65303431 	ldrvs	r3, [r0, #-1073]!	; 0x431
     6f8:	7730322d 	ldrvc	r3, [r0, -sp, lsr #4]!
     6fc:	6c2f6e69 	stcvs	14, cr6, [pc], #-420	; 560 <_start-0x7aa0>
     700:	69706269 	ldmdbvs	r0!, {r0, r3, r5, r6, r9, sp, lr}^
     704:	6c630000 	stclvs	0, cr0, [r3], #-0
     708:	2d6e6165 	stfcse	f6, [lr, #-404]!	; 0xfffffe6c
     70c:	6f626572 	svcvs	0x00626572
     710:	632e746f 	teqvs	lr, #1862270976	; 0x6f000000
     714:	00000100 	andeq	r0, r0, r0, lsl #2
     718:	2e697072 	mcrcs	0, 3, r7, cr9, cr2, {3}
     71c:	00020068 	andeq	r0, r2, r8, rrx
     720:	05000000 	streq	r0, [r0, #-0]
     724:	00894002 	addeq	r4, r9, r2
     728:	832f1500 	teqhi	pc, #0, 10
     72c:	0006024b 	andeq	r0, r6, fp, asr #4
     730:	01210101 	teqeq	r1, r1, lsl #2
     734:	00020000 	andeq	r0, r2, r0
     738:	000000f8 	strdeq	r0, [r0], -r8
     73c:	0efb0102 	cdpeq	1, 15, cr0, cr11, cr2, {0}
     740:	0101000d 	tsteq	r1, sp
     744:	00000101 	andeq	r0, r0, r1, lsl #2
     748:	00000100 	andeq	r0, r0, r0, lsl #2
     74c:	31736301 	cmncc	r3, r1, lsl #6
     750:	2d653034 	stclcs	0, cr3, [r5, #-208]!	; 0xffffff30
     754:	00637273 	rsbeq	r7, r3, r3, ror r2
     758:	7273752f 	rsbsvc	r7, r3, #197132288	; 0xbc00000
     75c:	636f6c2f 	cmnvs	pc, #12032	; 0x2f00
     760:	432f6c61 	teqmi	pc, #24832	; 0x6100
     764:	616c6c65 	cmnvs	ip, r5, ror #24
     768:	72612f72 	rsbvc	r2, r1, #456	; 0x1c8
     76c:	6f6e2d6d 	svcvs	0x006e2d6d
     770:	652d656e 	strvs	r6, [sp, #-1390]!	; 0x56e
     774:	2f696261 	svccs	0x00696261
     778:	2e382e34 	mrccs	14, 1, r2, cr8, cr4, {1}
     77c:	73632d33 	cmnvc	r3, #3264	; 0xcc0
     780:	65303731 	ldrvs	r3, [r0, #-1841]!	; 0x731
     784:	62696c2f 	rsbvs	r6, r9, #12032	; 0x2f00
     788:	6363672f 	cmnvs	r3, #12320768	; 0xbc0000
     78c:	6d72612f 	ldfvse	f6, [r2, #-188]!	; 0xffffff44
     790:	6e6f6e2d 	cdpvs	14, 6, cr6, cr15, cr13, {1}
     794:	61652d65 	cmnvs	r5, r5, ror #26
     798:	342f6962 	strtcc	r6, [pc], #-2402	; 7a0 <_start-0x7860>
     79c:	332e382e 	teqcc	lr, #3014656	; 0x2e0000
     7a0:	636e692f 	cmnvs	lr, #770048	; 0xbc000
     7a4:	6564756c 	strbvs	r7, [r4, #-1388]!	; 0x56c
     7a8:	73552f00 	cmpvc	r5, #0, 30
     7ac:	2f737265 	svccs	0x00737265
     7b0:	61697262 	cmnvs	r9, r2, ror #4
     7b4:	6e756a6e 	vsubvs.f32	s13, s10, s29
     7b8:	7365442f 	cmnvc	r5, #788529152	; 0x2f000000
     7bc:	706f746b 	rsbvc	r7, pc, fp, ror #8
     7c0:	6863732f 	stmdavs	r3!, {r0, r1, r2, r3, r5, r8, r9, ip, sp, lr}^
     7c4:	2f6c6f6f 	svccs	0x006c6f6f
     7c8:	746e6957 	strbtvc	r6, [lr], #-2391	; 0x957
     7cc:	39317265 	ldmdbcc	r1!, {r0, r2, r5, r6, r9, ip, sp, lr}
     7d0:	432f3032 	teqmi	pc, #50	; 0x32
     7d4:	30343153 	eorscc	r3, r4, r3, asr r1
     7d8:	73632f45 	cmnvc	r3, #276	; 0x114
     7dc:	65303431 	ldrvs	r3, [r0, #-1073]!	; 0x431
     7e0:	7730322d 	ldrvc	r3, [r0, -sp, lsr #4]!
     7e4:	6c2f6e69 	stcvs	14, cr6, [pc], #-420	; 648 <_start-0x79b8>
     7e8:	69706269 	ldmdbvs	r0!, {r0, r3, r5, r6, r9, sp, lr}^
     7ec:	73630000 	cmnvc	r3, #0
     7f0:	74726174 	ldrbtvc	r6, [r2], #-372	; 0x174
     7f4:	0100632e 	tsteq	r0, lr, lsr #6
     7f8:	74730000 	ldrbtvc	r0, [r3], #-0
     7fc:	746e6964 	strbtvc	r6, [lr], #-2404	; 0x964
     800:	6363672d 	cmnvs	r3, #11796480	; 0xb40000
     804:	0200682e 	andeq	r6, r0, #3014656	; 0x2e0000
     808:	77730000 	ldrbvc	r0, [r3, -r0]!
     80c:	7261752d 	rsbvc	r7, r1, #188743680	; 0xb400000
     810:	00682e74 	rsbeq	r2, r8, r4, ror lr
     814:	63000001 	movwvs	r0, #1
     818:	72746e6f 	rsbsvc	r6, r4, #1776	; 0x6f0
     81c:	622d6c6f 	eorvs	r6, sp, #28416	; 0x6f00
     820:	6b636f6c 	blvs	18dc5d8 <__bss_end__+0x18d0620>
     824:	0100682e 	tsteq	r0, lr, lsr #16
     828:	70720000 	rsbsvc	r0, r2, r0
     82c:	00682e69 	rsbeq	r2, r8, r9, ror #28
     830:	00000003 	andeq	r0, r0, r3
     834:	68020500 	stmdavs	r2, {r8, sl}
     838:	17000089 	strne	r0, [r0, -r9, lsl #1]
     83c:	3268684b 	rsbcc	r6, r8, #4915200	; 0x4b0000
     840:	2f2d2f31 	svccs	0x002d2f31
     844:	01040200 	mrseq	r0, R12_usr
     848:	4b2f4f49 	blmi	bd4574 <__bss_end__+0xbc85bc>
     84c:	67836767 	strvs	r6, [r3, r7, ror #14]
     850:	10022f4e 	andne	r2, r2, lr, asr #30
     854:	99010100 	stmdbls	r1, {r8}
     858:	02000000 	andeq	r0, r0, #0
     85c:	00007700 	andeq	r7, r0, r0, lsl #14
     860:	fb010200 	blx	4106a <__bss_end__+0x350b2>
     864:	01000d0e 	tsteq	r0, lr, lsl #26
     868:	00010101 	andeq	r0, r1, r1, lsl #2
     86c:	00010000 	andeq	r0, r1, r0
     870:	73630100 	cmnvc	r3, #0, 2
     874:	65303431 	ldrvs	r3, [r0, #-1073]!	; 0x431
     878:	6372732d 	cmnvs	r2, #-1275068416	; 0xb4000000
     87c:	73552f00 	cmpvc	r5, #0, 30
     880:	2f737265 	svccs	0x00737265
     884:	61697262 	cmnvs	r9, r2, ror #4
     888:	6e756a6e 	vsubvs.f32	s13, s10, s29
     88c:	7365442f 	cmnvc	r5, #788529152	; 0x2f000000
     890:	706f746b 	rsbvc	r7, pc, fp, ror #8
     894:	6863732f 	stmdavs	r3!, {r0, r1, r2, r3, r5, r8, r9, ip, sp, lr}^
     898:	2f6c6f6f 	svccs	0x006c6f6f
     89c:	746e6957 	strbtvc	r6, [lr], #-2391	; 0x957
     8a0:	39317265 	ldmdbcc	r1!, {r0, r2, r5, r6, r9, ip, sp, lr}
     8a4:	432f3032 	teqmi	pc, #50	; 0x32
     8a8:	30343153 	eorscc	r3, r4, r3, asr r1
     8ac:	73632f45 	cmnvc	r3, #276	; 0x114
     8b0:	65303431 	ldrvs	r3, [r0, #-1073]!	; 0x431
     8b4:	7730322d 	ldrvc	r3, [r0, -sp, lsr #4]!
     8b8:	6c2f6e69 	stcvs	14, cr6, [pc], #-420	; 71c <_start-0x78e4>
     8bc:	69706269 	ldmdbvs	r0!, {r0, r3, r5, r6, r9, sp, lr}^
     8c0:	65720000 	ldrbvs	r0, [r2, #-0]!
     8c4:	746f6f62 	strbtvc	r6, [pc], #-3938	; 8cc <_start-0x7734>
     8c8:	0100632e 	tsteq	r0, lr, lsr #6
     8cc:	70720000 	rsbsvc	r0, r2, r0
     8d0:	00682e69 	rsbeq	r2, r8, r9, ror #28
     8d4:	00000002 	andeq	r0, r0, r2
     8d8:	18020500 	stmdane	r2, {r8, sl}
     8dc:	0300008a 	movweq	r0, #138	; 0x8a
     8e0:	3114010d 	tstcc	r4, sp, lsl #2
     8e4:	2f15852f 	svccs	0x0015852f
     8e8:	672f4d4b 	strvs	r4, [pc, -fp, asr #26]!
     8ec:	02675235 	rsbeq	r5, r7, #1342177283	; 0x50000003
     8f0:	01010010 	tsteq	r1, r0, lsl r0
     8f4:	000000a3 	andeq	r0, r0, r3, lsr #1
     8f8:	00760002 	rsbseq	r0, r6, r2
     8fc:	01020000 	mrseq	r0, (UNDEF: 2)
     900:	000d0efb 	strdeq	r0, [sp], -fp
     904:	01010101 	tsteq	r1, r1, lsl #2
     908:	01000000 	mrseq	r0, (UNDEF: 0)
     90c:	63010000 	movwvs	r0, #4096	; 0x1000
     910:	30343173 	eorscc	r3, r4, r3, ror r1
     914:	72732d65 	rsbsvc	r2, r3, #6464	; 0x1940
     918:	552f0063 	strpl	r0, [pc, #-99]!	; 8bd <_start-0x7743>
     91c:	73726573 	cmnvc	r2, #482344960	; 0x1cc00000
     920:	6972622f 	ldmdbvs	r2!, {r0, r1, r2, r3, r5, r9, sp, lr}^
     924:	756a6e61 	strbvc	r6, [sl, #-3681]!	; 0xe61
     928:	65442f6e 	strbvs	r2, [r4, #-3950]	; 0xf6e
     92c:	6f746b73 	svcvs	0x00746b73
     930:	63732f70 	cmnvs	r3, #112, 30	; 0x1c0
     934:	6c6f6f68 	stclvs	15, cr6, [pc], #-416	; 79c <_start-0x7864>
     938:	6e69572f 	cdpvs	7, 6, cr5, cr9, cr15, {1}
     93c:	31726574 	cmncc	r2, r4, ror r5
     940:	2f303239 	svccs	0x00303239
     944:	34315343 	ldrtcc	r5, [r1], #-835	; 0x343
     948:	632f4530 	teqvs	pc, #48, 10	; 0xc000000
     94c:	30343173 	eorscc	r3, r4, r3, ror r1
     950:	30322d65 	eorscc	r2, r2, r5, ror #26
     954:	2f6e6977 	svccs	0x006e6977
     958:	7062696c 	rsbvc	r6, r2, ip, ror #18
     95c:	74000069 	strvc	r0, [r0], #-105	; 0x69
     960:	72656d69 	rsbvc	r6, r5, #6720	; 0x1a40
     964:	0100632e 	tsteq	r0, lr, lsr #6
     968:	70720000 	rsbsvc	r0, r2, r0
     96c:	00682e69 	rsbeq	r2, r8, r9, ror #28
     970:	00000002 	andeq	r0, r0, r2
     974:	8c020500 	cfstr32hi	mvfx0, [r2], {-0}
     978:	1600008a 	strne	r0, [r0], -sl, lsl #1
     97c:	002d2f13 	eoreq	r2, sp, r3, lsl pc
     980:	06010402 	streq	r0, [r1], -r2, lsl #8
     984:	3168062e 	cmncc	r8, lr, lsr #12
     988:	324d4b2f 	subcc	r4, sp, #48128	; 0xbc00
     98c:	4c4b3031 	mcrrmi	0, 3, r3, fp, cr1
     990:	2f2f6a2f 	svccs	0x002f6a2f
     994:	08022f84 	stmdaeq	r2, {r2, r7, r8, r9, sl, fp, sp}
     998:	78010100 	stmdavc	r1, {r8}
     99c:	02000001 	andeq	r0, r0, #1
     9a0:	0000ca00 	andeq	ip, r0, r0, lsl #20
     9a4:	fb010200 	blx	411ae <__bss_end__+0x351f6>
     9a8:	01000d0e 	tsteq	r0, lr, lsl #26
     9ac:	00010101 	andeq	r0, r1, r1, lsl #2
     9b0:	00010000 	andeq	r0, r1, r0
     9b4:	796d0100 	stmdbvc	sp!, {r8}^
     9b8:	6372732d 	cmnvs	r2, #-1275068416	; 0xb4000000
     9bc:	73552f00 	cmpvc	r5, #0, 30
     9c0:	2f737265 	svccs	0x00737265
     9c4:	61697262 	cmnvs	r9, r2, ror #4
     9c8:	6e756a6e 	vsubvs.f32	s13, s10, s29
     9cc:	7365442f 	cmnvc	r5, #788529152	; 0x2f000000
     9d0:	706f746b 	rsbvc	r7, pc, fp, ror #8
     9d4:	6863732f 	stmdavs	r3!, {r0, r1, r2, r3, r5, r8, r9, ip, sp, lr}^
     9d8:	2f6c6f6f 	svccs	0x006c6f6f
     9dc:	746e6957 	strbtvc	r6, [lr], #-2391	; 0x957
     9e0:	39317265 	ldmdbcc	r1!, {r0, r2, r5, r6, r9, ip, sp, lr}
     9e4:	432f3032 	teqmi	pc, #50	; 0x32
     9e8:	30343153 	eorscc	r3, r4, r3, asr r1
     9ec:	73632f45 	cmnvc	r3, #276	; 0x114
     9f0:	65303431 	ldrvs	r3, [r0, #-1073]!	; 0x431
     9f4:	7730322d 	ldrvc	r3, [r0, -sp, lsr #4]!
     9f8:	6c2f6e69 	stcvs	14, cr6, [pc], #-420	; 85c <_start-0x77a4>
     9fc:	69706269 	ldmdbvs	r0!, {r0, r3, r5, r6, r9, sp, lr}^
     a00:	3173632f 	cmncc	r3, pc, lsr #6
     a04:	2d653034 	stclcs	0, cr3, [r5, #-208]!	; 0xffffff30
     a08:	00637273 	rsbeq	r7, r3, r3, ror r2
     a0c:	6573552f 	ldrbvs	r5, [r3, #-1327]!	; 0x52f
     a10:	622f7372 	eorvs	r7, pc, #-939524095	; 0xc8000001
     a14:	6e616972 	mcrvs	9, 3, r6, cr1, cr2, {3}
     a18:	2f6e756a 	svccs	0x006e756a
     a1c:	6b736544 	blvs	1cd9f34 <__bss_end__+0x1ccdf7c>
     a20:	2f706f74 	svccs	0x00706f74
     a24:	6f686373 	svcvs	0x00686373
     a28:	572f6c6f 	strpl	r6, [pc, -pc, ror #24]!
     a2c:	65746e69 	ldrbvs	r6, [r4, #-3689]!	; 0xe69
     a30:	32393172 	eorscc	r3, r9, #-2147483620	; 0x8000001c
     a34:	53432f30 	movtpl	r2, #16176	; 0x3f30
     a38:	45303431 	ldrmi	r3, [r0, #-1073]!	; 0x431
     a3c:	3173632f 	cmncc	r3, pc, lsr #6
     a40:	2d653034 	stclcs	0, cr3, [r5, #-208]!	; 0xffffff30
     a44:	69773032 	ldmdbvs	r7!, {r1, r4, r5, ip, sp}^
     a48:	696c2f6e 	stmdbvs	ip!, {r1, r2, r3, r5, r6, r8, r9, sl, fp, sp}^
     a4c:	00697062 	rsbeq	r7, r9, r2, rrx
     a50:	69706700 	ldmdbvs	r0!, {r8, r9, sl, sp, lr}^
     a54:	00632e6f 	rsbeq	r2, r3, pc, ror #28
     a58:	67000001 	strvs	r0, [r0, -r1]
     a5c:	2e6f6970 	mcrcs	9, 3, r6, cr15, cr0, {3}
     a60:	00020068 	andeq	r0, r2, r8, rrx
     a64:	69707200 	ldmdbvs	r0!, {r9, ip, sp, lr}^
     a68:	0300682e 	movweq	r6, #2094	; 0x82e
     a6c:	00000000 	andeq	r0, r0, r0
     a70:	8b140205 	blhi	50128c <__bss_end__+0x4f52d4>
     a74:	3e030000 	cdpcc	0, 0, cr0, cr3, cr0, {0}
     a78:	69504e01 	ldmdbvs	r0, {r0, r9, sl, fp, lr}^
     a7c:	67672108 	strbvs	r2, [r7, -r8, lsl #2]!
     a80:	67676767 	strbvs	r6, [r7, -r7, ror #14]!
     a84:	22084b32 	andcs	r4, r8, #51200	; 0xc800
     a88:	135131dc 	cmpne	r1, #220, 2	; 0x37
     a8c:	be30504e 	cdplt	0, 3, cr5, cr0, cr14, {2}
     a90:	4d135031 	ldcmi	0, cr5, [r3, #-196]	; 0xffffff3c
     a94:	4cc0304f 	stclmi	0, cr3, [r0], {79}	; 0x4f
     a98:	21086950 	tstcs	r8, r0, asr r9
     a9c:	67676767 	strbvs	r6, [r7, -r7, ror #14]!
     aa0:	4b326767 	blmi	c9a844 <__bss_end__+0xc8e88c>
     aa4:	4ca42108 	stfmis	f2, [r4], #32
     aa8:	69842f50 	stmibvs	r4, {r4, r6, r8, r9, sl, fp, sp}
     aac:	03827503 	orreq	r7, r2, #12582912	; 0xc00000
     ab0:	304d2e0c 	subcc	r2, sp, ip, lsl #28
     ab4:	4d4c4b4e 	vstrmi	d20, [ip, #-312]	; 0xfffffec8
     ab8:	08696b6a 	stmdaeq	r9!, {r1, r3, r5, r6, r8, r9, fp, sp, lr}^
     abc:	67676721 	strbvs	r6, [r7, -r1, lsr #14]!
     ac0:	32676767 	rsbcc	r6, r7, #27000832	; 0x19c0000
     ac4:	0322084b 	teqeq	r2, #4915200	; 0x4b0000
     ac8:	9f31ba1a 	svcls	0x0031ba1a
     acc:	4d522f4c 	ldclmi	15, cr2, [r2, #-304]	; 0xfffffed0
     ad0:	674b2f4e 	strbvs	r2, [fp, -lr, asr #30]
     ad4:	6767684b 	strbvs	r6, [r7, -fp, asr #16]!
     ad8:	2f672f4c 	svccs	0x00672f4c
     adc:	4e4c6e4b 	cdpmi	14, 4, cr6, cr12, cr11, {2}
     ae0:	4b674b2f 	blmi	19d37a4 <__bss_end__+0x19c77ec>
     ae4:	4c676768 	stclmi	7, cr6, [r7], #-416	; 0xfffffe60
     ae8:	4b2f672f 	blmi	bda7ac <__bss_end__+0xbce7f4>
     aec:	2f4e4b6d 	svccs	0x004e4b6d
     af0:	0200674b 	andeq	r6, r0, #19660800	; 0x12c0000
     af4:	66060104 	strvs	r0, [r6], -r4, lsl #2
     af8:	2f9f6806 	svccs	0x009f6806
     afc:	01040200 	mrseq	r0, R12_usr
     b00:	68064a06 	stmdavs	r6, {r1, r2, r9, fp, lr}
     b04:	4a73032f 	bmi	1cc17c8 <__bss_end__+0x1cb5810>
     b08:	4d2e0e03 	stcmi	14, cr0, [lr, #-12]!
     b0c:	4b2f4e4c 	blmi	bd4444 <__bss_end__+0xbc848c>
     b10:	0602bcbc 			; <UNDEFINED> instruction: 0x0602bcbc
     b14:	45010100 	strmi	r0, [r1, #-256]	; 0x100
     b18:	02000003 	andeq	r0, r0, #3
     b1c:	0001bd00 	andeq	fp, r1, r0, lsl #26
     b20:	fb010200 	blx	4132a <__bss_end__+0x35372>
     b24:	01000d0e 	tsteq	r0, lr, lsl #26
     b28:	00010101 	andeq	r0, r1, r1, lsl #2
     b2c:	00010000 	andeq	r0, r1, r0
     b30:	796d0100 	stmdbvc	sp!, {r8}^
     b34:	6372732d 	cmnvs	r2, #-1275068416	; 0xb4000000
     b38:	73552f00 	cmpvc	r5, #0, 30
     b3c:	2f737265 	svccs	0x00737265
     b40:	61697262 	cmnvs	r9, r2, ror #4
     b44:	6e756a6e 	vsubvs.f32	s13, s10, s29
     b48:	7365442f 	cmnvc	r5, #788529152	; 0x2f000000
     b4c:	706f746b 	rsbvc	r7, pc, fp, ror #8
     b50:	6863732f 	stmdavs	r3!, {r0, r1, r2, r3, r5, r8, r9, ip, sp, lr}^
     b54:	2f6c6f6f 	svccs	0x006c6f6f
     b58:	746e6957 	strbtvc	r6, [lr], #-2391	; 0x957
     b5c:	39317265 	ldmdbcc	r1!, {r0, r2, r5, r6, r9, ip, sp, lr}
     b60:	432f3032 	teqmi	pc, #50	; 0x32
     b64:	30343153 	eorscc	r3, r4, r3, asr r1
     b68:	73632f45 	cmnvc	r3, #276	; 0x114
     b6c:	65303431 	ldrvs	r3, [r0, #-1073]!	; 0x431
     b70:	7730322d 	ldrvc	r3, [r0, -sp, lsr #4]!
     b74:	6c2f6e69 	stcvs	14, cr6, [pc], #-420	; 9d8 <_start-0x7628>
     b78:	69706269 	ldmdbvs	r0!, {r0, r3, r5, r6, r9, sp, lr}^
     b7c:	3173632f 	cmncc	r3, pc, lsr #6
     b80:	2d653034 	stclcs	0, cr3, [r5, #-208]!	; 0xffffff30
     b84:	00637273 	rsbeq	r7, r3, r3, ror r2
     b88:	7273752f 	rsbsvc	r7, r3, #197132288	; 0xbc00000
     b8c:	636f6c2f 	cmnvs	pc, #12032	; 0x2f00
     b90:	432f6c61 	teqmi	pc, #24832	; 0x6100
     b94:	616c6c65 	cmnvs	ip, r5, ror #24
     b98:	72612f72 	rsbvc	r2, r1, #456	; 0x1c8
     b9c:	6f6e2d6d 	svcvs	0x006e2d6d
     ba0:	652d656e 	strvs	r6, [sp, #-1390]!	; 0x56e
     ba4:	2f696261 	svccs	0x00696261
     ba8:	2e382e34 	mrccs	14, 1, r2, cr8, cr4, {1}
     bac:	73632d33 	cmnvc	r3, #3264	; 0xcc0
     bb0:	65303731 	ldrvs	r3, [r0, #-1841]!	; 0x731
     bb4:	62696c2f 	rsbvs	r6, r9, #12032	; 0x2f00
     bb8:	6363672f 	cmnvs	r3, #12320768	; 0xbc0000
     bbc:	6d72612f 	ldfvse	f6, [r2, #-188]!	; 0xffffff44
     bc0:	6e6f6e2d 	cdpvs	14, 6, cr6, cr15, cr13, {1}
     bc4:	61652d65 	cmnvs	r5, r5, ror #26
     bc8:	342f6962 	strtcc	r6, [pc], #-2402	; bd0 <_start-0x7430>
     bcc:	332e382e 	teqcc	lr, #3014656	; 0x2e0000
     bd0:	636e692f 	cmnvs	lr, #770048	; 0xbc000
     bd4:	6564756c 	strbvs	r7, [r4, #-1388]!	; 0x56c
     bd8:	73552f00 	cmpvc	r5, #0, 30
     bdc:	2f737265 	svccs	0x00737265
     be0:	61697262 	cmnvs	r9, r2, ror #4
     be4:	6e756a6e 	vsubvs.f32	s13, s10, s29
     be8:	7365442f 	cmnvc	r5, #788529152	; 0x2f000000
     bec:	706f746b 	rsbvc	r7, pc, fp, ror #8
     bf0:	6863732f 	stmdavs	r3!, {r0, r1, r2, r3, r5, r8, r9, ip, sp, lr}^
     bf4:	2f6c6f6f 	svccs	0x006c6f6f
     bf8:	746e6957 	strbtvc	r6, [lr], #-2391	; 0x957
     bfc:	39317265 	ldmdbcc	r1!, {r0, r2, r5, r6, r9, ip, sp, lr}
     c00:	432f3032 	teqmi	pc, #50	; 0x32
     c04:	30343153 	eorscc	r3, r4, r3, asr r1
     c08:	73632f45 	cmnvc	r3, #276	; 0x114
     c0c:	65303431 	ldrvs	r3, [r0, #-1073]!	; 0x431
     c10:	7730322d 	ldrvc	r3, [r0, -sp, lsr #4]!
     c14:	6c2f6e69 	stcvs	14, cr6, [pc], #-420	; a78 <_start-0x7588>
     c18:	69706269 	ldmdbvs	r0!, {r0, r3, r5, r6, r9, sp, lr}^
     c1c:	73552f00 	cmpvc	r5, #0, 30
     c20:	2f737265 	svccs	0x00737265
     c24:	61697262 	cmnvs	r9, r2, ror #4
     c28:	6e756a6e 	vsubvs.f32	s13, s10, s29
     c2c:	7365442f 	cmnvc	r5, #788529152	; 0x2f000000
     c30:	706f746b 	rsbvc	r7, pc, fp, ror #8
     c34:	6863732f 	stmdavs	r3!, {r0, r1, r2, r3, r5, r8, r9, ip, sp, lr}^
     c38:	2f6c6f6f 	svccs	0x006c6f6f
     c3c:	746e6957 	strbtvc	r6, [lr], #-2391	; 0x957
     c40:	39317265 	ldmdbcc	r1!, {r0, r2, r5, r6, r9, ip, sp, lr}
     c44:	432f3032 	teqmi	pc, #50	; 0x32
     c48:	30343153 	eorscc	r3, r4, r3, asr r1
     c4c:	73632f45 	cmnvc	r3, #276	; 0x114
     c50:	65303431 	ldrvs	r3, [r0, #-1073]!	; 0x431
     c54:	7730322d 	ldrvc	r3, [r0, -sp, lsr #4]!
     c58:	6c2f6e69 	stcvs	14, cr6, [pc], #-420	; abc <_start-0x7544>
     c5c:	69706269 	ldmdbvs	r0!, {r0, r3, r5, r6, r9, sp, lr}^
     c60:	62696c2f 	rsbvs	r6, r9, #12032	; 0x2f00
     c64:	73000063 	movwvc	r0, #99	; 0x63
     c68:	61752d77 	cmnvs	r5, r7, ror sp
     c6c:	632e7472 	teqvs	lr, #1912602624	; 0x72000000
     c70:	00000100 	andeq	r0, r0, r0, lsl #2
     c74:	6c637963 	stclvs	9, cr7, [r3], #-396	; 0xfffffe74
     c78:	74752d65 	ldrbtvc	r2, [r5], #-3429	; 0xd65
     c7c:	682e6c69 	stmdavs	lr!, {r0, r3, r5, r6, sl, fp, sp, lr}
     c80:	00000200 	andeq	r0, r0, r0, lsl #4
     c84:	69647473 	stmdbvs	r4!, {r0, r1, r4, r5, r6, sl, ip, sp, lr}^
     c88:	672d746e 	strvs	r7, [sp, -lr, ror #8]!
     c8c:	682e6363 	stmdavs	lr!, {r0, r1, r5, r6, r8, r9, sp, lr}
     c90:	00000300 	andeq	r0, r0, r0, lsl #6
     c94:	752d7773 	strvc	r7, [sp, #-1907]!	; 0x773
     c98:	2e747261 	cdpcs	2, 7, cr7, cr4, cr1, {3}
     c9c:	00020068 	andeq	r0, r2, r8, rrx
     ca0:	64747300 	ldrbtvs	r7, [r4], #-768	; 0x300
     ca4:	2e677261 	cdpcs	2, 6, cr7, cr7, cr1, {3}
     ca8:	00030068 	andeq	r0, r3, r8, rrx
     cac:	69706700 	ldmdbvs	r0!, {r8, r9, sl, sp, lr}^
     cb0:	00682e6f 	rsbeq	r2, r8, pc, ror #28
     cb4:	72000002 	andvc	r0, r0, #2
     cb8:	682e6970 	stmdavs	lr!, {r4, r5, r6, r8, fp, sp, lr}
     cbc:	00000400 	andeq	r0, r0, r0, lsl #8
     cc0:	702d6176 	eorvc	r6, sp, r6, ror r1
     cc4:	746e6972 	strbtvc	r6, [lr], #-2418	; 0x972
     cc8:	00682e6b 	rsbeq	r2, r8, fp, ror #28
     ccc:	3c000005 	stccc	0, cr0, [r0], {5}
     cd0:	6c697562 	cfstr64vs	mvdx7, [r9], #-392	; 0xfffffe78
     cd4:	6e692d74 	mcrvs	13, 3, r2, cr9, cr4, {3}
     cd8:	0000003e 	andeq	r0, r0, lr, lsr r0
     cdc:	05000000 	streq	r0, [r0, #-0]
     ce0:	00907c02 	addseq	r7, r0, r2, lsl #24
     ce4:	2f4c1a00 	svccs	0x004c1a00
     ce8:	03020430 	movweq	r0, #9264	; 0x2430
     cec:	73032e0b 	movwvc	r2, #15883	; 0x3e0b
     cf0:	88010466 	stmdahi	r1, {r1, r2, r5, r6, sl}
     cf4:	03350204 	teqeq	r5, #4, 4	; 0x40000000
     cf8:	01046673 	tsteq	r4, r3, ror r6
     cfc:	3302048a 	movwcc	r0, #9354	; 0x248a
     d00:	04667303 	strbteq	r7, [r6], #-771	; 0x303
     d04:	820a0301 	andhi	r0, sl, #67108864	; 0x4000000
     d08:	03310204 	teqeq	r1, #4, 4	; 0x40000000
     d0c:	01046673 	tsteq	r4, r3, ror r6
     d10:	04820c03 	streq	r0, [r2], #3075	; 0xc03
     d14:	73032f02 	movwvc	r2, #16130	; 0x3f02
     d18:	03010466 	movweq	r0, #5222	; 0x1466
     d1c:	0204820e 	andeq	r8, r4, #-536870912	; 0xe0000000
     d20:	6673032d 	ldrbtvs	r0, [r3], -sp, lsr #6
     d24:	10030104 	andne	r0, r3, r4, lsl #2
     d28:	2b020482 	blcs	81f38 <__bss_end__+0x75f80>
     d2c:	04667303 	strbteq	r7, [r6], #-771	; 0x303
     d30:	82120301 	andshi	r0, r2, #67108864	; 0x4000000
     d34:	03290204 	teqeq	r9, #4, 4	; 0x40000000
     d38:	01046673 	tsteq	r4, r3, ror r6
     d3c:	04821403 	streq	r1, [r2], #1027	; 0x403
     d40:	2e790302 	cdpcs	3, 7, cr0, cr9, cr2, {0}
     d44:	04667303 	strbteq	r7, [r6], #-771	; 0x303
     d48:	82160301 	andshi	r0, r6, #67108864	; 0x4000000
     d4c:	77030204 	strvc	r0, [r3, -r4, lsl #4]
     d50:	6673032e 	ldrbtvs	r0, [r3], -lr, lsr #6
     d54:	18030104 	stmdane	r3, {r2, r8}
     d58:	2e100382 	cdpcs	3, 1, cr0, cr0, cr2, {4}
     d5c:	70034d4b 	andvc	r4, r3, fp, asr #26
     d60:	83844c2e 	orrhi	r4, r4, #11776	; 0x2e00
     d64:	2e0d0348 	cdpcs	3, 0, cr0, cr13, cr8, {2}
     d68:	0433314e 	ldrteq	r3, [r3], #-334	; 0x14e
     d6c:	2e480302 	cdpcs	3, 4, cr0, cr8, cr2, {0}
     d70:	3a030104 	bcc	c1188 <__bss_end__+0xb51d0>
     d74:	02042f82 	andeq	r2, r4, #520	; 0x208
     d78:	04664503 	strbteq	r4, [r6], #-1283	; 0x503
     d7c:	823d0301 	eorshi	r0, sp, #67108864	; 0x4000000
     d80:	0302042f 	movweq	r0, #9263	; 0x242f
     d84:	01048242 	tsteq	r4, r2, asr #4
     d88:	8200c003 	andhi	ip, r0, #3
     d8c:	0302042f 	movweq	r0, #9263	; 0x242f
     d90:	04827fbf 	streq	r7, [r2], #4031	; 0xfbf
     d94:	00c30301 	sbceq	r0, r3, r1, lsl #6
     d98:	02042f82 	andeq	r2, r4, #520	; 0x208
     d9c:	827fbc03 	rsbshi	fp, pc, #768	; 0x300
     da0:	c6030104 	strgt	r0, [r3], -r4, lsl #2
     da4:	042f8200 	strteq	r8, [pc], #-512	; dac <_start-0x7254>
     da8:	7fb90302 	svcvc	0x00b90302
     dac:	03010482 	movweq	r0, #5250	; 0x1482
     db0:	2f8200c9 	svccs	0x008200c9
     db4:	b6030204 	strlt	r0, [r3], -r4, lsl #4
     db8:	0104827f 	tsteq	r4, pc, ror r2
     dbc:	8200cc03 	andhi	ip, r0, #768	; 0x300
     dc0:	0302042f 	movweq	r0, #9263	; 0x242f
     dc4:	04827fb3 	streq	r7, [r2], #4019	; 0xfb3
     dc8:	00d00301 	sbcseq	r0, r0, r1, lsl #6
     dcc:	824c0382 	subhi	r0, ip, #134217730	; 0x8000002
     dd0:	4883844c 	stmmi	r3, {r2, r3, r6, sl, pc}
     dd4:	4e2e3603 	cfmadda32mi	mvax0, mvax3, mvfx14, mvfx3
     dd8:	034a5403 	movteq	r5, #41987	; 0xa403
     ddc:	34324a29 	ldrtcc	r4, [r2], #-2601	; 0xa29
     de0:	0402009f 	streq	r0, [r2], #-159	; 0x9f
     de4:	064a0601 	strbeq	r0, [sl], -r1, lsl #12
     de8:	bb4b4ed7 	bllt	12d494c <__bss_end__+0x12c8994>
     dec:	0402002c 	streq	r0, [r2], #-44	; 0x2c
     df0:	062e0601 	strteq	r0, [lr], -r1, lsl #12
     df4:	84a44c6d 	strthi	r4, [r4], #3181	; 0xc6d
     df8:	01040200 	mrseq	r0, R12_usr
     dfc:	d7064a06 	strle	r4, [r6, -r6, lsl #20]
     e00:	0402004d 	streq	r0, [r2], #-77	; 0x4d
     e04:	02004b02 	andeq	r4, r0, #2048	; 0x800
     e08:	00810204 	addeq	r0, r1, r4, lsl #4
     e0c:	06010402 	streq	r0, [r1], -r2, lsl #8
     e10:	4c4d062e 	mcrrmi	6, 2, r0, sp, cr14
     e14:	4b4bbca5 	blmi	12f00b0 <__bss_end__+0x12e40f8>
     e18:	002f6a4b 	eoreq	r6, pc, fp, asr #20
     e1c:	06010402 	streq	r0, [r1], -r2, lsl #8
     e20:	02008282 	andeq	r8, r0, #536870920	; 0x20000008
     e24:	009e0404 	addseq	r0, lr, r4, lsl #8
     e28:	4a010402 	bmi	41e38 <__bss_end__+0x35e80>
     e2c:	bd88d906 	stclt	9, cr13, [r8, #24]
     e30:	084b4b2f 	stmdaeq	fp, {r0, r1, r2, r3, r5, r8, r9, fp, lr}^
     e34:	02006740 	andeq	r6, r0, #64, 14	; 0x1000000
     e38:	002f0204 	eoreq	r0, pc, r4, lsl #4
     e3c:	49020402 	stmdbmi	r2, {r1, sl}
     e40:	01040200 	mrseq	r0, R12_usr
     e44:	68062e06 	stmdavs	r6, {r1, r2, r9, sl, fp, sp}
     e48:	a04b8634 	subge	r8, fp, r4, lsr r6
     e4c:	01040200 	mrseq	r0, R12_usr
     e50:	d7066606 	strle	r6, [r6, -r6, lsl #12]
     e54:	4b220868 	blmi	882ffc <__bss_end__+0x877044>
     e58:	02d84b67 	sbcseq	r4, r8, #105472	; 0x19c00
     e5c:	0101000a 	tsteq	r1, sl
     e60:	00000101 	andeq	r0, r0, r1, lsl #2
     e64:	00ca0002 	sbceq	r0, sl, r2
     e68:	01020000 	mrseq	r0, (UNDEF: 2)
     e6c:	000d0efb 	strdeq	r0, [sp], -fp
     e70:	01010101 	tsteq	r1, r1, lsl #2
     e74:	01000000 	mrseq	r0, (UNDEF: 0)
     e78:	6d010000 	stcvs	0, cr0, [r1, #-0]
     e7c:	72732d79 	rsbsvc	r2, r3, #7744	; 0x1e40
     e80:	552f0063 	strpl	r0, [pc, #-99]!	; e25 <_start-0x71db>
     e84:	73726573 	cmnvc	r2, #482344960	; 0x1cc00000
     e88:	6972622f 	ldmdbvs	r2!, {r0, r1, r2, r3, r5, r9, sp, lr}^
     e8c:	756a6e61 	strbvc	r6, [sl, #-3681]!	; 0xe61
     e90:	65442f6e 	strbvs	r2, [r4, #-3950]	; 0xf6e
     e94:	6f746b73 	svcvs	0x00746b73
     e98:	63732f70 	cmnvs	r3, #112, 30	; 0x1c0
     e9c:	6c6f6f68 	stclvs	15, cr6, [pc], #-416	; d04 <_start-0x72fc>
     ea0:	6e69572f 	cdpvs	7, 6, cr5, cr9, cr15, {1}
     ea4:	31726574 	cmncc	r2, r4, ror r5
     ea8:	2f303239 	svccs	0x00303239
     eac:	34315343 	ldrtcc	r5, [r1], #-835	; 0x343
     eb0:	632f4530 	teqvs	pc, #48, 10	; 0xc000000
     eb4:	30343173 	eorscc	r3, r4, r3, ror r1
     eb8:	30322d65 	eorscc	r2, r2, r5, ror #26
     ebc:	2f6e6977 	svccs	0x006e6977
     ec0:	7062696c 	rsbvc	r6, r2, ip, ror #18
     ec4:	73632f69 	cmnvc	r3, #420	; 0x1a4
     ec8:	65303431 	ldrvs	r3, [r0, #-1073]!	; 0x431
     ecc:	6372732d 	cmnvs	r2, #-1275068416	; 0xb4000000
     ed0:	73552f00 	cmpvc	r5, #0, 30
     ed4:	2f737265 	svccs	0x00737265
     ed8:	61697262 	cmnvs	r9, r2, ror #4
     edc:	6e756a6e 	vsubvs.f32	s13, s10, s29
     ee0:	7365442f 	cmnvc	r5, #788529152	; 0x2f000000
     ee4:	706f746b 	rsbvc	r7, pc, fp, ror #8
     ee8:	6863732f 	stmdavs	r3!, {r0, r1, r2, r3, r5, r8, r9, ip, sp, lr}^
     eec:	2f6c6f6f 	svccs	0x006c6f6f
     ef0:	746e6957 	strbtvc	r6, [lr], #-2391	; 0x957
     ef4:	39317265 	ldmdbcc	r1!, {r0, r2, r5, r6, r9, ip, sp, lr}
     ef8:	432f3032 	teqmi	pc, #50	; 0x32
     efc:	30343153 	eorscc	r3, r4, r3, asr r1
     f00:	73632f45 	cmnvc	r3, #276	; 0x114
     f04:	65303431 	ldrvs	r3, [r0, #-1073]!	; 0x431
     f08:	7730322d 	ldrvc	r3, [r0, -sp, lsr #4]!
     f0c:	6c2f6e69 	stcvs	14, cr6, [pc], #-420	; d70 <_start-0x7290>
     f10:	69706269 	ldmdbvs	r0!, {r0, r3, r5, r6, r9, sp, lr}^
     f14:	61750000 	cmnvs	r5, r0
     f18:	632e7472 	teqvs	lr, #1912602624	; 0x72000000
     f1c:	00000100 	andeq	r0, r0, r0, lsl #2
     f20:	6f697067 	svcvs	0x00697067
     f24:	0200682e 	andeq	r6, r0, #3014656	; 0x2e0000
     f28:	70720000 	rsbsvc	r0, r2, r0
     f2c:	00682e69 	rsbeq	r2, r8, r9, ror #28
     f30:	00000003 	andeq	r0, r0, r3
     f34:	9c020500 	cfstr32ls	mvfx0, [r2], {-0}
     f38:	03000096 	movweq	r0, #150	; 0x96
     f3c:	33300136 	teqcc	r0, #-2147483635	; 0x8000000d
     f40:	d8306d67 	ldmdale	r0!, {r0, r1, r2, r5, r6, r8, sl, fp, sp, lr}
     f44:	67676730 			; <UNDEFINED> instruction: 0x67676730
     f48:	86686767 	strbthi	r6, [r8], -r7, ror #14
     f4c:	306a672f 	rsbcc	r6, sl, pc, lsr #14
     f50:	2f696767 	svccs	0x00696767
     f54:	674c6a67 	strbvs	r6, [ip, -r7, ror #20]
     f58:	302f2fc1 	eorcc	r2, pc, r1, asr #31
     f5c:	3049682f 	subcc	r6, r9, pc, lsr #16
     f60:	01000202 	tsteq	r0, r2, lsl #4
     f64:	0000d601 	andeq	sp, r0, r1, lsl #12
     f68:	97000200 	strls	r0, [r0, -r0, lsl #4]
     f6c:	02000000 	andeq	r0, r0, #0
     f70:	0d0efb01 	vstreq	d15, [lr, #-4]
     f74:	01010100 	mrseq	r0, (UNDEF: 17)
     f78:	00000001 	andeq	r0, r0, r1
     f7c:	01000001 	tsteq	r0, r1
     f80:	34317363 	ldrtcc	r7, [r1], #-867	; 0x363
     f84:	692d6530 	pushvs	{r4, r5, r8, sl, sp, lr}
     f88:	7265746e 	rsbvc	r7, r5, #1845493760	; 0x6e000000
     f8c:	74707572 	ldrbtvc	r7, [r0], #-1394	; 0x572
     f90:	73552f00 	cmpvc	r5, #0, 30
     f94:	2f737265 	svccs	0x00737265
     f98:	61697262 	cmnvs	r9, r2, ror #4
     f9c:	6e756a6e 	vsubvs.f32	s13, s10, s29
     fa0:	7365442f 	cmnvc	r5, #788529152	; 0x2f000000
     fa4:	706f746b 	rsbvc	r7, pc, fp, ror #8
     fa8:	6863732f 	stmdavs	r3!, {r0, r1, r2, r3, r5, r8, r9, ip, sp, lr}^
     fac:	2f6c6f6f 	svccs	0x006c6f6f
     fb0:	746e6957 	strbtvc	r6, [lr], #-2391	; 0x957
     fb4:	39317265 	ldmdbcc	r1!, {r0, r2, r5, r6, r9, ip, sp, lr}
     fb8:	432f3032 	teqmi	pc, #50	; 0x32
     fbc:	30343153 	eorscc	r3, r4, r3, asr r1
     fc0:	73632f45 	cmnvc	r3, #276	; 0x114
     fc4:	65303431 	ldrvs	r3, [r0, #-1073]!	; 0x431
     fc8:	7730322d 	ldrvc	r3, [r0, -sp, lsr #4]!
     fcc:	6c2f6e69 	stcvs	14, cr6, [pc], #-420	; e30 <_start-0x71d0>
     fd0:	69706269 	ldmdbvs	r0!, {r0, r3, r5, r6, r9, sp, lr}^
     fd4:	6e690000 	cdpvs	0, 6, cr0, cr9, cr0, {0}
     fd8:	72726574 	rsbsvc	r6, r2, #116, 10	; 0x1d000000
     fdc:	73747075 	cmnvc	r4, #117	; 0x75
     fe0:	632e632d 	teqvs	lr, #-1275068416	; 0xb4000000
     fe4:	00000100 	andeq	r0, r0, r0, lsl #2
     fe8:	2e697072 	mcrcs	0, 3, r7, cr9, cr2, {3}
     fec:	00020068 	andeq	r0, r2, r8, rrx
     ff0:	69707200 	ldmdbvs	r0!, {r9, ip, sp, lr}^
     ff4:	746e692d 	strbtvc	r6, [lr], #-2349	; 0x92d
     ff8:	75727265 	ldrbvc	r7, [r2, #-613]!	; 0x265
     ffc:	2e737470 	mrccs	4, 3, r7, cr3, cr0, {3}
    1000:	00010068 	andeq	r0, r1, r8, rrx
    1004:	05000000 	streq	r0, [r0, #-0]
    1008:	0097f002 	addseq	pc, r7, r2
    100c:	67311600 	ldrvs	r1, [r1, -r0, lsl #12]!
    1010:	2e0e0367 	cdpcs	3, 0, cr0, cr14, cr7, {3}
    1014:	002d2f83 	eoreq	r2, sp, r3, lsl #31
    1018:	2f020402 	svccs	0x00020402
    101c:	02040200 	andeq	r0, r4, #0, 4
    1020:	04020065 	streq	r0, [r2], #-101	; 0x65
    1024:	062e0601 	strteq	r0, [lr], -r1, lsl #12
    1028:	0867a24c 	stmdaeq	r7!, {r2, r3, r6, r9, sp, pc}^
    102c:	ae0867b0 	mcrge	7, 0, r6, cr8, cr0, {5}
    1030:	67ae0867 	strvs	r0, [lr, r7, ror #16]!
    1034:	0867ae08 	stmdaeq	r7!, {r3, r9, sl, fp, sp, pc}^
    1038:	1c0267ae 	stcne	7, cr6, [r2], {174}	; 0xae
    103c:	86010100 	strhi	r0, [r1], -r0, lsl #2
    1040:	02000003 	andeq	r0, r0, #3
    1044:	0001b900 	andeq	fp, r1, r0, lsl #18
    1048:	fb010200 	blx	41852 <__bss_end__+0x3589a>
    104c:	01000d0e 	tsteq	r0, lr, lsl #26
    1050:	00010101 	andeq	r0, r1, r1, lsl #2
    1054:	00010000 	andeq	r0, r1, r0
    1058:	682f0100 	stmdavs	pc!, {r8}	; <UNPREDICTABLE>
    105c:	2f656d6f 	svccs	0x00656d6f
    1060:	6c676e65 	stclvs	14, cr6, [r7], #-404	; 0xfffffe6c
    1064:	632f7265 	teqvs	pc, #1342177286	; 0x50000006
    1068:	7373616c 	cmnvc	r3, #108, 2
    106c:	3173632f 	cmncc	r3, pc, lsr #6
    1070:	2d653034 	stclcs	0, cr3, [r5, #-208]!	; 0xffffff30
    1074:	69773032 	ldmdbvs	r7!, {r1, r4, r5, ip, sp}^
    1078:	696c2f6e 	stmdbvs	ip!, {r1, r2, r3, r5, r6, r8, r9, sl, fp, sp}^
    107c:	2f697062 	svccs	0x00697062
    1080:	6362696c 	cmnvs	r2, #108, 18	; 0x1b0000
    1084:	6f682f00 	svcvs	0x00682f00
    1088:	652f656d 	strvs	r6, [pc, #-1389]!	; b23 <_start-0x74dd>
    108c:	656c676e 	strbvs	r6, [ip, #-1902]!	; 0x76e
    1090:	6c632f72 	stclvs	15, cr2, [r3], #-456	; 0xfffffe38
    1094:	2f737361 	svccs	0x00737361
    1098:	34317363 	ldrtcc	r7, [r1], #-867	; 0x363
    109c:	322d6530 	eorcc	r6, sp, #48, 10	; 0xc000000
    10a0:	6e697730 	mcrvs	7, 3, r7, cr9, cr0, {1}
    10a4:	62696c2f 	rsbvs	r6, r9, #12032	; 0x2f00
    10a8:	632f6970 	teqvs	pc, #112, 18	; 0x1c0000
    10ac:	30343173 	eorscc	r3, r4, r3, ror r1
    10b0:	6e692d65 	cdpvs	13, 6, cr2, cr9, cr5, {3}
    10b4:	72726574 	rsbsvc	r6, r2, #116, 10	; 0x1d000000
    10b8:	00747075 	rsbseq	r7, r4, r5, ror r0
    10bc:	7273752f 	rsbsvc	r7, r3, #197132288	; 0xbc00000
    10c0:	6d72612f 	ldfvse	f6, [r2, #-188]!	; 0xffffff44
    10c4:	6e6f6e2d 	cdpvs	14, 6, cr6, cr15, cr13, {1}
    10c8:	61652d65 	cmnvs	r5, r5, ror #26
    10cc:	692f6962 	stmdbvs	pc!, {r1, r5, r6, r8, fp, sp, lr}	; <UNPREDICTABLE>
    10d0:	756c636e 	strbvc	r6, [ip, #-878]!	; 0x36e
    10d4:	732f6564 	teqvc	pc, #100, 10	; 0x19000000
    10d8:	2f007379 	svccs	0x00007379
    10dc:	2f727375 	svccs	0x00727375
    10e0:	2f62696c 	svccs	0x0062696c
    10e4:	2f636367 	svccs	0x00636367
    10e8:	2d6d7261 	sfmcs	f7, 2, [sp, #-388]!	; 0xfffffe7c
    10ec:	656e6f6e 	strbvs	r6, [lr, #-3950]!	; 0xf6e
    10f0:	6261652d 	rsbvs	r6, r1, #188743680	; 0xb400000
    10f4:	2e372f69 	cdpcs	15, 3, cr2, cr7, cr9, {3}
    10f8:	2f312e33 	svccs	0x00312e33
    10fc:	6c636e69 	stclvs	14, cr6, [r3], #-420	; 0xfffffe5c
    1100:	00656475 	rsbeq	r6, r5, r5, ror r4
    1104:	6d6f682f 	stclvs	8, cr6, [pc, #-188]!	; 1050 <_start-0x6fb0>
    1108:	6e652f65 	cdpvs	15, 6, cr2, cr5, cr5, {3}
    110c:	72656c67 	rsbvc	r6, r5, #26368	; 0x6700
    1110:	616c632f 	cmnvs	ip, pc, lsr #6
    1114:	632f7373 	teqvs	pc, #-872415231	; 0xcc000001
    1118:	30343173 	eorscc	r3, r4, r3, ror r1
    111c:	30322d65 	eorscc	r2, r2, r5, ror #26
    1120:	2f6e6977 	svccs	0x006e6977
    1124:	7062696c 	rsbvc	r6, r2, ip, ror #18
    1128:	682f0069 	stmdavs	pc!, {r0, r3, r5, r6}	; <UNPREDICTABLE>
    112c:	2f656d6f 	svccs	0x00656d6f
    1130:	6c676e65 	stclvs	14, cr6, [r7], #-404	; 0xfffffe6c
    1134:	632f7265 	teqvs	pc, #1342177286	; 0x50000006
    1138:	7373616c 	cmnvc	r3, #108, 2
    113c:	3173632f 	cmncc	r3, pc, lsr #6
    1140:	2d653034 	stclcs	0, cr3, [r5, #-208]!	; 0xffffff30
    1144:	69773032 	ldmdbvs	r7!, {r1, r4, r5, ip, sp}^
    1148:	696c2f6e 	stmdbvs	ip!, {r1, r2, r3, r5, r6, r8, r9, sl, fp, sp}^
    114c:	2f697062 	svccs	0x00697062
    1150:	34317363 	ldrtcc	r7, [r1], #-867	; 0x363
    1154:	732d6530 	teqvc	sp, #48, 10	; 0xc000000
    1158:	2f006372 	svccs	0x00006372
    115c:	2f727375 	svccs	0x00727375
    1160:	2d6d7261 	sfmcs	f7, 2, [sp, #-388]!	; 0xfffffe7c
    1164:	656e6f6e 	strbvs	r6, [lr, #-3950]!	; 0xf6e
    1168:	6261652d 	rsbvs	r6, r1, #188743680	; 0xb400000
    116c:	6e692f69 	cdpvs	15, 6, cr2, cr9, cr9, {3}
    1170:	64756c63 	ldrbtvs	r6, [r5], #-3171	; 0xc63
    1174:	75000065 	strvc	r0, [r0, #-101]	; 0x65
    1178:	2d747261 	lfmcs	f7, 2, [r4, #-388]!	; 0xfffffe7c
    117c:	2e746e69 	cdpcs	14, 7, cr6, cr4, cr9, {3}
    1180:	00000063 	andeq	r0, r0, r3, rrx
    1184:	72696300 	rsbvc	r6, r9, #0, 6
    1188:	616c7563 	cmnvs	ip, r3, ror #10
    118c:	00682e72 	rsbeq	r2, r8, r2, ror lr
    1190:	72000001 	andvc	r0, r0, #1
    1194:	692d6970 	pushvs	{r4, r5, r6, r8, fp, sp, lr}
    1198:	7265746e 	rsbvc	r7, r5, #1845493760	; 0x6e000000
    119c:	74707572 	ldrbtvc	r7, [r0], #-1394	; 0x572
    11a0:	00682e73 	rsbeq	r2, r8, r3, ror lr
    11a4:	6c000002 	stcvs	0, cr0, [r0], {2}
    11a8:	2e6b636f 	cdpcs	3, 6, cr6, cr11, cr15, {3}
    11ac:	00030068 	andeq	r0, r3, r8, rrx
    11b0:	79745f00 	ldmdbvc	r4!, {r8, r9, sl, fp, ip, lr}^
    11b4:	2e736570 	mrccs	5, 3, r6, cr3, cr0, {3}
    11b8:	00030068 	andeq	r0, r3, r8, rrx
    11bc:	64747300 	ldrbtvs	r7, [r4], #-768	; 0x300
    11c0:	2e666564 	cdpcs	5, 6, cr6, cr6, cr4, {3}
    11c4:	00040068 	andeq	r0, r4, r8, rrx
    11c8:	65657200 	strbvs	r7, [r5, #-512]!	; 0x200
    11cc:	682e746e 	stmdavs	lr!, {r1, r2, r3, r5, r6, sl, ip, sp, lr}
    11d0:	00000300 	andeq	r0, r0, r0, lsl #6
    11d4:	2e697072 	mcrcs	0, 3, r7, cr9, cr2, {3}
    11d8:	00050068 	andeq	r0, r5, r8, rrx
    11dc:	72617500 	rsbvc	r7, r1, #0, 10
    11e0:	00682e74 	rsbeq	r2, r8, r4, ror lr
    11e4:	75000006 	strvc	r0, [r0, #-6]
    11e8:	2d747261 	lfmcs	f7, 2, [r4, #-388]!	; 0xfffffe7c
    11ec:	2e746e69 	cdpcs	14, 7, cr6, cr4, cr9, {3}
    11f0:	00020068 	andeq	r0, r2, r8, rrx
    11f4:	72747300 	rsbsvc	r7, r4, #0, 6
    11f8:	2e676e69 	cdpcs	14, 6, cr6, cr7, cr9, {3}
    11fc:	00070068 	andeq	r0, r7, r8, rrx
    1200:	05000000 	streq	r0, [r0, #-0]
    1204:	009b3002 	addseq	r3, fp, r2
    1208:	01120300 	tsteq	r2, r0, lsl #6
    120c:	2f9f2f67 	svccs	0x009f2f67
    1210:	032f2f30 	teqeq	pc, #48, 30	; 0xc0
    1214:	672f2e0a 	strvs	r2, [pc, -sl, lsl #28]!
    1218:	014a6203 	cmpeq	sl, r3, lsl #4
    121c:	2f662003 	svccs	0x00662003
    1220:	672f2fbb 			; <UNDEFINED> instruction: 0x672f2fbb
    1224:	2fbb2f2f 	svccs	0x00bb2f2f
    1228:	4e35672f 	cdpmi	7, 3, cr6, cr5, cr15, {1}
    122c:	75034b2f 	strvc	r4, [r3, #-2863]	; 0xb2f
    1230:	03672f2e 	cmneq	r7, #46, 30	; 0xb8
    1234:	2f676610 	svccs	0x00676610
    1238:	4b4b6a4c 	blmi	12dbb70 <__bss_end__+0x12cfbb8>
    123c:	004b4c4c 	subeq	r4, fp, ip, asr #24
    1240:	03010402 	movweq	r0, #5122	; 0x1402
    1244:	02004a7a 	andeq	r4, r0, #499712	; 0x7a000
    1248:	ddd70104 	ldflee	f0, [r7, #16]
    124c:	03f27403 	mvnseq	r7, #50331648	; 0x3000000
    1250:	7a032e0e 	bvc	cca90 <__bss_end__+0xc0ad8>
    1254:	080a034a 	stmdaeq	sl, {r1, r3, r6, r8, r9}
    1258:	69334b20 	ldmdbvs	r3!, {r5, r8, r9, fp, lr}
    125c:	4c2fbb30 	stcmi	11, cr11, [pc], #-192	; 11a4 <_start-0x6e5c>
    1260:	2c030204 	sfmcs	f0, 4, [r3], {4}
    1264:	674b9f2e 	strbvs	r9, [fp, -lr, lsr #30]
    1268:	7f9b032f 	svcvc	0x009b032f
    126c:	00e60366 	rsceq	r0, r6, r6, ror #6
    1270:	7f9d034a 	svcvc	0x009d034a
    1274:	00e4034a 	rsceq	r0, r4, sl, asr #6
    1278:	7f9e03ba 	svcvc	0x009e03ba
    127c:	00e3034a 	rsceq	r0, r3, sl, asr #6
    1280:	7f9803ba 	svcvc	0x009803ba
    1284:	660a034a 	strvs	r0, [sl], -sl, asr #6
    1288:	4a00d703 	bmi	36e9c <__bss_end__+0x2aee4>
    128c:	2f6767bb 	svccs	0x006767bb
    1290:	667f9b03 	ldrbtvs	r9, [pc], -r3, lsl #22
    1294:	4a00e603 	bmi	3aaa8 <__bss_end__+0x2eaf0>
    1298:	4a7f9d03 	bmi	1fe86ac <__bss_end__+0x1fdc6f4>
    129c:	ba00e403 	blt	3a2b0 <__bss_end__+0x2e2f8>
    12a0:	4a7f9e03 	bmi	1fe8ab4 <__bss_end__+0x1fdcafc>
    12a4:	ba00e303 	blt	39eb8 <__bss_end__+0x2df00>
    12a8:	4a7f9803 	bmi	1fe72bc <__bss_end__+0x1fdb304>
    12ac:	04660a03 	strbteq	r0, [r6], #-2563	; 0xa03
    12b0:	4a320301 	bmi	c81ebc <__bss_end__+0xc75f04>
    12b4:	2f4b672f 	svccs	0x004b672f
    12b8:	02042f2f 	andeq	r2, r4, #47, 30	; 0xbc
    12bc:	d72e2403 	strle	r2, [lr, -r3, lsl #8]!
    12c0:	7fa403d7 	svcvc	0x00a403d7
    12c4:	032f4bd6 	teqeq	pc, #219136	; 0x35800
    12c8:	d28200dc 	addle	r0, r2, #220	; 0xdc
    12cc:	a403d7d7 	strge	sp, [r3], #-2007	; 0x7d7
    12d0:	4b67d67f 	blmi	19f6cd4 <__bss_end__+0x19ead1c>
    12d4:	8200dc03 	andhi	sp, r0, #768	; 0x300
    12d8:	5b030104 	blpl	c16f0 <__bss_end__+0xb5738>
    12dc:	04012402 	streq	r2, [r1], #-1026	; 0x402
    12e0:	7faa0303 	svcvc	0x00aa0303
    12e4:	0301042e 	movweq	r0, #5166	; 0x142e
    12e8:	042e00d8 	strteq	r0, [lr], #-216	; 0xd8
    12ec:	7fbe0302 	svcvc	0x00be0302
    12f0:	0301044a 	movweq	r0, #5194	; 0x144a
    12f4:	00ba00c3 	adcseq	r0, sl, r3, asr #1
    12f8:	06010402 	streq	r0, [r1], -r2, lsl #8
    12fc:	0602044a 	streq	r0, [r2], -sl, asr #8
    1300:	667fb803 	ldrbtvs	fp, [pc], -r3, lsl #16
    1304:	4c660a03 	stclmi	10, cr0, [r6], #-12
    1308:	01044b67 	tsteq	r4, r7, ror #22
    130c:	00823b03 	addeq	r3, r2, r3, lsl #22
    1310:	48010402 	stmdami	r1, {r1, sl}
    1314:	51030204 	tstpl	r3, r4, lsl #4
    1318:	030104d6 	movweq	r0, #5334	; 0x14d6
    131c:	04c80835 	strbeq	r0, [r8], #2101	; 0x835
    1320:	7fa20303 	svcvc	0x00a20303
    1324:	0301042e 	movweq	r0, #5166	; 0x142e
    1328:	4b2e00df 	blmi	b816ac <__bss_end__+0xb756f4>
    132c:	04020030 	streq	r0, [r2], #-48	; 0x30
    1330:	04da2b01 	ldrbeq	r2, [sl], #2817	; 0xb01
    1334:	7fb30302 	svcvc	0x00b30302
    1338:	0301042e 	movweq	r0, #5166	; 0x142e
    133c:	4cba00cc 	ldcmi	0, cr0, [sl], #816	; 0x330
    1340:	032fa62f 	teqeq	pc, #49283072	; 0x2f00000
    1344:	89862e09 	stmibhi	r6, {r0, r3, r9, sl, fp, sp}
    1348:	03020467 	movweq	r0, #9319	; 0x2467
    134c:	034a7fac 	movteq	r7, #44972	; 0xafac
    1350:	1c034a65 	stcne	10, cr4, [r3], {101}	; 0x65
    1354:	034b4c9e 	movteq	r4, #48286	; 0xbc9e
    1358:	01049e63 	tsteq	r4, r3, ror #28
    135c:	ba00f103 	blt	3d770 <__bss_end__+0x317b8>
    1360:	47304d4b 	ldrmi	r4, [r0, -fp, asr #26]!
    1364:	030204bf 	movweq	r0, #9407	; 0x24bf
    1368:	04017f87 	streq	r7, [r1], #-3975	; 0xf87
    136c:	00fb0301 	rscseq	r0, fp, r1, lsl #6
    1370:	002f8482 	eoreq	r8, pc, r2, lsl #9
    1374:	2f010402 	svccs	0x00010402
    1378:	fc030204 	stc2	2, cr0, [r3], {4}
    137c:	0a03667e 	beq	dad7c <__bss_end__+0xcedc4>
    1380:	2f4b4c66 	svccs	0x004b4c66
    1384:	f9030104 			; <UNDEFINED> instruction: 0xf9030104
    1388:	02048200 	andeq	r8, r4, #0, 4
    138c:	2e7f9103 	expcse	f1, f3
    1390:	fa030104 	blx	c17a8 <__bss_end__+0xb57f0>
    1394:	04580800 	ldrbeq	r0, [r8], #-2048	; 0x800
    1398:	7f8c0302 	svcvc	0x008c0302
    139c:	4a65032e 	bmi	194205c <__bss_end__+0x19360a4>
    13a0:	689e1c03 	ldmvs	lr, {r0, r1, sl, fp, ip}
    13a4:	03030467 	movweq	r0, #13415	; 0x3467
    13a8:	01049e4d 	tsteq	r4, sp, asr #28
    13ac:	2e01ac03 	cdpcs	12, 0, cr10, cr1, cr3, {0}
    13b0:	2e0d034e 	cdpcs	3, 0, cr0, cr13, cr14, {2}
    13b4:	0f03892f 	svceq	0x0003892f
    13b8:	0402002e 	streq	r0, [r2], #-46	; 0x2e
    13bc:	4a580301 	bmi	1601fc8 <__bss_end__+0x15f6010>
    13c0:	4bd61603 	blmi	ff586bd4 <__bss_end__+0xff57ac1c>
    13c4:	01001002 	tsteq	r0, r2
    13c8:	0000ec01 	andeq	lr, r0, r1, lsl #24
    13cc:	d0000200 	andle	r0, r0, r0, lsl #4
    13d0:	02000000 	andeq	r0, r0, #0
    13d4:	0d0efb01 	vstreq	d15, [lr, #-4]
    13d8:	01010100 	mrseq	r0, (UNDEF: 17)
    13dc:	00000001 	andeq	r0, r0, r1
    13e0:	01000001 	tsteq	r0, r1
    13e4:	6362696c 	cmnvs	r2, #108, 18	; 0x1b0000
    13e8:	73752f00 	cmnvc	r5, #0, 30
    13ec:	6f6c2f72 	svcvs	0x006c2f72
    13f0:	2f6c6163 	svccs	0x006c6163
    13f4:	6c6c6543 	cfstr64vs	mvdx6, [ip], #-268	; 0xfffffef4
    13f8:	612f7261 	teqvs	pc, r1, ror #4
    13fc:	6e2d6d72 	mcrvs	13, 1, r6, cr13, cr2, {3}
    1400:	2d656e6f 	stclcs	14, cr6, [r5, #-444]!	; 0xfffffe44
    1404:	69626165 	stmdbvs	r2!, {r0, r2, r5, r6, r8, sp, lr}^
    1408:	382e342f 	stmdacc	lr!, {r0, r1, r2, r3, r5, sl, ip, sp}
    140c:	632d332e 	teqvs	sp, #-1207959552	; 0xb8000000
    1410:	30373173 	eorscc	r3, r7, r3, ror r1
    1414:	696c2f65 	stmdbvs	ip!, {r0, r2, r5, r6, r8, r9, sl, fp, sp}^
    1418:	63672f62 	cmnvs	r7, #392	; 0x188
    141c:	72612f63 	rsbvc	r2, r1, #396	; 0x18c
    1420:	6f6e2d6d 	svcvs	0x006e2d6d
    1424:	652d656e 	strvs	r6, [sp, #-1390]!	; 0x56e
    1428:	2f696261 	svccs	0x00696261
    142c:	2e382e34 	mrccs	14, 1, r2, cr8, cr4, {1}
    1430:	6e692f33 	mcrvs	15, 3, r2, cr9, cr3, {1}
    1434:	64756c63 	ldrbtvs	r6, [r5], #-3171	; 0xc63
    1438:	752f0065 	strvc	r0, [pc, #-101]!	; 13db <_start-0x6c25>
    143c:	6c2f7273 	sfmvs	f7, 4, [pc], #-460	; 1278 <_start-0x6d88>
    1440:	6c61636f 	stclvs	3, cr6, [r1], #-444	; 0xfffffe44
    1444:	6c65432f 	stclvs	3, cr4, [r5], #-188	; 0xffffff44
    1448:	2f72616c 	svccs	0x0072616c
    144c:	2d6d7261 	sfmcs	f7, 2, [sp, #-388]!	; 0xfffffe7c
    1450:	656e6f6e 	strbvs	r6, [lr, #-3950]!	; 0xf6e
    1454:	6261652d 	rsbvs	r6, r1, #188743680	; 0xb400000
    1458:	2e342f69 	cdpcs	15, 3, cr2, cr4, cr9, {3}
    145c:	2d332e38 	ldccs	14, cr2, [r3, #-224]!	; 0xffffff20
    1460:	37317363 	ldrcc	r7, [r1, -r3, ror #6]!
    1464:	612f6530 	teqvs	pc, r0, lsr r5	; <UNPREDICTABLE>
    1468:	6e2d6d72 	mcrvs	13, 1, r6, cr13, cr2, {3}
    146c:	2d656e6f 	stclcs	14, cr6, [r5, #-444]!	; 0xfffffe44
    1470:	69626165 	stmdbvs	r2!, {r0, r2, r5, r6, r8, sp, lr}^
    1474:	636e692f 	cmnvs	lr, #770048	; 0xbc000
    1478:	6564756c 	strbvs	r7, [r4, #-1388]!	; 0x56c
    147c:	656d0000 	strbvs	r0, [sp, #-0]!
    1480:	7465736d 	strbtvc	r7, [r5], #-877	; 0x36d
    1484:	0100632e 	tsteq	r0, lr, lsr #6
    1488:	74730000 	ldrbtvc	r0, [r3], #-0
    148c:	66656464 	strbtvs	r6, [r5], -r4, ror #8
    1490:	0200682e 	andeq	r6, r0, #3014656	; 0x2e0000
    1494:	74730000 	ldrbtvc	r0, [r3], #-0
    1498:	676e6972 			; <UNDEFINED> instruction: 0x676e6972
    149c:	0300682e 	movweq	r6, #2094	; 0x82e
    14a0:	00000000 	andeq	r0, r0, r0
    14a4:	a35c0205 	cmpge	ip, #1342177280	; 0x50000000
    14a8:	13140000 	tstne	r4, #0
    14ac:	02002f4c 	andeq	r2, r0, #76, 30	; 0x130
    14b0:	4d490104 	stfmie	f0, [r9, #-16]
    14b4:	01000202 	tsteq	r0, r2, lsl #4
    14b8:	00012801 	andeq	r2, r1, r1, lsl #16
    14bc:	0d000200 	sfmeq	f0, 4, [r0, #-0]
    14c0:	02000001 	andeq	r0, r0, #1
    14c4:	0d0efb01 	vstreq	d15, [lr, #-4]
    14c8:	01010100 	mrseq	r0, (UNDEF: 17)
    14cc:	00000001 	andeq	r0, r0, r1
    14d0:	01000001 	tsteq	r0, r1
    14d4:	34317363 	ldrtcc	r7, [r1], #-867	; 0x363
    14d8:	732d6530 	teqvc	sp, #48, 10	; 0xc000000
    14dc:	2f006372 	svccs	0x00006372
    14e0:	2f727375 	svccs	0x00727375
    14e4:	61636f6c 	cmnvs	r3, ip, ror #30
    14e8:	65432f6c 	strbvs	r2, [r3, #-3948]	; 0xf6c
    14ec:	72616c6c 	rsbvc	r6, r1, #108, 24	; 0x6c00
    14f0:	6d72612f 	ldfvse	f6, [r2, #-188]!	; 0xffffff44
    14f4:	6e6f6e2d 	cdpvs	14, 6, cr6, cr15, cr13, {1}
    14f8:	61652d65 	cmnvs	r5, r5, ror #26
    14fc:	342f6962 	strtcc	r6, [pc], #-2402	; 1504 <_start-0x6afc>
    1500:	332e382e 	teqcc	lr, #3014656	; 0x2e0000
    1504:	3173632d 	cmncc	r3, sp, lsr #6
    1508:	2f653037 	svccs	0x00653037
    150c:	2f62696c 	svccs	0x0062696c
    1510:	2f636367 	svccs	0x00636367
    1514:	2d6d7261 	sfmcs	f7, 2, [sp, #-388]!	; 0xfffffe7c
    1518:	656e6f6e 	strbvs	r6, [lr, #-3950]!	; 0xf6e
    151c:	6261652d 	rsbvs	r6, r1, #188743680	; 0xb400000
    1520:	2e342f69 	cdpcs	15, 3, cr2, cr4, cr9, {3}
    1524:	2f332e38 	svccs	0x00332e38
    1528:	6c636e69 	stclvs	14, cr6, [r3], #-420	; 0xfffffe5c
    152c:	00656475 	rsbeq	r6, r5, r5, ror r4
    1530:	7273752f 	rsbsvc	r7, r3, #197132288	; 0xbc00000
    1534:	636f6c2f 	cmnvs	pc, #12032	; 0x2f00
    1538:	432f6c61 	teqmi	pc, #24832	; 0x6100
    153c:	616c6c65 	cmnvs	ip, r5, ror #24
    1540:	72612f72 	rsbvc	r2, r1, #456	; 0x1c8
    1544:	6f6e2d6d 	svcvs	0x006e2d6d
    1548:	652d656e 	strvs	r6, [sp, #-1390]!	; 0x56e
    154c:	2f696261 	svccs	0x00696261
    1550:	2e382e34 	mrccs	14, 1, r2, cr8, cr4, {1}
    1554:	73632d33 	cmnvc	r3, #3264	; 0xcc0
    1558:	65303731 	ldrvs	r3, [r0, #-1841]!	; 0x731
    155c:	6d72612f 	ldfvse	f6, [r2, #-188]!	; 0xffffff44
    1560:	6e6f6e2d 	cdpvs	14, 6, cr6, cr15, cr13, {1}
    1564:	61652d65 	cmnvs	r5, r5, ror #26
    1568:	692f6962 	stmdbvs	pc!, {r1, r5, r6, r8, fp, sp, lr}	; <UNPREDICTABLE>
    156c:	756c636e 	strbvc	r6, [ip, #-878]!	; 0x36e
    1570:	00006564 	andeq	r6, r0, r4, ror #10
    1574:	746e6f63 	strbtvc	r6, [lr], #-3939	; 0xf63
    1578:	2d6c6f72 	stclcs	15, cr6, [ip, #-456]!	; 0xfffffe38
    157c:	636f6c62 	cmnvs	pc, #25088	; 0x6200
    1580:	00632e6b 	rsbeq	r2, r3, fp, ror #28
    1584:	73000001 	movwvc	r0, #1
    1588:	65646474 	strbvs	r6, [r4, #-1140]!	; 0x474
    158c:	00682e66 	rsbeq	r2, r8, r6, ror #28
    1590:	73000002 	movwvc	r0, #2
    1594:	6e696474 	mcrvs	4, 3, r6, cr9, cr4, {3}
    1598:	63672d74 	cmnvs	r7, #116, 26	; 0x1d00
    159c:	00682e63 	rsbeq	r2, r8, r3, ror #28
    15a0:	73000002 	movwvc	r0, #2
    15a4:	61752d77 	cmnvs	r5, r7, ror sp
    15a8:	682e7472 	stmdavs	lr!, {r1, r4, r5, r6, sl, ip, sp, lr}
    15ac:	00000100 	andeq	r0, r0, r0, lsl #2
    15b0:	746e6f63 	strbtvc	r6, [lr], #-3939	; 0xf63
    15b4:	2d6c6f72 	stclcs	15, cr6, [ip, #-456]!	; 0xfffffe38
    15b8:	636f6c62 	cmnvs	pc, #25088	; 0x6200
    15bc:	00682e6b 	rsbeq	r2, r8, fp, ror #28
    15c0:	73000001 	movwvc	r0, #1
    15c4:	6e697274 	mcrvs	2, 3, r7, cr9, cr4, {3}
    15c8:	00682e67 	rsbeq	r2, r8, r7, ror #28
    15cc:	00000003 	andeq	r0, r0, r3
    15d0:	7c020500 	cfstr32vc	mvfx0, [r2], {-0}
    15d4:	160000a3 	strne	r0, [r0], -r3, lsr #1
    15d8:	4c688330 	stclmi	3, cr8, [r8], #-192	; 0xffffff40
    15dc:	2f4b9f14 	svccs	0x004b9f14
    15e0:	01000402 	tsteq	r0, r2, lsl #8
    15e4:	Address 0x00000000000015e4 is out of bounds.


Disassembly of section .debug_str:

00000000 <.debug_str>:
       0:	4e415242 	cdpmi	2, 4, cr5, cr1, cr2, {2}
       4:	4f544843 	svcmi	0x00544843
       8:	746f6e00 	strbtvc	r6, [pc], #-3584	; 10 <_start-0x7ff0>
       c:	6e69616d 	powvsez	f6, f1, #5.0
      10:	6d726100 	ldfvse	f6, [r2, #-0]
      14:	6d69745f 	cfstrdvs	mvd7, [r9, #-380]!	; 0xfffffe84
      18:	525f7265 	subspl	r7, pc, #1342177286	; 0x50000006
      1c:	52495741 	subpl	r5, r9, #17039360	; 0x1040000
      20:	61750051 	cmnvs	r5, r1, asr r0
      24:	695f7472 	ldmdbvs	pc, {r1, r4, r5, r6, sl, ip, sp, lr}^	; <UNPREDICTABLE>
      28:	5f74696e 	svcpl	0x0074696e
      2c:	68746977 	ldmdavs	r4!, {r0, r1, r2, r4, r5, r6, r8, fp, sp, lr}^
      30:	746e695f 	strbtvc	r6, [lr], #-2399	; 0x95f
      34:	75727265 	ldrbvc	r7, [r2, #-613]!	; 0x265
      38:	00737470 	rsbseq	r7, r3, r0, ror r4
      3c:	676e6f6c 	strbvs	r6, [lr, -ip, ror #30]!
      40:	6e6f6c20 	cdpvs	12, 6, cr6, cr15, cr0, {1}
      44:	6e752067 	cdpvs	0, 7, cr2, cr5, cr7, {3}
      48:	6e676973 	mcrvs	9, 3, r6, cr7, cr3, {3}
      4c:	69206465 	stmdbvs	r0!, {r0, r2, r5, r6, sl, sp, lr}
      50:	7300746e 	movwvc	r7, #1134	; 0x46e
      54:	5f646e65 	svcpl	0x00646e65
      58:	006b6361 	rsbeq	r6, fp, r1, ror #6
      5c:	72646461 	rsbvc	r6, r4, #1627389952	; 0x61000000
      60:	6d726100 	ldfvse	f6, [r2, #-0]
      64:	6d69745f 	cfstrdvs	mvd7, [r9, #-380]!	; 0xfffffe84
      68:	565f7265 	ldrbpl	r7, [pc], -r5, ror #4
      6c:	65756c61 	ldrbvs	r6, [r5, #-3169]!	; 0xc61
      70:	5f495000 	svcpl	0x00495000
      74:	4f495047 	svcmi	0x00495047
      78:	4952575f 	ldmdbmi	r2, {r0, r1, r2, r3, r4, r6, r8, r9, sl, ip, lr}^
      7c:	6e004554 	cfrshl32vs	mvfx0, mvfx4, r4
      80:	705f7465 	subsvc	r7, pc, r5, ror #8
      84:	68637475 	stmdavs	r3!, {r0, r2, r4, r5, r6, sl, ip, sp, lr}^
      88:	67007261 	strvs	r7, [r0, -r1, ror #4]
      8c:	5f6f6970 	svcpl	0x006f6970
      90:	5f746573 	svcpl	0x00746573
      94:	0066666f 	rsbeq	r6, r6, pc, ror #12
      98:	676e6f6c 	strbvs	r6, [lr, -ip, ror #30]!
      9c:	6e6f6c20 	cdpvs	12, 6, cr6, cr15, cr0, {1}
      a0:	6e692067 	cdpvs	0, 6, cr2, cr9, cr7, {3}
      a4:	626e0074 	rsbvs	r0, lr, #116	; 0x74
      a8:	73657479 	cmnvc	r5, #2030043136	; 0x79000000
      ac:	61657200 	cmnvs	r5, r0, lsl #4
      b0:	78655f64 	stmdavc	r5!, {r2, r5, r6, r8, r9, sl, fp, ip, lr}^
      b4:	00746361 	rsbseq	r6, r4, r1, ror #6
      b8:	475f4950 			; <UNDEFINED> instruction: 0x475f4950
      bc:	5f4f4950 	svcpl	0x004f4950
      c0:	44414552 	strbmi	r4, [r1], #-1362	; 0x552
      c4:	5045525f 	subpl	r5, r5, pc, asr r2
      c8:	5000594c 	andpl	r5, r0, ip, asr #18
      cc:	00385455 	eorseq	r5, r8, r5, asr r4
      d0:	5f6d7261 	svcpl	0x006d7261
      d4:	656d6974 	strbvs	r6, [sp, #-2420]!	; 0x974
      d8:	6f435f72 	svcvs	0x00435f72
      dc:	6f72746e 	svcvs	0x0072746e
      e0:	7072006c 	rsbsvc	r0, r2, ip, rrx
      e4:	65735f69 	ldrbvs	r5, [r3, #-3945]!	; 0xf69
      e8:	75705f74 	ldrbvc	r5, [r0, #-3956]!	; 0xf74
      ec:	61006374 	tstvs	r0, r4, ror r3
      f0:	745f6d72 	ldrbvc	r6, [pc], #-3442	; f8 <_start-0x7f08>
      f4:	72656d69 	rsbvc	r6, r5, #6720	; 0x1a40
      f8:	616f4c5f 	cmnvs	pc, pc, asr ip	; <UNPREDICTABLE>
      fc:	72610064 	rsbvc	r0, r1, #100	; 0x64
     100:	69745f6d 	ldmdbvs	r4!, {r0, r2, r3, r5, r6, r8, r9, sl, fp, ip, lr}^
     104:	5f72656d 	svcpl	0x0072656d
     108:	65736142 	ldrbvs	r6, [r3, #-322]!	; 0x142
     10c:	746e6900 	strbtvc	r6, [lr], #-2304	; 0x900
     110:	696e695f 	stmdbvs	lr!, {r0, r1, r2, r3, r4, r6, r8, fp, sp, lr}^
     114:	49500074 	ldmdbmi	r0, {r2, r4, r5, r6}^
     118:	4c554e5f 	mrrcmi	14, 5, r4, r5, cr15
     11c:	6567004c 	strbvs	r0, [r7, #-76]!	; 0x4c
     120:	69755f74 	ldmdbvs	r5!, {r2, r4, r5, r6, r8, r9, sl, fp, ip, lr}^
     124:	3233746e 	eorscc	r7, r3, #1845493760	; 0x6e000000
     128:	72617500 	rsbvc	r7, r1, #0, 10
     12c:	65675f74 	strbvs	r5, [r7, #-3956]!	; 0xf74
     130:	695f6374 	ldmdbvs	pc, {r2, r4, r5, r6, r8, r9, sp, lr}^	; <UNPREDICTABLE>
     134:	6800746e 	stmdavs	r0, {r1, r2, r3, r5, r6, sl, ip, sp, lr}
     138:	69737264 	ldmdbvs	r3!, {r2, r5, r6, r9, ip, sp, lr}^
     13c:	7500657a 	strvc	r6, [r0, #-1402]	; 0x57a
     140:	5f747261 	svcpl	0x00747261
     144:	65746e69 	ldrbvs	r6, [r4, #-3689]!	; 0xe69
     148:	70757272 	rsbsvc	r7, r5, r2, ror r2
     14c:	61685f74 	smcvs	34292	; 0x85f4
     150:	656c646e 	strbvs	r6, [ip, #-1134]!	; 0x46e
     154:	72610072 	rsbvc	r0, r1, #114	; 0x72
     158:	69745f6d 	ldmdbvs	r4!, {r0, r2, r3, r5, r6, r8, r9, sl, fp, ip, lr}^
     15c:	5f72656d 	svcpl	0x0072656d
     160:	6b73614d 	blvs	1cd869c <__bss_end__+0x1ccc6e4>
     164:	52496465 	subpl	r6, r9, #1694498816	; 0x65000000
     168:	70720051 	rsbsvc	r0, r2, r1, asr r0
     16c:	65725f69 	ldrbvs	r5, [r2, #-3945]!	; 0xf69
     170:	5f746573 	svcpl	0x00746573
     174:	63747570 	cmnvs	r4, #112, 10	; 0x1c000000
     178:	465f5f00 	ldrbmi	r5, [pc], -r0, lsl #30
     17c:	54434e55 	strbpl	r4, [r3], #-3669	; 0xe55
     180:	5f4e4f49 	svcpl	0x004e4f49
     184:	4950005f 	ldmdbmi	r0, {r0, r1, r2, r3, r4, r6}^
     188:	5455505f 	ldrbpl	r5, [r5], #-95	; 0x5f
     18c:	444f435f 	strbmi	r4, [pc], #-863	; 194 <_start-0x7e6c>
     190:	4e495f45 	cdpmi	15, 4, cr5, cr9, cr5, {2}
     194:	70004f46 	andvc	r4, r0, r6, asr #30
     198:	755f7475 	ldrbvc	r7, [pc, #-1141]	; fffffd2b <__bss_end__+0xffff3d73>
     19c:	33746e69 	cmncc	r4, #1680	; 0x690
     1a0:	68730032 	ldmdavs	r3!, {r1, r4, r5}^
     1a4:	2074726f 	rsbscs	r7, r4, pc, ror #4
     1a8:	69736e75 	ldmdbvs	r3!, {r0, r2, r4, r5, r6, r9, sl, fp, sp, lr}^
     1ac:	64656e67 	strbtvs	r6, [r5], #-3687	; 0xe67
     1b0:	746e6920 	strbtvc	r6, [lr], #-2336	; 0x920
     1b4:	72617500 	rsbvc	r7, r1, #0, 10
     1b8:	75705f74 	ldrbvc	r5, [r0, #-3956]!	; 0xf74
     1bc:	695f6374 	ldmdbvs	pc, {r2, r4, r5, r6, r8, r9, sp, lr}^	; <UNPREDICTABLE>
     1c0:	5000746e 	andpl	r7, r0, lr, ror #8
     1c4:	45525f49 	ldrbmi	r5, [r2, #-3913]	; 0xf49
     1c8:	00594441 	subseq	r4, r9, r1, asr #8
     1cc:	525f4950 	subspl	r4, pc, #80, 18	; 0x140000
     1d0:	4f4f4245 	svcmi	0x004f4245
     1d4:	49500054 	ldmdbmi	r0, {r2, r4, r6}^
     1d8:	5445475f 	strbpl	r4, [r5], #-1887	; 0x75f
     1dc:	525f3233 	subspl	r3, pc, #805306371	; 0x30000003
     1e0:	594c5045 	stmdbpl	ip, {r0, r2, r6, ip, lr}^
     1e4:	69727700 	ldmdbvs	r2!, {r8, r9, sl, ip, sp, lr}^
     1e8:	655f6574 	ldrbvs	r6, [pc, #-1396]	; fffffc7c <__bss_end__+0xffff3cc4>
     1ec:	74636178 	strbtvc	r6, [r3], #-376	; 0x178
     1f0:	69706700 	ldmdbvs	r0!, {r8, r9, sl, sp, lr}^
     1f4:	65725f6f 	ldrbvs	r5, [r2, #-3951]!	; 0xf6f
     1f8:	63006461 	movwvs	r6, #1121	; 0x461
     1fc:	5f65646f 	svcpl	0x0065646f
     200:	00667562 	rsbeq	r7, r6, r2, ror #10
     204:	61656c63 	cmnvs	r5, r3, ror #24
     208:	65725f6e 	ldrbvs	r5, [r2, #-3950]!	; 0xf6e
     20c:	746f6f62 	strbtvc	r6, [pc], #-3938	; 214 <_start-0x7dec>
     210:	5f495000 	svcpl	0x00495000
     214:	4f495047 	svcmi	0x00495047
     218:	5445535f 	strbpl	r5, [r5], #-863	; 0x35f
     21c:	004e4f5f 	subeq	r4, lr, pc, asr pc
     220:	475f4950 			; <UNDEFINED> instruction: 0x475f4950
     224:	5f4f4950 	svcpl	0x004f4950
     228:	5f544553 	svcpl	0x00544553
     22c:	5054554f 	subspl	r5, r4, pc, asr #10
     230:	73005455 	movwvc	r5, #1109	; 0x455
     234:	74657a69 	strbtvc	r7, [r5], #-2665	; 0xa69
     238:	00657079 	rsbeq	r7, r5, r9, ror r0
     23c:	475f4950 			; <UNDEFINED> instruction: 0x475f4950
     240:	435f5445 	cmpmi	pc, #1157627904	; 0x45000000
     244:	0045444f 	subeq	r4, r5, pc, asr #8
     248:	5f6d7261 	svcpl	0x006d7261
     24c:	656d6974 	strbvs	r6, [sp, #-2420]!	; 0x974
     250:	65525f72 	ldrbvs	r5, [r2, #-3954]	; 0xf72
     254:	64616f6c 	strbtvs	r6, [r1], #-3948	; 0xf6c
     258:	5f495000 	svcpl	0x00495000
     25c:	33545550 	cmpcc	r4, #80, 10	; 0x14000000
     260:	79730032 	ldmdbvc	r3!, {r1, r4, r5}^
     264:	6d657473 	cfstrdvs	mvd7, [r5, #-460]!	; 0xfffffe34
     268:	616e655f 	cmnvs	lr, pc, asr r5
     26c:	5f656c62 	svcpl	0x00656c62
     270:	65746e69 	ldrbvs	r6, [r4, #-3689]!	; 0xe69
     274:	70757272 	rsbsvc	r7, r5, r2, ror r2
     278:	50007374 	andpl	r7, r0, r4, ror r3
     27c:	45475f49 	strbmi	r5, [r7, #-3913]	; 0xf49
     280:	4f435f54 	svcmi	0x00435f54
     284:	495f4544 	ldmdbmi	pc, {r2, r6, r8, sl, lr}^	; <UNPREDICTABLE>
     288:	004f464e 	subeq	r4, pc, lr, asr #12
     28c:	625f6970 	subsvs	r6, pc, #112, 18	; 0x1c0000
     290:	685f6e69 	ldmdavs	pc, {r0, r3, r5, r6, r9, sl, fp, sp, lr}^	; <UNPREDICTABLE>
     294:	65646165 	strbvs	r6, [r4, #-357]!	; 0x165
     298:	49500072 	ldmdbmi	r0, {r1, r4, r5, r6}^
     29c:	5455505f 	ldrbpl	r5, [r5], #-95	; 0x5f
     2a0:	444f435f 	strbmi	r4, [pc], #-863	; 2a8 <_start-0x7d58>
     2a4:	6e750045 	cdpvs	0, 7, cr0, cr5, cr5, {2}
     2a8:	6e676973 	mcrvs	9, 3, r6, cr7, cr3, {3}
     2ac:	63206465 	teqvs	r0, #1694498816	; 0x65000000
     2b0:	00726168 	rsbseq	r6, r2, r8, ror #2
     2b4:	505f4950 	subspl	r4, pc, r0, asr r9	; <UNPREDICTABLE>
     2b8:	544e4952 	strbpl	r4, [lr], #-2386	; 0x952
     2bc:	5254535f 	subspl	r5, r4, #2080374785	; 0x7c000001
     2c0:	00474e49 	subeq	r4, r7, r9, asr #28
     2c4:	475f4950 			; <UNDEFINED> instruction: 0x475f4950
     2c8:	32335445 	eorscc	r5, r3, #1157627904	; 0x45000000
     2cc:	6f687300 	svcvs	0x00687300
     2d0:	69207472 	stmdbvs	r0!, {r1, r4, r5, r6, sl, ip, sp, lr}
     2d4:	6700746e 	strvs	r7, [r0, -lr, ror #8]
     2d8:	5f6f6970 	svcpl	0x006f6970
     2dc:	74697277 	strbtvc	r7, [r9], #-631	; 0x277
     2e0:	61750065 	cmnvs	r5, r5, rrx
     2e4:	695f7472 	ldmdbvs	pc, {r1, r4, r5, r6, sl, ip, sp, lr}^	; <UNPREDICTABLE>
     2e8:	665f746e 	ldrbvs	r7, [pc], -lr, ror #8
     2ec:	6873756c 	ldmdavs	r3!, {r2, r3, r5, r6, r8, sl, ip, sp, lr}^
     2f0:	6c6c615f 	stfvse	f6, [ip], #-380	; 0xfffffe84
     2f4:	2d697000 	stclcs	0, cr7, [r9, #-0]
     2f8:	2e6d6d76 	mcrcs	13, 3, r6, cr13, cr6, {3}
     2fc:	49500063 	ldmdbmi	r0, {r0, r1, r5, r6}^
     300:	45454e5f 	strbmi	r4, [r5, #-3679]	; 0xe5f
     304:	43415f44 	movtmi	r5, #8004	; 0x1f44
     308:	6564004b 	strbvs	r0, [r4, #-75]!	; 0x4b
     30c:	5f79616c 	svcpl	0x0079616c
     310:	7500736d 	strvc	r7, [r0, #-877]	; 0x36d
     314:	33746e69 	cmncc	r4, #1680	; 0x690
     318:	00745f32 	rsbseq	r5, r4, r2, lsr pc
     31c:	5f697072 	svcpl	0x00697072
     320:	6f626572 	svcvs	0x00626572
     324:	5000746f 	andpl	r7, r0, pc, ror #8
     328:	4e455f49 	cdpmi	15, 4, cr5, cr5, cr9, {2}
     32c:	49500044 	ldmdbmi	r0, {r2, r6}^
     330:	4952505f 	ldmdbmi	r2, {r0, r1, r2, r3, r4, r6, ip, lr}^
     334:	435f544e 	cmpmi	pc, #1308622848	; 0x4e000000
     338:	00524148 	subseq	r4, r2, r8, asr #2
     33c:	475f4950 			; <UNDEFINED> instruction: 0x475f4950
     340:	5f4f4950 	svcpl	0x004f4950
     344:	5f544553 	svcpl	0x00544553
     348:	55504e49 	ldrbpl	r4, [r0, #-3657]	; 0xe49
     34c:	4e470054 	mcrmi	0, 2, r0, cr7, cr4, {2}
     350:	20432055 	subcs	r2, r3, r5, asr r0
     354:	2e382e34 	mrccs	14, 1, r2, cr8, cr4, {1}
     358:	6d2d2033 	stcvs	0, cr2, [sp, #-204]!	; 0xffffff34
     35c:	3d757063 	ldclcc	0, cr7, [r5, #-396]!	; 0xfffffe74
     360:	316d7261 	cmncc	sp, r1, ror #4
     364:	6a363731 	bvs	d8e030 <__bss_end__+0xd82078>
     368:	732d667a 	teqvc	sp, #127926272	; 0x7a00000
     36c:	746d2d20 	strbtvc	r2, [sp], #-3360	; 0xd20
     370:	3d656e75 	stclcc	14, cr6, [r5, #-468]!	; 0xfffffe2c
     374:	316d7261 	cmncc	sp, r1, ror #4
     378:	6a363731 	bvs	d8e044 <__bss_end__+0xd8208c>
     37c:	732d667a 	teqvc	sp, #127926272	; 0x7a00000
     380:	67672d20 	strbvs	r2, [r7, -r0, lsr #26]!
     384:	2d206264 	sfmcs	f6, 4, [r0, #-400]!	; 0xfffffe70
     388:	2d20674f 	stccs	7, cr6, [r0, #-316]!	; 0xfffffec4
     38c:	3d647473 	cfstrdcc	mvd7, [r4, #-460]!	; 0xfffffe34
     390:	39756e67 	ldmdbcc	r5!, {r0, r1, r2, r5, r6, r9, sl, fp, sp, lr}^
     394:	662d2039 			; <UNDEFINED> instruction: 0x662d2039
     398:	65657266 	strbvs	r7, [r5, #-614]!	; 0x266
     39c:	6e617473 	mcrvs	4, 3, r7, cr1, cr3, {3}
     3a0:	676e6964 	strbvs	r6, [lr, -r4, ror #18]!
     3a4:	69706700 	ldmdbvs	r0!, {r8, r9, sl, sp, lr}^
     3a8:	65735f6f 	ldrbvs	r5, [r3, #-3951]!	; 0xf6f
     3ac:	6e695f74 	mcrvs	15, 3, r5, cr9, cr4, {3}
     3b0:	00747570 	rsbseq	r7, r4, r0, ror r5
     3b4:	6f697067 	svcvs	0x00697067
     3b8:	7465735f 	strbtvc	r7, [r5], #-863	; 0x35f
     3bc:	006e6f5f 	rsbeq	r6, lr, pc, asr pc
     3c0:	5f6d7261 	svcpl	0x006d7261
     3c4:	656d6974 	strbvs	r6, [sp, #-2420]!	; 0x974
     3c8:	72505f72 	subsvc	r5, r0, #456	; 0x1c8
     3cc:	76694465 	strbtvc	r4, [r9], -r5, ror #8
     3d0:	72656469 	rsbvc	r6, r5, #1761607680	; 0x69000000
     3d4:	73552f00 	cmpvc	r5, #0, 30
     3d8:	2f737265 	svccs	0x00737265
     3dc:	61697262 	cmnvs	r9, r2, ror #4
     3e0:	6e756a6e 	vsubvs.f32	s13, s10, s29
     3e4:	7365442f 	cmnvc	r5, #788529152	; 0x2f000000
     3e8:	706f746b 	rsbvc	r7, pc, fp, ror #8
     3ec:	6863732f 	stmdavs	r3!, {r0, r1, r2, r3, r5, r8, r9, ip, sp, lr}^
     3f0:	2f6c6f6f 	svccs	0x006c6f6f
     3f4:	746e6957 	strbtvc	r6, [lr], #-2391	; 0x957
     3f8:	39317265 	ldmdbcc	r1!, {r0, r2, r5, r6, r9, ip, sp, lr}
     3fc:	432f3032 	teqmi	pc, #50	; 0x32
     400:	30343153 	eorscc	r3, r4, r3, asr r1
     404:	73632f45 	cmnvc	r3, #276	; 0x114
     408:	65303431 	ldrvs	r3, [r0, #-1073]!	; 0x431
     40c:	7730322d 	ldrvc	r3, [r0, -sp, lsr #4]!
     410:	6c2f6e69 	stcvs	14, cr6, [pc], #-420	; 274 <_start-0x7d8c>
     414:	2f736261 	svccs	0x00736261
     418:	662d3131 			; <UNDEFINED> instruction: 0x662d3131
     41c:	2f657375 	svccs	0x00657375
     420:	69702d33 	ldmdbvs	r0!, {r0, r1, r4, r5, r8, sl, fp, sp}^
     424:	2f73662d 	svccs	0x0073662d
     428:	732d6970 	teqvc	sp, #112, 18	; 0x1c0000
     42c:	00656469 	rsbeq	r6, r5, r9, ror #8
     430:	5f6d7261 	svcpl	0x006d7261
     434:	656d6974 	strbvs	r6, [sp, #-2420]!	; 0x974
     438:	52495f72 	subpl	r5, r9, #456	; 0x1c8
     43c:	656c4351 	strbvs	r4, [ip, #-849]!	; 0x351
     440:	67007261 	strvs	r7, [r0, -r1, ror #4]
     444:	5f6f6970 	svcpl	0x006f6970
     448:	5f746573 	svcpl	0x00746573
     44c:	7074756f 	rsbsvc	r7, r4, pc, ror #10
     450:	72007475 	andvc	r7, r0, #1962934272	; 0x75000000
     454:	615f6970 	cmpvs	pc, r0, ror r9	; <UNPREDICTABLE>
     458:	745f6d72 	ldrbvc	r6, [pc], #-3442	; 460 <_start-0x7ba0>
     45c:	72656d69 	rsbvc	r6, r5, #6720	; 0x1a40
     460:	7500745f 	strvc	r7, [r0, #-1119]	; 0x45f
     464:	38746e69 	ldmdacc	r4!, {r0, r3, r5, r6, r9, sl, fp, sp, lr}^
     468:	5000745f 	andpl	r7, r0, pc, asr r4
     46c:	50475f49 	subpl	r5, r7, r9, asr #30
     470:	525f4f49 	subspl	r4, pc, #292	; 0x124
     474:	00444145 	subeq	r4, r4, r5, asr #2
     478:	475f4950 			; <UNDEFINED> instruction: 0x475f4950
     47c:	5f4f4950 	svcpl	0x004f4950
     480:	5f544553 	svcpl	0x00544553
     484:	0046464f 	subeq	r4, r6, pc, asr #12
     488:	5f6d7261 	svcpl	0x006d7261
     48c:	656d6974 	strbvs	r6, [sp, #-2420]!	; 0x974
     490:	72465f72 	subvc	r5, r6, #456	; 0x1c8
     494:	75526565 	ldrbvc	r6, [r2, #-1381]	; 0x565
     498:	6e696e6e 	cdpvs	14, 6, cr6, cr9, cr14, {3}
     49c:	756f4367 	strbvc	r4, [pc, #-871]!	; 13d <_start-0x7ec3>
     4a0:	7265746e 	rsbvc	r7, r5, #1845493760	; 0x6e000000
     4a4:	675f5f00 	ldrbvs	r5, [pc, -r0, lsl #30]
     4a8:	5f63756e 	svcpl	0x0063756e
     4ac:	6c5f6176 	ldfvse	f6, [pc], {118}	; 0x76
     4b0:	00747369 	rsbseq	r7, r4, r9, ror #6
     4b4:	6362696c 	cmnvs	r2, #108, 18	; 0x1b0000
     4b8:	6972702f 	ldmdbvs	r2!, {r0, r1, r2, r3, r5, ip, sp, lr}^
     4bc:	2e6b746e 	cdpcs	4, 6, cr7, cr11, cr14, {3}
     4c0:	61760063 	cmnvs	r6, r3, rrx
     4c4:	6972705f 	ldmdbvs	r2!, {r0, r1, r2, r3, r4, r6, ip, sp, lr}^
     4c8:	006b746e 	rsbeq	r7, fp, lr, ror #8
     4cc:	61765f5f 	cmnvs	r6, pc, asr pc
     4d0:	73696c5f 	cmnvc	r9, #24320	; 0x5f00
     4d4:	552f0074 	strpl	r0, [pc, #-116]!	; 468 <_start-0x7b98>
     4d8:	73726573 	cmnvc	r2, #482344960	; 0x1cc00000
     4dc:	6972622f 	ldmdbvs	r2!, {r0, r1, r2, r3, r5, r9, sp, lr}^
     4e0:	756a6e61 	strbvc	r6, [sl, #-3681]!	; 0xe61
     4e4:	65442f6e 	strbvs	r2, [r4, #-3950]	; 0xf6e
     4e8:	6f746b73 	svcvs	0x00746b73
     4ec:	63732f70 	cmnvs	r3, #112, 30	; 0x1c0
     4f0:	6c6f6f68 	stclvs	15, cr6, [pc], #-416	; 358 <_start-0x7ca8>
     4f4:	6e69572f 	cdpvs	7, 6, cr5, cr9, cr15, {1}
     4f8:	31726574 	cmncc	r2, r4, ror r5
     4fc:	2f303239 	svccs	0x00303239
     500:	34315343 	ldrtcc	r5, [r1], #-835	; 0x343
     504:	632f4530 	teqvs	pc, #48, 10	; 0xc000000
     508:	30343173 	eorscc	r3, r4, r3, ror r1
     50c:	30322d65 	eorscc	r2, r2, r5, ror #26
     510:	2f6e6977 	svccs	0x006e6977
     514:	7062696c 	rsbvc	r6, r2, ip, ror #18
     518:	5f5f0069 	svcpl	0x005f0069
     51c:	69007061 	stmdbvs	r0, {r0, r5, r6, ip, sp, lr}
     520:	7265746e 	rsbvc	r7, r5, #1845493760	; 0x6e000000
     524:	5f6c616e 	svcpl	0x006c616e
     528:	63747570 	cmnvs	r4, #112, 10	; 0x1c000000
     52c:	00726168 	rsbseq	r6, r2, r8, ror #2
     530:	5f697072 	svcpl	0x00697072
     534:	63747570 	cmnvs	r4, #112, 10	; 0x1c000000
     538:	00726168 	rsbseq	r6, r2, r8, ror #2
     53c:	6362696c 	cmnvs	r2, #108, 18	; 0x1b0000
     540:	7475702f 	ldrbtvc	r7, [r5], #-47	; 0x2f
     544:	72616863 	rsbvc	r6, r1, #6488064	; 0x630000
     548:	6c00632e 	stcvs	3, cr6, [r0], {46}	; 0x2e
     54c:	2f636269 	svccs	0x00636269
     550:	6b747570 	blvs	1d1db18 <__bss_end__+0x1d11b60>
     554:	6900632e 	stmdbvs	r0, {r1, r2, r3, r5, r8, r9, sp, lr}
     558:	7265746e 	rsbvc	r7, r5, #1845493760	; 0x6e000000
     55c:	5f6c616e 	svcpl	0x006c616e
     560:	6b747570 	blvs	1d1db28 <__bss_end__+0x1d11b70>
     564:	67656e00 	strbvs	r6, [r5, -r0, lsl #28]!
     568:	7200705f 	andvc	r7, r0, #95	; 0x5f
     56c:	72657665 	rsbvc	r7, r5, #105906176	; 0x6500000
     570:	69006573 	stmdbvs	r0, {r0, r1, r4, r5, r6, r8, sl, sp, lr}
     574:	67696473 			; <UNDEFINED> instruction: 0x67696473
     578:	70007469 	andvc	r7, r0, r9, ror #8
     57c:	5f737475 	svcpl	0x00737475
     580:	73007066 	movwvc	r7, #102	; 0x66
     584:	656e6769 	strbvs	r6, [lr, #-1897]!	; 0x769
     588:	00705f64 	rsbseq	r5, r0, r4, ror #30
     58c:	6362696c 	cmnvs	r2, #108, 18	; 0x1b0000
     590:	2d61762f 	stclcs	6, cr7, [r1, #-188]!	; 0xffffff44
     594:	6e697270 	mcrvs	2, 3, r7, cr9, cr0, {3}
     598:	632e6b74 	teqvs	lr, #116, 22	; 0x1d000
     59c:	69707200 	ldmdbvs	r0!, {r9, ip, sp, lr}^
     5a0:	7465735f 	strbtvc	r7, [r5], #-863	; 0x35f
     5a4:	74756f5f 	ldrbtvc	r6, [r5], #-3935	; 0xf5f
     5a8:	00747570 	rsbseq	r7, r4, r0, ror r5
     5ac:	74646977 	strbtvc	r6, [r4], #-2423	; 0x977
     5b0:	75700068 	ldrbvc	r0, [r0, #-104]!	; 0x68
     5b4:	665f6374 			; <UNDEFINED> instruction: 0x665f6374
     5b8:	6d650070 	stclvs	0, cr0, [r5, #-448]!	; 0xfffffe40
     5bc:	63007469 	movwvs	r7, #1129	; 0x469
     5c0:	30343173 	eorscc	r3, r4, r3, ror r1
     5c4:	72732d65 	rsbsvc	r2, r3, #6464	; 0x1940
     5c8:	6c632f63 	stclvs	15, cr2, [r3], #-396	; 0xfffffe74
     5cc:	2d6e6165 	stfcse	f6, [lr, #-404]!	; 0xfffffe6c
     5d0:	6f626572 	svcvs	0x00626572
     5d4:	632e746f 	teqvs	lr, #1862270976	; 0x6f000000
     5d8:	746e6900 	strbtvc	r6, [lr], #-2304	; 0x900
     5dc:	616e7265 	cmnvs	lr, r5, ror #4
     5e0:	77735f6c 	ldrbvc	r5, [r3, -ip, ror #30]!
     5e4:	7475705f 	ldrbtvc	r7, [r5], #-95	; 0x5f
     5e8:	72616863 	rsbvc	r6, r1, #6488064	; 0x630000
     5ec:	625f5f00 	subsvs	r5, pc, #0, 30
     5f0:	735f7373 	cmpvc	pc, #-872415231	; 0xcc000001
     5f4:	74726174 	ldrbtvc	r6, [r2], #-372	; 0x174
     5f8:	62005f5f 	andvs	r5, r0, #380	; 0x17c
     5fc:	655f7373 	ldrbvs	r7, [pc, #-883]	; 291 <_start-0x7d6f>
     600:	6300646e 	movwvs	r6, #1134	; 0x46e
     604:	656c6379 	strbvs	r6, [ip, #-889]!	; 0x379
     608:	7265705f 	rsbvc	r7, r5, #95	; 0x5f
     60c:	7469625f 	strbtvc	r6, [r9], #-607	; 0x25f
     610:	6e6f6300 	cdpvs	3, 6, cr6, cr15, cr0, {0}
     614:	656c6f73 	strbvs	r6, [ip, #-3955]!	; 0xf73
     618:	7261755f 	rsbvc	r7, r1, #398458880	; 0x17c00000
     61c:	77730074 			; <UNDEFINED> instruction: 0x77730074
     620:	7261755f 	rsbvc	r7, r1, #398458880	; 0x17c00000
     624:	72705f74 	rsbsvc	r5, r0, #116, 30	; 0x1d0
     628:	6b746e69 	blvs	1d1bfd4 <__bss_end__+0x1d1001c>
     62c:	54555000 	ldrbpl	r5, [r5], #-0
     630:	53455f43 	movtpl	r5, #24387	; 0x5f43
     634:	41555f50 	cmpmi	r5, r0, asr pc
     638:	73005452 	movwvc	r5, #1106	; 0x452
     63c:	61755f77 	cmnvs	r5, r7, ror pc
     640:	745f7472 	ldrbvc	r7, [pc], #-1138	; 648 <_start-0x79b8>
     644:	54555000 	ldrbpl	r5, [r5], #-0
     648:	57535f43 	ldrbpl	r5, [r3, -r3, asr #30]
     64c:	5241555f 	subpl	r5, r1, #398458880	; 0x17c00000
     650:	61620054 	qdsubvs	r0, r4, r2
     654:	50006475 	andpl	r6, r0, r5, ror r4
     658:	5f435455 	svcpl	0x00435455
     65c:	555f5748 	ldrbpl	r5, [pc, #-1864]	; ffffff1c <__bss_end__+0xffff3f64>
     660:	00545241 	subseq	r5, r4, r1, asr #4
     664:	7473635f 	ldrbtvc	r6, [r3], #-863	; 0x35f
     668:	00747261 	rsbseq	r7, r4, r1, ror #4
     66c:	74726175 	ldrbtvc	r6, [r2], #-373	; 0x175
     670:	7665645f 			; <UNDEFINED> instruction: 0x7665645f
     674:	7300745f 	movwvc	r7, #1119	; 0x45f
     678:	61755f77 	cmnvs	r5, r7, ror pc
     67c:	705f7472 	subsvc	r7, pc, r2, ror r4	; <UNPREDICTABLE>
     680:	00637475 	rsbeq	r7, r3, r5, ror r4
     684:	746e6f63 	strbtvc	r6, [lr], #-3939	; 0xf63
     688:	5f6c6f72 	svcpl	0x006c6f72
     68c:	5f6b6c62 	svcpl	0x006b6c62
     690:	77730074 			; <UNDEFINED> instruction: 0x77730074
     694:	7261755f 	rsbvc	r7, r1, #398458880	; 0x17c00000
     698:	62630074 	rsbvs	r0, r3, #116	; 0x74
     69c:	7465675f 	strbtvc	r6, [r5], #-1887	; 0x75f
     6a0:	6f6c625f 	svcvs	0x006c625f
     6a4:	5f006b63 	svcpl	0x00006b63
     6a8:	7373625f 	cmnvc	r3, #-268435451	; 0xf0000005
     6ac:	646e655f 	strbtvs	r6, [lr], #-1375	; 0x55f
     6b0:	63005f5f 	movwvs	r5, #3935	; 0xf5f
     6b4:	30343173 	eorscc	r3, r4, r3, ror r1
     6b8:	72732d65 	rsbsvc	r2, r3, #6464	; 0x1940
     6bc:	73632f63 	cmnvc	r3, #396	; 0x18c
     6c0:	74726174 	ldrbtvc	r6, [r2], #-372	; 0x174
     6c4:	6300632e 	movwvs	r6, #814	; 0x32e
     6c8:	6f736e6f 	svcvs	0x00736e6f
     6cc:	645f656c 	ldrbvs	r6, [pc], #-1388	; 6d4 <_start-0x792c>
     6d0:	6d007665 	stcvs	6, cr7, [r0, #-404]	; 0xfffffe6c
     6d4:	63696761 	cmnvs	r9, #25427968	; 0x1840000
     6d8:	5f746100 	svcpl	0x00746100
     6dc:	72657375 	rsbvc	r7, r5, #-738197503	; 0xd4000001
     6e0:	76656c5f 			; <UNDEFINED> instruction: 0x76656c5f
     6e4:	50006c65 	andpl	r6, r0, r5, ror #24
     6e8:	41505f4d 	cmpmi	r0, sp, asr #30
     6ec:	4f575353 	svcmi	0x00575353
     6f0:	63004452 	movwvs	r4, #1106	; 0x452
     6f4:	30343173 	eorscc	r3, r4, r3, ror r1
     6f8:	72732d65 	rsbsvc	r2, r3, #6464	; 0x1940
     6fc:	65722f63 	ldrbvs	r2, [r2, #-3939]!	; 0xf63
     700:	746f6f62 	strbtvc	r6, [pc], #-3938	; 708 <_start-0x78f8>
     704:	5000632e 	andpl	r6, r0, lr, lsr #6
     708:	53525f4d 	cmppl	r2, #308	; 0x134
     70c:	575f4354 			; <UNDEFINED> instruction: 0x575f4354
     710:	47464352 	smlsldmi	r4, r6, r2, r3
     714:	4c55465f 	mrrcmi	6, 5, r4, r5, cr15
     718:	45525f4c 	ldrbmi	r5, [r2, #-3916]	; 0xf4c
     71c:	00544553 	subseq	r4, r4, r3, asr r5
     720:	575f4d50 			; <UNDEFINED> instruction: 0x575f4d50
     724:	00474f44 	subeq	r4, r7, r4, asr #30
     728:	5f746573 	svcpl	0x00746573
     72c:	72657375 	rsbvc	r7, r5, #-738197503	; 0xd4000001
     730:	76656c5f 			; <UNDEFINED> instruction: 0x76656c5f
     734:	50006c65 	andpl	r6, r0, r5, ror #24
     738:	53525f4d 	cmppl	r2, #308	; 0x134
     73c:	63004354 	movwvs	r4, #852	; 0x354
     740:	00727370 	rsbseq	r7, r2, r0, ror r3
     744:	656d6974 	strbvs	r6, [sp, #-2420]!	; 0x974
     748:	65675f72 	strbvs	r5, [r7, #-3954]!	; 0xf72
     74c:	73755f74 	cmnvc	r5, #116, 30	; 0x1d0
     750:	725f6365 	subsvc	r6, pc, #-1811939327	; 0x94000001
     754:	64007761 	strvs	r7, [r0], #-1889	; 0x761
     758:	79616c65 	stmdbvc	r1!, {r0, r2, r5, r6, sl, fp, sp, lr}^
     75c:	6365735f 	cmnvs	r5, #2080374785	; 0x7c000001
     760:	31736300 	cmncc	r3, r0, lsl #6
     764:	2d653034 	stclcs	0, cr3, [r5, #-208]!	; 0xffffff30
     768:	2f637273 	svccs	0x00637273
     76c:	656d6974 	strbvs	r6, [sp, #-2420]!	; 0x974
     770:	00632e72 	rsbeq	r2, r3, r2, ror lr
     774:	6b636974 	blvs	18dad4c <__bss_end__+0x18ced94>
     778:	65640073 	strbvs	r0, [r4, #-115]!	; 0x73
     77c:	5f79616c 	svcpl	0x0079616c
     780:	6c637963 	stclvs	9, cr7, [r3], #-396	; 0xfffffe74
     784:	64007365 	strvs	r7, [r0], #-869	; 0x365
     788:	79616c65 	stmdbvc	r1!, {r0, r2, r5, r6, sl, fp, sp, lr}^
     78c:	0073755f 	rsbseq	r7, r3, pc, asr r5
     790:	656d6974 	strbvs	r6, [sp, #-2420]!	; 0x974
     794:	65675f72 	strbvs	r5, [r7, #-3954]!	; 0xf72
     798:	73755f74 	cmnvc	r5, #116, 30	; 0x1d0
     79c:	67006365 	strvs	r6, [r0, -r5, ror #6]
     7a0:	5f6f6970 	svcpl	0x006f6970
     7a4:	6e657665 	cdpvs	6, 6, cr7, cr5, cr5, {3}
     7a8:	65645f74 	strbvs	r5, [r4, #-3956]!	; 0xf74
     7ac:	74636574 	strbtvc	r6, [r3], #-1396	; 0x574
     7b0:	70006465 	andvc	r6, r0, r5, ror #8
     7b4:	32337475 	eorscc	r7, r3, #1962934272	; 0x75000000
     7b8:	46504700 	ldrbmi	r4, [r0], -r0, lsl #14
     7bc:	324c4553 	subcc	r4, ip, #348127232	; 0x14c00000
     7c0:	43504700 	cmpmi	r0, #0, 14
     7c4:	0030524c 	eorseq	r5, r0, ip, asr #4
     7c8:	42414e45 	submi	r4, r1, #1104	; 0x450
     7cc:	495f454c 	ldmdbmi	pc, {r2, r3, r6, r8, sl, lr}^	; <UNPREDICTABLE>
     7d0:	5f535152 	svcpl	0x00535152
     7d4:	73690032 	cmnvc	r9, #50	; 0x32
     7d8:	6970675f 	ldmdbvs	r0!, {r0, r1, r2, r3, r4, r6, r8, r9, sl, sp, lr}^
     7dc:	6e695f6f 	cdpvs	15, 6, cr5, cr9, cr15, {3}
     7e0:	50470074 	subpl	r0, r7, r4, ror r0
     7e4:	465f4f49 	ldrbmi	r4, [pc], -r9, asr #30
     7e8:	5f434e55 	svcpl	0x00434e55
     7ec:	55504e49 	ldrbpl	r4, [r0, #-3657]	; 0xe49
     7f0:	796d0054 	stmdbvc	sp!, {r2, r4, r6}^
     7f4:	6372732d 	cmnvs	r2, #-1275068416	; 0xb4000000
     7f8:	6970672f 	ldmdbvs	r0!, {r0, r1, r2, r3, r5, r8, r9, sl, sp, lr}^
     7fc:	00632e6f 	rsbeq	r2, r3, pc, ror #28
     800:	5f746e69 	svcpl	0x00746e69
     804:	6b73616d 	blvs	1cd8dc0 <__bss_end__+0x1ccce08>
     808:	53504700 	cmppl	r0, #0, 14
     80c:	00305445 	eorseq	r5, r0, r5, asr #8
     810:	45535047 	ldrbmi	r5, [r3, #-71]	; 0x47
     814:	72003154 	andvc	r3, r0, #84, 2
     818:	735f6765 	cmpvc	pc, #26476544	; 0x1940000
     81c:	00746174 	rsbseq	r6, r4, r4, ror r1
     820:	454c5047 	strbmi	r5, [ip, #-71]	; 0x47
     824:	47003056 	smlsdmi	r0, r6, r0, r3
     828:	56454c50 			; <UNDEFINED> instruction: 0x56454c50
     82c:	70670031 	rsbvc	r0, r7, r1, lsr r0
     830:	725f6f69 	subsvc	r6, pc, #420	; 0x1a4
     834:	47006765 	strmi	r6, [r0, -r5, ror #14]
     838:	45534650 	ldrbmi	r4, [r3, #-1616]	; 0x650
     83c:	4700304c 	strmi	r3, [r0, -ip, asr #32]
     840:	45534650 	ldrbmi	r4, [r3, #-1616]	; 0x650
     844:	4700314c 	strmi	r3, [r0, -ip, asr #2]
     848:	45534650 	ldrbmi	r4, [r3, #-1616]	; 0x650
     84c:	4700334c 	strmi	r3, [r0, -ip, asr #6]
     850:	45534650 	ldrbmi	r4, [r3, #-1616]	; 0x650
     854:	4700344c 	strmi	r3, [r0, -ip, asr #8]
     858:	45534650 	ldrbmi	r4, [r3, #-1616]	; 0x650
     85c:	6400354c 	strvs	r3, [r0], #-1356	; 0x54c
     860:	625f7665 	subsvs	r7, pc, #105906176	; 0x6500000
     864:	69727261 	ldmdbvs	r2!, {r0, r5, r6, r9, ip, sp, lr}^
     868:	67007265 	strvs	r7, [r0, -r5, ror #4]
     86c:	5f6f6970 	svcpl	0x006f6970
     870:	6c657366 	stclvs	3, cr7, [r5], #-408	; 0xfffffe68
     874:	50470030 	subpl	r0, r7, r0, lsr r0
     878:	31524c43 	cmpcc	r2, r3, asr #24
     87c:	69706700 	ldmdbvs	r0!, {r8, r9, sl, sp, lr}^
     880:	6e695f6f 	cdpvs	15, 6, cr5, cr9, cr15, {3}
     884:	69725f74 	ldmdbvs	r2!, {r2, r4, r5, r6, r8, r9, sl, fp, ip, lr}^
     888:	676e6973 			; <UNDEFINED> instruction: 0x676e6973
     88c:	6764655f 			; <UNDEFINED> instruction: 0x6764655f
     890:	70670065 	rsbvc	r0, r7, r5, rrx
     894:	735f6f69 	cmpvc	pc, #420	; 0x1a4
     898:	665f7465 	ldrbvs	r7, [pc], -r5, ror #8
     89c:	74636e75 	strbtvc	r6, [r3], #-3701	; 0xe75
     8a0:	006e6f69 	rsbeq	r6, lr, r9, ror #30
     8a4:	45525047 	ldrbmi	r5, [r2, #-71]	; 0x47
     8a8:	4700304e 	strmi	r3, [r0, -lr, asr #32]
     8ac:	4e455250 	mcrmi	2, 2, r5, cr5, cr0, {2}
     8b0:	70670031 	rsbvc	r0, r7, r1, lsr r0
     8b4:	655f6f69 	ldrbvs	r6, [pc, #-3945]	; fffff953 <__bss_end__+0xffff399b>
     8b8:	746e6576 	strbtvc	r6, [lr], #-1398	; 0x576
     8bc:	656c635f 	strbvs	r6, [ip, #-863]!	; 0x35f
     8c0:	49007261 	stmdbmi	r0, {r0, r5, r6, r9, ip, sp, lr}
     8c4:	505f5152 	subspl	r5, pc, r2, asr r1	; <UNPREDICTABLE>
     8c8:	49444e45 	stmdbmi	r4, {r0, r2, r6, r9, sl, fp, lr}^
     8cc:	315f474e 	cmpcc	pc, lr, asr #14
     8d0:	51524900 	cmppl	r2, r0, lsl #18
     8d4:	4e45505f 	mcrmi	0, 2, r5, cr5, cr15, {2}
     8d8:	474e4944 	strbmi	r4, [lr, -r4, asr #18]
     8dc:	6200325f 	andvs	r3, r0, #-268435451	; 0xf0000005
     8e0:	616d7469 	cmnvs	sp, r9, ror #8
     8e4:	67006b73 	smlsdxvs	r0, r3, fp, r6
     8e8:	5f6f6970 	svcpl	0x006f6970
     8ec:	30746573 	rsbscc	r6, r4, r3, ror r5
     8f0:	45504700 	ldrbmi	r4, [r0, #-1792]	; 0x700
     8f4:	00305344 	eorseq	r5, r0, r4, asr #6
     8f8:	44455047 	strbmi	r5, [r5], #-71	; 0x47
     8fc:	47003153 	smlsdmi	r0, r3, r1, r3
     900:	4e454650 	mcrmi	6, 2, r4, cr5, cr0, {2}
     904:	50470030 	subpl	r0, r7, r0, lsr r0
     908:	314e4546 	cmpcc	lr, r6, asr #10
     90c:	49504700 	ldmdbmi	r0, {r8, r9, sl, lr}^
     910:	55465f4f 	strbpl	r5, [r6, #-3919]	; 0xf4f
     914:	4f5f434e 	svcmi	0x005f434e
     918:	55505455 	ldrbpl	r5, [r0, #-1109]	; 0x455
     91c:	65670054 	strbvs	r0, [r7, #-84]!	; 0x54
     920:	00323374 	eorseq	r3, r2, r4, ror r3
     924:	6f697067 	svcvs	0x00697067
     928:	746e695f 	strbtvc	r6, [lr], #-2399	; 0x95f
     92c:	6c61665f 	stclvs	6, cr6, [r1], #-380	; 0xfffffe84
     930:	676e696c 	strbvs	r6, [lr, -ip, ror #18]!
     934:	6764655f 			; <UNDEFINED> instruction: 0x6764655f
     938:	70670065 	rsbvc	r0, r7, r5, rrx
     93c:	665f6f69 	ldrbvs	r6, [pc], -r9, ror #30
     940:	5f636e75 	svcpl	0x00636e75
     944:	50470074 	subpl	r0, r7, r4, ror r0
     948:	465f4f49 	ldrbmi	r4, [pc], -r9, asr #30
     94c:	5f434e55 	svcpl	0x00434e55
     950:	30544c41 	subscc	r4, r4, r1, asr #24
     954:	49504700 	ldmdbmi	r0, {r8, r9, sl, lr}^
     958:	55465f4f 	strbpl	r5, [r6, #-3919]	; 0xf4f
     95c:	415f434e 	cmpmi	pc, lr, asr #6
     960:	0031544c 	eorseq	r5, r1, ip, asr #8
     964:	4f495047 	svcmi	0x00495047
     968:	4e55465f 	mrcmi	6, 2, r4, cr5, cr15, {2}
     96c:	4c415f43 	mcrrmi	15, 4, r5, r1, cr3
     970:	47003254 	smlsdmi	r0, r4, r2, r3
     974:	5f4f4950 	svcpl	0x004f4950
     978:	434e5546 	movtmi	r5, #58694	; 0xe546
     97c:	544c415f 	strbpl	r4, [ip], #-351	; 0x15f
     980:	50470033 	subpl	r0, r7, r3, lsr r0
     984:	465f4f49 	ldrbmi	r4, [pc], -r9, asr #30
     988:	5f434e55 	svcpl	0x00434e55
     98c:	34544c41 	ldrbcc	r4, [r4], #-3137	; 0xc41
     990:	49504700 	ldmdbmi	r0, {r8, r9, sl, lr}^
     994:	55465f4f 	strbpl	r5, [r6, #-3919]	; 0xf4f
     998:	415f434e 	cmpmi	pc, lr, asr #6
     99c:	0035544c 	eorseq	r5, r5, ip, asr #8
     9a0:	5f676572 	svcpl	0x00676572
     9a4:	656c6573 	strbvs	r6, [ip, #-1395]!	; 0x573
     9a8:	67007463 	strvs	r7, [r0, -r3, ror #8]
     9ac:	5f6f6970 	svcpl	0x006f6970
     9b0:	30726c63 	rsbscc	r6, r2, r3, ror #24
     9b4:	63796300 	cmnvs	r9, #0, 6
     9b8:	7265705f 	rsbvc	r7, r5, #95	; 0x5f
     9bc:	7469625f 	strbtvc	r6, [r9], #-607	; 0x25f
     9c0:	69727700 	ldmdbvs	r2!, {r8, r9, sl, ip, sp, lr}^
     9c4:	635f6574 	cmpvs	pc, #116, 10	; 0x1d000000
     9c8:	755f6379 	ldrbvc	r6, [pc, #-889]	; 657 <_start-0x79a9>
     9cc:	6c69746e 	cfstrdvs	mvd7, [r9], #-440	; 0xfffffe48
     9d0:	5f777300 	svcpl	0x00777300
     9d4:	74726175 	ldrbtvc	r6, [r2], #-373	; 0x175
     9d8:	7465675f 	strbtvc	r6, [r5], #-1887	; 0x75f
     9dc:	69745f63 	ldmdbvs	r4!, {r0, r1, r5, r6, r8, r9, sl, fp, ip, lr}^
     9e0:	756f656d 	strbvc	r6, [pc, #-1389]!	; 47b <_start-0x7b85>
     9e4:	77730074 			; <UNDEFINED> instruction: 0x77730074
     9e8:	7261755f 	rsbvc	r7, r1, #398458880	; 0x17c00000
     9ec:	65675f74 	strbvs	r5, [r7, #-3956]!	; 0xf74
     9f0:	755f7374 	ldrbvc	r7, [pc, #-884]	; 684 <_start-0x797c>
     9f4:	6c69746e 	cfstrdvs	mvd7, [r9], #-440	; 0xfffffe48
     9f8:	5f777300 	svcpl	0x00777300
     9fc:	74726175 	ldrbtvc	r6, [r2], #-373	; 0x175
     a00:	7465675f 	strbtvc	r6, [r5], #-1887	; 0x75f
     a04:	65640063 	strbvs	r0, [r4, #-99]!	; 0x63
     a08:	65766972 	ldrbvs	r6, [r6, #-2418]!	; 0x972
     a0c:	65640064 	strbvs	r0, [r4, #-100]!	; 0x64
     a10:	5f79616c 	svcpl	0x0079616c
     a14:	6379636e 	cmnvs	r9, #-1207959551	; 0xb8000001
     a18:	0073656c 	rsbseq	r6, r3, ip, ror #10
     a1c:	755f7773 	ldrbvc	r7, [pc, #-1907]	; 2b1 <_start-0x7d4f>
     a20:	5f747261 	svcpl	0x00747261
     a24:	74696e69 	strbtvc	r6, [r9], #-3689	; 0xe69
     a28:	6c65685f 	stclvs	8, cr6, [r5], #-380	; 0xfffffe84
     a2c:	00726570 	rsbseq	r6, r2, r0, ror r5
     a30:	656d6974 	strbvs	r6, [sp, #-2420]!	; 0x974
     a34:	5f74756f 	svcpl	0x0074756f
     a38:	63657375 	cmnvs	r5, #-738197503	; 0xd4000001
     a3c:	5f777300 	svcpl	0x00777300
     a40:	74726175 	ldrbtvc	r6, [r2], #-373	; 0x175
     a44:	7475705f 	ldrbtvc	r7, [r5], #-95	; 0x5f
     a48:	796d006b 	stmdbvc	sp!, {r0, r1, r3, r5, r6}^
     a4c:	6372732d 	cmnvs	r2, #-1275068416	; 0xb4000000
     a50:	2d77732f 	ldclcs	3, cr7, [r7, #-188]!	; 0xffffff44
     a54:	74726175 	ldrbtvc	r6, [r2], #-373	; 0x175
     a58:	6300632e 	movwvs	r6, #814	; 0x32e
     a5c:	5f726168 	svcpl	0x00726168
     a60:	73006e69 	movwvc	r6, #3689	; 0xe69
     a64:	61755f77 	cmnvs	r5, r7, ror pc
     a68:	675f7472 			; <UNDEFINED> instruction: 0x675f7472
     a6c:	5f737465 	svcpl	0x00737465
     a70:	656d6974 	strbvs	r6, [sp, #-2420]!	; 0x974
     a74:	0074756f 	rsbseq	r7, r4, pc, ror #10
     a78:	74756f5f 	ldrbtvc	r6, [r5], #-3935	; 0xf5f
     a7c:	65737500 	ldrbvs	r7, [r3, #-1280]!	; 0x500
     a80:	69745f63 	ldmdbvs	r4!, {r0, r1, r5, r6, r8, r9, sl, fp, ip, lr}^
     a84:	756f656d 	strbvc	r6, [pc, #-1389]!	; 51f <_start-0x7ae1>
     a88:	77730074 			; <UNDEFINED> instruction: 0x77730074
     a8c:	7261755f 	rsbvc	r7, r1, #398458880	; 0x17c00000
     a90:	65675f74 	strbvs	r5, [r7, #-3956]!	; 0xf74
     a94:	755f7374 	ldrbvc	r7, [pc, #-884]	; 728 <_start-0x78d8>
     a98:	6c69746e 	cfstrdvs	mvd7, [r9], #-440	; 0xfffffe48
     a9c:	6b6c625f 	blvs	1b19420 <__bss_end__+0x1b0d468>
     aa0:	69617700 	stmdbvs	r1!, {r8, r9, sl, ip, sp, lr}^
     aa4:	6e755f74 	mrcvs	15, 3, r5, cr5, cr4, {3}
     aa8:	5f6c6974 	svcpl	0x006c6974
     aac:	63657375 	cmnvs	r5, #-738197503	; 0xd4000001
     ab0:	58554100 	ldmdapl	r5, {r8, lr}^
     ab4:	5f554d5f 	svcpl	0x00554d5f
     ab8:	5f52434d 	svcpl	0x0052434d
     abc:	00474552 	subeq	r4, r7, r2, asr r5
     ac0:	5f585541 	svcpl	0x00585541
     ac4:	495f554d 	ldmdbmi	pc, {r0, r2, r3, r6, r8, sl, ip, lr}^	; <UNPREDICTABLE>
     ac8:	45525f4f 	ldrbmi	r5, [r2, #-3919]	; 0xf4f
     acc:	55410047 	strbpl	r0, [r1, #-71]	; 0x47
     ad0:	554d5f58 	strbpl	r5, [sp, #-3928]	; 0xf58
     ad4:	52534d5f 	subspl	r4, r3, #6080	; 0x17c0
     ad8:	4745525f 	smlsldmi	r5, r5, pc, r2	; <UNPREDICTABLE>
     adc:	72617500 	rsbvc	r7, r1, #0, 10
     ae0:	61635f74 	smcvs	13812	; 0x35f4
     ae4:	65675f6e 	strbvs	r5, [r7, #-3950]!	; 0xf6e
     ae8:	41006374 	tstmi	r0, r4, ror r3
     aec:	4d5f5855 	ldclmi	8, cr5, [pc, #-340]	; 9a0 <_start-0x7660>
     af0:	4e435f55 	mcrmi	15, 2, r5, cr3, cr5, {2}
     af4:	525f4c54 	subspl	r4, pc, #84, 24	; 0x5400
     af8:	75004745 	strvc	r4, [r0, #-1861]	; 0x745
     afc:	5f747261 	svcpl	0x00747261
     b00:	5f736168 	svcpl	0x00736168
     b04:	61746164 	cmnvs	r4, r4, ror #2
     b08:	72617500 	rsbvc	r7, r1, #0, 10
     b0c:	6e695f74 	mcrvs	15, 3, r5, cr9, cr4, {3}
     b10:	41007469 	tstmi	r0, r9, ror #8
     b14:	4d5f5855 	ldclmi	8, cr5, [pc, #-340]	; 9c8 <_start-0x7638>
     b18:	45495f55 	strbmi	r5, [r9, #-3925]	; 0xf55
     b1c:	45525f52 	ldrbmi	r5, [r2, #-3922]	; 0xf52
     b20:	55410047 	strbpl	r0, [r1, #-71]	; 0x47
     b24:	554d5f58 	strbpl	r5, [sp, #-3928]	; 0xf58
     b28:	5249495f 	subpl	r4, r9, #1556480	; 0x17c000
     b2c:	4745525f 	smlsldmi	r5, r5, pc, r2	; <UNPREDICTABLE>
     b30:	72617500 	rsbvc	r7, r1, #0, 10
     b34:	61635f74 	smcvs	13812	; 0x35f4
     b38:	75705f6e 	ldrbvc	r5, [r0, #-3950]!	; 0xf6e
     b3c:	41006374 	tstmi	r0, r4, ror r3
     b40:	455f5855 	ldrbmi	r5, [pc, #-2133]	; 2f3 <_start-0x7d0d>
     b44:	4c42414e 	stfmie	f4, [r2], {78}	; 0x4e
     b48:	41005345 	tstmi	r0, r5, asr #6
     b4c:	495f5855 	ldmdbmi	pc, {r0, r2, r4, r6, fp, ip, lr}^	; <UNPREDICTABLE>
     b50:	41005152 	tstmi	r0, r2, asr r1
     b54:	4d5f5855 	ldclmi	8, cr5, [pc, #-340]	; a08 <_start-0x75f8>
     b58:	41425f55 	cmpmi	r2, r5, asr pc
     b5c:	525f4455 	subspl	r4, pc, #1426063360	; 0x55000000
     b60:	41004745 	tstmi	r0, r5, asr #14
     b64:	4d5f5855 	ldclmi	8, cr5, [pc, #-340]	; a18 <_start-0x75e8>
     b68:	54535f55 	ldrbpl	r5, [r3], #-3925	; 0xf55
     b6c:	525f5441 	subspl	r5, pc, #1090519040	; 0x41000000
     b70:	41004745 	tstmi	r0, r5, asr #14
     b74:	4d5f5855 	ldclmi	8, cr5, [pc, #-340]	; a28 <_start-0x75d8>
     b78:	43535f55 	cmpmi	r3, #340	; 0x154
     b7c:	43544152 	cmpmi	r4, #-2147483628	; 0x80000014
     b80:	796d0048 	stmdbvc	sp!, {r3, r6}^
     b84:	6372732d 	cmnvs	r2, #-1275068416	; 0xb4000000
     b88:	7261752f 	rsbvc	r7, r1, #197132288	; 0xbc00000
     b8c:	00632e74 	rsbeq	r2, r3, r4, ror lr
     b90:	5f585541 	svcpl	0x00585541
     b94:	4c5f554d 	cfldr64mi	mvdx5, [pc], {77}	; 0x4d
     b98:	525f5243 	subspl	r5, pc, #805306372	; 0x30000004
     b9c:	41004745 	tstmi	r0, r5, asr #14
     ba0:	4d5f5855 	ldclmi	8, cr5, [pc, #-340]	; a54 <_start-0x75ac>
     ba4:	534c5f55 	movtpl	r5, #53077	; 0xcf55
     ba8:	45525f52 	ldrbmi	r5, [r2, #-3922]	; 0xf52
     bac:	61750047 	cmnvs	r5, r7, asr #32
     bb0:	675f7472 			; <UNDEFINED> instruction: 0x675f7472
     bb4:	5f637465 	svcpl	0x00637465
     bb8:	6e797361 	cdpvs	3, 7, cr7, cr9, cr1, {3}
     bbc:	72700063 	rsbsvc	r0, r0, #99	; 0x63
     bc0:	74656665 	strbtvc	r6, [r5], #-1637	; 0x665
     bc4:	615f6863 	cmpvs	pc, r3, ror #16
     bc8:	74726f62 	ldrbtvc	r6, [r2], #-3938	; 0xf62
     bcc:	6365765f 	cmnvs	r5, #99614720	; 0x5f00000
     bd0:	00726f74 	rsbseq	r6, r2, r4, ror pc
     bd4:	61736944 	cmnvs	r3, r4, asr #18
     bd8:	5f656c62 	svcpl	0x00656c62
     bdc:	69736142 	ldmdbvs	r3!, {r1, r6, r8, sp, lr}^
     be0:	52495f63 	subpl	r5, r9, #396	; 0x18c
     be4:	46007351 			; <UNDEFINED> instruction: 0x46007351
     be8:	635f5149 	cmpvs	pc, #1073741842	; 0x40000012
     bec:	72746e6f 	rsbsvc	r6, r4, #1776	; 0x6f0
     bf0:	5f006c6f 	svcpl	0x00006c6f
     bf4:	65746e69 	ldrbvs	r6, [r4, #-3689]!	; 0xe69
     bf8:	70757272 	rsbsvc	r7, r5, r2, ror r2
     bfc:	61745f74 	cmnvs	r4, r4, ror pc
     c00:	00656c62 	rsbeq	r6, r5, r2, ror #24
     c04:	5f515249 	svcpl	0x00515249
     c08:	69736162 	ldmdbvs	r3!, {r1, r5, r6, r8, sp, lr}^
     c0c:	65705f63 	ldrbvs	r5, [r0, #-3939]!	; 0xf63
     c10:	6e69646e 	cdpvs	4, 6, cr6, cr9, cr14, {3}
     c14:	6e450067 	cdpvs	0, 4, cr0, cr5, cr7, {3}
     c18:	656c6261 	strbvs	r6, [ip, #-609]!	; 0x261
     c1c:	7361425f 	cmnvc	r1, #-268435451	; 0xf0000005
     c20:	495f6369 	ldmdbmi	pc, {r0, r3, r5, r6, r8, r9, sp, lr}^	; <UNPREDICTABLE>
     c24:	00735152 	rsbseq	r5, r3, r2, asr r1
     c28:	62616e45 	rsbvs	r6, r1, #1104	; 0x450
     c2c:	495f656c 	ldmdbmi	pc, {r2, r3, r5, r6, r8, sl, sp, lr}^	; <UNPREDICTABLE>
     c30:	5f735152 	svcpl	0x00735152
     c34:	6e450031 	mcrvs	0, 2, r0, cr5, cr1, {1}
     c38:	656c6261 	strbvs	r6, [ip, #-609]!	; 0x261
     c3c:	5152495f 	cmppl	r2, pc, asr r9
     c40:	00325f73 	eorseq	r5, r2, r3, ror pc
     c44:	746e695f 	strbtvc	r6, [lr], #-2399	; 0x95f
     c48:	75727265 	ldrbvc	r7, [r2, #-613]!	; 0x265
     c4c:	745f7470 	ldrbvc	r7, [pc], #-1136	; c54 <_start-0x73ac>
     c50:	656c6261 	strbvs	r6, [ip, #-609]!	; 0x261
     c54:	646e655f 	strbtvs	r6, [lr], #-1375	; 0x55f
     c58:	74616400 	strbtvc	r6, [r1], #-1024	; 0x400
     c5c:	62615f61 	rsbvs	r5, r1, #388	; 0x184
     c60:	5f74726f 	svcpl	0x0074726f
     c64:	74636576 	strbtvc	r6, [r3], #-1398	; 0x576
     c68:	4900726f 	stmdbmi	r0, {r0, r1, r2, r3, r5, r6, r9, ip, sp, lr}
     c6c:	705f5152 	subsvc	r5, pc, r2, asr r1	; <UNPREDICTABLE>
     c70:	69646e65 	stmdbvs	r4!, {r0, r2, r5, r6, r9, sl, fp, sp, lr}^
     c74:	325f676e 	subscc	r6, pc, #28835840	; 0x1b80000
     c78:	31736300 	cmncc	r3, r0, lsl #6
     c7c:	2d653034 	stclcs	0, cr3, [r5, #-208]!	; 0xffffff30
     c80:	65746e69 	ldrbvs	r6, [r4, #-3689]!	; 0xe69
     c84:	70757272 	rsbsvc	r7, r5, r2, ror r2
     c88:	6e692f74 	mcrvs	15, 3, r2, cr9, cr4, {3}
     c8c:	72726574 	rsbsvc	r6, r2, #116, 10	; 0x1d000000
     c90:	73747075 	cmnvc	r4, #117	; 0x75
     c94:	632e632d 	teqvs	lr, #-1275068416	; 0xb4000000
     c98:	51524900 	cmppl	r2, r0, lsl #18
     c9c:	6e65705f 	mcrvs	0, 3, r7, cr5, cr15, {2}
     ca0:	676e6964 	strbvs	r6, [lr, -r4, ror #18]!
     ca4:	7500315f 	strvc	r3, [r0, #-351]	; 0x15f
     ca8:	6665646e 	strbtvs	r6, [r5], -lr, ror #8
     cac:	64656e69 	strbtvs	r6, [r5], #-3689	; 0xe69
     cb0:	736e695f 	cmnvc	lr, #1556480	; 0x17c000
     cb4:	63757274 	cmnvs	r5, #116, 4	; 0x40000007
     cb8:	6e6f6974 	mcrvs	9, 3, r6, cr15, cr4, {3}
     cbc:	6365765f 	cmnvs	r5, #99614720	; 0x5f00000
     cc0:	00726f74 	rsbseq	r6, r2, r4, ror pc
     cc4:	65736572 	ldrbvs	r6, [r3, #-1394]!	; 0x572
     cc8:	65765f74 	ldrbvs	r5, [r6, #-3956]!	; 0xf74
     ccc:	726f7463 	rsbvc	r7, pc, #1660944384	; 0x63000000
     cd0:	666f7300 	strbtvs	r7, [pc], -r0, lsl #6
     cd4:	72617774 	rsbvc	r7, r1, #116, 14	; 0x1d00000
     cd8:	6e695f65 	cdpvs	15, 6, cr5, cr9, cr5, {3}
     cdc:	72726574 	rsbsvc	r6, r2, #116, 10	; 0x1d000000
     ce0:	5f747075 	svcpl	0x00747075
     ce4:	74636576 	strbtvc	r6, [r3], #-1398	; 0x576
     ce8:	4400726f 	strmi	r7, [r0], #-623	; 0x26f
     cec:	62617369 	rsbvs	r7, r1, #-1543503871	; 0xa4000001
     cf0:	495f656c 	ldmdbmi	pc, {r2, r3, r5, r6, r8, sl, sp, lr}^	; <UNPREDICTABLE>
     cf4:	5f735152 	svcpl	0x00735152
     cf8:	69440031 	stmdbvs	r4, {r0, r4, r5}^
     cfc:	6c626173 	stfvse	f6, [r2], #-460	; 0xfffffe34
     d00:	52495f65 	subpl	r5, r9, #404	; 0x194
     d04:	325f7351 	subscc	r7, pc, #1140850689	; 0x44000001
     d08:	73616600 	cmnvc	r1, #0, 12
     d0c:	6e695f74 	mcrvs	15, 3, r5, cr9, cr4, {3}
     d10:	72726574 	rsbsvc	r6, r2, #116, 10	; 0x1d000000
     d14:	5f747075 	svcpl	0x00747075
     d18:	74636576 	strbtvc	r6, [r3], #-1398	; 0x576
     d1c:	4900726f 	stmdbmi	r0, {r0, r1, r2, r3, r5, r6, r9, ip, sp, lr}
     d20:	425f5152 	subsmi	r5, pc, #-2147483628	; 0x80000014
     d24:	00657361 	rsbeq	r7, r5, r1, ror #6
     d28:	6f73645f 	svcvs	0x0073645f
     d2c:	6e61685f 	mcrvs	8, 3, r6, cr1, cr15, {2}
     d30:	00656c64 	rsbeq	r6, r5, r4, ror #24
     d34:	74726175 	ldrbtvc	r6, [r2], #-373	; 0x175
     d38:	616e655f 	cmnvs	lr, pc, asr r5
     d3c:	5f656c62 	svcpl	0x00656c62
     d40:	73746e69 	cmnvc	r4, #1680	; 0x690
     d44:	69735f00 	ldmdbvs	r3!, {r8, r9, sl, fp, ip, lr}^
     d48:	7500657a 	strvc	r6, [r0, #-1402]	; 0x57a
     d4c:	5f747261 	svcpl	0x00747261
     d50:	62616e65 	rsbvs	r6, r1, #1616	; 0x650
     d54:	675f656c 	ldrbvs	r6, [pc, -ip, ror #10]
     d58:	695f7570 	ldmdbvs	pc, {r4, r5, r6, r8, sl, ip, sp, lr}^	; <UNPREDICTABLE>
     d5c:	5f00746e 	svcpl	0x0000746e
     d60:	646e6172 	strbtvs	r6, [lr], #-370	; 0x172
     d64:	5f003834 	svcpl	0x00003834
     d68:	72656d65 	rsbvc	r6, r5, #6464	; 0x1940
     d6c:	636e6567 	cmnvs	lr, #432013312	; 0x19c00000
     d70:	72650079 	rsbvc	r0, r5, #121	; 0x79
     d74:	73726f72 	cmnvc	r2, #456	; 0x1c8
     d78:	7461665f 	strbtvc	r6, [r1], #-1631	; 0x65f
     d7c:	705f6c61 	subsvc	r6, pc, r1, ror #24
     d80:	74656700 	strbtvc	r6, [r5], #-1792	; 0x700
     d84:	77680051 			; <UNDEFINED> instruction: 0x77680051
     d88:	7261755f 	rsbvc	r7, r1, #398458880	; 0x17c00000
     d8c:	00745f74 	rsbseq	r5, r4, r4, ror pc
     d90:	7263775f 	rsbvc	r7, r3, #24903680	; 0x17c0000
     d94:	626d6f74 	rsbvs	r6, sp, #116, 30	; 0x1d0
     d98:	6174735f 	cmnvs	r4, pc, asr r3
     d9c:	5f006574 	svcpl	0x00006574
     da0:	72736377 	rsbsvc	r6, r3, #-603979775	; 0xdc000001
     da4:	626d6f74 	rsbvs	r6, sp, #116, 30	; 0x1d0
     da8:	74735f73 	ldrbtvc	r5, [r3], #-3955	; 0xf73
     dac:	00657461 	rsbeq	r7, r5, r1, ror #8
     db0:	66626c5f 			; <UNDEFINED> instruction: 0x66626c5f
     db4:	657a6973 	ldrbvs	r6, [sl, #-2419]!	; 0x973
     db8:	5f716300 	svcpl	0x00716300
     dbc:	00706f70 	rsbseq	r6, r0, r0, ror pc
     dc0:	6f6c5f5f 	svcvs	0x006c5f5f
     dc4:	656c6163 	strbvs	r6, [ip, #-355]!	; 0x163
     dc8:	6300745f 	movwvs	r7, #1119	; 0x45f
     dcc:	6d655f71 	stclvs	15, cr5, [r5, #-452]!	; 0xfffffe3c
     dd0:	00797470 	rsbseq	r7, r9, r0, ror r4
     dd4:	72626d5f 	rsbvc	r6, r2, #6080	; 0x17c0
     dd8:	63776f74 	cmnvs	r7, #116, 30	; 0x1d0
     ddc:	6174735f 	cmnvs	r4, pc, asr r3
     de0:	5f006574 	svcpl	0x00006574
     de4:	5f6d745f 	svcpl	0x006d745f
     de8:	00636573 	rsbeq	r6, r3, r3, ror r5
     dec:	54524155 	ldrbpl	r4, [r2], #-341	; 0x155
     df0:	5f58525f 	svcpl	0x0058525f
     df4:	00544e49 	subseq	r4, r4, r9, asr #28
     df8:	7562755f 	strbvc	r7, [r2, #-1375]!	; 0x55f
     dfc:	625f0066 	subsvs	r0, pc, #102	; 0x66
     e00:	00657361 	rsbeq	r7, r5, r1, ror #6
     e04:	6c746e63 	ldclvs	14, cr6, [r4], #-396	; 0xfffffe74
     e08:	745f5f00 	ldrbvc	r5, [pc], #-3840	; e10 <_start-0x71f0>
     e0c:	6f685f6d 	svcvs	0x00685f6d
     e10:	5f007275 	svcpl	0x00007275
     e14:	0066735f 	rsbeq	r7, r6, pc, asr r3
     e18:	5f6e6f5f 	svcpl	0x006e6f5f
     e1c:	74697865 	strbtvc	r7, [r9], #-2149	; 0x865
     e20:	6772615f 			; <UNDEFINED> instruction: 0x6772615f
     e24:	635f0073 	cmpvs	pc, #115	; 0x73
     e28:	696b6f6f 	stmdbvs	fp!, {r0, r1, r2, r3, r5, r6, r8, r9, sl, fp, sp, lr}^
     e2c:	5f5f0065 	svcpl	0x005f0065
     e30:	756c6773 	strbvc	r6, [ip, #-1907]!	; 0x773
     e34:	70630065 	rsbvc	r0, r3, r5, rrx
     e38:	675f7273 			; <UNDEFINED> instruction: 0x675f7273
     e3c:	5f007465 	svcpl	0x00007465
     e40:	67616c66 	strbvs	r6, [r1, -r6, ror #24]!
     e44:	695f0073 	ldmdbvs	pc, {r0, r1, r4, r5, r6}^	; <UNPREDICTABLE>
     e48:	78635f73 	stmdavc	r3!, {r0, r1, r4, r5, r6, r8, r9, sl, fp, ip, lr}^
     e4c:	735f0061 	cmpvc	pc, #97	; 0x61
     e50:	6e696474 	mcrvs	4, 3, r6, cr9, cr4, {3}
     e54:	6c625f00 	stclvs	15, cr5, [r2], #-0
     e58:	7a69736b 	bvc	1a5dc0c <__bss_end__+0x1a51c54>
     e5c:	5f6e0065 	svcpl	0x006e0065
     e60:	74726175 	ldrbtvc	r6, [r2], #-373	; 0x175
     e64:	746e695f 	strbtvc	r6, [lr], #-2399	; 0x95f
     e68:	75727265 	ldrbvc	r7, [r2, #-613]!	; 0x265
     e6c:	00737470 	rsbseq	r7, r3, r0, ror r4
     e70:	64616568 	strbtvs	r6, [r1], #-1384	; 0x568
     e74:	76635f00 	strbtvc	r5, [r3], -r0, lsl #30
     e78:	66756274 			; <UNDEFINED> instruction: 0x66756274
     e7c:	666f5f00 	strbtvs	r5, [pc], -r0, lsl #30
     e80:	74657366 	strbtvc	r7, [r5], #-870	; 0x366
     e84:	74757000 	ldrbtvc	r7, [r5], #-0
     e88:	6d5f0051 	ldclvs	0, cr0, [pc, #-324]	; d4c <_start-0x72b4>
     e8c:	74727362 	ldrbtvc	r7, [r2], #-866	; 0x362
     e90:	7363776f 	cmnvc	r3, #29097984	; 0x1bc0000
     e94:	6174735f 	cmnvs	r4, pc, asr r3
     e98:	5f006574 	svcpl	0x00006574
     e9c:	6c72626d 	lfmvs	f6, 2, [r2], #-436	; 0xfffffe4c
     ea0:	735f6e65 	cmpvc	pc, #1616	; 0x650
     ea4:	65746174 	ldrbvs	r6, [r4, #-372]!	; 0x174
     ea8:	6e665f00 	cdpvs	15, 6, cr5, cr6, cr0, {0}
     eac:	73677261 	cmnvc	r7, #268435462	; 0x10000006
     eb0:	6e665f00 	cdpvs	15, 6, cr5, cr6, cr0, {0}
     eb4:	71630073 	smcvc	12291	; 0x3003
     eb8:	6c656e5f 	stclvs	14, cr6, [r5], #-380	; 0xfffffe84
     ebc:	5f006d65 	svcpl	0x00006d65
     ec0:	6e676973 	mcrvs	9, 3, r6, cr7, cr3, {3}
     ec4:	6c665f00 	stclvs	15, cr5, [r6], #-0
     ec8:	5f6b636f 	svcpl	0x006b636f
     ecc:	735f0074 	cmpvc	pc, #116	; 0x74
     ed0:	72656474 	rsbvc	r6, r5, #116, 8	; 0x74000000
     ed4:	425f0072 	subsmi	r0, pc, #114	; 0x72
     ed8:	6e696769 	cdpvs	7, 6, cr6, cr9, cr9, {3}
     edc:	675f0074 			; <UNDEFINED> instruction: 0x675f0074
     ee0:	616d6d61 	cmnvs	sp, r1, ror #26
     ee4:	6769735f 			; <UNDEFINED> instruction: 0x6769735f
     ee8:	6d61676e 	stclvs	7, cr6, [r1, #-440]!	; 0xfffffe48
     eec:	65725f00 	ldrbvs	r5, [r2, #-3840]!	; 0xf00
     ef0:	746c7573 	strbtvc	r7, [ip], #-1395	; 0x573
     ef4:	5f006b5f 	svcpl	0x00006b5f
     ef8:	006d745f 	rsbeq	r7, sp, pc, asr r4
     efc:	63775f5f 	cmnvs	r7, #380	; 0x17c
     f00:	5f006268 	svcpl	0x00006268
     f04:	6f647473 	svcvs	0x00647473
     f08:	5f007475 	svcpl	0x00007475
     f0c:	6c747663 	ldclvs	6, cr7, [r4], #-396	; 0xfffffe74
     f10:	5f006e65 	svcpl	0x00006e65
     f14:	656c6966 	strbvs	r6, [ip, #-2406]!	; 0x966
     f18:	696e5f00 	stmdbvs	lr!, {r8, r9, sl, fp, ip, lr}^
     f1c:	0073626f 	rsbseq	r6, r3, pc, ror #4
     f20:	6574615f 	ldrbvs	r6, [r4, #-351]!	; 0x15f
     f24:	30746978 	rsbscc	r6, r4, r8, ror r9
     f28:	72617500 	rsbvc	r7, r1, #0, 10
     f2c:	78745f74 	ldmdavc	r4!, {r2, r4, r5, r6, r8, r9, sl, fp, ip, lr}^
     f30:	746e695f 	strbtvc	r6, [lr], #-2399	; 0x95f
     f34:	616e655f 	cmnvs	lr, pc, asr r5
     f38:	64656c62 	strbtvs	r6, [r5], #-3170	; 0xc62
     f3c:	69735f00 	ldmdbvs	r3!, {r8, r9, sl, fp, ip, lr}^
     f40:	6c616e67 	stclvs	14, cr6, [r1], #-412	; 0xfffffe64
     f44:	6675625f 			; <UNDEFINED> instruction: 0x6675625f
     f48:	73615f00 	cmnvc	r1, #0, 30
     f4c:	6d697463 	cfstrdvs	mvd7, [r9, #-396]!	; 0xfffffe74
     f50:	75625f65 	strbvc	r5, [r2, #-3941]!	; 0xf65
     f54:	725f0066 	subsvc	r0, pc, #102	; 0x66
     f58:	6c757365 	ldclvs	3, cr7, [r5], #-404	; 0xfffffe6c
     f5c:	5f5f0074 	svcpl	0x005f0074
     f60:	00686377 	rsbeq	r6, r8, r7, ror r3
     f64:	434f4c5f 	movtmi	r4, #64607	; 0xfc5f
     f68:	00545f4b 	subseq	r5, r4, fp, asr #30
     f6c:	746e6977 	strbtvc	r6, [lr], #-2423	; 0x977
     f70:	5f00745f 	svcpl	0x0000745f
     f74:	67616c66 	strbvs	r6, [r1, -r6, ror #24]!
     f78:	6f003273 	svcvs	0x00003273
     f7c:	00323372 	eorseq	r3, r2, r2, ror r3
     f80:	6d745f5f 	ldclvs	15, cr5, [r4, #-380]!	; 0xfffffe84
     f84:	6165795f 	cmnvs	r5, pc, asr r9
     f88:	61750072 	cmnvs	r5, r2, ror r0
     f8c:	685f7472 	ldmdavs	pc, {r1, r4, r5, r6, sl, ip, sp, lr}^	; <UNPREDICTABLE>
     f90:	645f7361 	ldrbvs	r7, [pc], #-865	; f98 <_start-0x7068>
     f94:	5f617461 	svcpl	0x00617461
     f98:	00746e69 	rsbseq	r6, r4, r9, ror #28
     f9c:	74726175 	ldrbtvc	r6, [r2], #-373	; 0x175
     fa0:	7369645f 	cmnvc	r9, #1593835520	; 0x5f000000
     fa4:	656c6261 	strbvs	r6, [ip, #-609]!	; 0x261
     fa8:	5f78745f 	svcpl	0x0078745f
     fac:	00746e69 	rsbseq	r6, r4, r9, ror #28
     fb0:	75625f63 	strbvc	r5, [r2, #-3939]!	; 0xf63
     fb4:	61740066 	cmnvs	r4, r6, rrx
     fb8:	75006c69 	strvc	r6, [r0, #-3177]	; 0xc69
     fbc:	5f747261 	svcpl	0x00747261
     fc0:	5f746567 	svcpl	0x00746567
     fc4:	5f787561 	svcpl	0x00787561
     fc8:	00717269 	rsbseq	r7, r1, r9, ror #4
     fcc:	74726175 	ldrbtvc	r6, [r2], #-373	; 0x175
     fd0:	7465675f 	strbtvc	r6, [r5], #-1887	; 0x75f
     fd4:	656e5f00 	strbvs	r5, [lr, #-3840]!	; 0xf00
     fd8:	00667478 	rsbeq	r7, r6, r8, ror r4
     fdc:	705f7163 	subsvc	r7, pc, r3, ror #2
     fe0:	6e5f706f 	cdpvs	0, 5, cr7, cr15, cr15, {3}
     fe4:	6c626e6f 	stclvs	14, cr6, [r2], #-444	; 0xfffffe44
     fe8:	006b636f 	rsbeq	r6, fp, pc, ror #6
     fec:	695f7163 	ldmdbvs	pc, {r0, r1, r5, r6, r8, ip, sp, lr}^	; <UNPREDICTABLE>
     ff0:	0074696e 	rsbseq	r6, r4, lr, ror #18
     ff4:	6d745f5f 	ldclvs	15, cr5, [r4, #-380]!	; 0xfffffe84
     ff8:	6e6f6d5f 	mcrvs	13, 3, r6, cr15, cr15, {2}
     ffc:	74615f00 	strbtvc	r5, [r1], #-3840	; 0xf00
    1000:	74697865 	strbtvc	r7, [r9], #-2149	; 0x865
    1004:	554e4700 	strbpl	r4, [lr, #-1792]	; 0x700
    1008:	39394320 	ldmdbcc	r9!, {r5, r8, r9, lr}
    100c:	332e3720 	teqcc	lr, #32, 14	; 0x800000
    1010:	3220312e 	eorcc	r3, r0, #-2147483637	; 0x8000000b
    1014:	30383130 	eorscc	r3, r8, r0, lsr r1
    1018:	20323236 	eorscs	r3, r2, r6, lsr r2
    101c:	6c657228 	sfmvs	f7, 2, [r5], #-160	; 0xffffff60
    1020:	65736165 	ldrbvs	r6, [r3, #-357]!	; 0x165
    1024:	415b2029 	cmpmi	fp, r9, lsr #32
    1028:	652f4d52 	strvs	r4, [pc, #-3410]!	; 2de <_start-0x7d22>
    102c:	6465626d 	strbtvs	r6, [r5], #-621	; 0x26d
    1030:	2d646564 	cfstr64cs	mvdx6, [r4, #-400]!	; 0xfffffe70
    1034:	72622d37 	rsbvc	r2, r2, #3520	; 0xdc0
    1038:	68636e61 	stmdavs	r3!, {r0, r5, r6, r9, sl, fp, sp, lr}^
    103c:	76657220 	strbtvc	r7, [r5], -r0, lsr #4
    1040:	6f697369 	svcvs	0x00697369
    1044:	3632206e 	ldrtcc	r2, [r2], -lr, rrx
    1048:	37303931 			; <UNDEFINED> instruction: 0x37303931
    104c:	6d2d205d 	stcvs	0, cr2, [sp, #-372]!	; 0xfffffe8c
    1050:	3d757063 	ldclcc	0, cr7, [r5, #-396]!	; 0xfffffe74
    1054:	316d7261 	cmncc	sp, r1, ror #4
    1058:	6a363731 	bvs	d8ed24 <__bss_end__+0xd82d6c>
    105c:	732d667a 	teqvc	sp, #127926272	; 0x7a00000
    1060:	746d2d20 	strbtvc	r2, [sp], #-3360	; 0xd20
    1064:	3d656e75 	stclcc	14, cr6, [r5, #-468]!	; 0xfffffe2c
    1068:	316d7261 	cmncc	sp, r1, ror #4
    106c:	6a363731 	bvs	d8ed38 <__bss_end__+0xd82d80>
    1070:	732d667a 	teqvc	sp, #127926272	; 0x7a00000
    1074:	67672d20 	strbvs	r2, [r7, -r0, lsr #26]!
    1078:	2d206264 	sfmcs	f6, 4, [r0, #-400]!	; 0xfffffe70
    107c:	2d20674f 	stccs	7, cr6, [r0, #-316]!	; 0xfffffec4
    1080:	3d647473 	cfstrdcc	mvd7, [r4, #-460]!	; 0xfffffe34
    1084:	39756e67 	ldmdbcc	r5!, {r0, r1, r2, r5, r6, r9, sl, fp, sp, lr}^
    1088:	662d2039 			; <UNDEFINED> instruction: 0x662d2039
    108c:	65657266 	strbvs	r7, [r5, #-614]!	; 0x266
    1090:	6e617473 	mcrvs	4, 3, r7, cr1, cr3, {3}
    1094:	676e6964 	strbvs	r6, [lr, -r4, ror #18]!
    1098:	735f5f00 	cmpvc	pc, #0, 30
    109c:	69646964 	stmdbvs	r4!, {r2, r5, r6, r8, fp, sp, lr}^
    10a0:	0074696e 	rsbseq	r6, r4, lr, ror #18
    10a4:	66666f5f 	uqsaxvs	r6, r6, pc	; <UNPREDICTABLE>
    10a8:	5f00745f 	svcpl	0x0000745f
    10ac:	65657266 	strbvs	r7, [r5, #-614]!	; 0x266
    10b0:	7473696c 	ldrbtvc	r6, [r3], #-2412	; 0x96c
    10b4:	63775f00 	cmnvs	r7, #0, 30
    10b8:	626d6f74 	rsbvs	r6, sp, #116, 30	; 0x1d0
    10bc:	6174735f 	cmnvs	r4, pc, asr r3
    10c0:	75006574 	strvc	r6, [r0, #-1396]	; 0x574
    10c4:	5f747261 	svcpl	0x00747261
    10c8:	62616e65 	rsbvs	r6, r1, #1616	; 0x650
    10cc:	725f656c 	subsvc	r6, pc, #108, 10	; 0x1b000000
    10d0:	6e695f78 	mcrvs	15, 3, r5, cr9, cr8, {3}
    10d4:	75610074 	strbvc	r0, [r1, #-116]!	; 0x74
    10d8:	65705f78 	ldrbvs	r5, [r0, #-3960]!	; 0xf78
    10dc:	68706972 	ldmdavs	r0!, {r1, r4, r5, r6, r8, fp, sp, lr}^
    10e0:	41550073 	cmpmi	r5, r3, ror r0
    10e4:	4e5f5452 	mrcmi	4, 2, r5, cr15, cr2, {2}
    10e8:	4e495f4f 	cdpmi	15, 4, cr5, cr9, cr15, {2}
    10ec:	682f0054 	stmdavs	pc!, {r2, r4, r6}	; <UNPREDICTABLE>
    10f0:	2f656d6f 	svccs	0x00656d6f
    10f4:	6c676e65 	stclvs	14, cr6, [r7], #-404	; 0xfffffe6c
    10f8:	632f7265 	teqvs	pc, #1342177286	; 0x50000006
    10fc:	7373616c 	cmnvc	r3, #108, 2
    1100:	3173632f 	cmncc	r3, pc, lsr #6
    1104:	2d653034 	stclcs	0, cr3, [r5, #-208]!	; 0xffffff30
    1108:	69773032 	ldmdbvs	r7!, {r1, r4, r5, ip, sp}^
    110c:	696c2f6e 	stmdbvs	ip!, {r1, r2, r3, r5, r6, r8, r9, sl, fp, sp}^
    1110:	2f697062 	svccs	0x00697062
    1114:	34317363 	ldrtcc	r7, [r1], #-867	; 0x363
    1118:	702d6530 	eorvc	r6, sp, r0, lsr r5
    111c:	61766972 	cmnvs	r6, r2, ror r9
    1120:	5f006574 	svcpl	0x00006574
    1124:	72655f68 	rsbvc	r5, r5, #104, 30	; 0x1a0
    1128:	006f6e72 	rsbeq	r6, pc, r2, ror lr	; <UNPREDICTABLE>
    112c:	6d745f5f 	ldclvs	15, cr5, [r4, #-380]!	; 0xfffffe84
    1130:	6164795f 	cmnvs	r4, pc, asr r9
    1134:	5f5f0079 	svcpl	0x005f0079
    1138:	66756273 			; <UNDEFINED> instruction: 0x66756273
    113c:	6f695f00 	svcvs	0x00695f00
    1140:	5f007362 	svcpl	0x00007362
    1144:	4c49465f 	mcrrmi	6, 5, r4, r9, cr15
    1148:	6d5f0045 	ldclvs	0, cr0, [pc, #-276]	; 103c <_start-0x6fc4>
    114c:	61747362 	cmnvs	r4, r2, ror #6
    1150:	745f6574 	ldrbvc	r6, [pc], #-1396	; 1158 <_start-0x6ea8>
    1154:	735f5f00 	cmpvc	pc, #0, 30
    1158:	454c4946 	strbmi	r4, [ip, #-2374]	; 0x946
    115c:	626d5f00 	rsbvs	r5, sp, #0, 30
    1160:	74617473 	strbtvc	r7, [r1], #-1139	; 0x473
    1164:	725f0065 	subsvc	r0, pc, #101	; 0x65
    1168:	5f646e61 	svcpl	0x00646e61
    116c:	7478656e 	ldrbtvc	r6, [r8], #-1390	; 0x56e
    1170:	52415500 	subpl	r5, r1, #0, 10
    1174:	58545f54 	ldmdapl	r4, {r2, r4, r6, r8, r9, sl, fp, ip, lr}^
    1178:	544e495f 	strbpl	r4, [lr], #-2399	; 0x95f
    117c:	626d5f00 	rsbvs	r5, sp, #0, 30
    1180:	5f6e656c 	svcpl	0x006e656c
    1184:	74617473 	strbtvc	r7, [r1], #-1139	; 0x473
    1188:	695f0065 	ldmdbvs	pc, {r0, r2, r5, r6}^	; <UNPREDICTABLE>
    118c:	5f00636e 	svcpl	0x0000636e
    1190:	00646e69 	rsbeq	r6, r4, r9, ror #28
    1194:	636f6c5f 	cmnvs	pc, #24320	; 0x5f00
    1198:	00656c61 	rsbeq	r6, r5, r1, ror #24
    119c:	6c635f5f 	stclvs	15, cr5, [r3], #-380	; 0xfffffe84
    11a0:	756e6165 	strbvc	r6, [lr, #-357]!	; 0x165
    11a4:	755f0070 	ldrbvc	r0, [pc, #-112]	; 113c <_start-0x6ec4>
    11a8:	6570736e 	ldrbvs	r7, [r0, #-878]!	; 0x36e
    11ac:	69666963 	stmdbvs	r6!, {r0, r1, r5, r6, r8, fp, sp, lr}^
    11b0:	6c5f6465 	cfldrdvs	mvd6, [pc], {101}	; 0x65
    11b4:	6c61636f 	stclvs	3, cr6, [r1], #-444	; 0xfffffe44
    11b8:	6e695f65 	cdpvs	15, 6, cr5, cr9, cr5, {3}
    11bc:	5f006f66 	svcpl	0x00006f66
    11c0:	7778616d 	ldrbvc	r6, [r8, -sp, ror #2]!
    11c4:	5f007364 	svcpl	0x00007364
    11c8:	6e656572 	mcrvs	5, 3, r6, cr5, cr2, {3}
    11cc:	735f0074 	cmpvc	pc, #116	; 0x74
    11d0:	00646565 	rsbeq	r6, r4, r5, ror #10
    11d4:	6f635f5f 	svcvs	0x00635f5f
    11d8:	00746e75 	rsbseq	r6, r4, r5, ror lr
    11dc:	6f6c5f5f 	svcvs	0x006c5f5f
    11e0:	5f006b63 	svcpl	0x00006b63
    11e4:	6c61765f 	stclvs	6, cr7, [r1], #-380	; 0xfffffe84
    11e8:	5f006575 	svcpl	0x00006575
    11ec:	6b656573 	blvs	195a7c0 <__bss_end__+0x194e808>
    11f0:	72617500 	rsbvc	r7, r1, #0, 10
    11f4:	6e695f74 	mcrvs	15, 3, r5, cr9, cr4, {3}
    11f8:	00745f74 	rsbseq	r5, r4, r4, ror pc
    11fc:	6f70665f 	svcvs	0x0070665f
    1200:	00745f73 	rsbseq	r5, r4, r3, ror pc
    1204:	3233524f 	eorscc	r5, r3, #-268435452	; 0xf0000004
    1208:	745f5f00 	ldrbvc	r5, [pc], #-3840	; 1210 <_start-0x6df0>
    120c:	696d5f6d 	stmdbvs	sp!, {r0, r2, r3, r5, r6, r8, r9, sl, fp, ip, lr}^
    1210:	6175006e 	cmnvs	r5, lr, rrx
    1214:	655f7472 	ldrbvs	r7, [pc, #-1138]	; daa <_start-0x7256>
    1218:	6c62616e 	stfvse	f6, [r2], #-440	; 0xfffffe48
    121c:	78745f65 	ldmdavc	r4!, {r0, r2, r5, r6, r8, r9, sl, fp, ip, lr}^
    1220:	746e695f 	strbtvc	r6, [lr], #-2399	; 0x95f
    1224:	6e656600 	cdpvs	6, 6, cr6, cr5, cr0, {0}
    1228:	73006563 	movwvc	r6, #1379	; 0x563
    122c:	74617263 	strbtvc	r7, [r1], #-611	; 0x263
    1230:	5f006863 	svcpl	0x00006863
    1234:	746c756d 	strbtvc	r7, [ip], #-1389	; 0x56d
    1238:	74735f00 	ldrbtvc	r5, [r3], #-3840	; 0xf00
    123c:	6b6f7472 	blvs	1bde40c <__bss_end__+0x1bd2454>
    1240:	73616c5f 	cmnvc	r1, #24320	; 0x5f00
    1244:	665f0074 			; <UNDEFINED> instruction: 0x665f0074
    1248:	7079746e 	rsbsvc	r7, r9, lr, ror #8
    124c:	5f007365 	svcpl	0x00007365
    1250:	00646461 	rsbeq	r6, r4, r1, ror #8
    1254:	4c555f5f 	mrrcmi	15, 5, r5, r5, cr15	; <UNPREDICTABLE>
    1258:	00676e6f 	rsbeq	r6, r7, pc, ror #28
    125c:	74726175 	ldrbtvc	r6, [r2], #-373	; 0x175
    1260:	746e692d 	strbtvc	r6, [lr], #-2349	; 0x92d
    1264:	5f00632e 	svcpl	0x0000632e
    1268:	64746567 	ldrbtvs	r6, [r4], #-1383	; 0x567
    126c:	5f657461 	svcpl	0x00657461
    1270:	00727265 	rsbseq	r7, r2, r5, ror #4
    1274:	5f746e69 	svcpl	0x00746e69
    1278:	655f7369 	ldrbvs	r7, [pc, #-873]	; f17 <_start-0x70e9>
    127c:	6c62616e 	stfvse	f6, [r2], #-440	; 0xfffffe48
    1280:	5f006465 	svcpl	0x00006465
    1284:	626f6c67 	rsbvs	r6, pc, #26368	; 0x6700
    1288:	695f6c61 	ldmdbvs	pc, {r0, r5, r6, sl, fp, sp, lr}^	; <UNPREDICTABLE>
    128c:	7275706d 	rsbsvc	r7, r5, #109	; 0x6d
    1290:	74705f65 	ldrbtvc	r5, [r0], #-3941	; 0xf65
    1294:	656d0072 	strbvs	r0, [sp, #-114]!	; 0x72
    1298:	7465736d 	strbtvc	r7, [r5], #-877	; 0x36d
    129c:	6e755f00 	cdpvs	15, 7, cr5, cr5, cr0, {0}
    12a0:	64657375 	strbtvs	r7, [r5], #-885	; 0x375
    12a4:	6e61725f 	mcrvs	2, 3, r7, cr1, cr15, {2}
    12a8:	71630064 	cmnvc	r3, r4, rrx
    12ac:	6300745f 	movwvs	r7, #1119	; 0x45f
    12b0:	745f6571 	ldrbvc	r6, [pc], #-1393	; 12b8 <_start-0x6d48>
    12b4:	72617500 	rsbvc	r7, r1, #0, 10
    12b8:	6c635f74 	stclvs	15, cr5, [r3], #-464	; 0xfffffe30
    12bc:	5f726165 	svcpl	0x00726165
    12c0:	00746e69 	rsbseq	r6, r4, r9, ror #28
    12c4:	7364775f 	cmnvc	r4, #24903680	; 0x17c0000
    12c8:	745f5f00 	ldrbvc	r5, [pc], #-3840	; 12d0 <_start-0x6d30>
    12cc:	64775f6d 	ldrbtvs	r5, [r7], #-3949	; 0xf6d
    12d0:	5f007961 	svcpl	0x00007961
    12d4:	65756c67 	ldrbvs	r6, [r5, #-3175]!	; 0xc67
    12d8:	6d6e5f00 	stclvs	15, cr5, [lr, #-0]
    12dc:	6f6c6c61 	svcvs	0x006c6c61
    12e0:	6c5f0063 	mrrcvs	0, 6, r0, pc, cr3	; <UNPREDICTABLE>
    12e4:	5f613436 	svcpl	0x00613436
    12e8:	00667562 	rsbeq	r7, r6, r2, ror #10
    12ec:	6769735f 			; <UNDEFINED> instruction: 0x6769735f
    12f0:	6e75665f 	mrcvs	6, 3, r6, cr5, cr15, {2}
    12f4:	6e5f0063 	cdpvs	0, 5, cr0, cr15, cr3, {3}
    12f8:	00667562 	rsbeq	r7, r6, r2, ror #10
    12fc:	756e755f 	strbvc	r7, [lr, #-1375]!	; 0x55f
    1300:	00646573 	rsbeq	r6, r4, r3, ror r5
    1304:	705f7163 	subsvc	r7, pc, r3, ror #2
    1308:	00687375 	rsbeq	r7, r8, r5, ror r3
    130c:	74726175 	ldrbtvc	r6, [r2], #-373	; 0x175
    1310:	7369645f 	cmnvc	r9, #1593835520	; 0x5f000000
    1314:	656c6261 	strbvs	r6, [ip, #-609]!	; 0x261
    1318:	5f78725f 	svcpl	0x0078725f
    131c:	00746e69 	rsbseq	r6, r4, r9, ror #28
    1320:	6d745f5f 	ldclvs	15, cr5, [r4, #-380]!	; 0xfffffe84
    1324:	6473695f 	ldrbtvs	r6, [r3], #-2399	; 0x95f
    1328:	5f007473 	svcpl	0x00007473
    132c:	61636f6c 	cmnvs	r3, ip, ror #30
    1330:	6d69746c 	cfstrdvs	mvd7, [r9, #-432]!	; 0xfffffe50
    1334:	75625f65 	strbvc	r5, [r2, #-3941]!	; 0xf65
    1338:	635f0066 	cmpvs	pc, #102	; 0x66
    133c:	65736f6c 	ldrbvs	r6, [r3, #-3948]!	; 0xf6c
    1340:	34725f00 	ldrbtcc	r5, [r2], #-3840	; 0xf00
    1344:	61750038 	cmnvs	r5, r8, lsr r0
    1348:	695f7472 	ldmdbvs	pc, {r1, r4, r5, r6, sl, ip, sp, lr}^	; <UNPREDICTABLE>
    134c:	665f746e 	ldrbvs	r7, [pc], -lr, ror #8
    1350:	6873756c 	ldmdavs	r3!, {r2, r3, r5, r6, r8, sl, ip, sp, lr}^
    1354:	626d5f00 	rsbvs	r5, sp, #0, 30
    1358:	63776f74 	cmnvs	r7, #116, 30	; 0x1d0
    135c:	6174735f 	cmnvs	r4, pc, asr r3
    1360:	5f006574 	svcpl	0x00006574
    1364:	00733570 	rsbseq	r3, r3, r0, ror r5
    1368:	74726175 	ldrbtvc	r6, [r2], #-373	; 0x175
    136c:	7361685f 	cmnvc	r1, #6225920	; 0x5f0000
    1370:	746e695f 	strbtvc	r6, [lr], #-2399	; 0x95f
    1374:	73797300 	cmnvc	r9, #0, 6
    1378:	5f6d6574 	svcpl	0x006d6574
    137c:	61736964 	cmnvs	r3, r4, ror #18
    1380:	5f656c62 	svcpl	0x00656c62
    1384:	65746e69 	ldrbvs	r6, [r4, #-3689]!	; 0xe69
    1388:	70757272 	rsbsvc	r7, r5, r2, ror r2
    138c:	5f007374 	svcpl	0x00007374
    1390:	5f6d745f 	svcpl	0x006d745f
    1394:	7961646d 	stmdbvc	r1!, {r0, r2, r3, r5, r6, sl, sp, lr}^
    1398:	5f716300 	svcpl	0x00716300
    139c:	6c6c7566 	cfstr64vs	mvdx7, [ip], #-408	; 0xfffffe68
    13a0:	65766f00 	ldrbvs	r6, [r6, #-3840]!	; 0xf00
    13a4:	6f6c6672 	svcvs	0x006c6672
    13a8:	69730077 	ldmdbvs	r3!, {r0, r1, r2, r4, r5, r6}^
    13ac:	745f657a 	ldrbvc	r6, [pc], #-1402	; 13b4 <_start-0x6c4c>
    13b0:	62696c00 	rsbvs	r6, r9, #0, 24
    13b4:	656d2f63 	strbvs	r2, [sp, #-3939]!	; 0xf63
    13b8:	7465736d 	strbtvc	r7, [r5], #-877	; 0x36d
    13bc:	6300632e 	movwvs	r6, #814	; 0x32e
    13c0:	656e5f62 	strbvs	r5, [lr, #-3938]!	; 0xf62
    13c4:	73630077 	cmnvc	r3, #119	; 0x77
    13c8:	65303431 	ldrvs	r3, [r0, #-1073]!	; 0x431
    13cc:	6372732d 	cmnvs	r2, #-1275068416	; 0xb4000000
    13d0:	6e6f632f 	cdpvs	3, 6, cr6, cr15, cr15, {1}
    13d4:	6c6f7274 	sfmvs	f7, 2, [pc], #-464	; 120c <_start-0x6df4>
    13d8:	6f6c622d 	svcvs	0x006c622d
    13dc:	632e6b63 	teqvs	lr, #101376	; 0x18c00
	...

Disassembly of section .debug_frame:

00000000 <.debug_frame>:
   0:	0000000c 	andeq	r0, r0, ip
   4:	ffffffff 			; <UNDEFINED> instruction: 0xffffffff
   8:	7c020001 	stcvc	0, cr0, [r2], {1}
   c:	000d0c0e 	andeq	r0, sp, lr, lsl #24
  10:	00000018 	andeq	r0, r0, r8, lsl r0
  14:	00000000 	andeq	r0, r0, r0
  18:	00008010 	andeq	r8, r0, r0, lsl r0
  1c:	0000002c 	andeq	r0, r0, ip, lsr #32
  20:	84100e42 	ldrhi	r0, [r0], #-3650	; 0xe42
  24:	86038504 	strhi	r8, [r3], -r4, lsl #10
  28:	00018e02 	andeq	r8, r1, r2, lsl #28
  2c:	00000014 	andeq	r0, r0, r4, lsl r0
  30:	00000000 	andeq	r0, r0, r0
  34:	0000803c 	andeq	r8, r0, ip, lsr r0
  38:	00000020 	andeq	r0, r0, r0, lsr #32
  3c:	8e040e42 	cdphi	14, 0, cr0, cr4, cr2, {2}
  40:	100e4201 	andne	r4, lr, r1, lsl #4
  44:	00000014 	andeq	r0, r0, r4, lsl r0
  48:	00000000 	andeq	r0, r0, r0
  4c:	0000805c 	andeq	r8, r0, ip, asr r0
  50:	00000020 	andeq	r0, r0, r0, lsr #32
  54:	84080e42 	strhi	r0, [r8], #-3650	; 0xe42
  58:	00018e02 	andeq	r8, r1, r2, lsl #28
  5c:	00000018 	andeq	r0, r0, r8, lsl r0
  60:	00000000 	andeq	r0, r0, r0
  64:	0000807c 	andeq	r8, r0, ip, ror r0
  68:	0000002c 	andeq	r0, r0, ip, lsr #32
  6c:	84100e42 	ldrhi	r0, [r0], #-3650	; 0xe42
  70:	86038504 	strhi	r8, [r3], -r4, lsl #10
  74:	00018e02 	andeq	r8, r1, r2, lsl #28
  78:	00000014 	andeq	r0, r0, r4, lsl r0
  7c:	00000000 	andeq	r0, r0, r0
  80:	000080a8 	andeq	r8, r0, r8, lsr #1
  84:	00000024 	andeq	r0, r0, r4, lsr #32
  88:	8e040e42 	cdphi	14, 0, cr0, cr4, cr2, {2}
  8c:	100e4201 	andne	r4, lr, r1, lsl #4
  90:	00000014 	andeq	r0, r0, r4, lsl r0
  94:	00000000 	andeq	r0, r0, r0
  98:	000080cc 	andeq	r8, r0, ip, asr #1
  9c:	00000018 	andeq	r0, r0, r8, lsl r0
  a0:	83080e42 	movwhi	r0, #36418	; 0x8e42
  a4:	00018e02 	andeq	r8, r1, r2, lsl #28
  a8:	00000014 	andeq	r0, r0, r4, lsl r0
  ac:	00000000 	andeq	r0, r0, r0
  b0:	000080e4 	andeq	r8, r0, r4, ror #1
  b4:	0000000c 	andeq	r0, r0, ip
  b8:	83080e42 	movwhi	r0, #36418	; 0x8e42
  bc:	00018e02 	andeq	r8, r1, r2, lsl #28
  c0:	0000002c 	andeq	r0, r0, ip, lsr #32
  c4:	00000000 	andeq	r0, r0, r0
  c8:	000080f0 	strdeq	r8, [r0], -r0
  cc:	00000290 	muleq	r0, r0, r2
  d0:	84240e42 	strthi	r0, [r4], #-3650	; 0xe42
  d4:	86088509 	strhi	r8, [r8], -r9, lsl #10
  d8:	88068707 	stmdahi	r6, {r0, r1, r2, r8, r9, sl, pc}
  dc:	8a048905 	bhi	1224f8 <__bss_end__+0x116540>
  e0:	8e028b03 	vmlahi.f64	d8, d2, d3
  e4:	a40e4201 	strge	r4, [lr], #-513	; 0x201
  e8:	0e420480 	cdpeq	4, 4, cr0, cr2, cr0, {4}
  ec:	000480b0 	strheq	r8, [r4], -r0
  f0:	0000000c 	andeq	r0, r0, ip
  f4:	ffffffff 			; <UNDEFINED> instruction: 0xffffffff
  f8:	7c020001 	stcvc	0, cr0, [r2], {1}
  fc:	000d0c0e 	andeq	r0, sp, lr, lsl #24
 100:	00000024 	andeq	r0, r0, r4, lsr #32
 104:	000000f0 	strdeq	r0, [r0], -r0	; <UNPREDICTABLE>
 108:	00008380 	andeq	r8, r0, r0, lsl #7
 10c:	00000058 	andeq	r0, r0, r8, asr r0
 110:	80100e42 	andshi	r0, r0, r2, asr #28
 114:	82038104 	andhi	r8, r3, #4, 2
 118:	42018302 	andmi	r8, r1, #134217728	; 0x8000000
 11c:	07841c0e 	streq	r1, [r4, lr, lsl #24]
 120:	058e0685 	streq	r0, [lr, #1669]	; 0x685
 124:	00280e42 	eoreq	r0, r8, r2, asr #28
 128:	0000000c 	andeq	r0, r0, ip
 12c:	ffffffff 			; <UNDEFINED> instruction: 0xffffffff
 130:	7c020001 	stcvc	0, cr0, [r2], {1}
 134:	000d0c0e 	andeq	r0, sp, lr, lsl #24
 138:	00000014 	andeq	r0, r0, r4, lsl r0
 13c:	00000128 	andeq	r0, r0, r8, lsr #2
 140:	000083d8 	ldrdeq	r8, [r0], -r8	; <UNPREDICTABLE>
 144:	00000014 	andeq	r0, r0, r4, lsl r0
 148:	84080e42 	strhi	r0, [r8], #-3650	; 0xe42
 14c:	00018e02 	andeq	r8, r1, r2, lsl #28
 150:	0000000c 	andeq	r0, r0, ip
 154:	00000128 	andeq	r0, r0, r8, lsr #2
 158:	000083ec 	andeq	r8, r0, ip, ror #7
 15c:	00000018 	andeq	r0, r0, r8, lsl r0
 160:	0000000c 	andeq	r0, r0, ip
 164:	00000128 	andeq	r0, r0, r8, lsr #2
 168:	00008404 	andeq	r8, r0, r4, lsl #8
 16c:	00000010 	andeq	r0, r0, r0, lsl r0
 170:	0000000c 	andeq	r0, r0, ip
 174:	ffffffff 			; <UNDEFINED> instruction: 0xffffffff
 178:	7c020001 	stcvc	0, cr0, [r2], {1}
 17c:	000d0c0e 	andeq	r0, sp, lr, lsl #24
 180:	00000018 	andeq	r0, r0, r8, lsl r0
 184:	00000170 	andeq	r0, r0, r0, ror r1
 188:	00008414 	andeq	r8, r0, r4, lsl r4
 18c:	00000034 	andeq	r0, r0, r4, lsr r0
 190:	83100e42 	tsthi	r0, #1056	; 0x420
 194:	85038404 	strhi	r8, [r3, #-1028]	; 0x404
 198:	00018e02 	andeq	r8, r1, r2, lsl #28
 19c:	0000000c 	andeq	r0, r0, ip
 1a0:	ffffffff 			; <UNDEFINED> instruction: 0xffffffff
 1a4:	7c020001 	stcvc	0, cr0, [r2], {1}
 1a8:	000d0c0e 	andeq	r0, sp, lr, lsl #24
 1ac:	0000000c 	andeq	r0, r0, ip
 1b0:	0000019c 	muleq	r0, ip, r1
 1b4:	00008448 	andeq	r8, r0, r8, asr #8
 1b8:	00000014 	andeq	r0, r0, r4, lsl r0
 1bc:	0000000c 	andeq	r0, r0, ip
 1c0:	0000019c 	muleq	r0, ip, r1
 1c4:	0000845c 	andeq	r8, r0, ip, asr r4
 1c8:	0000002c 	andeq	r0, r0, ip, lsr #32
 1cc:	0000000c 	andeq	r0, r0, ip
 1d0:	0000019c 	muleq	r0, ip, r1
 1d4:	00008488 	andeq	r8, r0, r8, lsl #9
 1d8:	00000040 	andeq	r0, r0, r0, asr #32
 1dc:	00000020 	andeq	r0, r0, r0, lsr #32
 1e0:	0000019c 	muleq	r0, ip, r1
 1e4:	000084c8 	andeq	r8, r0, r8, asr #9
 1e8:	0000019c 	muleq	r0, ip, r1
 1ec:	84180e42 	ldrhi	r0, [r8], #-3650	; 0xe42
 1f0:	86058506 	strhi	r8, [r5], -r6, lsl #10
 1f4:	88038704 	stmdahi	r3, {r2, r8, r9, sl, pc}
 1f8:	42018e02 	andmi	r8, r1, #2, 28
 1fc:	0000580e 	andeq	r5, r0, lr, lsl #16
 200:	00000014 	andeq	r0, r0, r4, lsl r0
 204:	0000019c 	muleq	r0, ip, r1
 208:	00008664 	andeq	r8, r0, r4, ror #12
 20c:	00000054 	andeq	r0, r0, r4, asr r0
 210:	83080e42 	movwhi	r0, #36418	; 0x8e42
 214:	00018e02 	andeq	r8, r1, r2, lsl #28
 218:	00000028 	andeq	r0, r0, r8, lsr #32
 21c:	0000019c 	muleq	r0, ip, r1
 220:	000086b8 			; <UNDEFINED> instruction: 0x000086b8
 224:	00000288 	andeq	r0, r0, r8, lsl #5
 228:	84240e42 	strthi	r0, [r4], #-3650	; 0xe42
 22c:	86088509 	strhi	r8, [r8], -r9, lsl #10
 230:	88068707 	stmdahi	r6, {r0, r1, r2, r8, r9, sl, pc}
 234:	8a048905 	bhi	122650 <__bss_end__+0x116698>
 238:	8e028b03 	vmlahi.f64	d8, d2, d3
 23c:	b00e4201 	andlt	r4, lr, r1, lsl #4
 240:	00000001 	andeq	r0, r0, r1
 244:	0000000c 	andeq	r0, r0, ip
 248:	ffffffff 			; <UNDEFINED> instruction: 0xffffffff
 24c:	7c020001 	stcvc	0, cr0, [r2], {1}
 250:	000d0c0e 	andeq	r0, sp, lr, lsl #24
 254:	00000014 	andeq	r0, r0, r4, lsl r0
 258:	00000244 	andeq	r0, r0, r4, asr #4
 25c:	00008940 	andeq	r8, r0, r0, asr #18
 260:	00000028 	andeq	r0, r0, r8, lsr #32
 264:	83080e42 	movwhi	r0, #36418	; 0x8e42
 268:	00018e02 	andeq	r8, r1, r2, lsl #28
 26c:	0000000c 	andeq	r0, r0, ip
 270:	ffffffff 			; <UNDEFINED> instruction: 0xffffffff
 274:	7c020001 	stcvc	0, cr0, [r2], {1}
 278:	000d0c0e 	andeq	r0, sp, lr, lsl #24
 27c:	00000014 	andeq	r0, r0, r4, lsl r0
 280:	0000026c 	andeq	r0, r0, ip, ror #4
 284:	00008968 	andeq	r8, r0, r8, ror #18
 288:	00000020 	andeq	r0, r0, r0, lsr #32
 28c:	84080e42 	strhi	r0, [r8], #-3650	; 0xe42
 290:	00018e02 	andeq	r8, r1, r2, lsl #28
 294:	00000014 	andeq	r0, r0, r4, lsl r0
 298:	0000026c 	andeq	r0, r0, ip, ror #4
 29c:	00008988 	andeq	r8, r0, r8, lsl #19
 2a0:	00000090 	muleq	r0, r0, r0
 2a4:	83080e42 	movwhi	r0, #36418	; 0x8e42
 2a8:	00018e02 	andeq	r8, r1, r2, lsl #28
 2ac:	0000000c 	andeq	r0, r0, ip
 2b0:	ffffffff 			; <UNDEFINED> instruction: 0xffffffff
 2b4:	7c020001 	stcvc	0, cr0, [r2], {1}
 2b8:	000d0c0e 	andeq	r0, sp, lr, lsl #24
 2bc:	0000000c 	andeq	r0, r0, ip
 2c0:	000002ac 	andeq	r0, r0, ip, lsr #5
 2c4:	00008a18 	andeq	r8, r0, r8, lsl sl
 2c8:	00000018 	andeq	r0, r0, r8, lsl r0
 2cc:	0000000c 	andeq	r0, r0, ip
 2d0:	000002ac 	andeq	r0, r0, ip, lsr #5
 2d4:	00008a30 	andeq	r8, r0, r0, lsr sl
 2d8:	00000014 	andeq	r0, r0, r4, lsl r0
 2dc:	00000014 	andeq	r0, r0, r4, lsl r0
 2e0:	000002ac 	andeq	r0, r0, ip, lsr #5
 2e4:	00008a44 	andeq	r8, r0, r4, asr #20
 2e8:	00000048 	andeq	r0, r0, r8, asr #32
 2ec:	83080e42 	movwhi	r0, #36418	; 0x8e42
 2f0:	00018e02 	andeq	r8, r1, r2, lsl #28
 2f4:	0000000c 	andeq	r0, r0, ip
 2f8:	ffffffff 			; <UNDEFINED> instruction: 0xffffffff
 2fc:	7c020001 	stcvc	0, cr0, [r2], {1}
 300:	000d0c0e 	andeq	r0, sp, lr, lsl #24
 304:	0000000c 	andeq	r0, r0, ip
 308:	000002f4 	strdeq	r0, [r0], -r4
 30c:	00008a8c 	andeq	r8, r0, ip, lsl #21
 310:	0000001c 	andeq	r0, r0, ip, lsl r0
 314:	00000014 	andeq	r0, r0, r4, lsl r0
 318:	000002f4 	strdeq	r0, [r0], -r4
 31c:	00008aa8 	andeq	r8, r0, r8, lsr #21
 320:	00000014 	andeq	r0, r0, r4, lsl r0
 324:	83080e42 	movwhi	r0, #36418	; 0x8e42
 328:	00018e02 	andeq	r8, r1, r2, lsl #28
 32c:	00000014 	andeq	r0, r0, r4, lsl r0
 330:	000002f4 	strdeq	r0, [r0], -r4
 334:	00008abc 			; <UNDEFINED> instruction: 0x00008abc
 338:	0000000c 	andeq	r0, r0, ip
 33c:	83080e42 	movwhi	r0, #36418	; 0x8e42
 340:	00018e02 	andeq	r8, r1, r2, lsl #28
 344:	00000018 	andeq	r0, r0, r8, lsl r0
 348:	000002f4 	strdeq	r0, [r0], -r4
 34c:	00008ac8 	andeq	r8, r0, r8, asr #21
 350:	00000024 	andeq	r0, r0, r4, lsr #32
 354:	83100e42 	tsthi	r0, #1056	; 0x420
 358:	85038404 	strhi	r8, [r3, #-1028]	; 0x404
 35c:	00018e02 	andeq	r8, r1, r2, lsl #28
 360:	00000014 	andeq	r0, r0, r4, lsl r0
 364:	000002f4 	strdeq	r0, [r0], -r4
 368:	00008aec 	andeq	r8, r0, ip, ror #21
 36c:	00000014 	andeq	r0, r0, r4, lsl r0
 370:	83080e42 	movwhi	r0, #36418	; 0x8e42
 374:	00018e02 	andeq	r8, r1, r2, lsl #28
 378:	00000014 	andeq	r0, r0, r4, lsl r0
 37c:	000002f4 	strdeq	r0, [r0], -r4
 380:	00008b00 	andeq	r8, r0, r0, lsl #22
 384:	00000014 	andeq	r0, r0, r4, lsl r0
 388:	83080e42 	movwhi	r0, #36418	; 0x8e42
 38c:	00018e02 	andeq	r8, r1, r2, lsl #28
 390:	0000000c 	andeq	r0, r0, ip
 394:	ffffffff 			; <UNDEFINED> instruction: 0xffffffff
 398:	7c020001 	stcvc	0, cr0, [r2], {1}
 39c:	000d0c0e 	andeq	r0, sp, lr, lsl #24
 3a0:	00000018 	andeq	r0, r0, r8, lsl r0
 3a4:	00000390 	muleq	r0, r0, r3
 3a8:	00008b14 	andeq	r8, r0, r4, lsl fp
 3ac:	000000d4 	ldrdeq	r0, [r0], -r4
 3b0:	83100e42 	tsthi	r0, #1056	; 0x420
 3b4:	85038404 	strhi	r8, [r3, #-1028]	; 0x404
 3b8:	00018e02 	andeq	r8, r1, r2, lsl #28
 3bc:	00000014 	andeq	r0, r0, r4, lsl r0
 3c0:	00000390 	muleq	r0, r0, r3
 3c4:	00008be8 	andeq	r8, r0, r8, ror #23
 3c8:	00000038 	andeq	r0, r0, r8, lsr r0
 3cc:	83080e42 	movwhi	r0, #36418	; 0x8e42
 3d0:	00018e02 	andeq	r8, r1, r2, lsl #28
 3d4:	00000014 	andeq	r0, r0, r4, lsl r0
 3d8:	00000390 	muleq	r0, r0, r3
 3dc:	00008c20 	andeq	r8, r0, r0, lsr #24
 3e0:	00000038 	andeq	r0, r0, r8, lsr r0
 3e4:	83080e42 	movwhi	r0, #36418	; 0x8e42
 3e8:	00018e02 	andeq	r8, r1, r2, lsl #28
 3ec:	00000018 	andeq	r0, r0, r8, lsl r0
 3f0:	00000390 	muleq	r0, r0, r3
 3f4:	00008c58 	andeq	r8, r0, r8, asr ip
 3f8:	000000cc 	andeq	r0, r0, ip, asr #1
 3fc:	83100e42 	tsthi	r0, #1056	; 0x420
 400:	85038404 	strhi	r8, [r3, #-1028]	; 0x404
 404:	00018e02 	andeq	r8, r1, r2, lsl #28
 408:	00000014 	andeq	r0, r0, r4, lsl r0
 40c:	00000390 	muleq	r0, r0, r3
 410:	00008d24 	andeq	r8, r0, r4, lsr #26
 414:	0000004c 	andeq	r0, r0, ip, asr #32
 418:	84080e42 	strhi	r0, [r8], #-3650	; 0xe42
 41c:	00018e02 	andeq	r8, r1, r2, lsl #28
 420:	00000014 	andeq	r0, r0, r4, lsl r0
 424:	00000390 	muleq	r0, r0, r3
 428:	00008d70 	andeq	r8, r0, r0, ror sp
 42c:	00000024 	andeq	r0, r0, r4, lsr #32
 430:	83080e42 	movwhi	r0, #36418	; 0x8e42
 434:	00018e02 	andeq	r8, r1, r2, lsl #28
 438:	00000018 	andeq	r0, r0, r8, lsl r0
 43c:	00000390 	muleq	r0, r0, r3
 440:	00008d94 	muleq	r0, r4, sp
 444:	000000d8 	ldrdeq	r0, [r0], -r8
 448:	84100e42 	ldrhi	r0, [r0], #-3650	; 0xe42
 44c:	86038504 	strhi	r8, [r3], -r4, lsl #10
 450:	00018e02 	andeq	r8, r1, r2, lsl #28
 454:	00000014 	andeq	r0, r0, r4, lsl r0
 458:	00000390 	muleq	r0, r0, r3
 45c:	00008e6c 	andeq	r8, r0, ip, ror #28
 460:	0000002c 	andeq	r0, r0, ip, lsr #32
 464:	83080e42 	movwhi	r0, #36418	; 0x8e42
 468:	00018e02 	andeq	r8, r1, r2, lsl #28
 46c:	00000018 	andeq	r0, r0, r8, lsl r0
 470:	00000390 	muleq	r0, r0, r3
 474:	00008e98 	muleq	r0, r8, lr
 478:	00000084 	andeq	r0, r0, r4, lsl #1
 47c:	83100e42 	tsthi	r0, #1056	; 0x420
 480:	85038404 	strhi	r8, [r3, #-1028]	; 0x404
 484:	00018e02 	andeq	r8, r1, r2, lsl #28
 488:	00000018 	andeq	r0, r0, r8, lsl r0
 48c:	00000390 	muleq	r0, r0, r3
 490:	00008f1c 	andeq	r8, r0, ip, lsl pc
 494:	00000084 	andeq	r0, r0, r4, lsl #1
 498:	83100e42 	tsthi	r0, #1056	; 0x420
 49c:	85038404 	strhi	r8, [r3, #-1028]	; 0x404
 4a0:	00018e02 	andeq	r8, r1, r2, lsl #28
 4a4:	00000014 	andeq	r0, r0, r4, lsl r0
 4a8:	00000390 	muleq	r0, r0, r3
 4ac:	00008fa0 	andeq	r8, r0, r0, lsr #31
 4b0:	00000084 	andeq	r0, r0, r4, lsl #1
 4b4:	84080e42 	strhi	r0, [r8], #-3650	; 0xe42
 4b8:	00018e02 	andeq	r8, r1, r2, lsl #28
 4bc:	00000014 	andeq	r0, r0, r4, lsl r0
 4c0:	00000390 	muleq	r0, r0, r3
 4c4:	00009024 	andeq	r9, r0, r4, lsr #32
 4c8:	00000058 	andeq	r0, r0, r8, asr r0
 4cc:	84080e42 	strhi	r0, [r8], #-3650	; 0xe42
 4d0:	00018e02 	andeq	r8, r1, r2, lsl #28
 4d4:	0000000c 	andeq	r0, r0, ip
 4d8:	ffffffff 			; <UNDEFINED> instruction: 0xffffffff
 4dc:	7c020001 	stcvc	0, cr0, [r2], {1}
 4e0:	000d0c0e 	andeq	r0, sp, lr, lsl #24
 4e4:	0000001c 	andeq	r0, r0, ip, lsl r0
 4e8:	000004d4 	ldrdeq	r0, [r0], -r4
 4ec:	0000907c 	andeq	r9, r0, ip, ror r0
 4f0:	00000154 	andeq	r0, r0, r4, asr r1
 4f4:	84180e42 	ldrhi	r0, [r8], #-3650	; 0xe42
 4f8:	86058506 	strhi	r8, [r5], -r6, lsl #10
 4fc:	88038704 	stmdahi	r3, {r2, r8, r9, sl, pc}
 500:	00018e02 	andeq	r8, r1, r2, lsl #28
 504:	00000020 	andeq	r0, r0, r0, lsr #32
 508:	000004d4 	ldrdeq	r0, [r0], -r4
 50c:	000091d0 	ldrdeq	r9, [r0], -r0
 510:	000001c8 	andeq	r0, r0, r8, asr #3
 514:	83200e42 	teqhi	r0, #1056	; 0x420
 518:	85078408 	strhi	r8, [r7, #-1032]	; 0x408
 51c:	87058606 	strhi	r8, [r5, -r6, lsl #12]
 520:	89038804 	stmdbhi	r3, {r2, fp, pc}
 524:	00018e02 	andeq	r8, r1, r2, lsl #28
 528:	00000020 	andeq	r0, r0, r0, lsr #32
 52c:	000004d4 	ldrdeq	r0, [r0], -r4
 530:	00009398 	muleq	r0, r8, r3
 534:	00000090 	muleq	r0, r0, r0
 538:	84200e42 	strthi	r0, [r0], #-3650	; 0xe42
 53c:	86078508 	strhi	r8, [r7], -r8, lsl #10
 540:	88058706 	stmdahi	r5, {r1, r2, r8, r9, sl, pc}
 544:	8a038904 	bhi	e295c <__bss_end__+0xd69a4>
 548:	00018e02 	andeq	r8, r1, r2, lsl #28
 54c:	0000001c 	andeq	r0, r0, ip, lsl r0
 550:	000004d4 	ldrdeq	r0, [r0], -r4
 554:	00009428 	andeq	r9, r0, r8, lsr #8
 558:	0000007c 	andeq	r0, r0, ip, ror r0
 55c:	84180e42 	ldrhi	r0, [r8], #-3650	; 0xe42
 560:	86058506 	strhi	r8, [r5], -r6, lsl #10
 564:	88038704 	stmdahi	r3, {r2, r8, r9, sl, pc}
 568:	00018e02 	andeq	r8, r1, r2, lsl #28
 56c:	0000001c 	andeq	r0, r0, ip, lsl r0
 570:	000004d4 	ldrdeq	r0, [r0], -r4
 574:	000094a4 	andeq	r9, r0, r4, lsr #9
 578:	000000c0 	andeq	r0, r0, r0, asr #1
 57c:	84180e42 	ldrhi	r0, [r8], #-3650	; 0xe42
 580:	86058506 	strhi	r8, [r5], -r6, lsl #10
 584:	88038704 	stmdahi	r3, {r2, r8, r9, sl, pc}
 588:	00018e02 	andeq	r8, r1, r2, lsl #28
 58c:	00000014 	andeq	r0, r0, r4, lsl r0
 590:	000004d4 	ldrdeq	r0, [r0], -r4
 594:	00009564 	andeq	r9, r0, r4, ror #10
 598:	0000003c 	andeq	r0, r0, ip, lsr r0
 59c:	83080e42 	movwhi	r0, #36418	; 0x8e42
 5a0:	00018e02 	andeq	r8, r1, r2, lsl #28
 5a4:	00000018 	andeq	r0, r0, r8, lsl r0
 5a8:	000004d4 	ldrdeq	r0, [r0], -r4
 5ac:	000095a0 	andeq	r9, r0, r0, lsr #11
 5b0:	0000002c 	andeq	r0, r0, ip, lsr #32
 5b4:	83100e42 	tsthi	r0, #1056	; 0x420
 5b8:	85038404 	strhi	r8, [r3, #-1028]	; 0x404
 5bc:	00018e02 	andeq	r8, r1, r2, lsl #28
 5c0:	00000024 	andeq	r0, r0, r4, lsr #32
 5c4:	000004d4 	ldrdeq	r0, [r0], -r4
 5c8:	000095cc 	andeq	r9, r0, ip, asr #11
 5cc:	00000084 	andeq	r0, r0, r4, lsl #1
 5d0:	810c0e42 	tsthi	ip, r2, asr #28
 5d4:	83028203 	movwhi	r8, #8707	; 0x2203
 5d8:	180e4201 	stmdane	lr, {r0, r9, lr}
 5dc:	05850684 	streq	r0, [r5, #1668]	; 0x684
 5e0:	0e42048e 	cdpeq	4, 4, cr0, cr2, cr14, {4}
 5e4:	000003e8 	andeq	r0, r0, r8, ror #7
 5e8:	00000014 	andeq	r0, r0, r4, lsl r0
 5ec:	000004d4 	ldrdeq	r0, [r0], -r4
 5f0:	00009650 	andeq	r9, r0, r0, asr r6
 5f4:	0000004c 	andeq	r0, r0, ip, asr #32
 5f8:	8e040e42 	cdphi	14, 0, cr0, cr4, cr2, {2}
 5fc:	100e4201 	andne	r4, lr, r1, lsl #4
 600:	0000000c 	andeq	r0, r0, ip
 604:	ffffffff 			; <UNDEFINED> instruction: 0xffffffff
 608:	7c020001 	stcvc	0, cr0, [r2], {1}
 60c:	000d0c0e 	andeq	r0, sp, lr, lsl #24
 610:	00000018 	andeq	r0, r0, r8, lsl r0
 614:	00000600 	andeq	r0, r0, r0, lsl #12
 618:	0000969c 	muleq	r0, ip, r6
 61c:	0000009c 	muleq	r0, ip, r0
 620:	83100e42 	tsthi	r0, #1056	; 0x420
 624:	85038404 	strhi	r8, [r3, #-1028]	; 0x404
 628:	00018e02 	andeq	r8, r1, r2, lsl #28
 62c:	00000014 	andeq	r0, r0, r4, lsl r0
 630:	00000600 	andeq	r0, r0, r0, lsl #12
 634:	00009738 	andeq	r9, r0, r8, lsr r7
 638:	0000001c 	andeq	r0, r0, ip, lsl r0
 63c:	83080e42 	movwhi	r0, #36418	; 0x8e42
 640:	00018e02 	andeq	r8, r1, r2, lsl #28
 644:	00000014 	andeq	r0, r0, r4, lsl r0
 648:	00000600 	andeq	r0, r0, r0, lsl #12
 64c:	00009754 	andeq	r9, r0, r4, asr r7
 650:	00000028 	andeq	r0, r0, r8, lsr #32
 654:	83080e42 	movwhi	r0, #36418	; 0x8e42
 658:	00018e02 	andeq	r8, r1, r2, lsl #28
 65c:	00000014 	andeq	r0, r0, r4, lsl r0
 660:	00000600 	andeq	r0, r0, r0, lsl #12
 664:	0000977c 	andeq	r9, r0, ip, ror r7
 668:	0000001c 	andeq	r0, r0, ip, lsl r0
 66c:	83080e42 	movwhi	r0, #36418	; 0x8e42
 670:	00018e02 	andeq	r8, r1, r2, lsl #28
 674:	00000014 	andeq	r0, r0, r4, lsl r0
 678:	00000600 	andeq	r0, r0, r0, lsl #12
 67c:	00009798 	muleq	r0, r8, r7
 680:	0000002c 	andeq	r0, r0, ip, lsr #32
 684:	84080e42 	strhi	r0, [r8], #-3650	; 0xe42
 688:	00018e02 	andeq	r8, r1, r2, lsl #28
 68c:	00000014 	andeq	r0, r0, r4, lsl r0
 690:	00000600 	andeq	r0, r0, r0, lsl #12
 694:	000097c4 	andeq	r9, r0, r4, asr #15
 698:	0000000c 	andeq	r0, r0, ip
 69c:	83080e42 	movwhi	r0, #36418	; 0x8e42
 6a0:	00018e02 	andeq	r8, r1, r2, lsl #28
 6a4:	00000014 	andeq	r0, r0, r4, lsl r0
 6a8:	00000600 	andeq	r0, r0, r0, lsl #12
 6ac:	000097d0 	ldrdeq	r9, [r0], -r0
 6b0:	00000020 	andeq	r0, r0, r0, lsr #32
 6b4:	83080e42 	movwhi	r0, #36418	; 0x8e42
 6b8:	00018e02 	andeq	r8, r1, r2, lsl #28
 6bc:	0000000c 	andeq	r0, r0, ip
 6c0:	ffffffff 			; <UNDEFINED> instruction: 0xffffffff
 6c4:	7c020001 	stcvc	0, cr0, [r2], {1}
 6c8:	000d0c0e 	andeq	r0, sp, lr, lsl #24
 6cc:	00000014 	andeq	r0, r0, r4, lsl r0
 6d0:	000006bc 			; <UNDEFINED> instruction: 0x000006bc
 6d4:	000097f0 	strdeq	r9, [r0], -r0
 6d8:	00000068 	andeq	r0, r0, r8, rrx
 6dc:	83080e42 	movwhi	r0, #36418	; 0x8e42
 6e0:	00018e02 	andeq	r8, r1, r2, lsl #28
 6e4:	00000014 	andeq	r0, r0, r4, lsl r0
 6e8:	000006bc 			; <UNDEFINED> instruction: 0x000006bc
 6ec:	00009858 	andeq	r9, r0, r8, asr r8
 6f0:	00000044 	andeq	r0, r0, r4, asr #32
 6f4:	8e040e42 	cdphi	14, 0, cr0, cr4, cr2, {2}
 6f8:	100e4201 	andne	r4, lr, r1, lsl #4
 6fc:	00000014 	andeq	r0, r0, r4, lsl r0
 700:	000006bc 			; <UNDEFINED> instruction: 0x000006bc
 704:	0000989c 	muleq	r0, ip, r8
 708:	00000044 	andeq	r0, r0, r4, asr #32
 70c:	8e040e42 	cdphi	14, 0, cr0, cr4, cr2, {2}
 710:	100e4201 	andne	r4, lr, r1, lsl #4
 714:	00000014 	andeq	r0, r0, r4, lsl r0
 718:	000006bc 			; <UNDEFINED> instruction: 0x000006bc
 71c:	000098e0 	andeq	r9, r0, r0, ror #17
 720:	00000044 	andeq	r0, r0, r4, asr #32
 724:	8e040e42 	cdphi	14, 0, cr0, cr4, cr2, {2}
 728:	100e4201 	andne	r4, lr, r1, lsl #4
 72c:	00000014 	andeq	r0, r0, r4, lsl r0
 730:	000006bc 			; <UNDEFINED> instruction: 0x000006bc
 734:	00009924 	andeq	r9, r0, r4, lsr #18
 738:	00000044 	andeq	r0, r0, r4, asr #32
 73c:	8e040e42 	cdphi	14, 0, cr0, cr4, cr2, {2}
 740:	100e4201 	andne	r4, lr, r1, lsl #4
 744:	00000014 	andeq	r0, r0, r4, lsl r0
 748:	000006bc 			; <UNDEFINED> instruction: 0x000006bc
 74c:	00009968 	andeq	r9, r0, r8, ror #18
 750:	00000044 	andeq	r0, r0, r4, asr #32
 754:	8e040e42 	cdphi	14, 0, cr0, cr4, cr2, {2}
 758:	100e4201 	andne	r4, lr, r1, lsl #4
 75c:	00000014 	andeq	r0, r0, r4, lsl r0
 760:	000006bc 			; <UNDEFINED> instruction: 0x000006bc
 764:	000099ac 	andeq	r9, r0, ip, lsr #19
 768:	00000044 	andeq	r0, r0, r4, asr #32
 76c:	8e040e42 	cdphi	14, 0, cr0, cr4, cr2, {2}
 770:	100e4201 	andne	r4, lr, r1, lsl #4
 774:	0000000c 	andeq	r0, r0, ip
 778:	ffffffff 			; <UNDEFINED> instruction: 0xffffffff
 77c:	7c020001 	stcvc	0, cr0, [r2], {1}
 780:	000d0c0e 	andeq	r0, sp, lr, lsl #24
 784:	00000018 	andeq	r0, r0, r8, lsl r0
 788:	00000774 	andeq	r0, r0, r4, ror r7
 78c:	00009b30 	andeq	r9, r0, r0, lsr fp
 790:	0000002c 	andeq	r0, r0, ip, lsr #32
 794:	84100e42 	ldrhi	r0, [r0], #-3650	; 0xe42
 798:	86038504 	strhi	r8, [r3], -r4, lsl #10
 79c:	00018e02 	andeq	r8, r1, r2, lsl #28
 7a0:	00000014 	andeq	r0, r0, r4, lsl r0
 7a4:	00000774 	andeq	r0, r0, r4, ror r7
 7a8:	00009b5c 	andeq	r9, r0, ip, asr fp
 7ac:	0000000c 	andeq	r0, r0, ip
 7b0:	84080e42 	strhi	r0, [r8], #-3650	; 0xe42
 7b4:	00018e02 	andeq	r8, r1, r2, lsl #28
 7b8:	00000014 	andeq	r0, r0, r4, lsl r0
 7bc:	00000774 	andeq	r0, r0, r4, ror r7
 7c0:	00009b68 	andeq	r9, r0, r8, ror #22
 7c4:	00000018 	andeq	r0, r0, r8, lsl r0
 7c8:	84080e42 	strhi	r0, [r8], #-3650	; 0xe42
 7cc:	00018e02 	andeq	r8, r1, r2, lsl #28
 7d0:	0000000c 	andeq	r0, r0, ip
 7d4:	00000774 	andeq	r0, r0, r4, ror r7
 7d8:	00009b80 	andeq	r9, r0, r0, lsl #23
 7dc:	0000000c 	andeq	r0, r0, ip
 7e0:	00000014 	andeq	r0, r0, r4, lsl r0
 7e4:	00000774 	andeq	r0, r0, r4, ror r7
 7e8:	00009b8c 	andeq	r9, r0, ip, lsl #23
 7ec:	00000020 	andeq	r0, r0, r0, lsr #32
 7f0:	84080e42 	strhi	r0, [r8], #-3650	; 0xe42
 7f4:	00018e02 	andeq	r8, r1, r2, lsl #28
 7f8:	00000014 	andeq	r0, r0, r4, lsl r0
 7fc:	00000774 	andeq	r0, r0, r4, ror r7
 800:	00009bac 	andeq	r9, r0, ip, lsr #23
 804:	00000014 	andeq	r0, r0, r4, lsl r0
 808:	84080e42 	strhi	r0, [r8], #-3650	; 0xe42
 80c:	00018e02 	andeq	r8, r1, r2, lsl #28
 810:	00000014 	andeq	r0, r0, r4, lsl r0
 814:	00000774 	andeq	r0, r0, r4, ror r7
 818:	00009bc0 	andeq	r9, r0, r0, asr #23
 81c:	00000020 	andeq	r0, r0, r0, lsr #32
 820:	84080e42 	strhi	r0, [r8], #-3650	; 0xe42
 824:	00018e02 	andeq	r8, r1, r2, lsl #28
 828:	00000014 	andeq	r0, r0, r4, lsl r0
 82c:	00000774 	andeq	r0, r0, r4, ror r7
 830:	00009be0 	andeq	r9, r0, r0, ror #23
 834:	00000014 	andeq	r0, r0, r4, lsl r0
 838:	84080e42 	strhi	r0, [r8], #-3650	; 0xe42
 83c:	00018e02 	andeq	r8, r1, r2, lsl #28
 840:	00000014 	andeq	r0, r0, r4, lsl r0
 844:	00000774 	andeq	r0, r0, r4, ror r7
 848:	00009bf4 	strdeq	r9, [r0], -r4
 84c:	00000018 	andeq	r0, r0, r8, lsl r0
 850:	84080e42 	strhi	r0, [r8], #-3650	; 0xe42
 854:	00018e02 	andeq	r8, r1, r2, lsl #28
 858:	00000014 	andeq	r0, r0, r4, lsl r0
 85c:	00000774 	andeq	r0, r0, r4, ror r7
 860:	00009c0c 	andeq	r9, r0, ip, lsl #24
 864:	0000001c 	andeq	r0, r0, ip, lsl r0
 868:	84080e42 	strhi	r0, [r8], #-3650	; 0xe42
 86c:	00018e02 	andeq	r8, r1, r2, lsl #28
 870:	00000020 	andeq	r0, r0, r0, lsr #32
 874:	00000774 	andeq	r0, r0, r4, ror r7
 878:	00009c28 	andeq	r9, r0, r8, lsr #24
 87c:	000000dc 	ldrdeq	r0, [r0], -ip
 880:	84080e42 	strhi	r0, [r8], #-3650	; 0xe42
 884:	42018e02 	andmi	r8, r1, #2, 28
 888:	5602100e 	strpl	r1, [r2], -lr
 88c:	42080e0a 	andmi	r0, r8, #10, 28	; 0xa0
 890:	0000000b 	andeq	r0, r0, fp
 894:	00000014 	andeq	r0, r0, r4, lsl r0
 898:	00000774 	andeq	r0, r0, r4, ror r7
 89c:	00009d04 	andeq	r9, r0, r4, lsl #26
 8a0:	00000040 	andeq	r0, r0, r0, asr #32
 8a4:	84080e42 	strhi	r0, [r8], #-3650	; 0xe42
 8a8:	00018e02 	andeq	r8, r1, r2, lsl #28
 8ac:	00000014 	andeq	r0, r0, r4, lsl r0
 8b0:	00000774 	andeq	r0, r0, r4, ror r7
 8b4:	00009d44 	andeq	r9, r0, r4, asr #26
 8b8:	000002b8 			; <UNDEFINED> instruction: 0x000002b8
 8bc:	84080e42 	strhi	r0, [r8], #-3650	; 0xe42
 8c0:	00018e02 	andeq	r8, r1, r2, lsl #28
 8c4:	00000014 	andeq	r0, r0, r4, lsl r0
 8c8:	00000774 	andeq	r0, r0, r4, ror r7
 8cc:	00009ffc 	strdeq	r9, [r0], -ip
 8d0:	000000d4 	ldrdeq	r0, [r0], -r4
 8d4:	84080e42 	strhi	r0, [r8], #-3650	; 0xe42
 8d8:	00018e02 	andeq	r8, r1, r2, lsl #28
 8dc:	00000014 	andeq	r0, r0, r4, lsl r0
 8e0:	00000774 	andeq	r0, r0, r4, ror r7
 8e4:	0000a0d0 	ldrdeq	sl, [r0], -r0
 8e8:	00000070 	andeq	r0, r0, r0, ror r0
 8ec:	84080e42 	strhi	r0, [r8], #-3650	; 0xe42
 8f0:	00018e02 	andeq	r8, r1, r2, lsl #28
 8f4:	00000014 	andeq	r0, r0, r4, lsl r0
 8f8:	00000774 	andeq	r0, r0, r4, ror r7
 8fc:	0000a140 	andeq	sl, r0, r0, asr #2
 900:	000000c8 	andeq	r0, r0, r8, asr #1
 904:	84080e42 	strhi	r0, [r8], #-3650	; 0xe42
 908:	00018e02 	andeq	r8, r1, r2, lsl #28
 90c:	0000000c 	andeq	r0, r0, ip
 910:	00000774 	andeq	r0, r0, r4, ror r7
 914:	0000a208 	andeq	sl, r0, r8, lsl #4
 918:	00000020 	andeq	r0, r0, r0, lsr #32
 91c:	00000014 	andeq	r0, r0, r4, lsl r0
 920:	00000774 	andeq	r0, r0, r4, ror r7
 924:	0000a228 	andeq	sl, r0, r8, lsr #4
 928:	00000074 	andeq	r0, r0, r4, ror r0
 92c:	84080e42 	strhi	r0, [r8], #-3650	; 0xe42
 930:	00018e02 	andeq	r8, r1, r2, lsl #28
 934:	00000014 	andeq	r0, r0, r4, lsl r0
 938:	00000774 	andeq	r0, r0, r4, ror r7
 93c:	0000a29c 	muleq	r0, ip, r2
 940:	000000c0 	andeq	r0, r0, r0, asr #1
 944:	84080e42 	strhi	r0, [r8], #-3650	; 0xe42
 948:	00018e02 	andeq	r8, r1, r2, lsl #28
 94c:	0000000c 	andeq	r0, r0, ip
 950:	ffffffff 			; <UNDEFINED> instruction: 0xffffffff
 954:	7c020001 	stcvc	0, cr0, [r2], {1}
 958:	000d0c0e 	andeq	r0, sp, lr, lsl #24
 95c:	0000000c 	andeq	r0, r0, ip
 960:	0000094c 	andeq	r0, r0, ip, asr #18
 964:	0000a35c 	andeq	sl, r0, ip, asr r3
 968:	00000020 	andeq	r0, r0, r0, lsr #32
 96c:	0000000c 	andeq	r0, r0, ip
 970:	ffffffff 			; <UNDEFINED> instruction: 0xffffffff
 974:	7c020001 	stcvc	0, cr0, [r2], {1}
 978:	000d0c0e 	andeq	r0, sp, lr, lsl #24
 97c:	00000014 	andeq	r0, r0, r4, lsl r0
 980:	0000096c 	andeq	r0, r0, ip, ror #18
 984:	0000a37c 	andeq	sl, r0, ip, ror r3
 988:	00000028 	andeq	r0, r0, r8, lsr #32
 98c:	83080e42 	movwhi	r0, #36418	; 0x8e42
 990:	00018e02 	andeq	r8, r1, r2, lsl #28
 994:	0000000c 	andeq	r0, r0, ip
 998:	0000096c 	andeq	r0, r0, ip, ror #18
 99c:	0000a3a4 	andeq	sl, r0, r4, lsr #7
 9a0:	00000028 	andeq	r0, r0, r8, lsr #32
