
syscall.elf:     file format elf32-littlearm


Disassembly of section .text:

00008000 <_start>:
    8000:	e3a0d302 	mov	sp, #134217728	; 0x8000000
    8004:	e3a0b000 	mov	fp, #0
    8008:	eb000264 	bl	89a0 <_cstart>
    800c:	eb00027b 	bl	8a00 <rpi_reboot>

00008010 <interrupt_vector>:
    8010:	e92d4008 	push	{r3, lr}
    8014:	e59f0010 	ldr	r0, [pc, #16]	; 802c <interrupt_vector+0x1c>
    8018:	e59f1010 	ldr	r1, [pc, #16]	; 8030 <interrupt_vector+0x20>
    801c:	e59f2010 	ldr	r2, [pc, #16]	; 8034 <interrupt_vector+0x24>
    8020:	e3a0300c 	mov	r3, #12
    8024:	eb0000f4 	bl	83fc <printk>
    8028:	eb000252 	bl	8978 <clean_reboot>
    802c:	000090ec 	andeq	r9, r0, ip, ror #1
    8030:	00009114 	andeq	r9, r0, r4, lsl r1
    8034:	000090d0 	ldrdeq	r9, [r0], -r0

00008038 <syscall_vector>:
    8038:	e92d4008 	push	{r3, lr}
    803c:	e5903000 	ldr	r3, [r0]
    8040:	e3c334ff 	bic	r3, r3, #-16777216	; 0xff000000
    8044:	e3530001 	cmp	r3, #1
    8048:	1a000003 	bne	805c <syscall_vector+0x24>
    804c:	e59f001c 	ldr	r0, [pc, #28]	; 8070 <syscall_vector+0x38>
    8050:	eb0000e9 	bl	83fc <printk>
    8054:	e3a00000 	mov	r0, #0
    8058:	e8bd8008 	pop	{r3, pc}
    805c:	e59f0010 	ldr	r0, [pc, #16]	; 8074 <syscall_vector+0x3c>
    8060:	e1a01003 	mov	r1, r3
    8064:	eb0000e4 	bl	83fc <printk>
    8068:	e3e00000 	mvn	r0, #0
    806c:	e8bd8008 	pop	{r3, pc}
    8070:	00009120 	andeq	r9, r0, r0, lsr #2
    8074:	00009130 	andeq	r9, r0, r0, lsr r1

00008078 <notmain>:
    8078:	e92d4010 	push	{r4, lr}
    807c:	eb0002b7 	bl	8b60 <uart_init>
    8080:	e59f0084 	ldr	r0, [pc, #132]	; 810c <notmain+0x94>
    8084:	eb0000dc 	bl	83fc <printk>
    8088:	eb00005f 	bl	820c <int_init>
    808c:	e59f007c 	ldr	r0, [pc, #124]	; 8110 <notmain+0x98>
    8090:	eb0000d9 	bl	83fc <printk>
    8094:	e59f0078 	ldr	r0, [pc, #120]	; 8114 <notmain+0x9c>
    8098:	eb0000cf 	bl	83dc <syscall_hello>
    809c:	e1a04000 	mov	r4, r0
    80a0:	e59f0070 	ldr	r0, [pc, #112]	; 8118 <notmain+0xa0>
    80a4:	e1a01004 	mov	r1, r4
    80a8:	eb0000d3 	bl	83fc <printk>
    80ac:	e3540000 	cmp	r4, #0
    80b0:	0a000005 	beq	80cc <notmain+0x54>
    80b4:	e59f0060 	ldr	r0, [pc, #96]	; 811c <notmain+0xa4>
    80b8:	e59f1060 	ldr	r1, [pc, #96]	; 8120 <notmain+0xa8>
    80bc:	e59f2060 	ldr	r2, [pc, #96]	; 8124 <notmain+0xac>
    80c0:	e3a0302b 	mov	r3, #43	; 0x2b
    80c4:	eb0000cc 	bl	83fc <printk>
    80c8:	eb00022a 	bl	8978 <clean_reboot>
    80cc:	e59f0054 	ldr	r0, [pc, #84]	; 8128 <notmain+0xb0>
    80d0:	eb0000c9 	bl	83fc <printk>
    80d4:	eb0000c4 	bl	83ec <syscall_illegal>
    80d8:	e1a04000 	mov	r4, r0
    80dc:	e59f0048 	ldr	r0, [pc, #72]	; 812c <notmain+0xb4>
    80e0:	e1a01004 	mov	r1, r4
    80e4:	eb0000c4 	bl	83fc <printk>
    80e8:	e3740001 	cmn	r4, #1
    80ec:	0a000005 	beq	8108 <notmain+0x90>
    80f0:	e59f0038 	ldr	r0, [pc, #56]	; 8130 <notmain+0xb8>
    80f4:	e59f1024 	ldr	r1, [pc, #36]	; 8120 <notmain+0xa8>
    80f8:	e59f2024 	ldr	r2, [pc, #36]	; 8124 <notmain+0xac>
    80fc:	e3a03030 	mov	r3, #48	; 0x30
    8100:	eb0000bd 	bl	83fc <printk>
    8104:	eb00021b 	bl	8978 <clean_reboot>
    8108:	eb00021a 	bl	8978 <clean_reboot>
    810c:	0000914c 	andeq	r9, r0, ip, asr #2
    8110:	00009168 	andeq	r9, r0, r8, ror #2
    8114:	00009184 	andeq	r9, r0, r4, lsl #3
    8118:	00009190 	muleq	r0, r0, r1
    811c:	000091b4 			; <UNDEFINED> instruction: 0x000091b4
    8120:	00009114 	andeq	r9, r0, r4, lsl r1
    8124:	000090e4 	andeq	r9, r0, r4, ror #1
    8128:	000091d0 	ldrdeq	r9, [r0], -r0
    812c:	00009200 	andeq	r9, r0, r0, lsl #4
    8130:	00009224 	andeq	r9, r0, r4, lsr #4

00008134 <system_enable_interrupts>:
    8134:	e10f0000 	mrs	r0, CPSR
    8138:	e3c00080 	bic	r0, r0, #128	; 0x80
    813c:	e121f000 	msr	CPSR_c, r0
    8140:	e12fff1e 	bx	lr

00008144 <system_disable_interrupts>:
    8144:	e10f0000 	mrs	r0, CPSR
    8148:	e3800080 	orr	r0, r0, #128	; 0x80
    814c:	e121f000 	msr	CPSR_c, r0
    8150:	e12fff1e 	bx	lr

00008154 <_interrupt_table>:
    8154:	e59ff030 	ldr	pc, [pc, #48]	; 818c <_reset_asm>
    8158:	e59ff030 	ldr	pc, [pc, #48]	; 8190 <_undefined_instruction_asm>
    815c:	e59ff030 	ldr	pc, [pc, #48]	; 8194 <_software_interrupt_asm>
    8160:	e59ff030 	ldr	pc, [pc, #48]	; 8198 <_prefetch_abort_asm>
    8164:	e59ff030 	ldr	pc, [pc, #48]	; 819c <_data_abort_asm>
    8168:	e59ff01c 	ldr	pc, [pc, #28]	; 818c <_reset_asm>
    816c:	e59ff02c 	ldr	pc, [pc, #44]	; 81a0 <_interrupt_asm>

00008170 <fast_interrupt_asm>:
    8170:	e24ee004 	sub	lr, lr, #4
    8174:	e52de004 	push	{lr}		; (str lr, [sp, #-4]!)
    8178:	e92d1fff 	push	{r0, r1, r2, r3, r4, r5, r6, r7, r8, r9, sl, fp, ip}
    817c:	e1a0000e 	mov	r0, lr
    8180:	eb00003b 	bl	8274 <fast_interrupt_vector>
    8184:	e8bd1fff 	pop	{r0, r1, r2, r3, r4, r5, r6, r7, r8, r9, sl, fp, ip}
    8188:	e8fd8000 	ldm	sp!, {pc}^

0000818c <_reset_asm>:
    818c:	000081ec 	andeq	r8, r0, ip, ror #3

00008190 <_undefined_instruction_asm>:
    8190:	000081f4 	strdeq	r8, [r0], -r4

00008194 <_software_interrupt_asm>:
    8194:	000081c0 	andeq	r8, r0, r0, asr #3

00008198 <_prefetch_abort_asm>:
    8198:	000081fc 	strdeq	r8, [r0], -ip

0000819c <_data_abort_asm>:
    819c:	00008204 	andeq	r8, r0, r4, lsl #4

000081a0 <_interrupt_asm>:
    81a0:	000081a4 	andeq	r8, r0, r4, lsr #3

000081a4 <_interrupt_table_end>:
    81a4:	e3a0d409 	mov	sp, #150994944	; 0x9000000
    81a8:	e24ee004 	sub	lr, lr, #4
    81ac:	e92d5fff 	push	{r0, r1, r2, r3, r4, r5, r6, r7, r8, r9, sl, fp, ip, lr}
    81b0:	e1a0000e 	mov	r0, lr
    81b4:	ebffff95 	bl	8010 <interrupt_vector>
    81b8:	e8bd5fff 	pop	{r0, r1, r2, r3, r4, r5, r6, r7, r8, r9, sl, fp, ip, lr}
    81bc:	e1b0f00e 	movs	pc, lr

000081c0 <software_interrupt_asm>:
    81c0:	e52de004 	push	{lr}		; (str lr, [sp, #-4]!)
    81c4:	e92d1ffe 	push	{r1, r2, r3, r4, r5, r6, r7, r8, r9, sl, fp, ip}
    81c8:	e24ee004 	sub	lr, lr, #4
    81cc:	e1a0200e 	mov	r2, lr
    81d0:	e1a01000 	mov	r1, r0
    81d4:	e1a0000e 	mov	r0, lr
    81d8:	ebffff96 	bl	8038 <syscall_vector>
    81dc:	e8bd1ffe 	pop	{r1, r2, r3, r4, r5, r6, r7, r8, r9, sl, fp, ip}
    81e0:	e49de004 	pop	{lr}		; (ldr lr, [sp], #4)
    81e4:	e8fd8000 	ldm	sp!, {pc}^
    81e8:	e1b0f00e 	movs	pc, lr

000081ec <reset_asm>:
    81ec:	e24ee004 	sub	lr, lr, #4
    81f0:	eb00003d 	bl	82ec <reset_vector>

000081f4 <undefined_instruction_asm>:
    81f4:	e24ee004 	sub	lr, lr, #4
    81f8:	eb00004a 	bl	8328 <undefined_instruction_vector>

000081fc <prefetch_abort_asm>:
    81fc:	e24ee004 	sub	lr, lr, #4
    8200:	eb000057 	bl	8364 <prefetch_abort_vector>

00008204 <data_abort_asm>:
    8204:	e24ee004 	sub	lr, lr, #4
    8208:	eb000064 	bl	83a0 <data_abort_vector>

0000820c <int_init>:
    820c:	e92d4008 	push	{r3, lr}
    8210:	e59f004c 	ldr	r0, [pc, #76]	; 8264 <int_init+0x58>
    8214:	e3e01000 	mvn	r1, #0
    8218:	eb000238 	bl	8b00 <PUT32>
    821c:	e59f0044 	ldr	r0, [pc, #68]	; 8268 <int_init+0x5c>
    8220:	e3e01000 	mvn	r1, #0
    8224:	eb000235 	bl	8b00 <PUT32>
    8228:	eb00022c 	bl	8ae0 <dev_barrier>
    822c:	e59f3038 	ldr	r3, [pc, #56]	; 826c <int_init+0x60>
    8230:	e59f0038 	ldr	r0, [pc, #56]	; 8270 <int_init+0x64>
    8234:	e0630000 	rsb	r0, r3, r0
    8238:	e1a00140 	asr	r0, r0, #2
    823c:	e3a03000 	mov	r3, #0
    8240:	e59fc024 	ldr	ip, [pc, #36]	; 826c <int_init+0x60>
    8244:	ea000003 	b	8258 <int_init+0x4c>
    8248:	e1a02103 	lsl	r2, r3, #2
    824c:	e79c1103 	ldr	r1, [ip, r3, lsl #2]
    8250:	e5821000 	str	r1, [r2]
    8254:	e2833001 	add	r3, r3, #1
    8258:	e1530000 	cmp	r3, r0
    825c:	3afffff9 	bcc	8248 <int_init+0x3c>
    8260:	e8bd8008 	pop	{r3, pc}
    8264:	2000b21c 	andcs	fp, r0, ip, lsl r2
    8268:	2000b220 	andcs	fp, r0, r0, lsr #4
    826c:	00008154 	andeq	r8, r0, r4, asr r1
    8270:	000081a4 	andeq	r8, r0, r4, lsr #3

00008274 <fast_interrupt_vector>:
    8274:	e52de004 	push	{lr}		; (str lr, [sp, #-4]!)
    8278:	e24dd00c 	sub	sp, sp, #12
    827c:	e59f301c 	ldr	r3, [pc, #28]	; 82a0 <fast_interrupt_vector+0x2c>
    8280:	e58d3000 	str	r3, [sp]
    8284:	e58d0004 	str	r0, [sp, #4]
    8288:	e59f0014 	ldr	r0, [pc, #20]	; 82a4 <fast_interrupt_vector+0x30>
    828c:	e59f1014 	ldr	r1, [pc, #20]	; 82a8 <fast_interrupt_vector+0x34>
    8290:	e59f2014 	ldr	r2, [pc, #20]	; 82ac <fast_interrupt_vector+0x38>
    8294:	e3a03020 	mov	r3, #32
    8298:	eb000057 	bl	83fc <printk>
    829c:	eb0001b5 	bl	8978 <clean_reboot>
    82a0:	0000931c 	andeq	r9, r0, ip, lsl r3
    82a4:	000092d0 	ldrdeq	r9, [r0], -r0
    82a8:	0000930c 	andeq	r9, r0, ip, lsl #6
    82ac:	00009240 	andeq	r9, r0, r0, asr #4

000082b0 <software_interrupt_vector>:
    82b0:	e52de004 	push	{lr}		; (str lr, [sp, #-4]!)
    82b4:	e24dd00c 	sub	sp, sp, #12
    82b8:	e59f301c 	ldr	r3, [pc, #28]	; 82dc <software_interrupt_vector+0x2c>
    82bc:	e58d3000 	str	r3, [sp]
    82c0:	e58d0004 	str	r0, [sp, #4]
    82c4:	e59f0014 	ldr	r0, [pc, #20]	; 82e0 <software_interrupt_vector+0x30>
    82c8:	e59f1014 	ldr	r1, [pc, #20]	; 82e4 <software_interrupt_vector+0x34>
    82cc:	e59f2014 	ldr	r2, [pc, #20]	; 82e8 <software_interrupt_vector+0x38>
    82d0:	e3a03025 	mov	r3, #37	; 0x25
    82d4:	eb000048 	bl	83fc <printk>
    82d8:	eb0001a6 	bl	8978 <clean_reboot>
    82dc:	00009324 	andeq	r9, r0, r4, lsr #6
    82e0:	000092d0 	ldrdeq	r9, [r0], -r0
    82e4:	0000930c 	andeq	r9, r0, ip, lsl #6
    82e8:	00009258 	andeq	r9, r0, r8, asr r2

000082ec <reset_vector>:
    82ec:	e52de004 	push	{lr}		; (str lr, [sp, #-4]!)
    82f0:	e24dd00c 	sub	sp, sp, #12
    82f4:	e59f301c 	ldr	r3, [pc, #28]	; 8318 <reset_vector+0x2c>
    82f8:	e58d3000 	str	r3, [sp]
    82fc:	e58d0004 	str	r0, [sp, #4]
    8300:	e59f0014 	ldr	r0, [pc, #20]	; 831c <reset_vector+0x30>
    8304:	e59f1014 	ldr	r1, [pc, #20]	; 8320 <reset_vector+0x34>
    8308:	e59f2014 	ldr	r2, [pc, #20]	; 8324 <reset_vector+0x38>
    830c:	e3a03028 	mov	r3, #40	; 0x28
    8310:	eb000039 	bl	83fc <printk>
    8314:	eb000197 	bl	8978 <clean_reboot>
    8318:	00009334 	andeq	r9, r0, r4, lsr r3
    831c:	000092d0 	ldrdeq	r9, [r0], -r0
    8320:	0000930c 	andeq	r9, r0, ip, lsl #6
    8324:	00009274 	andeq	r9, r0, r4, ror r2

00008328 <undefined_instruction_vector>:
    8328:	e52de004 	push	{lr}		; (str lr, [sp, #-4]!)
    832c:	e24dd00c 	sub	sp, sp, #12
    8330:	e59f301c 	ldr	r3, [pc, #28]	; 8354 <undefined_instruction_vector+0x2c>
    8334:	e58d3000 	str	r3, [sp]
    8338:	e58d0004 	str	r0, [sp, #4]
    833c:	e59f0014 	ldr	r0, [pc, #20]	; 8358 <undefined_instruction_vector+0x30>
    8340:	e59f1014 	ldr	r1, [pc, #20]	; 835c <undefined_instruction_vector+0x34>
    8344:	e59f2014 	ldr	r2, [pc, #20]	; 8360 <undefined_instruction_vector+0x38>
    8348:	e3a0302b 	mov	r3, #43	; 0x2b
    834c:	eb00002a 	bl	83fc <printk>
    8350:	eb000188 	bl	8978 <clean_reboot>
    8354:	00009344 	andeq	r9, r0, r4, asr #6
    8358:	000092d0 	ldrdeq	r9, [r0], -r0
    835c:	0000930c 	andeq	r9, r0, ip, lsl #6
    8360:	00009284 	andeq	r9, r0, r4, lsl #5

00008364 <prefetch_abort_vector>:
    8364:	e52de004 	push	{lr}		; (str lr, [sp, #-4]!)
    8368:	e24dd00c 	sub	sp, sp, #12
    836c:	e59f301c 	ldr	r3, [pc, #28]	; 8390 <prefetch_abort_vector+0x2c>
    8370:	e58d3000 	str	r3, [sp]
    8374:	e58d0004 	str	r0, [sp, #4]
    8378:	e59f0014 	ldr	r0, [pc, #20]	; 8394 <prefetch_abort_vector+0x30>
    837c:	e59f1014 	ldr	r1, [pc, #20]	; 8398 <prefetch_abort_vector+0x34>
    8380:	e59f2014 	ldr	r2, [pc, #20]	; 839c <prefetch_abort_vector+0x38>
    8384:	e3a0302e 	mov	r3, #46	; 0x2e
    8388:	eb00001b 	bl	83fc <printk>
    838c:	eb000179 	bl	8978 <clean_reboot>
    8390:	0000935c 	andeq	r9, r0, ip, asr r3
    8394:	000092d0 	ldrdeq	r9, [r0], -r0
    8398:	0000930c 	andeq	r9, r0, ip, lsl #6
    839c:	000092a4 	andeq	r9, r0, r4, lsr #5

000083a0 <data_abort_vector>:
    83a0:	e52de004 	push	{lr}		; (str lr, [sp, #-4]!)
    83a4:	e24dd00c 	sub	sp, sp, #12
    83a8:	e59f301c 	ldr	r3, [pc, #28]	; 83cc <data_abort_vector+0x2c>
    83ac:	e58d3000 	str	r3, [sp]
    83b0:	e58d0004 	str	r0, [sp, #4]
    83b4:	e59f0014 	ldr	r0, [pc, #20]	; 83d0 <data_abort_vector+0x30>
    83b8:	e59f1014 	ldr	r1, [pc, #20]	; 83d4 <data_abort_vector+0x34>
    83bc:	e59f2014 	ldr	r2, [pc, #20]	; 83d8 <data_abort_vector+0x38>
    83c0:	e3a03031 	mov	r3, #49	; 0x31
    83c4:	eb00000c 	bl	83fc <printk>
    83c8:	eb00016a 	bl	8978 <clean_reboot>
    83cc:	0000936c 	andeq	r9, r0, ip, ror #6
    83d0:	000092d0 	ldrdeq	r9, [r0], -r0
    83d4:	0000930c 	andeq	r9, r0, ip, lsl #6
    83d8:	000092bc 			; <UNDEFINED> instruction: 0x000092bc

000083dc <syscall_hello>:
    83dc:	e52de004 	push	{lr}		; (str lr, [sp, #-4]!)
    83e0:	ef000001 	svc	0x00000001
    83e4:	e49de004 	pop	{lr}		; (ldr lr, [sp], #4)
    83e8:	e12fff1e 	bx	lr

000083ec <syscall_illegal>:
    83ec:	e52de004 	push	{lr}		; (str lr, [sp, #-4]!)
    83f0:	ef000002 	svc	0x00000002
    83f4:	e49de004 	pop	{lr}		; (ldr lr, [sp], #4)
    83f8:	e12fff1e 	bx	lr

000083fc <printk>:
    83fc:	e92d000f 	push	{r0, r1, r2, r3}
    8400:	e92d4030 	push	{r4, r5, lr}
    8404:	e24dd00c 	sub	sp, sp, #12
    8408:	e28d301c 	add	r3, sp, #28
    840c:	e58d3004 	str	r3, [sp, #4]
    8410:	e59f4034 	ldr	r4, [pc, #52]	; 844c <printk+0x50>
    8414:	e1a00004 	mov	r0, r4
    8418:	e3a01b01 	mov	r1, #1024	; 0x400
    841c:	e59d2018 	ldr	r2, [sp, #24]
    8420:	eb0000b2 	bl	86f0 <va_printk>
    8424:	e1a05000 	mov	r5, r0
    8428:	e59f3020 	ldr	r3, [pc, #32]	; 8450 <printk+0x54>
    842c:	e5933000 	ldr	r3, [r3]
    8430:	e1a00004 	mov	r0, r4
    8434:	e12fff33 	blx	r3
    8438:	e1a00005 	mov	r0, r5
    843c:	e28dd00c 	add	sp, sp, #12
    8440:	e8bd4030 	pop	{r4, r5, lr}
    8444:	e28dd010 	add	sp, sp, #16
    8448:	e12fff1e 	bx	lr
    844c:	00009488 	andeq	r9, r0, r8, lsl #9
    8450:	00009058 	andeq	r9, r0, r8, asr r0

00008454 <internal_putk>:
    8454:	e92d4038 	push	{r3, r4, r5, lr}
    8458:	e1a04000 	mov	r4, r0
    845c:	e59f5020 	ldr	r5, [pc, #32]	; 8484 <internal_putk+0x30>
    8460:	ea000002 	b	8470 <internal_putk+0x1c>
    8464:	e5953000 	ldr	r3, [r5]
    8468:	e12fff33 	blx	r3
    846c:	e2844001 	add	r4, r4, #1
    8470:	e5d40000 	ldrb	r0, [r4]
    8474:	e3500000 	cmp	r0, #0
    8478:	1afffff9 	bne	8464 <internal_putk+0x10>
    847c:	e3a00001 	mov	r0, #1
    8480:	e8bd8038 	pop	{r3, r4, r5, pc}
    8484:	000090cc 	andeq	r9, r0, ip, asr #1

00008488 <isdigit>:
    8488:	e2400030 	sub	r0, r0, #48	; 0x30
    848c:	e3500009 	cmp	r0, #9
    8490:	83a00000 	movhi	r0, #0
    8494:	93a00001 	movls	r0, #1
    8498:	e12fff1e 	bx	lr

0000849c <pad>:
    849c:	e0611000 	rsb	r1, r1, r0
    84a0:	e3a03020 	mov	r3, #32
    84a4:	ea000002 	b	84b4 <pad+0x18>
    84a8:	e5c03000 	strb	r3, [r0]
    84ac:	e2811001 	add	r1, r1, #1
    84b0:	e2800001 	add	r0, r0, #1
    84b4:	e1510002 	cmp	r1, r2
    84b8:	bafffffa 	blt	84a8 <pad+0xc>
    84bc:	e3a03000 	mov	r3, #0
    84c0:	e5c03000 	strb	r3, [r0]
    84c4:	e12fff1e 	bx	lr

000084c8 <reverse>:
    84c8:	e063c002 	rsb	ip, r3, r2
    84cc:	e28cc001 	add	ip, ip, #1
    84d0:	e15c0001 	cmp	ip, r1
    84d4:	c061100c 	rsbgt	r1, r1, ip
    84d8:	c0833001 	addgt	r3, r3, r1
    84dc:	e2422001 	sub	r2, r2, #1
    84e0:	e1a01000 	mov	r1, r0
    84e4:	ea000002 	b	84f4 <reverse+0x2c>
    84e8:	e452c001 	ldrb	ip, [r2], #-1
    84ec:	e5c1c000 	strb	ip, [r1]
    84f0:	e2811001 	add	r1, r1, #1
    84f4:	e1520003 	cmp	r2, r3
    84f8:	2afffffa 	bcs	84e8 <reverse+0x20>
    84fc:	e3a03000 	mov	r3, #0
    8500:	e5c13000 	strb	r3, [r1]
    8504:	e12fff1e 	bx	lr

00008508 <emit>:
    8508:	e92d41f0 	push	{r4, r5, r6, r7, r8, lr}
    850c:	e24dd040 	sub	sp, sp, #64	; 0x40
    8510:	e1a05001 	mov	r5, r1
    8514:	e1a04002 	mov	r4, r2
    8518:	e59d2058 	ldr	r2, [sp, #88]	; 0x58
    851c:	e1520004 	cmp	r2, r4
    8520:	c2442001 	subgt	r2, r4, #1
    8524:	e1a0c003 	mov	ip, r3
    8528:	e2400002 	sub	r0, r0, #2
    852c:	e350000e 	cmp	r0, #14
    8530:	979ff100 	ldrls	pc, [pc, r0, lsl #2]
    8534:	ea000042 	b	8644 <emit+0x13c>
    8538:	0000861c 	andeq	r8, r0, ip, lsl r6
    853c:	00008644 	andeq	r8, r0, r4, asr #12
    8540:	00008644 	andeq	r8, r0, r4, asr #12
    8544:	00008644 	andeq	r8, r0, r4, asr #12
    8548:	00008644 	andeq	r8, r0, r4, asr #12
    854c:	00008644 	andeq	r8, r0, r4, asr #12
    8550:	00008610 	andeq	r8, r0, r0, lsl r6
    8554:	00008644 	andeq	r8, r0, r4, asr #12
    8558:	00008574 	andeq	r8, r0, r4, ror r5
    855c:	00008644 	andeq	r8, r0, r4, asr #12
    8560:	00008644 	andeq	r8, r0, r4, asr #12
    8564:	00008644 	andeq	r8, r0, r4, asr #12
    8568:	00008644 	andeq	r8, r0, r4, asr #12
    856c:	00008644 	andeq	r8, r0, r4, asr #12
    8570:	000085e8 	andeq	r8, r0, r8, ror #11
    8574:	e59d105c 	ldr	r1, [sp, #92]	; 0x5c
    8578:	e2911000 	adds	r1, r1, #0
    857c:	13a01001 	movne	r1, #1
    8580:	e0111fa3 	ands	r1, r1, r3, lsr #31
    8584:	1263c000 	rsbne	ip, r3, #0
    8588:	13a08001 	movne	r8, #1
    858c:	03a08000 	moveq	r8, #0
    8590:	e1a0100d 	mov	r1, sp
    8594:	e59f70e8 	ldr	r7, [pc, #232]	; 8684 <emit+0x17c>
    8598:	e59f60e8 	ldr	r6, [pc, #232]	; 8688 <emit+0x180>
    859c:	ea000000 	b	85a4 <emit+0x9c>
    85a0:	e1a01003 	mov	r1, r3
    85a4:	e2813001 	add	r3, r1, #1
    85a8:	e08e0c97 	umull	r0, lr, r7, ip
    85ac:	e1a0e1ae 	lsr	lr, lr, #3
    85b0:	e1a0000e 	mov	r0, lr
    85b4:	e08ee10e 	add	lr, lr, lr, lsl #2
    85b8:	e1a0e08e 	lsl	lr, lr, #1
    85bc:	e06ee00c 	rsb	lr, lr, ip
    85c0:	e7d6c00e 	ldrb	ip, [r6, lr]
    85c4:	e5c1c000 	strb	ip, [r1]
    85c8:	e1a0c000 	mov	ip, r0
    85cc:	e3500000 	cmp	r0, #0
    85d0:	1afffff2 	bne	85a0 <emit+0x98>
    85d4:	e3580000 	cmp	r8, #0
    85d8:	12813002 	addne	r3, r1, #2
    85dc:	13a0002d 	movne	r0, #45	; 0x2d
    85e0:	15c10001 	strbne	r0, [r1, #1]
    85e4:	ea00001c 	b	865c <emit+0x154>
    85e8:	e1a0e00d 	mov	lr, sp
    85ec:	e59f0098 	ldr	r0, [pc, #152]	; 868c <emit+0x184>
    85f0:	e28e3001 	add	r3, lr, #1
    85f4:	e20c100f 	and	r1, ip, #15
    85f8:	e7d01001 	ldrb	r1, [r0, r1]
    85fc:	e5ce1000 	strb	r1, [lr]
    8600:	e1a0e003 	mov	lr, r3
    8604:	e1b0c22c 	lsrs	ip, ip, #4
    8608:	1afffff8 	bne	85f0 <emit+0xe8>
    860c:	ea000012 	b	865c <emit+0x154>
    8610:	e5cd3000 	strb	r3, [sp]
    8614:	e28d3001 	add	r3, sp, #1
    8618:	ea00000f 	b	865c <emit+0x154>
    861c:	e1a0e00d 	mov	lr, sp
    8620:	e59f0068 	ldr	r0, [pc, #104]	; 8690 <emit+0x188>
    8624:	e28e3001 	add	r3, lr, #1
    8628:	e20c1001 	and	r1, ip, #1
    862c:	e7d01001 	ldrb	r1, [r0, r1]
    8630:	e5ce1000 	strb	r1, [lr]
    8634:	e1a0e003 	mov	lr, r3
    8638:	e1b0c0ac 	lsrs	ip, ip, #1
    863c:	1afffff8 	bne	8624 <emit+0x11c>
    8640:	ea000005 	b	865c <emit+0x154>
    8644:	e59f0048 	ldr	r0, [pc, #72]	; 8694 <emit+0x18c>
    8648:	e59f1048 	ldr	r1, [pc, #72]	; 8698 <emit+0x190>
    864c:	e59f2048 	ldr	r2, [pc, #72]	; 869c <emit+0x194>
    8650:	e3a03075 	mov	r3, #117	; 0x75
    8654:	ebffff68 	bl	83fc <printk>
    8658:	eb0000c6 	bl	8978 <clean_reboot>
    865c:	e1a00003 	mov	r0, r3
    8660:	e1a0100d 	mov	r1, sp
    8664:	ebffff8c 	bl	849c <pad>
    8668:	e1a02000 	mov	r2, r0
    866c:	e1a00005 	mov	r0, r5
    8670:	e1a01004 	mov	r1, r4
    8674:	e1a0300d 	mov	r3, sp
    8678:	ebffff92 	bl	84c8 <reverse>
    867c:	e28dd040 	add	sp, sp, #64	; 0x40
    8680:	e8bd81f0 	pop	{r4, r5, r6, r7, r8, pc}
    8684:	cccccccd 	stclgt	12, cr12, [ip], {205}	; 0xcd
    8688:	000093c4 	andeq	r9, r0, r4, asr #7
    868c:	000093d0 	ldrdeq	r9, [r0], -r0
    8690:	000093e4 	andeq	r9, r0, r4, ror #7
    8694:	0000939c 	muleq	r0, ip, r3
    8698:	000093b0 			; <UNDEFINED> instruction: 0x000093b0
    869c:	00009378 	andeq	r9, r0, r8, ror r3

000086a0 <rpi_set_output>:
    86a0:	e92d4008 	push	{r3, lr}
    86a4:	e3500000 	cmp	r0, #0
    86a8:	1a000005 	bne	86c4 <rpi_set_output+0x24>
    86ac:	e59f0028 	ldr	r0, [pc, #40]	; 86dc <rpi_set_output+0x3c>
    86b0:	e59f1028 	ldr	r1, [pc, #40]	; 86e0 <rpi_set_output+0x40>
    86b4:	e59f2028 	ldr	r2, [pc, #40]	; 86e4 <rpi_set_output+0x44>
    86b8:	e3a03020 	mov	r3, #32
    86bc:	ebffff4e 	bl	83fc <printk>
    86c0:	eb0000ac 	bl	8978 <clean_reboot>
    86c4:	e59f301c 	ldr	r3, [pc, #28]	; 86e8 <rpi_set_output+0x48>
    86c8:	e5830000 	str	r0, [r3]
    86cc:	e3510000 	cmp	r1, #0
    86d0:	159f3014 	ldrne	r3, [pc, #20]	; 86ec <rpi_set_output+0x4c>
    86d4:	15831000 	strne	r1, [r3]
    86d8:	e8bd8008 	pop	{r3, pc}
    86dc:	000093e8 	andeq	r9, r0, r8, ror #7
    86e0:	000093b0 			; <UNDEFINED> instruction: 0x000093b0
    86e4:	00009380 	andeq	r9, r0, r0, lsl #7
    86e8:	000090cc 	andeq	r9, r0, ip, asr #1
    86ec:	00009058 	andeq	r9, r0, r8, asr r0

000086f0 <va_printk>:
    86f0:	e92d4ff0 	push	{r4, r5, r6, r7, r8, r9, sl, fp, lr}
    86f4:	e24dd08c 	sub	sp, sp, #140	; 0x8c
    86f8:	e1a0b000 	mov	fp, r0
    86fc:	e1a0a003 	mov	sl, r3
    8700:	e2411001 	sub	r1, r1, #1
    8704:	e0808001 	add	r8, r0, r1
    8708:	e3a03000 	mov	r3, #0
    870c:	e5c03000 	strb	r3, [r0]
    8710:	e1a04000 	mov	r4, r0
    8714:	ea000087 	b	8938 <va_printk+0x248>
    8718:	e3530025 	cmp	r3, #37	; 0x25
    871c:	12822001 	addne	r2, r2, #1
    8720:	15c43000 	strbne	r3, [r4]
    8724:	12844001 	addne	r4, r4, #1
    8728:	1a000082 	bne	8938 <va_printk+0x248>
    872c:	e5d21001 	ldrb	r1, [r2, #1]
    8730:	e3510025 	cmp	r1, #37	; 0x25
    8734:	05c43000 	strbeq	r3, [r4]
    8738:	02822002 	addeq	r2, r2, #2
    873c:	02844001 	addeq	r4, r4, #1
    8740:	0a00007c 	beq	8938 <va_printk+0x248>
    8744:	e2826001 	add	r6, r2, #1
    8748:	e3a07000 	mov	r7, #0
    874c:	ea000004 	b	8764 <va_printk+0x74>
    8750:	e0877107 	add	r7, r7, r7, lsl #2
    8754:	e1a07087 	lsl	r7, r7, #1
    8758:	e0877005 	add	r7, r7, r5
    875c:	e2477030 	sub	r7, r7, #48	; 0x30
    8760:	e2866001 	add	r6, r6, #1
    8764:	e5d65000 	ldrb	r5, [r6]
    8768:	e1a09005 	mov	r9, r5
    876c:	e1a00005 	mov	r0, r5
    8770:	ebffff44 	bl	8488 <isdigit>
    8774:	e3500000 	cmp	r0, #0
    8778:	1afffff4 	bne	8750 <va_printk+0x60>
    877c:	e357001f 	cmp	r7, #31
    8780:	9a000005 	bls	879c <va_printk+0xac>
    8784:	e59f01d8 	ldr	r0, [pc, #472]	; 8964 <va_printk+0x274>
    8788:	e59f11d8 	ldr	r1, [pc, #472]	; 8968 <va_printk+0x278>
    878c:	e59f21d8 	ldr	r2, [pc, #472]	; 896c <va_printk+0x27c>
    8790:	e3a03092 	mov	r3, #146	; 0x92
    8794:	ebffff18 	bl	83fc <printk>
    8798:	eb000076 	bl	8978 <clean_reboot>
    879c:	e2455062 	sub	r5, r5, #98	; 0x62
    87a0:	e3550016 	cmp	r5, #22
    87a4:	979ff105 	ldrls	pc, [pc, r5, lsl #2]
    87a8:	ea000051 	b	88f4 <va_printk+0x204>
    87ac:	00008898 	muleq	r0, r8, r8
    87b0:	000088cc 	andeq	r8, r0, ip, asr #17
    87b4:	00008820 	andeq	r8, r0, r0, lsr #16
    87b8:	000088f4 	strdeq	r8, [r0], -r4
    87bc:	00008808 	andeq	r8, r0, r8, lsl #16
    87c0:	000088f4 	strdeq	r8, [r0], -r4
    87c4:	000088f4 	strdeq	r8, [r0], -r4
    87c8:	000088f4 	strdeq	r8, [r0], -r4
    87cc:	000088f4 	strdeq	r8, [r0], -r4
    87d0:	000088f4 	strdeq	r8, [r0], -r4
    87d4:	000088f4 	strdeq	r8, [r0], -r4
    87d8:	000088f4 	strdeq	r8, [r0], -r4
    87dc:	000088f4 	strdeq	r8, [r0], -r4
    87e0:	000088f4 	strdeq	r8, [r0], -r4
    87e4:	00008870 	andeq	r8, r0, r0, ror r8
    87e8:	000088f4 	strdeq	r8, [r0], -r4
    87ec:	000088f4 	strdeq	r8, [r0], -r4
    87f0:	000088c0 	andeq	r8, r0, r0, asr #17
    87f4:	000088f4 	strdeq	r8, [r0], -r4
    87f8:	00008848 	andeq	r8, r0, r8, asr #16
    87fc:	000088f4 	strdeq	r8, [r0], -r4
    8800:	000088f4 	strdeq	r8, [r0], -r4
    8804:	00008870 	andeq	r8, r0, r0, ror r8
    8808:	e59f0160 	ldr	r0, [pc, #352]	; 8970 <va_printk+0x280>
    880c:	e59f1154 	ldr	r1, [pc, #340]	; 8968 <va_printk+0x278>
    8810:	e59f2154 	ldr	r2, [pc, #340]	; 896c <va_printk+0x27c>
    8814:	e3a03098 	mov	r3, #152	; 0x98
    8818:	ebfffef7 	bl	83fc <printk>
    881c:	eb000055 	bl	8978 <clean_reboot>
    8820:	e59a3000 	ldr	r3, [sl]
    8824:	e28aa004 	add	sl, sl, #4
    8828:	e58d7000 	str	r7, [sp]
    882c:	e3a02001 	mov	r2, #1
    8830:	e58d2004 	str	r2, [sp, #4]
    8834:	e3a0000a 	mov	r0, #10
    8838:	e28d1008 	add	r1, sp, #8
    883c:	e3a02080 	mov	r2, #128	; 0x80
    8840:	ebffff30 	bl	8508 <emit>
    8844:	ea000031 	b	8910 <va_printk+0x220>
    8848:	e59a3000 	ldr	r3, [sl]
    884c:	e28aa004 	add	sl, sl, #4
    8850:	e58d7000 	str	r7, [sp]
    8854:	e3a02000 	mov	r2, #0
    8858:	e58d2004 	str	r2, [sp, #4]
    885c:	e3a0000a 	mov	r0, #10
    8860:	e28d1008 	add	r1, sp, #8
    8864:	e3a02080 	mov	r2, #128	; 0x80
    8868:	ebffff26 	bl	8508 <emit>
    886c:	ea000027 	b	8910 <va_printk+0x220>
    8870:	e59a3000 	ldr	r3, [sl]
    8874:	e28aa004 	add	sl, sl, #4
    8878:	e58d7000 	str	r7, [sp]
    887c:	e3a02000 	mov	r2, #0
    8880:	e58d2004 	str	r2, [sp, #4]
    8884:	e3a00010 	mov	r0, #16
    8888:	e28d1008 	add	r1, sp, #8
    888c:	e3a02080 	mov	r2, #128	; 0x80
    8890:	ebffff1c 	bl	8508 <emit>
    8894:	ea00001d 	b	8910 <va_printk+0x220>
    8898:	e59a3000 	ldr	r3, [sl]
    889c:	e28aa004 	add	sl, sl, #4
    88a0:	e58d7000 	str	r7, [sp]
    88a4:	e3a02000 	mov	r2, #0
    88a8:	e58d2004 	str	r2, [sp, #4]
    88ac:	e3a00002 	mov	r0, #2
    88b0:	e28d1008 	add	r1, sp, #8
    88b4:	e3a02080 	mov	r2, #128	; 0x80
    88b8:	ebffff12 	bl	8508 <emit>
    88bc:	ea000013 	b	8910 <va_printk+0x220>
    88c0:	e59a0000 	ldr	r0, [sl]
    88c4:	e28aa004 	add	sl, sl, #4
    88c8:	ea000010 	b	8910 <va_printk+0x220>
    88cc:	e59a3000 	ldr	r3, [sl]
    88d0:	e28aa004 	add	sl, sl, #4
    88d4:	e58d7000 	str	r7, [sp]
    88d8:	e3a02000 	mov	r2, #0
    88dc:	e58d2004 	str	r2, [sp, #4]
    88e0:	e3a00008 	mov	r0, #8
    88e4:	e08d1000 	add	r1, sp, r0
    88e8:	e3a02080 	mov	r2, #128	; 0x80
    88ec:	ebffff05 	bl	8508 <emit>
    88f0:	ea000006 	b	8910 <va_printk+0x220>
    88f4:	e58d9000 	str	r9, [sp]
    88f8:	e59f0074 	ldr	r0, [pc, #116]	; 8974 <va_printk+0x284>
    88fc:	e59f1064 	ldr	r1, [pc, #100]	; 8968 <va_printk+0x278>
    8900:	e59f2064 	ldr	r2, [pc, #100]	; 896c <va_printk+0x27c>
    8904:	e3a030b9 	mov	r3, #185	; 0xb9
    8908:	ebfffebb 	bl	83fc <printk>
    890c:	eb000019 	bl	8978 <clean_reboot>
    8910:	e2862001 	add	r2, r6, #1
    8914:	ea000002 	b	8924 <va_printk+0x234>
    8918:	e2800001 	add	r0, r0, #1
    891c:	e5c43000 	strb	r3, [r4]
    8920:	e2844001 	add	r4, r4, #1
    8924:	e1540008 	cmp	r4, r8
    8928:	2a000002 	bcs	8938 <va_printk+0x248>
    892c:	e5d03000 	ldrb	r3, [r0]
    8930:	e3530000 	cmp	r3, #0
    8934:	1afffff7 	bne	8918 <va_printk+0x228>
    8938:	e5d23000 	ldrb	r3, [r2]
    893c:	e3530000 	cmp	r3, #0
    8940:	0a000001 	beq	894c <va_printk+0x25c>
    8944:	e1540008 	cmp	r4, r8
    8948:	3affff72 	bcc	8718 <va_printk+0x28>
    894c:	e2840001 	add	r0, r4, #1
    8950:	e3a03000 	mov	r3, #0
    8954:	e5c43000 	strb	r3, [r4]
    8958:	e06b0000 	rsb	r0, fp, r0
    895c:	e28dd08c 	add	sp, sp, #140	; 0x8c
    8960:	e8bd8ff0 	pop	{r4, r5, r6, r7, r8, r9, sl, fp, pc}
    8964:	00009400 	andeq	r9, r0, r0, lsl #8
    8968:	000093b0 			; <UNDEFINED> instruction: 0x000093b0
    896c:	00009390 	muleq	r0, r0, r3
    8970:	0000941c 	andeq	r9, r0, ip, lsl r4
    8974:	00009444 	andeq	r9, r0, r4, asr #8

00008978 <clean_reboot>:
    8978:	e92d4008 	push	{r3, lr}
    897c:	e59f3014 	ldr	r3, [pc, #20]	; 8998 <clean_reboot+0x20>
    8980:	e5933000 	ldr	r3, [r3]
    8984:	e59f0010 	ldr	r0, [pc, #16]	; 899c <clean_reboot+0x24>
    8988:	e12fff33 	blx	r3
    898c:	e3a00064 	mov	r0, #100	; 0x64
    8990:	eb000048 	bl	8ab8 <delay_ms>
    8994:	eb000019 	bl	8a00 <rpi_reboot>
    8998:	00009058 	andeq	r9, r0, r8, asr r0
    899c:	0000947c 	andeq	r9, r0, ip, ror r4

000089a0 <_cstart>:
    89a0:	e92d4008 	push	{r3, lr}
    89a4:	e59f3020 	ldr	r3, [pc, #32]	; 89cc <_cstart+0x2c>
    89a8:	e59f2020 	ldr	r2, [pc, #32]	; 89d0 <_cstart+0x30>
    89ac:	e3a01000 	mov	r1, #0
    89b0:	ea000001 	b	89bc <_cstart+0x1c>
    89b4:	e5831000 	str	r1, [r3]
    89b8:	e2833004 	add	r3, r3, #4
    89bc:	e1530002 	cmp	r3, r2
    89c0:	3afffffb 	bcc	89b4 <_cstart+0x14>
    89c4:	ebfffdab 	bl	8078 <notmain>
    89c8:	eb00000c 	bl	8a00 <rpi_reboot>
    89cc:	00009488 	andeq	r9, r0, r8, lsl #9
    89d0:	00009888 	andeq	r9, r0, r8, lsl #17

000089d4 <at_user_level>:
    89d4:	e10f0000 	mrs	r0, CPSR
    89d8:	e200001f 	and	r0, r0, #31
    89dc:	e3500010 	cmp	r0, #16
    89e0:	13a00000 	movne	r0, #0
    89e4:	03a00001 	moveq	r0, #1
    89e8:	e12fff1e 	bx	lr

000089ec <set_user_level>:
    89ec:	e10f3000 	mrs	r3, CPSR
    89f0:	e3c3301f 	bic	r3, r3, #31
    89f4:	e3833010 	orr	r3, r3, #16
    89f8:	e129f003 	msr	CPSR_fc, r3
    89fc:	e12fff1e 	bx	lr

00008a00 <rpi_reboot>:
    8a00:	e92d4008 	push	{r3, lr}
    8a04:	ebfffff2 	bl	89d4 <at_user_level>
    8a08:	e3500000 	cmp	r0, #0
    8a0c:	0a000000 	beq	8a14 <rpi_reboot+0x14>
    8a10:	ebfffff5 	bl	89ec <set_user_level>
    8a14:	e3a0001e 	mov	r0, #30
    8a18:	eb000026 	bl	8ab8 <delay_ms>
    8a1c:	e59f0014 	ldr	r0, [pc, #20]	; 8a38 <rpi_reboot+0x38>
    8a20:	e59f1014 	ldr	r1, [pc, #20]	; 8a3c <rpi_reboot+0x3c>
    8a24:	eb000035 	bl	8b00 <PUT32>
    8a28:	e59f0010 	ldr	r0, [pc, #16]	; 8a40 <rpi_reboot+0x40>
    8a2c:	e59f1010 	ldr	r1, [pc, #16]	; 8a44 <rpi_reboot+0x44>
    8a30:	eb000032 	bl	8b00 <PUT32>
    8a34:	eafffffe 	b	8a34 <rpi_reboot+0x34>
    8a38:	20100024 	andscs	r0, r0, r4, lsr #32
    8a3c:	5a000001 	bpl	8a48 <delay_cycles>
    8a40:	2010001c 	andscs	r0, r0, ip, lsl r0
    8a44:	5a000020 	bpl	8acc <delay_sec>

00008a48 <delay_cycles>:
    8a48:	ea000001 	b	8a54 <delay_cycles+0xc>
    8a4c:	e2811000 	add	r1, r1, #0
    8a50:	e1a00003 	mov	r0, r3
    8a54:	e2403001 	sub	r3, r0, #1
    8a58:	e3500000 	cmp	r0, #0
    8a5c:	1afffffa 	bne	8a4c <delay_cycles+0x4>
    8a60:	e12fff1e 	bx	lr

00008a64 <timer_get_usec_raw>:
    8a64:	e92d4008 	push	{r3, lr}
    8a68:	e59f0004 	ldr	r0, [pc, #4]	; 8a74 <timer_get_usec_raw+0x10>
    8a6c:	eb00002f 	bl	8b30 <GET32>
    8a70:	e8bd8008 	pop	{r3, pc}
    8a74:	20003004 	andcs	r3, r0, r4

00008a78 <timer_get_usec>:
    8a78:	e92d4010 	push	{r4, lr}
    8a7c:	eb000017 	bl	8ae0 <dev_barrier>
    8a80:	ebfffff7 	bl	8a64 <timer_get_usec_raw>
    8a84:	e1a04000 	mov	r4, r0
    8a88:	eb000014 	bl	8ae0 <dev_barrier>
    8a8c:	e1a00004 	mov	r0, r4
    8a90:	e8bd8010 	pop	{r4, pc}

00008a94 <delay_us>:
    8a94:	e92d4038 	push	{r3, r4, r5, lr}
    8a98:	e1a05000 	mov	r5, r0
    8a9c:	ebfffff5 	bl	8a78 <timer_get_usec>
    8aa0:	e1a04000 	mov	r4, r0
    8aa4:	ebfffff3 	bl	8a78 <timer_get_usec>
    8aa8:	e0640000 	rsb	r0, r4, r0
    8aac:	e1500005 	cmp	r0, r5
    8ab0:	3afffffb 	bcc	8aa4 <delay_us+0x10>
    8ab4:	e8bd8038 	pop	{r3, r4, r5, pc}

00008ab8 <delay_ms>:
    8ab8:	e92d4008 	push	{r3, lr}
    8abc:	e3a03ffa 	mov	r3, #1000	; 0x3e8
    8ac0:	e0000093 	mul	r0, r3, r0
    8ac4:	ebfffff2 	bl	8a94 <delay_us>
    8ac8:	e8bd8008 	pop	{r3, pc}

00008acc <delay_sec>:
    8acc:	e92d4008 	push	{r3, lr}
    8ad0:	e3a03ffa 	mov	r3, #1000	; 0x3e8
    8ad4:	e0000093 	mul	r0, r3, r0
    8ad8:	ebfffff6 	bl	8ab8 <delay_ms>
    8adc:	e8bd8008 	pop	{r3, pc}

00008ae0 <dev_barrier>:
    8ae0:	ea000002 	b	8af0 <dsb>

00008ae4 <dmb>:
    8ae4:	e3a00000 	mov	r0, #0
    8ae8:	ee070fba 	mcr	15, 0, r0, cr7, cr10, {5}
    8aec:	e12fff1e 	bx	lr

00008af0 <dsb>:
    8af0:	ee070f9a 	mcr	15, 0, r0, cr7, cr10, {4}
    8af4:	e12fff1e 	bx	lr

00008af8 <put32>:
    8af8:	e5801000 	str	r1, [r0]
    8afc:	e12fff1e 	bx	lr

00008b00 <PUT32>:
    8b00:	e5801000 	str	r1, [r0]
    8b04:	e12fff1e 	bx	lr

00008b08 <put16>:
    8b08:	e1c010b0 	strh	r1, [r0]
    8b0c:	e12fff1e 	bx	lr

00008b10 <PUT16>:
    8b10:	e1c010b0 	strh	r1, [r0]
    8b14:	e12fff1e 	bx	lr

00008b18 <put8>:
    8b18:	e5c01000 	strb	r1, [r0]
    8b1c:	e12fff1e 	bx	lr

00008b20 <PUT8>:
    8b20:	e5c01000 	strb	r1, [r0]
    8b24:	e12fff1e 	bx	lr

00008b28 <get32>:
    8b28:	e5900000 	ldr	r0, [r0]
    8b2c:	e12fff1e 	bx	lr

00008b30 <GET32>:
    8b30:	e5900000 	ldr	r0, [r0]
    8b34:	e12fff1e 	bx	lr

00008b38 <GETPC>:
    8b38:	e1a0000e 	mov	r0, lr
    8b3c:	e12fff1e 	bx	lr

00008b40 <dummy>:
    8b40:	e12fff1e 	bx	lr

00008b44 <uart_can_getc>:
    8b44:	e92d4008 	push	{r3, lr}
    8b48:	e59f300c 	ldr	r3, [pc, #12]	; 8b5c <uart_can_getc+0x18>
    8b4c:	e5930000 	ldr	r0, [r3]
    8b50:	ebfffff4 	bl	8b28 <get32>
    8b54:	e2000001 	and	r0, r0, #1
    8b58:	e8bd8008 	pop	{r3, pc}
    8b5c:	0000905c 	andeq	r9, r0, ip, asr r0

00008b60 <uart_init>:
    8b60:	e92d4038 	push	{r3, r4, r5, lr}
    8b64:	ebffffdd 	bl	8ae0 <dev_barrier>
    8b68:	e3a0000e 	mov	r0, #14
    8b6c:	e3a01002 	mov	r1, #2
    8b70:	eb0000fd 	bl	8f6c <gpio_set_function>
    8b74:	e3a0000f 	mov	r0, #15
    8b78:	e3a01002 	mov	r1, #2
    8b7c:	eb0000fa 	bl	8f6c <gpio_set_function>
    8b80:	ebffffd6 	bl	8ae0 <dev_barrier>
    8b84:	e59f4068 	ldr	r4, [pc, #104]	; 8bf4 <uart_init+0x94>
    8b88:	e5945004 	ldr	r5, [r4, #4]
    8b8c:	e1a00005 	mov	r0, r5
    8b90:	ebffffe4 	bl	8b28 <get32>
    8b94:	e3801001 	orr	r1, r0, #1
    8b98:	e1a00005 	mov	r0, r5
    8b9c:	ebffffd5 	bl	8af8 <put32>
    8ba0:	ebffffce 	bl	8ae0 <dev_barrier>
    8ba4:	e5940008 	ldr	r0, [r4, #8]
    8ba8:	e3a01000 	mov	r1, #0
    8bac:	ebffffd1 	bl	8af8 <put32>
    8bb0:	e594000c 	ldr	r0, [r4, #12]
    8bb4:	e3a01000 	mov	r1, #0
    8bb8:	ebffffce 	bl	8af8 <put32>
    8bbc:	e5940010 	ldr	r0, [r4, #16]
    8bc0:	e3a01006 	mov	r1, #6
    8bc4:	ebffffcb 	bl	8af8 <put32>
    8bc8:	e5940014 	ldr	r0, [r4, #20]
    8bcc:	e3a01003 	mov	r1, #3
    8bd0:	ebffffc8 	bl	8af8 <put32>
    8bd4:	e5940018 	ldr	r0, [r4, #24]
    8bd8:	e59f1018 	ldr	r1, [pc, #24]	; 8bf8 <uart_init+0x98>
    8bdc:	ebffffc5 	bl	8af8 <put32>
    8be0:	e5940008 	ldr	r0, [r4, #8]
    8be4:	e3a01003 	mov	r1, #3
    8be8:	ebffffc2 	bl	8af8 <put32>
    8bec:	ebffffbb 	bl	8ae0 <dev_barrier>
    8bf0:	e8bd8038 	pop	{r3, r4, r5, pc}
    8bf4:	0000905c 	andeq	r9, r0, ip, asr r0
    8bf8:	0000010e 	andeq	r0, r0, lr, lsl #2

00008bfc <uart_getc>:
    8bfc:	e92d4008 	push	{r3, lr}
    8c00:	ebffffcf 	bl	8b44 <uart_can_getc>
    8c04:	e3500000 	cmp	r0, #0
    8c08:	0afffffc 	beq	8c00 <uart_getc+0x4>
    8c0c:	e59f300c 	ldr	r3, [pc, #12]	; 8c20 <uart_getc+0x24>
    8c10:	e593001c 	ldr	r0, [r3, #28]
    8c14:	ebffffc3 	bl	8b28 <get32>
    8c18:	e6ef0070 	uxtb	r0, r0
    8c1c:	e8bd8008 	pop	{r3, pc}
    8c20:	0000905c 	andeq	r9, r0, ip, asr r0

00008c24 <uart_can_putc>:
    8c24:	e92d4008 	push	{r3, lr}
    8c28:	e59f300c 	ldr	r3, [pc, #12]	; 8c3c <uart_can_putc+0x18>
    8c2c:	e5930000 	ldr	r0, [r3]
    8c30:	ebffffbc 	bl	8b28 <get32>
    8c34:	e2000020 	and	r0, r0, #32
    8c38:	e8bd8008 	pop	{r3, pc}
    8c3c:	0000905c 	andeq	r9, r0, ip, asr r0

00008c40 <uart_putc>:
    8c40:	e92d4010 	push	{r4, lr}
    8c44:	e1a04000 	mov	r4, r0
    8c48:	ebfffff5 	bl	8c24 <uart_can_putc>
    8c4c:	e3500000 	cmp	r0, #0
    8c50:	0afffffc 	beq	8c48 <uart_putc+0x8>
    8c54:	e59f300c 	ldr	r3, [pc, #12]	; 8c68 <uart_putc+0x28>
    8c58:	e593001c 	ldr	r0, [r3, #28]
    8c5c:	e1a01004 	mov	r1, r4
    8c60:	ebffffa4 	bl	8af8 <put32>
    8c64:	e8bd8010 	pop	{r4, pc}
    8c68:	0000905c 	andeq	r9, r0, ip, asr r0

00008c6c <uart_has_data>:
    8c6c:	e92d4008 	push	{r3, lr}
    8c70:	ebffffb3 	bl	8b44 <uart_can_getc>
    8c74:	e8bd8008 	pop	{r3, pc}

00008c78 <uart_getc_async>:
    8c78:	e92d4008 	push	{r3, lr}
    8c7c:	ebfffffa 	bl	8c6c <uart_has_data>
    8c80:	e3500000 	cmp	r0, #0
    8c84:	0a000001 	beq	8c90 <uart_getc_async+0x18>
    8c88:	ebffffdb 	bl	8bfc <uart_getc>
    8c8c:	e8bd8008 	pop	{r3, pc}
    8c90:	e3e00000 	mvn	r0, #0
    8c94:	e8bd8008 	pop	{r3, pc}

00008c98 <gpio_set_output>:
    8c98:	e92d4038 	push	{r3, r4, r5, lr}
    8c9c:	e1a04000 	mov	r4, r0
    8ca0:	e350001f 	cmp	r0, #31
    8ca4:	88bd8038 	pophi	{r3, r4, r5, pc}
    8ca8:	e59f30b4 	ldr	r3, [pc, #180]	; 8d64 <gpio_set_output+0xcc>
    8cac:	e0832093 	umull	r2, r3, r3, r0
    8cb0:	e1a031a3 	lsr	r3, r3, #3
    8cb4:	e3530005 	cmp	r3, #5
    8cb8:	979ff103 	ldrls	pc, [pc, r3, lsl #2]
    8cbc:	ea000017 	b	8d20 <gpio_set_output+0x88>
    8cc0:	00008cd8 	ldrdeq	r8, [r0], -r8	; <UNPREDICTABLE>
    8cc4:	00008ce4 	andeq	r8, r0, r4, ror #25
    8cc8:	00008cf0 	strdeq	r8, [r0], -r0
    8ccc:	00008cfc 	strdeq	r8, [r0], -ip
    8cd0:	00008d08 	andeq	r8, r0, r8, lsl #26
    8cd4:	00008d14 	andeq	r8, r0, r4, lsl sp
    8cd8:	e59f3088 	ldr	r3, [pc, #136]	; 8d68 <gpio_set_output+0xd0>
    8cdc:	e5935000 	ldr	r5, [r3]
    8ce0:	ea00000f 	b	8d24 <gpio_set_output+0x8c>
    8ce4:	e59f307c 	ldr	r3, [pc, #124]	; 8d68 <gpio_set_output+0xd0>
    8ce8:	e5935004 	ldr	r5, [r3, #4]
    8cec:	ea00000c 	b	8d24 <gpio_set_output+0x8c>
    8cf0:	e59f3070 	ldr	r3, [pc, #112]	; 8d68 <gpio_set_output+0xd0>
    8cf4:	e5935008 	ldr	r5, [r3, #8]
    8cf8:	ea000009 	b	8d24 <gpio_set_output+0x8c>
    8cfc:	e59f3064 	ldr	r3, [pc, #100]	; 8d68 <gpio_set_output+0xd0>
    8d00:	e593500c 	ldr	r5, [r3, #12]
    8d04:	ea000006 	b	8d24 <gpio_set_output+0x8c>
    8d08:	e59f3058 	ldr	r3, [pc, #88]	; 8d68 <gpio_set_output+0xd0>
    8d0c:	e5935010 	ldr	r5, [r3, #16]
    8d10:	ea000003 	b	8d24 <gpio_set_output+0x8c>
    8d14:	e59f304c 	ldr	r3, [pc, #76]	; 8d68 <gpio_set_output+0xd0>
    8d18:	e5935014 	ldr	r5, [r3, #20]
    8d1c:	ea000000 	b	8d24 <gpio_set_output+0x8c>
    8d20:	e3a05000 	mov	r5, #0
    8d24:	e1a00005 	mov	r0, r5
    8d28:	ebffff7e 	bl	8b28 <get32>
    8d2c:	e59f1030 	ldr	r1, [pc, #48]	; 8d64 <gpio_set_output+0xcc>
    8d30:	e0813491 	umull	r3, r1, r1, r4
    8d34:	e1a011a1 	lsr	r1, r1, #3
    8d38:	e0811101 	add	r1, r1, r1, lsl #2
    8d3c:	e1a01081 	lsl	r1, r1, #1
    8d40:	e0611004 	rsb	r1, r1, r4
    8d44:	e0811081 	add	r1, r1, r1, lsl #1
    8d48:	e3a03007 	mov	r3, #7
    8d4c:	e1c03113 	bic	r3, r0, r3, lsl r1
    8d50:	e1a00005 	mov	r0, r5
    8d54:	e3a02001 	mov	r2, #1
    8d58:	e1831112 	orr	r1, r3, r2, lsl r1
    8d5c:	ebffff65 	bl	8af8 <put32>
    8d60:	e8bd8038 	pop	{r3, r4, r5, pc}
    8d64:	cccccccd 	stclgt	12, cr12, [ip], {205}	; 0xcd
    8d68:	00009090 	muleq	r0, r0, r0

00008d6c <gpio_set_on>:
    8d6c:	e92d4008 	push	{r3, lr}
    8d70:	e350001f 	cmp	r0, #31
    8d74:	88bd8008 	pophi	{r3, pc}
    8d78:	959f3020 	ldrls	r3, [pc, #32]	; 8da0 <gpio_set_on+0x34>
    8d7c:	95932018 	ldrls	r2, [r3, #24]
    8d80:	859f3018 	ldrhi	r3, [pc, #24]	; 8da0 <gpio_set_on+0x34>
    8d84:	8593201c 	ldrhi	r2, [r3, #28]
    8d88:	e200301f 	and	r3, r0, #31
    8d8c:	e1a00002 	mov	r0, r2
    8d90:	e3a01001 	mov	r1, #1
    8d94:	e1a01311 	lsl	r1, r1, r3
    8d98:	ebffff56 	bl	8af8 <put32>
    8d9c:	e8bd8008 	pop	{r3, pc}
    8da0:	00009090 	muleq	r0, r0, r0

00008da4 <gpio_set_off>:
    8da4:	e92d4008 	push	{r3, lr}
    8da8:	e350001f 	cmp	r0, #31
    8dac:	88bd8008 	pophi	{r3, pc}
    8db0:	959f3020 	ldrls	r3, [pc, #32]	; 8dd8 <gpio_set_off+0x34>
    8db4:	95932020 	ldrls	r2, [r3, #32]
    8db8:	859f3018 	ldrhi	r3, [pc, #24]	; 8dd8 <gpio_set_off+0x34>
    8dbc:	85932024 	ldrhi	r2, [r3, #36]	; 0x24
    8dc0:	e200301f 	and	r3, r0, #31
    8dc4:	e1a00002 	mov	r0, r2
    8dc8:	e3a01001 	mov	r1, #1
    8dcc:	e1a01311 	lsl	r1, r1, r3
    8dd0:	ebffff48 	bl	8af8 <put32>
    8dd4:	e8bd8008 	pop	{r3, pc}
    8dd8:	00009090 	muleq	r0, r0, r0

00008ddc <gpio_set_input>:
    8ddc:	e92d4038 	push	{r3, r4, r5, lr}
    8de0:	e1a04000 	mov	r4, r0
    8de4:	e350001f 	cmp	r0, #31
    8de8:	88bd8038 	pophi	{r3, r4, r5, pc}
    8dec:	e59f30ac 	ldr	r3, [pc, #172]	; 8ea0 <gpio_set_input+0xc4>
    8df0:	e0832093 	umull	r2, r3, r3, r0
    8df4:	e1a031a3 	lsr	r3, r3, #3
    8df8:	e3530005 	cmp	r3, #5
    8dfc:	979ff103 	ldrls	pc, [pc, r3, lsl #2]
    8e00:	ea000017 	b	8e64 <gpio_set_input+0x88>
    8e04:	00008e1c 	andeq	r8, r0, ip, lsl lr
    8e08:	00008e28 	andeq	r8, r0, r8, lsr #28
    8e0c:	00008e34 	andeq	r8, r0, r4, lsr lr
    8e10:	00008e40 	andeq	r8, r0, r0, asr #28
    8e14:	00008e4c 	andeq	r8, r0, ip, asr #28
    8e18:	00008e58 	andeq	r8, r0, r8, asr lr
    8e1c:	e59f3080 	ldr	r3, [pc, #128]	; 8ea4 <gpio_set_input+0xc8>
    8e20:	e5935000 	ldr	r5, [r3]
    8e24:	ea00000f 	b	8e68 <gpio_set_input+0x8c>
    8e28:	e59f3074 	ldr	r3, [pc, #116]	; 8ea4 <gpio_set_input+0xc8>
    8e2c:	e5935004 	ldr	r5, [r3, #4]
    8e30:	ea00000c 	b	8e68 <gpio_set_input+0x8c>
    8e34:	e59f3068 	ldr	r3, [pc, #104]	; 8ea4 <gpio_set_input+0xc8>
    8e38:	e5935008 	ldr	r5, [r3, #8]
    8e3c:	ea000009 	b	8e68 <gpio_set_input+0x8c>
    8e40:	e59f305c 	ldr	r3, [pc, #92]	; 8ea4 <gpio_set_input+0xc8>
    8e44:	e593500c 	ldr	r5, [r3, #12]
    8e48:	ea000006 	b	8e68 <gpio_set_input+0x8c>
    8e4c:	e59f3050 	ldr	r3, [pc, #80]	; 8ea4 <gpio_set_input+0xc8>
    8e50:	e5935010 	ldr	r5, [r3, #16]
    8e54:	ea000003 	b	8e68 <gpio_set_input+0x8c>
    8e58:	e59f3044 	ldr	r3, [pc, #68]	; 8ea4 <gpio_set_input+0xc8>
    8e5c:	e5935014 	ldr	r5, [r3, #20]
    8e60:	ea000000 	b	8e68 <gpio_set_input+0x8c>
    8e64:	e3a05000 	mov	r5, #0
    8e68:	e1a00005 	mov	r0, r5
    8e6c:	ebffff2d 	bl	8b28 <get32>
    8e70:	e59f1028 	ldr	r1, [pc, #40]	; 8ea0 <gpio_set_input+0xc4>
    8e74:	e0813491 	umull	r3, r1, r1, r4
    8e78:	e1a011a1 	lsr	r1, r1, #3
    8e7c:	e0811101 	add	r1, r1, r1, lsl #2
    8e80:	e1a01081 	lsl	r1, r1, #1
    8e84:	e0611004 	rsb	r1, r1, r4
    8e88:	e0811081 	add	r1, r1, r1, lsl #1
    8e8c:	e3a03007 	mov	r3, #7
    8e90:	e1c01113 	bic	r1, r0, r3, lsl r1
    8e94:	e1a00005 	mov	r0, r5
    8e98:	ebffff16 	bl	8af8 <put32>
    8e9c:	e8bd8038 	pop	{r3, r4, r5, pc}
    8ea0:	cccccccd 	stclgt	12, cr12, [ip], {205}	; 0xcd
    8ea4:	00009090 	muleq	r0, r0, r0

00008ea8 <gpio_read>:
    8ea8:	e92d4010 	push	{r4, lr}
    8eac:	e1a04000 	mov	r4, r0
    8eb0:	e350001f 	cmp	r0, #31
    8eb4:	8a00000b 	bhi	8ee8 <gpio_read+0x40>
    8eb8:	8a000003 	bhi	8ecc <gpio_read+0x24>
    8ebc:	e59f302c 	ldr	r3, [pc, #44]	; 8ef0 <gpio_read+0x48>
    8ec0:	e5930028 	ldr	r0, [r3, #40]	; 0x28
    8ec4:	ebffff17 	bl	8b28 <get32>
    8ec8:	ea000002 	b	8ed8 <gpio_read+0x30>
    8ecc:	e59f301c 	ldr	r3, [pc, #28]	; 8ef0 <gpio_read+0x48>
    8ed0:	e593002c 	ldr	r0, [r3, #44]	; 0x2c
    8ed4:	ebffff13 	bl	8b28 <get32>
    8ed8:	e204401f 	and	r4, r4, #31
    8edc:	e3a03001 	mov	r3, #1
    8ee0:	e0000413 	and	r0, r0, r3, lsl r4
    8ee4:	e8bd8010 	pop	{r4, pc}
    8ee8:	e3e00000 	mvn	r0, #0
    8eec:	e8bd8010 	pop	{r4, pc}
    8ef0:	00009090 	muleq	r0, r0, r0

00008ef4 <gpio_write>:
    8ef4:	e92d4008 	push	{r3, lr}
    8ef8:	e350001f 	cmp	r0, #31
    8efc:	88bd8008 	pophi	{r3, pc}
    8f00:	e3510000 	cmp	r1, #0
    8f04:	0a00000b 	beq	8f38 <gpio_write+0x44>
    8f08:	e350001f 	cmp	r0, #31
    8f0c:	88bd8008 	pophi	{r3, pc}
    8f10:	959f3050 	ldrls	r3, [pc, #80]	; 8f68 <gpio_write+0x74>
    8f14:	95932018 	ldrls	r2, [r3, #24]
    8f18:	859f3048 	ldrhi	r3, [pc, #72]	; 8f68 <gpio_write+0x74>
    8f1c:	8593201c 	ldrhi	r2, [r3, #28]
    8f20:	e200301f 	and	r3, r0, #31
    8f24:	e1a00002 	mov	r0, r2
    8f28:	e3a01001 	mov	r1, #1
    8f2c:	e1a01311 	lsl	r1, r1, r3
    8f30:	ebfffef0 	bl	8af8 <put32>
    8f34:	e8bd8008 	pop	{r3, pc}
    8f38:	e350001f 	cmp	r0, #31
    8f3c:	88bd8008 	pophi	{r3, pc}
    8f40:	959f3020 	ldrls	r3, [pc, #32]	; 8f68 <gpio_write+0x74>
    8f44:	95932020 	ldrls	r2, [r3, #32]
    8f48:	859f3018 	ldrhi	r3, [pc, #24]	; 8f68 <gpio_write+0x74>
    8f4c:	85932024 	ldrhi	r2, [r3, #36]	; 0x24
    8f50:	e200301f 	and	r3, r0, #31
    8f54:	e1a00002 	mov	r0, r2
    8f58:	e3a01001 	mov	r1, #1
    8f5c:	e1a01311 	lsl	r1, r1, r3
    8f60:	ebfffee4 	bl	8af8 <put32>
    8f64:	e8bd8008 	pop	{r3, pc}
    8f68:	00009090 	muleq	r0, r0, r0

00008f6c <gpio_set_function>:
    8f6c:	e92d4070 	push	{r4, r5, r6, lr}
    8f70:	e1a04000 	mov	r4, r0
    8f74:	e1a05001 	mov	r5, r1
    8f78:	e3510007 	cmp	r1, #7
    8f7c:	9350001f 	cmpls	r0, #31
    8f80:	88bd8070 	pophi	{r4, r5, r6, pc}
    8f84:	e59f30b0 	ldr	r3, [pc, #176]	; 903c <gpio_set_function+0xd0>
    8f88:	e0832093 	umull	r2, r3, r3, r0
    8f8c:	e1a031a3 	lsr	r3, r3, #3
    8f90:	e3530005 	cmp	r3, #5
    8f94:	979ff103 	ldrls	pc, [pc, r3, lsl #2]
    8f98:	ea000017 	b	8ffc <gpio_set_function+0x90>
    8f9c:	00008fb4 			; <UNDEFINED> instruction: 0x00008fb4
    8fa0:	00008fc0 	andeq	r8, r0, r0, asr #31
    8fa4:	00008fcc 	andeq	r8, r0, ip, asr #31
    8fa8:	00008fd8 	ldrdeq	r8, [r0], -r8	; <UNPREDICTABLE>
    8fac:	00008fe4 	andeq	r8, r0, r4, ror #31
    8fb0:	00008ff0 	strdeq	r8, [r0], -r0
    8fb4:	e59f3084 	ldr	r3, [pc, #132]	; 9040 <gpio_set_function+0xd4>
    8fb8:	e5936000 	ldr	r6, [r3]
    8fbc:	ea00000f 	b	9000 <gpio_set_function+0x94>
    8fc0:	e59f3078 	ldr	r3, [pc, #120]	; 9040 <gpio_set_function+0xd4>
    8fc4:	e5936004 	ldr	r6, [r3, #4]
    8fc8:	ea00000c 	b	9000 <gpio_set_function+0x94>
    8fcc:	e59f306c 	ldr	r3, [pc, #108]	; 9040 <gpio_set_function+0xd4>
    8fd0:	e5936008 	ldr	r6, [r3, #8]
    8fd4:	ea000009 	b	9000 <gpio_set_function+0x94>
    8fd8:	e59f3060 	ldr	r3, [pc, #96]	; 9040 <gpio_set_function+0xd4>
    8fdc:	e593600c 	ldr	r6, [r3, #12]
    8fe0:	ea000006 	b	9000 <gpio_set_function+0x94>
    8fe4:	e59f3054 	ldr	r3, [pc, #84]	; 9040 <gpio_set_function+0xd4>
    8fe8:	e5936010 	ldr	r6, [r3, #16]
    8fec:	ea000003 	b	9000 <gpio_set_function+0x94>
    8ff0:	e59f3048 	ldr	r3, [pc, #72]	; 9040 <gpio_set_function+0xd4>
    8ff4:	e5936014 	ldr	r6, [r3, #20]
    8ff8:	ea000000 	b	9000 <gpio_set_function+0x94>
    8ffc:	e3a06000 	mov	r6, #0
    9000:	e1a00006 	mov	r0, r6
    9004:	ebfffec7 	bl	8b28 <get32>
    9008:	e59f302c 	ldr	r3, [pc, #44]	; 903c <gpio_set_function+0xd0>
    900c:	e0832493 	umull	r2, r3, r3, r4
    9010:	e1a031a3 	lsr	r3, r3, #3
    9014:	e0833103 	add	r3, r3, r3, lsl #2
    9018:	e1a03083 	lsl	r3, r3, #1
    901c:	e0633004 	rsb	r3, r3, r4
    9020:	e0833083 	add	r3, r3, r3, lsl #1
    9024:	e3a01007 	mov	r1, #7
    9028:	e1c01311 	bic	r1, r0, r1, lsl r3
    902c:	e1a00006 	mov	r0, r6
    9030:	e1811315 	orr	r1, r1, r5, lsl r3
    9034:	ebfffeaf 	bl	8af8 <put32>
    9038:	e8bd8070 	pop	{r4, r5, r6, pc}
    903c:	cccccccd 	stclgt	12, cr12, [ip], {205}	; 0xcd
    9040:	00009090 	muleq	r0, r0, r0

00009044 <internal_putchar>:
    9044:	e92d4010 	push	{r4, lr}
    9048:	e1a04000 	mov	r4, r0
    904c:	ebfffefb 	bl	8c40 <uart_putc>
    9050:	e1a00004 	mov	r0, r4
    9054:	e8bd8010 	pop	{r4, pc}

Disassembly of section .data:

00009058 <putk>:
    9058:	00008454 	andeq	r8, r0, r4, asr r4

0000905c <AUX_MU_LSR_REG>:
    905c:	20215054 	eorcs	r5, r1, r4, asr r0

00009060 <AUX_ENABLES>:
    9060:	20215004 	eorcs	r5, r1, r4

00009064 <AUX_MU_CNTL_REG>:
    9064:	20215060 	eorcs	r5, r1, r0, rrx

00009068 <AUX_MU_IER_REG>:
    9068:	20215044 	eorcs	r5, r1, r4, asr #32

0000906c <AUX_MU_IIR_REG>:
    906c:	20215048 	eorcs	r5, r1, r8, asr #32

00009070 <AUX_MU_LCR_REG>:
    9070:	2021504c 	eorcs	r5, r1, ip, asr #32

00009074 <AUX_MU_BAUD_REG>:
    9074:	20215068 	eorcs	r5, r1, r8, rrx

00009078 <AUX_MU_IO_REG>:
    9078:	20215040 	eorcs	r5, r1, r0, asr #32

0000907c <AUX_MU_STAT_REG>:
    907c:	20215064 	eorcs	r5, r1, r4, rrx

00009080 <AUX_MU_SCRATCH>:
    9080:	2021505c 	eorcs	r5, r1, ip, asr r0

00009084 <AUX_MU_MSR_REG>:
    9084:	20215058 	eorcs	r5, r1, r8, asr r0

00009088 <AUX_MU_MCR_REG>:
    9088:	20215050 	eorcs	r5, r1, r0, asr r0

0000908c <AUX_IRQ>:
    908c:	20215000 	eorcs	r5, r1, r0

00009090 <GPFSEL0>:
    9090:	20200000 	eorcs	r0, r0, r0

00009094 <GPFSEL1>:
    9094:	20200004 	eorcs	r0, r0, r4

00009098 <GPFSEL2>:
    9098:	20200008 	eorcs	r0, r0, r8

0000909c <GPFSEL3>:
    909c:	2020000c 	eorcs	r0, r0, ip

000090a0 <GPFSEL4>:
    90a0:	20200010 	eorcs	r0, r0, r0, lsl r0

000090a4 <GPFSEL5>:
    90a4:	20200014 	eorcs	r0, r0, r4, lsl r0

000090a8 <GPSET0>:
    90a8:	2020001c 	eorcs	r0, r0, ip, lsl r0

000090ac <GPSET1>:
    90ac:	20200020 	eorcs	r0, r0, r0, lsr #32

000090b0 <GPCLR0>:
    90b0:	20200028 	eorcs	r0, r0, r8, lsr #32

000090b4 <GPCLR1>:
    90b4:	2020002c 	eorcs	r0, r0, ip, lsr #32

000090b8 <GPLEV0>:
    90b8:	20200034 	eorcs	r0, r0, r4, lsr r0

000090bc <GPLEV1>:
    90bc:	20200038 	eorcs	r0, r0, r8, lsr r0

000090c0 <gpio_clr0>:
    90c0:	20200028 	eorcs	r0, r0, r8, lsr #32

000090c4 <gpio_set0>:
    90c4:	2020001c 	eorcs	r0, r0, ip, lsl r0

000090c8 <gpio_fsel0>:
    90c8:	20200000 	eorcs	r0, r0, r0

000090cc <rpi_putchar>:
    90cc:	00009044 	andeq	r9, r0, r4, asr #32

Disassembly of section .rodata:

000090d0 <__FUNCTION__.4150>:
    90d0:	65746e69 	ldrbvs	r6, [r4, #-3689]!	; 0xe69
    90d4:	70757272 	rsbsvc	r7, r5, r2, ror r2
    90d8:	65765f74 	ldrbvs	r5, [r6, #-3956]!	; 0xf74
    90dc:	726f7463 	rsbvc	r7, pc, #1660944384	; 0x63000000
    90e0:	00000000 	andeq	r0, r0, r0

000090e4 <__FUNCTION__.4162>:
    90e4:	6d746f6e 	ldclvs	15, cr6, [r4, #-440]!	; 0xfffffe48
    90e8:	006e6961 	rsbeq	r6, lr, r1, ror #18
    90ec:	494e4150 	stmdbmi	lr, {r4, r6, r8, lr}^
    90f0:	73253a43 	teqvc	r5, #274432	; 0x43000
    90f4:	3a73253a 	bcc	1cd25e4 <__bss_end__+0x1cc8d5c>
    90f8:	733a6425 	teqvc	sl, #620756992	; 0x25000000
    90fc:	6c756f68 	ldclvs	15, cr6, [r5], #-416	; 0xfffffe60
    9100:	6f6e2064 	svcvs	0x006e2064
    9104:	65622074 	strbvs	r2, [r2, #-116]!	; 0x74
    9108:	6c616320 	stclvs	3, cr6, [r1], #-128	; 0xffffff80
    910c:	0a64656c 	beq	19226c4 <__bss_end__+0x1918e3c>
    9110:	0000000a 	andeq	r0, r0, sl
    9114:	63737973 	cmnvs	r3, #1884160	; 0x1cc000
    9118:	2e6c6c61 	cdpcs	12, 6, cr6, cr12, cr1, {3}
    911c:	00000063 	andeq	r0, r0, r3, rrx
    9120:	63737973 	cmnvs	r3, #1884160	; 0x1cc000
    9124:	3a6c6c61 	bcc	1b242b0 <__bss_end__+0x1b1aa28>
    9128:	73253c20 	teqvc	r5, #32, 24	; 0x2000
    912c:	00000a3e 	andeq	r0, r0, lr, lsr sl
    9130:	656c6c69 	strbvs	r6, [ip, #-3177]!	; 0xc69
    9134:	206c6167 	rsbcs	r6, ip, r7, ror #2
    9138:	74737973 	ldrbtvc	r7, [r3], #-2419	; 0x973
    913c:	63206d65 	teqvs	r0, #6464	; 0x1940
    9140:	206c6c61 	rsbcs	r6, ip, r1, ror #24
    9144:	6425203d 	strtvs	r2, [r5], #-61	; 0x3d
    9148:	00000a21 	andeq	r0, r0, r1, lsr #20
    914c:	756f6261 	strbvc	r6, [pc, #-609]!	; 8ef3 <gpio_read+0x4b>
    9150:	6f742074 	svcvs	0x00742074
    9154:	736e6920 	cmnvc	lr, #32, 18	; 0x80000
    9158:	6c6c6174 	stfvse	f6, [ip], #-464	; 0xfffffe30
    915c:	6e616820 	cdpvs	8, 6, cr6, cr1, cr0, {1}
    9160:	72656c64 	rsbvc	r6, r5, #100, 24	; 0x6400
    9164:	00000a73 	andeq	r0, r0, r3, ror sl
    9168:	756f6261 	strbvc	r6, [pc, #-609]!	; 8f0f <gpio_write+0x1b>
    916c:	6f742074 	svcvs	0x00742074
    9170:	6e757220 	cdpvs	2, 7, cr7, cr5, cr0, {1}
    9174:	73797320 	cmnvc	r9, #32, 6	; 0x80000000
    9178:	6c6c6163 	stfvse	f6, [ip], #-396	; 0xfffffe74
    917c:	6c656820 	stclvs	8, cr6, [r5], #-128	; 0xffffff80
    9180:	000a6f6c 	andeq	r6, sl, ip, ror #30
    9184:	6c6c6568 	cfstr64vs	mvdx6, [ip], #-416	; 0xfffffe60
    9188:	6f77206f 	svcvs	0x0077206f
    918c:	00646c72 	rsbeq	r6, r4, r2, ror ip
    9190:	75736572 	ldrbvc	r6, [r3, #-1394]!	; 0x572
    9194:	6f20746c 	svcvs	0x0020746c
    9198:	61632066 	cmnvs	r3, r6, rrx
    919c:	6e696c6c 	cdpvs	12, 6, cr6, cr9, cr12, {3}
    91a0:	79732067 	ldmdbvc	r3!, {r0, r1, r2, r5, r6, sp}^
    91a4:	6d657473 	cfstrdvs	mvd7, [r5, #-460]!	; 0xfffffe34
    91a8:	6c616320 	stclvs	3, cr6, [r1], #-128	; 0xffffff80
    91ac:	3d31206c 	ldccc	0, cr2, [r1, #-432]!	; 0xfffffe50
    91b0:	000a6425 	andeq	r6, sl, r5, lsr #8
    91b4:	494e4150 	stmdbmi	lr, {r4, r6, r8, lr}^
    91b8:	73253a43 	teqvc	r5, #274432	; 0x43000
    91bc:	3a73253a 	bcc	1cd26ac <__bss_end__+0x1cc8e24>
    91c0:	723a6425 	eorsvc	r6, sl, #620756992	; 0x25000000
    91c4:	3d207365 	stccc	3, cr7, [r0, #-404]!	; 0xfffffe6c
    91c8:	0a30203d 	beq	c112c4 <__bss_end__+0xc07a3c>
    91cc:	00000000 	andeq	r0, r0, r0
    91d0:	756f6261 	strbvc	r6, [pc, #-609]!	; 8f77 <gpio_set_function+0xb>
    91d4:	6f742074 	svcvs	0x00742074
    91d8:	6c616320 	stclvs	3, cr6, [r1], #-128	; 0xffffff80
    91dc:	6c69206c 	stclvs	0, cr2, [r9], #-432	; 0xfffffe50
    91e0:	6167656c 	cmnvs	r7, ip, ror #10
    91e4:	7973206c 	ldmdbvc	r3!, {r2, r3, r5, r6, sp}^
    91e8:	6d657473 	cfstrdvs	mvd7, [r5, #-460]!	; 0xfffffe34
    91ec:	6c616320 	stclvs	3, cr6, [r1], #-128	; 0xffffff80
    91f0:	73203a6c 	teqvc	r0, #108, 20	; 0x6c000
    91f4:	6c756f68 	ldclvs	15, cr6, [r5], #-416	; 0xfffffe60
    91f8:	69642064 	stmdbvs	r4!, {r2, r5, r6, sp}^
    91fc:	00000a65 	andeq	r0, r0, r5, ror #20
    9200:	75736572 	ldrbvc	r6, [r3, #-1394]!	; 0x572
    9204:	6f20746c 	svcvs	0x0020746c
    9208:	6c692066 	stclvs	0, cr2, [r9], #-408	; 0xfffffe68
    920c:	6167656c 	cmnvs	r7, ip, ror #10
    9210:	7973206c 	ldmdbvc	r3!, {r2, r3, r5, r6, sp}^
    9214:	6d657473 	cfstrdvs	mvd7, [r5, #-460]!	; 0xfffffe34
    9218:	6c616320 	stclvs	3, cr6, [r1], #-128	; 0xffffff80
    921c:	253d206c 	ldrcs	r2, [sp, #-108]!	; 0x6c
    9220:	00000a64 	andeq	r0, r0, r4, ror #20
    9224:	494e4150 	stmdbmi	lr, {r4, r6, r8, lr}^
    9228:	73253a43 	teqvc	r5, #274432	; 0x43000
    922c:	3a73253a 	bcc	1cd271c <__bss_end__+0x1cc8e94>
    9230:	723a6425 	eorsvc	r6, sl, #620756992	; 0x25000000
    9234:	3d207365 	stccc	3, cr7, [r0, #-404]!	; 0xfffffe6c
    9238:	312d203d 	teqcc	sp, sp, lsr r0
    923c:	0000000a 	andeq	r0, r0, sl

00009240 <__FUNCTION__.4160>:
    9240:	74736166 	ldrbtvc	r6, [r3], #-358	; 0x166
    9244:	746e695f 	strbtvc	r6, [lr], #-2399	; 0x95f
    9248:	75727265 	ldrbvc	r7, [r2, #-613]!	; 0x265
    924c:	765f7470 			; <UNDEFINED> instruction: 0x765f7470
    9250:	6f746365 	svcvs	0x00746365
    9254:	00000072 	andeq	r0, r0, r2, ror r0

00009258 <__FUNCTION__.4164>:
    9258:	74666f73 	strbtvc	r6, [r6], #-3955	; 0xf73
    925c:	65726177 	ldrbvs	r6, [r2, #-375]!	; 0x177
    9260:	746e695f 	strbtvc	r6, [lr], #-2399	; 0x95f
    9264:	75727265 	ldrbvc	r7, [r2, #-613]!	; 0x265
    9268:	765f7470 			; <UNDEFINED> instruction: 0x765f7470
    926c:	6f746365 	svcvs	0x00746365
    9270:	00000072 	andeq	r0, r0, r2, ror r0

00009274 <__FUNCTION__.4168>:
    9274:	65736572 	ldrbvs	r6, [r3, #-1394]!	; 0x572
    9278:	65765f74 	ldrbvs	r5, [r6, #-3956]!	; 0xf74
    927c:	726f7463 	rsbvc	r7, pc, #1660944384	; 0x63000000
    9280:	00000000 	andeq	r0, r0, r0

00009284 <__FUNCTION__.4172>:
    9284:	65646e75 	strbvs	r6, [r4, #-3701]!	; 0xe75
    9288:	656e6966 	strbvs	r6, [lr, #-2406]!	; 0x966
    928c:	6e695f64 	cdpvs	15, 6, cr5, cr9, cr4, {3}
    9290:	75727473 	ldrbvc	r7, [r2, #-1139]!	; 0x473
    9294:	6f697463 	svcvs	0x00697463
    9298:	65765f6e 	ldrbvs	r5, [r6, #-3950]!	; 0xf6e
    929c:	726f7463 	rsbvc	r7, pc, #1660944384	; 0x63000000
    92a0:	00000000 	andeq	r0, r0, r0

000092a4 <__FUNCTION__.4176>:
    92a4:	66657270 			; <UNDEFINED> instruction: 0x66657270
    92a8:	68637465 	stmdavs	r3!, {r0, r2, r5, r6, sl, ip, sp, lr}^
    92ac:	6f62615f 	svcvs	0x0062615f
    92b0:	765f7472 			; <UNDEFINED> instruction: 0x765f7472
    92b4:	6f746365 	svcvs	0x00746365
    92b8:	00000072 	andeq	r0, r0, r2, ror r0

000092bc <__FUNCTION__.4180>:
    92bc:	61746164 	cmnvs	r4, r4, ror #2
    92c0:	6f62615f 	svcvs	0x0062615f
    92c4:	765f7472 			; <UNDEFINED> instruction: 0x765f7472
    92c8:	6f746365 	svcvs	0x00746365
    92cc:	00000072 	andeq	r0, r0, r2, ror r0
    92d0:	494e4150 	stmdbmi	lr, {r4, r6, r8, lr}^
    92d4:	73253a43 	teqvc	r5, #274432	; 0x43000
    92d8:	3a73253a 	bcc	1cd27c8 <__bss_end__+0x1cc8f40>
    92dc:	453a6425 	ldrmi	r6, [sl, #-1061]!	; 0x425
    92e0:	524f5252 	subpl	r5, pc, #536870917	; 0x20000005
    92e4:	6e75203a 	mrcvs	0, 3, r2, cr5, cr10, {1}
    92e8:	646e6168 	strbtvs	r6, [lr], #-360	; 0x168
    92ec:	2064656c 	rsbcs	r6, r4, ip, ror #10
    92f0:	65637865 	strbvs	r7, [r3, #-2149]!	; 0x865
    92f4:	6f697470 	svcvs	0x00697470
    92f8:	253c206e 	ldrcs	r2, [ip, #-110]!	; 0x6e
    92fc:	61203e73 	teqvs	r0, r3, ror lr
    9300:	43502074 	cmpmi	r0, #116	; 0x74
    9304:	0a78253d 	beq	1e12800 <__bss_end__+0x1e08f78>
    9308:	0000000a 	andeq	r0, r0, sl
    930c:	65746e69 	ldrbvs	r6, [r4, #-3689]!	; 0xe69
    9310:	70757272 	rsbsvc	r7, r5, r2, ror r2
    9314:	632d7374 	teqvs	sp, #116, 6	; 0xd0000001
    9318:	0000632e 	andeq	r6, r0, lr, lsr #6
    931c:	74736166 	ldrbtvc	r6, [r3], #-358	; 0x166
    9320:	00000000 	andeq	r0, r0, r0
    9324:	74666f73 	strbtvc	r6, [r6], #-3955	; 0xf73
    9328:	746e6920 	strbtvc	r6, [lr], #-2336	; 0x920
    932c:	75727265 	ldrbvc	r7, [r2, #-613]!	; 0x265
    9330:	00007470 	andeq	r7, r0, r0, ror r4
    9334:	65736572 	ldrbvs	r6, [r3, #-1394]!	; 0x572
    9338:	65762074 	ldrbvs	r2, [r6, #-116]!	; 0x74
    933c:	726f7463 	rsbvc	r7, pc, #1660944384	; 0x63000000
    9340:	00000000 	andeq	r0, r0, r0
    9344:	65646e75 	strbvs	r6, [r4, #-3701]!	; 0xe75
    9348:	656e6966 	strbvs	r6, [lr, #-2406]!	; 0x966
    934c:	6e692064 	cdpvs	0, 6, cr2, cr9, cr4, {3}
    9350:	75727473 	ldrbvc	r7, [r2, #-1139]!	; 0x473
    9354:	6f697463 	svcvs	0x00697463
    9358:	0000006e 	andeq	r0, r0, lr, rrx
    935c:	66657270 			; <UNDEFINED> instruction: 0x66657270
    9360:	68637465 	stmdavs	r3!, {r0, r2, r5, r6, sl, ip, sp, lr}^
    9364:	6f626120 	svcvs	0x00626120
    9368:	00007472 	andeq	r7, r0, r2, ror r4
    936c:	61746164 	cmnvs	r4, r4, ror #2
    9370:	6f626120 	svcvs	0x00626120
    9374:	00007472 	andeq	r7, r0, r2, ror r4

00009378 <__FUNCTION__.4187>:
    9378:	74696d65 	strbtvc	r6, [r9], #-3429	; 0xd65
    937c:	00000000 	andeq	r0, r0, r0

00009380 <__FUNCTION__.4135>:
    9380:	5f697072 	svcpl	0x00697072
    9384:	5f746573 	svcpl	0x00746573
    9388:	7074756f 	rsbsvc	r7, r4, pc, ror #10
    938c:	00007475 	andeq	r7, r0, r5, ror r4

00009390 <__FUNCTION__.4209>:
    9390:	705f6176 	subsvc	r6, pc, r6, ror r1	; <UNPREDICTABLE>
    9394:	746e6972 	strbtvc	r6, [lr], #-2418	; 0x972
    9398:	0000006b 	andeq	r0, r0, fp, rrx
    939c:	494e4150 	stmdbmi	lr, {r4, r6, r8, lr}^
    93a0:	73253a43 	teqvc	r5, #274432	; 0x43000
    93a4:	3a73253a 	bcc	1cd2894 <__bss_end__+0x1cc900c>
    93a8:	303a6425 	eorscc	r6, sl, r5, lsr #8
    93ac:	0000000a 	andeq	r0, r0, sl
    93b0:	6362696c 	cmnvs	r2, #108, 18	; 0x1b0000
    93b4:	2d61762f 	stclcs	6, cr7, [r1, #-188]!	; 0xffffff44
    93b8:	6e697270 	mcrvs	2, 3, r7, cr9, cr0, {3}
    93bc:	632e6b74 	teqvs	lr, #116, 22	; 0x1d000
    93c0:	00000000 	andeq	r0, r0, r0
    93c4:	33323130 	teqcc	r2, #48, 2
    93c8:	37363534 			; <UNDEFINED> instruction: 0x37363534
    93cc:	00003938 	andeq	r3, r0, r8, lsr r9
    93d0:	33323130 	teqcc	r2, #48, 2
    93d4:	37363534 			; <UNDEFINED> instruction: 0x37363534
    93d8:	62613938 	rsbvs	r3, r1, #56, 18	; 0xe0000
    93dc:	66656463 	strbtvs	r6, [r5], -r3, ror #8
    93e0:	00000000 	andeq	r0, r0, r0
    93e4:	00003130 	andeq	r3, r0, r0, lsr r1
    93e8:	494e4150 	stmdbmi	lr, {r4, r6, r8, lr}^
    93ec:	73253a43 	teqvc	r5, #274432	; 0x43000
    93f0:	3a73253a 	bcc	1cd28e0 <__bss_end__+0x1cc9058>
    93f4:	703a6425 	eorsvc	r6, sl, r5, lsr #8
    93f8:	5f637475 	svcpl	0x00637475
    93fc:	000a7066 	andeq	r7, sl, r6, rrx
    9400:	494e4150 	stmdbmi	lr, {r4, r6, r8, lr}^
    9404:	73253a43 	teqvc	r5, #274432	; 0x43000
    9408:	3a73253a 	bcc	1cd28f8 <__bss_end__+0x1cc9070>
    940c:	773a6425 	ldrvc	r6, [sl, -r5, lsr #8]!
    9410:	68746469 	ldmdavs	r4!, {r0, r3, r5, r6, sl, sp, lr}^
    9414:	33203c20 	teqcc	r0, #32, 24	; 0x2000
    9418:	00000a32 	andeq	r0, r0, r2, lsr sl
    941c:	494e4150 	stmdbmi	lr, {r4, r6, r8, lr}^
    9420:	73253a43 	teqvc	r5, #274432	; 0x43000
    9424:	3a73253a 	bcc	1cd2914 <__bss_end__+0x1cc908c>
    9428:	663a6425 	ldrtvs	r6, [sl], -r5, lsr #8
    942c:	74616f6c 	strbtvc	r6, [r1], #-3948	; 0xf6c
    9430:	746f6e20 	strbtvc	r6, [pc], #-3616	; 9438 <__FUNCTION__.4209+0xa8>
    9434:	616e6520 	cmnvs	lr, r0, lsr #10
    9438:	64656c62 	strbtvs	r6, [r5], #-3170	; 0xc62
    943c:	0a212121 	beq	8518c8 <__bss_end__+0x848040>
    9440:	00000000 	andeq	r0, r0, r0
    9444:	494e4150 	stmdbmi	lr, {r4, r6, r8, lr}^
    9448:	73253a43 	teqvc	r5, #274432	; 0x43000
    944c:	3a73253a 	bcc	1cd293c <__bss_end__+0x1cc90b4>
    9450:	703a6425 	eorsvc	r6, sl, r5, lsr #8
    9454:	746e6972 	strbtvc	r6, [lr], #-2418	; 0x972
    9458:	6e203a6b 	vnmulvs.f32	s6, s0, s23
    945c:	6820746f 	stmdavs	r0!, {r0, r1, r2, r3, r5, r6, sl, ip, sp, lr}
    9460:	6c646e61 	stclvs	14, cr6, [r4], #-388	; 0xfffffe7c
    9464:	20676e69 	rsbcs	r6, r7, r9, ror #28
    9468:	63657073 	cmnvs	r5, #115	; 0x73
    946c:	65696669 	strbvs	r6, [r9, #-1641]!	; 0x669
    9470:	25272072 	strcs	r2, [r7, #-114]!	; 0x72
    9474:	0a0a2763 	beq	293208 <__bss_end__+0x289980>
    9478:	00000000 	andeq	r0, r0, r0
    947c:	454e4f44 	strbmi	r4, [lr, #-3908]	; 0xf44
    9480:	0a212121 	beq	85190c <__bss_end__+0x848084>
    9484:	00000000 	andeq	r0, r0, r0

Disassembly of section .bss:

00009488 <__bss_start__>:
	...

Disassembly of section .ARM.attributes:

00000000 <.ARM.attributes>:
   0:	00002a41 	andeq	r2, r0, r1, asr #20
   4:	61656100 	cmnvs	r5, r0, lsl #2
   8:	01006962 	tsteq	r0, r2, ror #18
   c:	00000020 	andeq	r0, r0, r0, lsr #32
  10:	4b5a3605 	blmi	168d82c <__bss_end__+0x1683fa4>
  14:	08070600 	stmdaeq	r7, {r9, sl}
  18:	12010901 	andne	r0, r1, #16384	; 0x4000
  1c:	15011404 	strne	r1, [r1, #-1028]	; 0x404
  20:	18031701 	stmdane	r3, {r0, r8, r9, sl, ip}
  24:	22011a01 	andcs	r1, r1, #4096	; 0x1000
  28:	Address 0x0000000000000028 is out of bounds.


Disassembly of section .comment:

00000000 <.comment>:
   0:	3a434347 	bcc	10d0d24 <__bss_end__+0x10c749c>
   4:	4e472820 	cdpmi	8, 4, cr2, cr7, cr0, {1}
   8:	34202955 	strtcc	r2, [r0], #-2389	; 0x955
   c:	332e382e 	teqcc	lr, #3014656	; 0x2e0000
	...

Disassembly of section .debug_info:

00000000 <.debug_info>:
       0:	0000034a 	andeq	r0, r0, sl, asr #6
       4:	00000004 	andeq	r0, r0, r4
       8:	01040000 	mrseq	r0, (UNDEF: 4)
       c:	00000072 	andeq	r0, r0, r2, ror r0
      10:	00018201 	andeq	r8, r1, r1, lsl #4
      14:	00001800 	andeq	r1, r0, r0, lsl #16
      18:	00801000 	addeq	r1, r0, r0
      1c:	00012400 	andeq	r2, r1, r0, lsl #8
      20:	00000000 	andeq	r0, r0, r0
      24:	05040200 	streq	r0, [r4, #-512]	; 0x200
      28:	00746e69 	rsbseq	r6, r4, r9, ror #28
      2c:	3b070403 	blcc	1c1040 <__bss_end__+0x1b77b8>
      30:	03000001 	movweq	r0, #1
      34:	00eb0601 	rsceq	r0, fp, r1, lsl #12
      38:	02030000 	andeq	r0, r3, #0
      3c:	00016f05 	andeq	r6, r1, r5, lsl #30
      40:	05040300 	streq	r0, [r4, #-768]	; 0x300
      44:	00000166 	andeq	r0, r0, r6, ror #2
      48:	61050803 	tstvs	r5, r3, lsl #16
      4c:	03000001 	movweq	r0, #1
      50:	00e90801 	rsceq	r0, r9, r1, lsl #16
      54:	02030000 	andeq	r0, r3, #0
      58:	00010407 	andeq	r0, r1, r7, lsl #8
      5c:	01790400 	cmneq	r9, r0, lsl #8
      60:	34040000 	strcc	r0, [r4], #-0
      64:	00000068 	andeq	r0, r0, r8, rrx
      68:	36070403 	strcc	r0, [r7], -r3, lsl #8
      6c:	03000001 	movweq	r0, #1
      70:	01310708 	teqeq	r1, r8, lsl #14
      74:	04030000 	streq	r0, [r3], #-0
      78:	00015807 	andeq	r5, r1, r7, lsl #16
      7c:	08010300 	stmdaeq	r1, {r8, r9}
      80:	000000f2 	strdeq	r0, [r0], -r2
      84:	008a0405 	addeq	r0, sl, r5, lsl #8
      88:	7d060000 	stcvc	0, cr0, [r6, #-0]
      8c:	07000000 	streq	r0, [r0, -r0]
      90:	0000007d 	andeq	r0, r0, sp, ror r0
      94:	0000009f 	muleq	r0, pc, r0	; <UNPREDICTABLE>
      98:	00007608 	andeq	r7, r0, r8, lsl #12
      9c:	09000700 	stmdbeq	r0, {r8, r9, sl}
      a0:	000002fd 	strdeq	r0, [r0], -sp
      a4:	80100b01 	andshi	r0, r0, r1, lsl #22
      a8:	00280000 	eoreq	r0, r8, r0
      ac:	9c010000 	stcls	0, cr0, [r1], {-0}
      b0:	00000109 	andeq	r0, r0, r9, lsl #2
      b4:	0063700a 	rsbeq	r7, r3, sl
      b8:	002c0b01 	eoreq	r0, ip, r1, lsl #22
      bc:	00000000 	andeq	r0, r0, r0
      c0:	240b0000 	strcs	r0, [fp], #-0
      c4:	19000001 	stmdbne	r0, {r0}
      c8:	05000001 	streq	r0, [r0, #-1]
      cc:	0090d003 	addseq	sp, r0, r3
      d0:	80280c00 	eorhi	r0, r8, r0, lsl #24
      d4:	03020000 	movweq	r0, #8192	; 0x2000
      d8:	00ff0000 	rscseq	r0, pc, r0
      dc:	010d0000 	mrseq	r0, (UNDEF: 13)
      e0:	0d3c0153 	ldfeqs	f0, [ip, #-332]!	; 0xfffffeb4
      e4:	03055201 	movweq	r5, #20993	; 0x5201
      e8:	000090d0 	ldrdeq	r9, [r0], -r0
      ec:	0551010d 	ldrbeq	r0, [r1, #-269]	; 0x10d
      f0:	00911403 	addseq	r1, r1, r3, lsl #8
      f4:	50010d00 	andpl	r0, r1, r0, lsl #26
      f8:	90ec0305 	rscls	r0, ip, r5, lsl #6
      fc:	0e000000 	cdpeq	0, 0, cr0, cr0, cr0, {0}
     100:	0000802c 	andeq	r8, r0, ip, lsr #32
     104:	00000318 	andeq	r0, r0, r8, lsl r3
     108:	007d0700 	rsbseq	r0, sp, r0, lsl #14
     10c:	01190000 	tsteq	r9, r0
     110:	76080000 	strvc	r0, [r8], -r0
     114:	10000000 	andne	r0, r0, r0
     118:	01090600 	tsteq	r9, r0, lsl #12
     11c:	090f0000 	stmdbeq	pc, {}	; <UNPREDICTABLE>
     120:	01000000 	mrseq	r0, (UNDEF: 0)
     124:	00002512 	andeq	r2, r0, r2, lsl r5
     128:	00803800 	addeq	r3, r0, r0, lsl #16
     12c:	00004000 	andeq	r4, r0, r0
     130:	9f9c0100 	svcls	0x009c0100
     134:	0a000001 	beq	140 <_start-0x7ec0>
     138:	01006370 	tsteq	r0, r0, ror r3
     13c:	00002c12 	andeq	r2, r0, r2, lsl ip
     140:	00002100 	andeq	r2, r0, r0, lsl #2
     144:	30720a00 	rsbscc	r0, r2, r0, lsl #20
     148:	5d120100 	ldfpls	f0, [r2, #-0]
     14c:	5b000000 	blpl	154 <_start-0x7eac>
     150:	10000000 	andne	r0, r0, r0
     154:	00000117 	andeq	r0, r0, r7, lsl r1
     158:	005d1301 	subseq	r1, sp, r1, lsl #6
     15c:	1c110000 	ldcne	0, cr0, [r1], {-0}
     160:	01000001 	tsteq	r0, r1
     164:	00005d13 	andeq	r5, r0, r3, lsl sp
     168:	00009500 	andeq	r9, r0, r0, lsl #10
     16c:	80540c00 	subshi	r0, r4, r0, lsl #24
     170:	03020000 	movweq	r0, #8192	; 0x2000
     174:	018b0000 	orreq	r0, fp, r0
     178:	010d0000 	mrseq	r0, (UNDEF: 13)
     17c:	01f30351 	mvnseq	r0, r1, asr r3
     180:	50010d51 	andpl	r0, r1, r1, asr sp
     184:	91200305 	teqls	r0, r5, lsl #6
     188:	12000000 	andne	r0, r0, #0
     18c:	00008068 	andeq	r8, r0, r8, rrx
     190:	00000302 	andeq	r0, r0, r2, lsl #6
     194:	0550010d 	ldrbeq	r0, [r0, #-269]	; 0x10d
     198:	00913003 	addseq	r3, r1, r3
     19c:	13000000 	movwne	r0, #0
     1a0:	000000d7 	ldrdeq	r0, [r0], -r7
     1a4:	80782201 	rsbshi	r2, r8, r1, lsl #4
     1a8:	00bc0000 	adcseq	r0, ip, r0
     1ac:	9c010000 	stcls	0, cr0, [r1], {-0}
     1b0:	000002fd 	strdeq	r0, [r0], -sp
     1b4:	73657214 	cmnvc	r5, #20, 4	; 0x40000001
     1b8:	25290100 	strcs	r0, [r9, #-256]!	; 0x100
     1bc:	b3000000 	movwlt	r0, #0
     1c0:	0b000000 	bleq	1c8 <_start-0x7e38>
     1c4:	00000124 	andeq	r0, r0, r4, lsr #2
     1c8:	000002fd 	strdeq	r0, [r0], -sp
     1cc:	90e40305 	rscls	r0, r4, r5, lsl #6
     1d0:	800e0000 	andhi	r0, lr, r0
     1d4:	1f000080 	svcne	0x00000080
     1d8:	0c000003 	stceq	0, cr0, [r0], {3}
     1dc:	00008088 	andeq	r8, r0, r8, lsl #1
     1e0:	00000302 	andeq	r0, r0, r2, lsl #6
     1e4:	000001f2 	strdeq	r0, [r0], -r2
     1e8:	0550010d 	ldrbeq	r0, [r0, #-269]	; 0x10d
     1ec:	00914c03 	addseq	r4, r1, r3, lsl #24
     1f0:	8c0e0000 	stchi	0, cr0, [lr], {-0}
     1f4:	26000080 	strcs	r0, [r0], -r0, lsl #1
     1f8:	0c000003 	stceq	0, cr0, [r0], {3}
     1fc:	00008094 	muleq	r0, r4, r0
     200:	00000302 	andeq	r0, r0, r2, lsl #6
     204:	00000212 	andeq	r0, r0, r2, lsl r2
     208:	0550010d 	ldrbeq	r0, [r0, #-269]	; 0x10d
     20c:	00916803 	addseq	r6, r1, r3, lsl #16
     210:	9c0c0000 	stcls	0, cr0, [ip], {-0}
     214:	2d000080 	stccs	0, cr0, [r0, #-512]	; 0xfffffe00
     218:	29000003 	stmdbcs	r0, {r0, r1}
     21c:	0d000002 	stceq	0, cr0, [r0, #-8]
     220:	03055001 	movweq	r5, #20481	; 0x5001
     224:	00009184 	andeq	r9, r0, r4, lsl #3
     228:	80ac0c00 	adchi	r0, ip, r0, lsl #24
     22c:	03020000 	movweq	r0, #8192	; 0x2000
     230:	02460000 	subeq	r0, r6, #0
     234:	010d0000 	mrseq	r0, (UNDEF: 13)
     238:	00740251 	rsbseq	r0, r4, r1, asr r2
     23c:	0550010d 	ldrbeq	r0, [r0, #-269]	; 0x10d
     240:	00919003 	addseq	r9, r1, r3
     244:	c80c0000 	stmdagt	ip, {}	; <UNPREDICTABLE>
     248:	02000080 	andeq	r0, r0, #128	; 0x80
     24c:	75000003 	strvc	r0, [r0, #-3]
     250:	0d000002 	stceq	0, cr0, [r0, #-8]
     254:	08025301 	stmdaeq	r2, {r0, r8, r9, ip, lr}
     258:	52010d2b 	andpl	r0, r1, #2752	; 0xac0
     25c:	90e40305 	rscls	r0, r4, r5, lsl #6
     260:	010d0000 	mrseq	r0, (UNDEF: 13)
     264:	14030551 	strne	r0, [r3], #-1361	; 0x551
     268:	0d000091 	stceq	0, cr0, [r0, #-580]	; 0xfffffdbc
     26c:	03055001 	movweq	r5, #20481	; 0x5001
     270:	000091b4 			; <UNDEFINED> instruction: 0x000091b4
     274:	80cc0e00 	sbchi	r0, ip, r0, lsl #28
     278:	03180000 	tsteq	r8, #0
     27c:	d40c0000 	strle	r0, [ip], #-0
     280:	02000080 	andeq	r0, r0, #128	; 0x80
     284:	95000003 	strls	r0, [r0, #-3]
     288:	0d000002 	stceq	0, cr0, [r0, #-8]
     28c:	03055001 	movweq	r5, #20481	; 0x5001
     290:	000091d0 	ldrdeq	r9, [r0], -r0
     294:	80d80e00 	sbcshi	r0, r8, r0, lsl #28
     298:	03420000 	movteq	r0, #8192	; 0x2000
     29c:	e80c0000 	stmda	ip, {}	; <UNPREDICTABLE>
     2a0:	02000080 	andeq	r0, r0, #128	; 0x80
     2a4:	bb000003 	bllt	2b8 <_start-0x7d48>
     2a8:	0d000002 	stceq	0, cr0, [r0, #-8]
     2ac:	74025101 	strvc	r5, [r2], #-257	; 0x101
     2b0:	50010d00 	andpl	r0, r1, r0, lsl #26
     2b4:	92000305 	andls	r0, r0, #335544320	; 0x14000000
     2b8:	0c000000 	stceq	0, cr0, [r0], {-0}
     2bc:	00008104 	andeq	r8, r0, r4, lsl #2
     2c0:	00000302 	andeq	r0, r0, r2, lsl #6
     2c4:	000002ea 	andeq	r0, r0, sl, ror #5
     2c8:	0253010d 	subseq	r0, r3, #1073741827	; 0x40000003
     2cc:	010d3008 	tsteq	sp, r8
     2d0:	e4030552 	str	r0, [r3], #-1362	; 0x552
     2d4:	0d000090 	stceq	0, cr0, [r0, #-576]	; 0xfffffdc0
     2d8:	03055101 	movweq	r5, #20737	; 0x5101
     2dc:	00009114 	andeq	r9, r0, r4, lsl r1
     2e0:	0550010d 	ldrbeq	r0, [r0, #-269]	; 0x10d
     2e4:	00922403 	addseq	r2, r2, r3, lsl #8
     2e8:	080e0000 	stmdaeq	lr, {}	; <UNPREDICTABLE>
     2ec:	18000081 	stmdane	r0, {r0, r7}
     2f0:	0e000003 	cdpeq	0, 0, cr0, cr0, cr3, {0}
     2f4:	0000810c 	andeq	r8, r0, ip, lsl #2
     2f8:	00000318 	andeq	r0, r0, r8, lsl r3
     2fc:	008f0600 	addeq	r0, pc, r0, lsl #12
     300:	71150000 	tstvc	r5, r0
     304:	02000003 	andeq	r0, r0, #3
     308:	00002527 	andeq	r2, r0, r7, lsr #10
     30c:	00031800 	andeq	r1, r3, r0, lsl #16
     310:	00841600 	addeq	r1, r4, r0, lsl #12
     314:	00170000 	andseq	r0, r7, r0
     318:	0000f718 	andeq	pc, r0, r8, lsl r7	; <UNPREDICTABLE>
     31c:	18630200 	stmdane	r3!, {r9}^
     320:	000000df 	ldrdeq	r0, [r0], -pc	; <UNPREDICTABLE>
     324:	00183802 	andseq	r3, r8, r2, lsl #16
     328:	03000000 	movweq	r0, #0
     32c:	00c91527 	sbceq	r1, r9, r7, lsr #10
     330:	07010000 	streq	r0, [r1, -r0]
     334:	00000025 	andeq	r0, r0, r5, lsr #32
     338:	00000342 	andeq	r0, r0, r2, asr #6
     33c:	00008416 	andeq	r8, r0, r6, lsl r4
     340:	48190000 	ldmdami	r9, {}	; <UNPREDICTABLE>
     344:	01000001 	tsteq	r0, r1
     348:	00002508 	andeq	r2, r0, r8, lsl #10
     34c:	05560000 	ldrbeq	r0, [r6, #-0]
     350:	00040000 	andeq	r0, r4, r0
     354:	00000162 	andeq	r0, r0, r2, ror #2
     358:	00720104 	rsbseq	r0, r2, r4, lsl #2
     35c:	1b010000 	blne	40364 <__bss_end__+0x36adc>
     360:	b5000002 	strlt	r0, [r0, #-2]
     364:	0c000001 	stceq	0, cr0, [r0], {1}
     368:	d0000082 	andle	r0, r0, r2, lsl #1
     36c:	2d000001 	stccs	0, cr0, [r0, #-4]
     370:	02000001 	andeq	r0, r0, #1
     374:	6e690504 	cdpvs	5, 6, cr0, cr9, cr4, {0}
     378:	04030074 	streq	r0, [r3], #-116	; 0x74
     37c:	00013b07 	andeq	r3, r1, r7, lsl #22
     380:	06010300 	streq	r0, [r1], -r0, lsl #6
     384:	000000eb 	andeq	r0, r0, fp, ror #1
     388:	6f050203 	svcvs	0x00050203
     38c:	03000001 	movweq	r0, #1
     390:	01660504 	cmneq	r6, r4, lsl #10
     394:	08030000 	stmdaeq	r3, {}	; <UNPREDICTABLE>
     398:	00016105 	andeq	r6, r1, r5, lsl #2
     39c:	08010300 	stmdaeq	r1, {r8, r9}
     3a0:	000000e9 	andeq	r0, r0, r9, ror #1
     3a4:	04070203 	streq	r0, [r7], #-515	; 0x203
     3a8:	03000001 	movweq	r0, #1
     3ac:	01360704 	teqeq	r6, r4, lsl #14
     3b0:	08030000 	stmdaeq	r3, {}	; <UNPREDICTABLE>
     3b4:	00013107 	andeq	r3, r1, r7, lsl #2
     3b8:	07040300 	streq	r0, [r4, -r0, lsl #6]
     3bc:	00000158 	andeq	r0, r0, r8, asr r1
     3c0:	f2080103 	vrhadd.s8	d0, d8, d3
     3c4:	04000000 	streq	r0, [r0], #-0
     3c8:	00007f04 	andeq	r7, r0, r4, lsl #30
     3cc:	00720500 	rsbseq	r0, r2, r0, lsl #10
     3d0:	72060000 	andvc	r0, r6, #0
     3d4:	94000000 	strls	r0, [r0], #-0
     3d8:	07000000 	streq	r0, [r0, -r0]
     3dc:	0000006b 	andeq	r0, r0, fp, rrx
     3e0:	04080019 	streq	r0, [r8], #-25
     3e4:	010b1403 	tsteq	fp, r3, lsl #8
     3e8:	48090000 	stmdami	r9, {}	; <UNPREDICTABLE>
     3ec:	80000003 	andhi	r0, r0, r3
     3f0:	028082e4 	addeq	r8, r0, #228, 4	; 0x4000000e
     3f4:	00023b09 	andeq	r3, r2, r9, lsl #22
     3f8:	82e48000 	rschi	r8, r4, #0
     3fc:	bc090280 	sfmlt	f0, 4, [r9], {128}	; 0x80
     400:	84000002 	strhi	r0, [r0], #-2
     404:	028082e4 	addeq	r8, r0, #228, 4	; 0x4000000e
     408:	0002ae09 	andeq	sl, r2, r9, lsl #28
     40c:	82e48800 	rschi	r8, r4, #0, 16
     410:	0f090280 	svceq	0x00090280
     414:	8c000002 	stchi	0, cr0, [r0], {2}
     418:	028082e4 	addeq	r8, r0, #228, 4	; 0x4000000e
     41c:	00025f09 	andeq	r5, r2, r9, lsl #30
     420:	82e49000 	rschi	r9, r4, #0
     424:	6d090280 	sfmvs	f0, 4, [r9, #-512]	; 0xfffffe00
     428:	94000002 	strls	r0, [r0], #-2
     42c:	028082e4 	addeq	r8, r0, #228, 4	; 0x4000000e
     430:	00024d09 	andeq	r4, r2, r9, lsl #26
     434:	82e49800 	rschi	r9, r4, #0, 16
     438:	14090280 	strne	r0, [r9], #-640	; 0x280
     43c:	9c000003 	stcls	0, cr0, [r0], {3}
     440:	028082e4 	addeq	r8, r0, #228, 4	; 0x4000000e
     444:	00032309 	andeq	r2, r3, r9, lsl #6
     448:	82e4a000 	rschi	sl, r4, #0
     44c:	a2090280 	andge	r0, r9, #128, 4
     450:	a4000001 	strge	r0, [r0], #-1
     454:	028082e4 	addeq	r8, r0, #228, 4	; 0x4000000e
     458:	00000a00 	andeq	r0, r0, r0, lsl #20
     45c:	05010000 	streq	r0, [r1, #-0]
     460:	0000820c 	andeq	r8, r0, ip, lsl #4
     464:	00000068 	andeq	r0, r0, r8, rrx
     468:	01b79c01 			; <UNDEFINED> instruction: 0x01b79c01
     46c:	2a0b0000 	bcs	2c0474 <__bss_end__+0x2b6bec>
     470:	01000002 	tsteq	r0, r2
     474:	00002c11 	andeq	r2, r0, r1, lsl ip
     478:	027b0b00 	rsbseq	r0, fp, #0, 22
     47c:	12010000 	andne	r0, r1, #0
     480:	0000002c 	andeq	r0, r0, ip, lsr #32
     484:	7473640c 	ldrbtvc	r6, [r3], #-1036	; 0x40c
     488:	b7160100 	ldrlt	r0, [r6, -r0, lsl #2]
     48c:	00000001 	andeq	r0, r0, r1
     490:	6372730d 	cmnvs	r2, #872415232	; 0x34000000
     494:	b7170100 	ldrlt	r0, [r7, -r0, lsl #2]
     498:	0e000001 	cdpeq	0, 0, cr0, cr0, cr1, {0}
     49c:	1801006e 	stmdane	r1, {r1, r2, r3, r5, r6}
     4a0:	0000002c 	andeq	r0, r0, ip, lsr #32
     4a4:	3c0f5001 	stccc	0, cr5, [pc], {1}
     4a8:	24000082 	strcs	r0, [r0], #-130	; 0x82
     4ac:	73000000 	movwvc	r0, #0
     4b0:	10000001 	andne	r0, r0, r1
     4b4:	19010069 	stmdbne	r1, {r0, r3, r5, r6}
     4b8:	00000025 	andeq	r0, r0, r5, lsr #32
     4bc:	000000e7 	andeq	r0, r0, r7, ror #1
     4c0:	821c1100 	andshi	r1, ip, #0, 2
     4c4:	051f0000 	ldreq	r0, [pc, #-0]	; 4cc <_start-0x7b34>
     4c8:	01900000 	orrseq	r0, r0, r0
     4cc:	01120000 	tsteq	r2, r0
     4d0:	ff090251 			; <UNDEFINED> instruction: 0xff090251
     4d4:	05500112 	ldrbeq	r0, [r0, #-274]	; 0x112
     4d8:	00b21c0c 	adcseq	r1, r2, ip, lsl #24
     4dc:	28110020 	ldmdacs	r1, {r5}
     4e0:	1f000082 	svcne	0x00000082
     4e4:	ad000005 	stcge	0, cr0, [r0, #-20]	; 0xffffffec
     4e8:	12000001 	andne	r0, r0, #1
     4ec:	09025101 	stmdbeq	r2, {r0, r8, ip, lr}
     4f0:	500112ff 	strdpl	r1, [r1], -pc	; <UNPREDICTABLE>
     4f4:	b2200c05 	eorlt	r0, r0, #1280	; 0x500
     4f8:	13002000 	movwne	r2, #0
     4fc:	0000822c 	andeq	r8, r0, ip, lsr #4
     500:	00000535 	andeq	r0, r0, r5, lsr r5
     504:	2c040400 	cfstrscs	mvf0, [r4], {-0}
     508:	0a000000 	beq	510 <_start-0x7af0>
     50c:	00000332 	andeq	r0, r0, r2, lsr r3
     510:	82741f01 	rsbshi	r1, r4, #1, 30
     514:	003c0000 	eorseq	r0, ip, r0
     518:	9c010000 	stcls	0, cr0, [r1], {-0}
     51c:	0000023a 	andeq	r0, r0, sl, lsr r2
     520:	00637014 	rsbeq	r7, r3, r4, lsl r0
     524:	002c1f01 	eoreq	r1, ip, r1, lsl #30
     528:	01060000 	mrseq	r0, (UNDEF: 6)
     52c:	24150000 	ldrcs	r0, [r5], #-0
     530:	4a000001 	bmi	53c <_start-0x7ac4>
     534:	05000002 	streq	r0, [r0, #-2]
     538:	00924003 	addseq	r4, r2, r3
     53c:	829c1100 	addshi	r1, ip, #0, 2
     540:	053c0000 	ldreq	r0, [ip, #-0]!
     544:	02300000 	eorseq	r0, r0, #0
     548:	01120000 	tsteq	r2, r0
     54c:	20080253 	andcs	r0, r8, r3, asr r2
     550:	05520112 	ldrbeq	r0, [r2, #-274]	; 0x112
     554:	00924003 	addseq	r4, r2, r3
     558:	51011200 	mrspl	r1, R9_usr
     55c:	930c0305 	movwls	r0, #49925	; 0xc305
     560:	01120000 	tsteq	r2, r0
     564:	d0030550 	andle	r0, r3, r0, asr r5
     568:	12000092 	andne	r0, r0, #146	; 0x92
     56c:	03047d02 	movweq	r7, #19714	; 0x4d02
     570:	125001f3 	subsne	r0, r0, #-1073741764	; 0xc000003c
     574:	05007d02 	streq	r7, [r0, #-3330]	; 0xd02
     578:	00931c03 	addseq	r1, r3, r3, lsl #24
     57c:	a0130000 	andsge	r0, r3, r0
     580:	52000082 	andpl	r0, r0, #130	; 0x82
     584:	00000005 	andeq	r0, r0, r5
     588:	00007206 	andeq	r7, r0, r6, lsl #4
     58c:	00024a00 	andeq	r4, r2, r0, lsl #20
     590:	006b0700 	rsbeq	r0, fp, r0, lsl #14
     594:	00150000 	andseq	r0, r5, r0
     598:	00023a05 	andeq	r3, r2, r5, lsl #20
     59c:	02f40a00 	rscseq	r0, r4, #0, 20
     5a0:	24010000 	strcs	r0, [r1], #-0
     5a4:	000082b0 			; <UNDEFINED> instruction: 0x000082b0
     5a8:	0000003c 	andeq	r0, r0, ip, lsr r0
     5ac:	02cc9c01 	sbceq	r9, ip, #256	; 0x100
     5b0:	70140000 	andsvc	r0, r4, r0
     5b4:	24010063 	strcs	r0, [r1], #-99	; 0x63
     5b8:	0000002c 	andeq	r0, r0, ip, lsr #32
     5bc:	00000133 	andeq	r0, r0, r3, lsr r1
     5c0:	00012415 	andeq	r2, r1, r5, lsl r4
     5c4:	0002cc00 	andeq	ip, r2, r0, lsl #24
     5c8:	58030500 	stmdapl	r3, {r8, sl}
     5cc:	11000092 	swpne	r0, r2, [r0]	; <UNPREDICTABLE>
     5d0:	000082d8 	ldrdeq	r8, [r0], -r8	; <UNPREDICTABLE>
     5d4:	0000053c 	andeq	r0, r0, ip, lsr r5
     5d8:	000002c2 	andeq	r0, r0, r2, asr #5
     5dc:	02530112 	subseq	r0, r3, #-2147483644	; 0x80000004
     5e0:	01122508 	tsteq	r2, r8, lsl #10
     5e4:	58030552 	stmdapl	r3, {r1, r4, r6, r8, sl}
     5e8:	12000092 	andne	r0, r0, #146	; 0x92
     5ec:	03055101 	movweq	r5, #20737	; 0x5101
     5f0:	0000930c 	andeq	r9, r0, ip, lsl #6
     5f4:	05500112 	ldrbeq	r0, [r0, #-274]	; 0x112
     5f8:	0092d003 	addseq	sp, r2, r3
     5fc:	7d021200 	sfmvc	f1, 4, [r2, #-0]
     600:	01f30304 	mvnseq	r0, r4, lsl #6
     604:	7d021250 	sfmvc	f1, 4, [r2, #-320]	; 0xfffffec0
     608:	24030500 	strcs	r0, [r3], #-1280	; 0x500
     60c:	00000093 	muleq	r0, r3, r0
     610:	0082dc13 	addeq	sp, r2, r3, lsl ip
     614:	00055200 	andeq	r5, r5, r0, lsl #4
     618:	84050000 	strhi	r0, [r5], #-0
     61c:	0a000000 	beq	624 <_start-0x79dc>
     620:	000002e7 	andeq	r0, r0, r7, ror #5
     624:	82ec2701 	rschi	r2, ip, #262144	; 0x40000
     628:	003c0000 	eorseq	r0, ip, r0
     62c:	9c010000 	stcls	0, cr0, [r1], {-0}
     630:	0000034e 	andeq	r0, r0, lr, asr #6
     634:	00637014 	rsbeq	r7, r3, r4, lsl r0
     638:	002c2701 	eoreq	r2, ip, r1, lsl #14
     63c:	01600000 	cmneq	r0, r0
     640:	24150000 	ldrcs	r0, [r5], #-0
     644:	5e000001 	cdppl	0, 0, cr0, cr0, cr1, {0}
     648:	05000003 	streq	r0, [r0, #-3]
     64c:	00927403 	addseq	r7, r2, r3, lsl #8
     650:	83141100 	tsthi	r4, #0, 2
     654:	053c0000 	ldreq	r0, [ip, #-0]!
     658:	03440000 	movteq	r0, #16384	; 0x4000
     65c:	01120000 	tsteq	r2, r0
     660:	28080253 	stmdacs	r8, {r0, r1, r4, r6, r9}
     664:	05520112 	ldrbeq	r0, [r2, #-274]	; 0x112
     668:	00927403 	addseq	r7, r2, r3, lsl #8
     66c:	51011200 	mrspl	r1, R9_usr
     670:	930c0305 	movwls	r0, #49925	; 0xc305
     674:	01120000 	tsteq	r2, r0
     678:	d0030550 	andle	r0, r3, r0, asr r5
     67c:	12000092 	andne	r0, r0, #146	; 0x92
     680:	03047d02 	movweq	r7, #19714	; 0x4d02
     684:	125001f3 	subsne	r0, r0, #-1073741764	; 0xc000003c
     688:	05007d02 	streq	r7, [r0, #-3330]	; 0xd02
     68c:	00933403 	addseq	r3, r3, r3, lsl #8
     690:	18130000 	ldmdane	r3, {}	; <UNPREDICTABLE>
     694:	52000083 	andpl	r0, r0, #131	; 0x83
     698:	00000005 	andeq	r0, r0, r5
     69c:	00007206 	andeq	r7, r0, r6, lsl #4
     6a0:	00035e00 	andeq	r5, r3, r0, lsl #28
     6a4:	006b0700 	rsbeq	r0, fp, r0, lsl #14
     6a8:	000c0000 	andeq	r0, ip, r0
     6ac:	00034e05 	andeq	r4, r3, r5, lsl #28
     6b0:	02ca0a00 	sbceq	r0, sl, #0, 20
     6b4:	2a010000 	bcs	406bc <__bss_end__+0x36e34>
     6b8:	00008328 	andeq	r8, r0, r8, lsr #6
     6bc:	0000003c 	andeq	r0, r0, ip, lsr r0
     6c0:	03e09c01 	mvneq	r9, #256	; 0x100
     6c4:	70140000 	andsvc	r0, r4, r0
     6c8:	2a010063 	bcs	4085c <__bss_end__+0x36fd4>
     6cc:	0000002c 	andeq	r0, r0, ip, lsr #32
     6d0:	0000018d 	andeq	r0, r0, sp, lsl #3
     6d4:	00012415 	andeq	r2, r1, r5, lsl r4
     6d8:	0003f000 	andeq	pc, r3, r0
     6dc:	84030500 	strhi	r0, [r3], #-1280	; 0x500
     6e0:	11000092 	swpne	r0, r2, [r0]	; <UNPREDICTABLE>
     6e4:	00008350 	andeq	r8, r0, r0, asr r3
     6e8:	0000053c 	andeq	r0, r0, ip, lsr r5
     6ec:	000003d6 	ldrdeq	r0, [r0], -r6
     6f0:	02530112 	subseq	r0, r3, #-2147483644	; 0x80000004
     6f4:	01122b08 	tsteq	r2, r8, lsl #22
     6f8:	84030552 	strhi	r0, [r3], #-1362	; 0x552
     6fc:	12000092 	andne	r0, r0, #146	; 0x92
     700:	03055101 	movweq	r5, #20737	; 0x5101
     704:	0000930c 	andeq	r9, r0, ip, lsl #6
     708:	05500112 	ldrbeq	r0, [r0, #-274]	; 0x112
     70c:	0092d003 	addseq	sp, r2, r3
     710:	7d021200 	sfmvc	f1, 4, [r2, #-0]
     714:	01f30304 	mvnseq	r0, r4, lsl #6
     718:	7d021250 	sfmvc	f1, 4, [r2, #-320]	; 0xfffffec0
     71c:	44030500 	strmi	r0, [r3], #-1280	; 0x500
     720:	00000093 	muleq	r0, r3, r0
     724:	00835413 	addeq	r5, r3, r3, lsl r4
     728:	00055200 	andeq	r5, r5, r0, lsl #4
     72c:	72060000 	andvc	r0, r6, #0
     730:	f0000000 			; <UNDEFINED> instruction: 0xf0000000
     734:	07000003 	streq	r0, [r0, -r3]
     738:	0000006b 	andeq	r0, r0, fp, rrx
     73c:	e005001c 	and	r0, r5, ip, lsl r0
     740:	0a000003 	beq	754 <_start-0x78ac>
     744:	0000018c 	andeq	r0, r0, ip, lsl #3
     748:	83642d01 	cmnhi	r4, #1, 26	; 0x40
     74c:	003c0000 	eorseq	r0, ip, r0
     750:	9c010000 	stcls	0, cr0, [r1], {-0}
     754:	00000472 	andeq	r0, r0, r2, ror r4
     758:	00637014 	rsbeq	r7, r3, r4, lsl r0
     75c:	002c2d01 	eoreq	r2, ip, r1, lsl #26
     760:	01ba0000 			; <UNDEFINED> instruction: 0x01ba0000
     764:	24150000 	ldrcs	r0, [r5], #-0
     768:	72000001 	andvc	r0, r0, #1
     76c:	05000004 	streq	r0, [r0, #-4]
     770:	0092a403 	addseq	sl, r2, r3, lsl #8
     774:	838c1100 	orrhi	r1, ip, #0, 2
     778:	053c0000 	ldreq	r0, [ip, #-0]!
     77c:	04680000 	strbteq	r0, [r8], #-0
     780:	01120000 	tsteq	r2, r0
     784:	2e080253 	mcrcs	2, 0, r0, cr8, cr3, {2}
     788:	05520112 	ldrbeq	r0, [r2, #-274]	; 0x112
     78c:	0092a403 	addseq	sl, r2, r3, lsl #8
     790:	51011200 	mrspl	r1, R9_usr
     794:	930c0305 	movwls	r0, #49925	; 0xc305
     798:	01120000 	tsteq	r2, r0
     79c:	d0030550 	andle	r0, r3, r0, asr r5
     7a0:	12000092 	andne	r0, r0, #146	; 0x92
     7a4:	03047d02 	movweq	r7, #19714	; 0x4d02
     7a8:	125001f3 	subsne	r0, r0, #-1073741764	; 0xc000003c
     7ac:	05007d02 	streq	r7, [r0, #-3330]	; 0xd02
     7b0:	00935c03 	addseq	r5, r3, r3, lsl #24
     7b4:	90130000 	andsls	r0, r3, r0
     7b8:	52000083 	andpl	r0, r0, #131	; 0x83
     7bc:	00000005 	andeq	r0, r0, r5
     7c0:	00023a05 	andeq	r3, r2, r5, lsl #20
     7c4:	029c0a00 	addseq	r0, ip, #0, 20
     7c8:	30010000 	andcc	r0, r1, r0
     7cc:	000083a0 	andeq	r8, r0, r0, lsr #7
     7d0:	0000003c 	andeq	r0, r0, ip, lsr r0
     7d4:	04f49c01 	ldrbteq	r9, [r4], #3073	; 0xc01
     7d8:	70140000 	andsvc	r0, r4, r0
     7dc:	30010063 	andcc	r0, r1, r3, rrx
     7e0:	0000002c 	andeq	r0, r0, ip, lsr #32
     7e4:	000001e7 	andeq	r0, r0, r7, ror #3
     7e8:	00012415 	andeq	r2, r1, r5, lsl r4
     7ec:	00050400 	andeq	r0, r5, r0, lsl #8
     7f0:	bc030500 	cfstr32lt	mvfx0, [r3], {-0}
     7f4:	11000092 	swpne	r0, r2, [r0]	; <UNPREDICTABLE>
     7f8:	000083c8 	andeq	r8, r0, r8, asr #7
     7fc:	0000053c 	andeq	r0, r0, ip, lsr r5
     800:	000004ea 	andeq	r0, r0, sl, ror #9
     804:	02530112 	subseq	r0, r3, #-2147483644	; 0x80000004
     808:	01123108 	tsteq	r2, r8, lsl #2
     80c:	bc030552 	cfstr32lt	mvfx0, [r3], {82}	; 0x52
     810:	12000092 	andne	r0, r0, #146	; 0x92
     814:	03055101 	movweq	r5, #20737	; 0x5101
     818:	0000930c 	andeq	r9, r0, ip, lsl #6
     81c:	05500112 	ldrbeq	r0, [r0, #-274]	; 0x112
     820:	0092d003 	addseq	sp, r2, r3
     824:	7d021200 	sfmvc	f1, 4, [r2, #-0]
     828:	01f30304 	mvnseq	r0, r4, lsl #6
     82c:	7d021250 	sfmvc	f1, 4, [r2, #-320]	; 0xfffffec0
     830:	6c030500 	cfstr32vs	mvfx0, [r3], {-0}
     834:	00000093 	muleq	r0, r3, r0
     838:	0083cc13 	addeq	ip, r3, r3, lsl ip
     83c:	00055200 	andeq	r5, r5, r0, lsl #4
     840:	72060000 	andvc	r0, r6, #0
     844:	04000000 	streq	r0, [r0], #-0
     848:	07000005 	streq	r0, [r0, -r5]
     84c:	0000006b 	andeq	r0, r0, fp, rrx
     850:	f4050011 	vst4.8	{d0-d3}, [r5 :64], r1
     854:	0b000004 	bleq	86c <_start-0x7794>
     858:	0000022a 	andeq	r0, r0, sl, lsr #4
     85c:	002c1101 	eoreq	r1, ip, r1, lsl #2
     860:	7b0b0000 	blvc	2c0868 <__bss_end__+0x2b6fe0>
     864:	01000002 	tsteq	r0, r2
     868:	00002c12 	andeq	r2, r0, r2, lsl ip
     86c:	030e1600 	movweq	r1, #58880	; 0xe600
     870:	94020000 	strls	r0, [r2], #-0
     874:	00000535 	andeq	r0, r0, r5, lsr r5
     878:	00002c17 	andeq	r2, r0, r7, lsl ip
     87c:	002c1700 	eoreq	r1, ip, r0, lsl #14
     880:	18000000 	stmdane	r0, {}	; <UNPREDICTABLE>
     884:	00000290 	muleq	r0, r0, r2
     888:	71198402 	tstvc	r9, r2, lsl #8
     88c:	02000003 	andeq	r0, r0, #3
     890:	00002527 	andeq	r2, r0, r7, lsr #10
     894:	00055200 	andeq	r5, r5, r0, lsl #4
     898:	00791700 	rsbseq	r1, r9, r0, lsl #14
     89c:	001a0000 	andseq	r0, sl, r0
     8a0:	0000f718 	andeq	pc, r0, r8, lsl r7	; <UNPREDICTABLE>
     8a4:	00630200 	rsbeq	r0, r3, r0, lsl #4
     8a8:	00000191 	muleq	r0, r1, r1
     8ac:	02b90004 	adcseq	r0, r9, #4
     8b0:	01040000 	mrseq	r0, (UNDEF: 4)
     8b4:	00000072 	andeq	r0, r0, r2, ror r0
     8b8:	00036001 	andeq	r6, r3, r1
     8bc:	00038200 	andeq	r8, r3, r0, lsl #4
     8c0:	0083fc00 	addeq	pc, r3, r0, lsl #24
     8c4:	00005800 	andeq	r5, r0, r0, lsl #16
     8c8:	0001f600 	andeq	pc, r1, r0, lsl #12
     8cc:	03510200 	cmpeq	r1, #0, 4
     8d0:	28020000 	stmdacs	r2, {}	; <UNPREDICTABLE>
     8d4:	00000030 	andeq	r0, r0, r0, lsr r0
     8d8:	00037803 	andeq	r7, r3, r3, lsl #16
     8dc:	00030400 	andeq	r0, r3, r0, lsl #8
     8e0:	00000047 	andeq	r0, r0, r7, asr #32
     8e4:	0003cb04 	andeq	ip, r3, r4, lsl #22
     8e8:	00004700 	andeq	r4, r0, r0, lsl #14
     8ec:	05000000 	streq	r0, [r0, #-0]
     8f0:	037a0204 	cmneq	sl, #4, 4	; 0x40000000
     8f4:	62020000 	andvs	r0, r2, #0
     8f8:	00000025 	andeq	r0, r0, r5, lsr #32
     8fc:	69050406 	stmdbvs	r5, {r1, r2, sl}
     900:	0700746e 	streq	r7, [r0, -lr, ror #8]
     904:	013b0704 	teqeq	fp, r4, lsl #14
     908:	01070000 	mrseq	r0, (UNDEF: 7)
     90c:	0000eb06 	andeq	lr, r0, r6, lsl #22
     910:	05020700 	streq	r0, [r2, #-1792]	; 0x700
     914:	0000016f 	andeq	r0, r0, pc, ror #2
     918:	66050407 	strvs	r0, [r5], -r7, lsl #8
     91c:	07000001 	streq	r0, [r0, -r1]
     920:	01610508 	cmneq	r1, r8, lsl #10
     924:	01070000 	mrseq	r0, (UNDEF: 7)
     928:	0000e908 	andeq	lr, r0, r8, lsl #18
     92c:	07020700 	streq	r0, [r2, -r0, lsl #14]
     930:	00000104 	andeq	r0, r0, r4, lsl #2
     934:	36070407 	strcc	r0, [r7], -r7, lsl #8
     938:	07000001 	streq	r0, [r0, -r1]
     93c:	01310708 	teqeq	r1, r8, lsl #14
     940:	04070000 	streq	r0, [r7], #-0
     944:	00015807 	andeq	r5, r1, r7, lsl #16
     948:	a7040800 	strge	r0, [r4, -r0, lsl #16]
     94c:	07000000 	streq	r0, [r0, -r0]
     950:	00f20801 	rscseq	r0, r2, r1, lsl #16
     954:	04080000 	streq	r0, [r8], #-0
     958:	000000b4 	strheq	r0, [r0], -r4
     95c:	0000a709 	andeq	sl, r0, r9, lsl #14
     960:	03710a00 	cmneq	r1, #0, 20
     964:	06010000 	streq	r0, [r1], -r0
     968:	00000054 	andeq	r0, r0, r4, asr r0
     96c:	000083fc 	strdeq	r8, [r0], -ip
     970:	00000058 	andeq	r0, r0, r8, asr r0
     974:	01439c01 	cmpeq	r3, r1, lsl #24
     978:	660b0000 	strvs	r0, [fp], -r0
     97c:	0100746d 	tsteq	r0, sp, ror #8
     980:	0000ae06 	andeq	sl, r0, r6, lsl #28
     984:	70910200 	addsvc	r0, r1, r0, lsl #4
     988:	75620d0c 	strbvc	r0, [r2, #-3340]!	; 0xd0c
     98c:	08010066 	stmdaeq	r1, {r1, r2, r5, r6}
     990:	00000143 	andeq	r0, r0, r3, asr #2
     994:	94880305 	strls	r0, [r8], #773	; 0x305
     998:	c60e0000 	strgt	r0, [lr], -r0
     99c:	01000003 	tsteq	r0, r3
     9a0:	00004909 	andeq	r4, r0, r9, lsl #18
     9a4:	5c910200 	lfmpl	f0, 4, [r1], {0}
     9a8:	007a730f 	rsbseq	r7, sl, pc, lsl #6
     9ac:	00540c01 	subseq	r0, r4, r1, lsl #24
     9b0:	02140000 	andseq	r0, r4, #0
     9b4:	24100000 	ldrcs	r0, [r0], #-0
     9b8:	74000084 	strvc	r0, [r0], #-132	; 0x84
     9bc:	36000001 	strcc	r0, [r0], -r1
     9c0:	11000001 	tstne	r0, r1
     9c4:	91025301 	tstls	r2, r1, lsl #6
     9c8:	5201114c 	andpl	r1, r1, #76, 2
     9cc:	06489103 	strbeq	r9, [r8], -r3, lsl #2
     9d0:	03510111 	cmpeq	r1, #1073741828	; 0x40000004
     9d4:	1104000a 	tstne	r4, sl
     9d8:	74025001 	strvc	r5, [r2], #-1
     9dc:	38120000 	ldmdacc	r2, {}	; <UNPREDICTABLE>
     9e0:	11000084 	smlabbne	r0, r4, r0, r0
     9e4:	74025001 	strvc	r5, [r2], #-1
     9e8:	13000000 	movwne	r0, #0
     9ec:	000000a7 	andeq	r0, r0, r7, lsr #1
     9f0:	00000154 	andeq	r0, r0, r4, asr r1
     9f4:	00009a14 	andeq	r9, r0, r4, lsl sl
     9f8:	0003ff00 	andeq	pc, r3, r0, lsl #30
     9fc:	00005415 	andeq	r5, r0, r5, lsl r4
     a00:	00016300 	andeq	r6, r1, r0, lsl #6
     a04:	00ae1600 	adceq	r1, lr, r0, lsl #12
     a08:	17000000 	strne	r0, [r0, -r0]
     a0c:	000003e5 	andeq	r0, r0, r5, ror #7
     a10:	016e2004 	cmneq	lr, r4
     a14:	04080000 	streq	r0, [r8], #-0
     a18:	00000154 	andeq	r0, r0, r4, asr r1
     a1c:	00036e18 	andeq	r6, r3, r8, lsl lr
     a20:	54020500 	strpl	r0, [r2], #-1280	; 0x500
     a24:	16000000 	strne	r0, [r0], -r0
     a28:	000000a1 	andeq	r0, r0, r1, lsr #1
     a2c:	00005416 	andeq	r5, r0, r6, lsl r4
     a30:	00ae1600 	adceq	r1, lr, r0, lsl #12
     a34:	49160000 	ldmdbmi	r6, {}	; <UNPREDICTABLE>
     a38:	00000000 	andeq	r0, r0, r0
     a3c:	0000ee00 	andeq	lr, r0, r0, lsl #28
     a40:	ea000400 	b	1a48 <_start-0x65b8>
     a44:	04000003 	streq	r0, [r0], #-3
     a48:	00007201 	andeq	r7, r0, r1, lsl #4
     a4c:	03d00100 	bicseq	r0, r0, #0, 2
     a50:	03820000 	orreq	r0, r2, #0
     a54:	84540000 	ldrbhi	r0, [r4], #-0
     a58:	00340000 	eorseq	r0, r4, r0
     a5c:	02fc0000 	rscseq	r0, ip, #0
     a60:	04020000 	streq	r0, [r2], #-0
     a64:	746e6905 	strbtvc	r6, [lr], #-2309	; 0x905
     a68:	07040300 	streq	r0, [r4, -r0, lsl #6]
     a6c:	0000013b 	andeq	r0, r0, fp, lsr r1
     a70:	eb060103 	bl	180e84 <__bss_end__+0x1775fc>
     a74:	03000000 	movweq	r0, #0
     a78:	016f0502 	cmneq	pc, r2, lsl #10
     a7c:	04030000 	streq	r0, [r3], #-0
     a80:	00016605 	andeq	r6, r1, r5, lsl #12
     a84:	05080300 	streq	r0, [r8, #-768]	; 0x300
     a88:	00000161 	andeq	r0, r0, r1, ror #2
     a8c:	e9080103 	stmdb	r8, {r0, r1, r8}
     a90:	03000000 	movweq	r0, #0
     a94:	01040702 	tsteq	r4, r2, lsl #14
     a98:	04030000 	streq	r0, [r3], #-0
     a9c:	00013607 	andeq	r3, r1, r7, lsl #12
     aa0:	07080300 	streq	r0, [r8, -r0, lsl #6]
     aa4:	00000131 	andeq	r0, r0, r1, lsr r1
     aa8:	58070403 	stmdapl	r7, {r0, r1, sl}
     aac:	03000001 	movweq	r0, #1
     ab0:	00f20801 	rscseq	r0, r2, r1, lsl #16
     ab4:	04040000 	streq	r0, [r4], #-0
     ab8:	0000007f 	andeq	r0, r0, pc, ror r0
     abc:	00007205 	andeq	r7, r0, r5, lsl #4
     ac0:	03dc0600 	bicseq	r0, ip, #0, 12
     ac4:	04010000 	streq	r0, [r1], #-0
     ac8:	00000025 	andeq	r0, r0, r5, lsr #32
     acc:	00008454 	andeq	r8, r0, r4, asr r4
     ad0:	00000034 	andeq	r0, r0, r4, lsr r0
     ad4:	00ab9c01 	adceq	r9, fp, r1, lsl #24
     ad8:	70070000 	andvc	r0, r7, r0
     adc:	79040100 	stmdbvc	r4, {r8}
     ae0:	3d000000 	stccc	0, cr0, [r0, #-0]
     ae4:	00000002 	andeq	r0, r0, r2
     ae8:	00002508 	andeq	r2, r0, r8, lsl #10
     aec:	0000ba00 	andeq	fp, r0, r0, lsl #20
     af0:	00250900 	eoreq	r0, r5, r0, lsl #18
     af4:	0a000000 	beq	afc <_start-0x7504>
     af8:	000003ea 	andeq	r0, r0, sl, ror #7
     afc:	00c51d02 	sbceq	r1, r5, r2, lsl #26
     b00:	04040000 	streq	r0, [r4], #-0
     b04:	000000ab 	andeq	r0, r0, fp, lsr #1
     b08:	00002508 	andeq	r2, r0, r8, lsl #10
     b0c:	0000da00 	andeq	sp, r0, r0, lsl #20
     b10:	00790900 	rsbseq	r0, r9, r0, lsl #18
     b14:	0b000000 	bleq	b1c <_start-0x74e4>
     b18:	000003e5 	andeq	r0, r0, r5, ror #7
     b1c:	00eb0c01 	rsceq	r0, fp, r1, lsl #24
     b20:	03050000 	movweq	r0, #20480	; 0x5000
     b24:	00009058 	andeq	r9, r0, r8, asr r0
     b28:	00cb0404 	sbceq	r0, fp, r4, lsl #8
     b2c:	54000000 	strpl	r0, [r0], #-0
     b30:	04000006 	streq	r0, [r0], #-6
     b34:	00048300 	andeq	r8, r4, r0, lsl #6
     b38:	72010400 	andvc	r0, r1, #0, 8
     b3c:	01000000 	mrseq	r0, (UNDEF: 0)
     b40:	00000422 	andeq	r0, r0, r2, lsr #8
     b44:	00000382 	andeq	r0, r0, r2, lsl #7
     b48:	00008488 	andeq	r8, r0, r8, lsl #9
     b4c:	000004f0 	strdeq	r0, [r0], -r0	; <UNPREDICTABLE>
     b50:	00000396 	muleq	r0, r6, r3
     b54:	69050402 	stmdbvs	r5, {r1, sl}
     b58:	0300746e 	movweq	r7, #1134	; 0x46e
     b5c:	013b0704 	teqeq	fp, r4, lsl #14
     b60:	01030000 	mrseq	r0, (UNDEF: 3)
     b64:	0000eb06 	andeq	lr, r0, r6, lsl #22
     b68:	05020300 	streq	r0, [r2, #-768]	; 0x300
     b6c:	0000016f 	andeq	r0, r0, pc, ror #2
     b70:	66050403 	strvs	r0, [r5], -r3, lsl #8
     b74:	03000001 	movweq	r0, #1
     b78:	01610508 	cmneq	r1, r8, lsl #10
     b7c:	01030000 	mrseq	r0, (UNDEF: 3)
     b80:	0000e908 	andeq	lr, r0, r8, lsl #18
     b84:	07020300 	streq	r0, [r2, -r0, lsl #6]
     b88:	00000104 	andeq	r0, r0, r4, lsl #2
     b8c:	36070403 	strcc	r0, [r7], -r3, lsl #8
     b90:	03000001 	movweq	r0, #1
     b94:	01310708 	teqeq	r1, r8, lsl #14
     b98:	04030000 	streq	r0, [r3], #-0
     b9c:	00015807 	andeq	r5, r1, r7, lsl #16
     ba0:	05040400 	streq	r0, [r4, #-1024]	; 0x400
     ba4:	00007a04 	andeq	r7, r0, r4, lsl #20
     ba8:	08010300 	stmdaeq	r1, {r8, r9}
     bac:	000000f2 	strdeq	r0, [r0], -r2
     bb0:	00870405 	addeq	r0, r7, r5, lsl #8
     bb4:	7a060000 	bvc	180bbc <__bss_end__+0x177334>
     bb8:	07000000 	streq	r0, [r0, -r0]
     bbc:	00000351 	andeq	r0, r0, r1, asr r3
     bc0:	00972802 	addseq	r2, r7, r2, lsl #16
     bc4:	78080000 	stmdavc	r8, {}	; <UNPREDICTABLE>
     bc8:	04000003 	streq	r0, [r0], #-3
     bcc:	00ae0004 	adceq	r0, lr, r4
     bd0:	cb090000 	blgt	240bd8 <__bss_end__+0x237350>
     bd4:	72000003 	andvc	r0, r0, #3
     bd8:	00000000 	andeq	r0, r0, r0
     bdc:	037a0700 	cmneq	sl, #0, 14
     be0:	62020000 	andvs	r0, r2, #0
     be4:	0000008c 	andeq	r0, r0, ip, lsl #1
     be8:	0004040a 	andeq	r0, r4, sl, lsl #8
     bec:	25270100 	strcs	r0, [r7, #-256]!	; 0x100
     bf0:	88000000 	stmdahi	r0, {}	; <UNPREDICTABLE>
     bf4:	14000084 	strne	r0, [r0], #-132	; 0x84
     bf8:	01000000 	mrseq	r0, (UNDEF: 0)
     bfc:	0000e09c 	muleq	r0, ip, r0
     c00:	00630b00 	rsbeq	r0, r3, r0, lsl #22
     c04:	00252701 	eoreq	r2, r5, r1, lsl #14
     c08:	025b0000 	subseq	r0, fp, #0
     c0c:	0c000000 	stceq	0, cr0, [r0], {-0}
     c10:	00646170 	rsbeq	r6, r4, r0, ror r1
     c14:	00742e01 	rsbseq	r2, r4, r1, lsl #28
     c18:	849c0000 	ldrhi	r0, [ip], #0
     c1c:	002c0000 	eoreq	r0, ip, r0
     c20:	9c010000 	stcls	0, cr0, [r1], {-0}
     c24:	00000130 	andeq	r0, r0, r0, lsr r1
     c28:	0100700b 	tsteq	r0, fp
     c2c:	0000742e 	andeq	r7, r0, lr, lsr #8
     c30:	00028900 	andeq	r8, r2, r0, lsl #18
     c34:	04140d00 	ldreq	r0, [r4], #-3328	; 0xd00
     c38:	2e010000 	cdpcs	0, 0, cr0, cr1, cr0, {0}
     c3c:	00000074 	andeq	r0, r0, r4, ror r0
     c40:	000002b4 			; <UNDEFINED> instruction: 0x000002b4
     c44:	0004420e 	andeq	r4, r4, lr, lsl #4
     c48:	252e0100 	strcs	r0, [lr, #-256]!	; 0x100
     c4c:	01000000 	mrseq	r0, (UNDEF: 0)
     c50:	656c0f52 	strbvs	r0, [ip, #-3922]!	; 0xf52
     c54:	2f01006e 	svccs	0x0001006e
     c58:	00000025 	andeq	r0, r0, r5, lsr #32
     c5c:	0a005101 	beq	15068 <__bss_end__+0xb7e0>
     c60:	000003fc 	strdeq	r0, [r0], -ip
     c64:	00743701 	rsbseq	r3, r4, r1, lsl #14
     c68:	84c80000 	strbhi	r0, [r8], #0
     c6c:	00400000 	subeq	r0, r0, r0
     c70:	9c010000 	stcls	0, cr0, [r1], {-0}
     c74:	0000019c 	muleq	r0, ip, r1
     c78:	7473640b 	ldrbtvc	r6, [r3], #-1035	; 0x40b
     c7c:	74370100 	ldrtvc	r0, [r7], #-256	; 0x100
     c80:	d5000000 	strle	r0, [r0, #-0]
     c84:	0b000002 	bleq	c94 <_start-0x736c>
     c88:	3701006e 	strcc	r0, [r1, -lr, rrx]
     c8c:	00000025 	andeq	r0, r0, r5, lsr #32
     c90:	0000030d 	andeq	r0, r0, sp, lsl #6
     c94:	0100700b 	tsteq	r0, fp
     c98:	00007437 	andeq	r7, r0, r7, lsr r4
     c9c:	00032e00 	andeq	r2, r3, r0, lsl #28
     ca0:	04bb0d00 	ldrteq	r0, [fp], #3328	; 0xd00
     ca4:	37010000 	strcc	r0, [r1, -r0]
     ca8:	00000074 	andeq	r0, r0, r4, ror r0
     cac:	00000364 	andeq	r0, r0, r4, ror #6
     cb0:	6e656c10 	mcrvs	12, 3, r6, cr5, cr0, {0}
     cb4:	25390100 	ldrcs	r0, [r9, #-256]!	; 0x100
     cb8:	82000000 	andhi	r0, r0, #0
     cbc:	0f000003 	svceq	0x00000003
     cc0:	3d010073 	stccc	0, cr0, [r1, #-460]	; 0xfffffe34
     cc4:	00000074 	andeq	r0, r0, r4, ror r0
     cc8:	0a005001 	beq	14cd4 <__bss_end__+0xb44c>
     ccc:	00000450 	andeq	r0, r0, r0, asr r4
     cd0:	00744701 	rsbseq	r4, r4, r1, lsl #14
     cd4:	85080000 	strhi	r0, [r8, #-0]
     cd8:	01980000 	orrseq	r0, r8, r0
     cdc:	9c010000 	stcls	0, cr0, [r1], {-0}
     ce0:	000002ca 	andeq	r0, r0, sl, asr #5
     ce4:	0004140d 	andeq	r1, r4, sp, lsl #8
     ce8:	2c470100 	stfcse	f0, [r7], {-0}
     cec:	a9000000 	stmdbge	r0, {}	; <UNPREDICTABLE>
     cf0:	0b000003 	bleq	d04 <_start-0x72fc>
     cf4:	00747364 	rsbseq	r7, r4, r4, ror #6
     cf8:	00744701 	rsbseq	r4, r4, r1, lsl #14
     cfc:	03d70000 	bicseq	r0, r7, #0
     d00:	6e0b0000 	cdpvs	0, 0, cr0, cr11, cr0, {0}
     d04:	25470100 	strbcs	r0, [r7, #-256]	; 0x100
     d08:	45000000 	strmi	r0, [r0, #-0]
     d0c:	0b000004 	bleq	d24 <_start-0x72dc>
     d10:	006c6176 	rsbeq	r6, ip, r6, ror r1
     d14:	00254701 	eoreq	r4, r5, r1, lsl #14
     d18:	04710000 	ldrbteq	r0, [r1], #-0
     d1c:	420d0000 	andmi	r0, sp, #0
     d20:	01000004 	tsteq	r0, r4
     d24:	00002547 	andeq	r2, r0, r7, asr #10
     d28:	0004fb00 	andeq	pc, r4, r0, lsl #22
     d2c:	04190e00 	ldreq	r0, [r9], #-3584	; 0xe00
     d30:	47010000 	strmi	r0, [r1, -r0]
     d34:	00000025 	andeq	r0, r0, r5, lsr #32
     d38:	0f049102 	svceq	0x00049102
     d3c:	00667562 	rsbeq	r7, r6, r2, ror #10
     d40:	02ca4c01 	sbceq	r4, sl, #256	; 0x100
     d44:	91030000 	mrsls	r0, (UNDEF: 3)
     d48:	70107fa8 	andsvc	r7, r0, r8, lsr #31
     d4c:	744c0100 	strbvc	r0, [ip], #-256	; 0x100
     d50:	25000000 	strcs	r0, [r0, #-0]
     d54:	10000005 	andne	r0, r0, r5
     d58:	4d010075 	stcmi	0, cr0, [r1, #-468]	; 0xfffffe2c
     d5c:	0000002c 	andeq	r0, r0, ip, lsr #32
     d60:	000005ca 	andeq	r0, r0, sl, asr #11
     d64:	00012411 	andeq	r2, r1, r1, lsl r4
     d68:	0002ea00 	andeq	lr, r2, r0, lsl #20
     d6c:	78030500 	stmdavc	r3, {r8, sl}
     d70:	12000093 	andne	r0, r0, #147	; 0x93
     d74:	00008574 	andeq	r8, r0, r4, ror r5
     d78:	00000074 	andeq	r0, r0, r4, ror r0
     d7c:	00000261 	andeq	r0, r0, r1, ror #4
     d80:	0003f613 	andeq	pc, r3, r3, lsl r6	; <UNPREDICTABLE>
     d84:	2c520100 	ldfcse	f0, [r2], {-0}
     d88:	da000000 	ble	d90 <_start-0x7270>
     d8c:	00000006 	andeq	r0, r0, r6
     d90:	00865814 	addeq	r5, r6, r4, lsl r8
     d94:	00063a00 	andeq	r3, r6, r0, lsl #20
     d98:	00029000 	andeq	r9, r2, r0
     d9c:	53011500 	movwpl	r1, #5376	; 0x1500
     da0:	15750802 	ldrbne	r0, [r5, #-2050]!	; 0x802
     da4:	03055201 	movweq	r5, #20993	; 0x5201
     da8:	00009378 	andeq	r9, r0, r8, ror r3
     dac:	05510115 	ldrbeq	r0, [r1, #-277]	; 0x115
     db0:	0093b003 	addseq	fp, r3, r3
     db4:	50011500 	andpl	r1, r1, r0, lsl #10
     db8:	939c0305 	orrsls	r0, ip, #335544320	; 0x14000000
     dbc:	16000000 	strne	r0, [r0], -r0
     dc0:	0000865c 	andeq	r8, r0, ip, asr r6
     dc4:	00000650 	andeq	r0, r0, r0, asr r6
     dc8:	00866814 	addeq	r6, r6, r4, lsl r8
     dcc:	0000e000 	andeq	lr, r0, r0
     dd0:	0002ad00 	andeq	sl, r2, r0, lsl #26
     dd4:	51011500 	tstpl	r1, r0, lsl #10
     dd8:	00007d02 	andeq	r7, r0, r2, lsl #26
     ddc:	00867c17 	addeq	r7, r6, r7, lsl ip
     de0:	00013000 	andeq	r3, r1, r0
     de4:	53011500 	movwpl	r1, #5376	; 0x1500
     de8:	15007d02 	strne	r7, [r0, #-3330]	; 0xd02
     dec:	74025101 	strvc	r5, [r2], #-257	; 0x101
     df0:	50011500 	andpl	r1, r1, r0, lsl #10
     df4:	00007502 	andeq	r7, r0, r2, lsl #10
     df8:	007a1800 	rsbseq	r1, sl, r0, lsl #16
     dfc:	02da0000 	sbcseq	r0, sl, #0
     e00:	6b190000 	blvs	640e08 <__bss_end__+0x637580>
     e04:	3f000000 	svccc	0x00000000
     e08:	007a1800 	rsbseq	r1, sl, r0, lsl #16
     e0c:	02ea0000 	rsceq	r0, sl, #0
     e10:	6b190000 	blvs	640e18 <__bss_end__+0x637590>
     e14:	04000000 	streq	r0, [r0], #-0
     e18:	02da0600 	sbcseq	r0, sl, #0, 12
     e1c:	331a0000 	tstcc	sl, #0
     e20:	01000004 	tsteq	r0, r4
     e24:	0086a01f 	addeq	sl, r6, pc, lsl r0
     e28:	00005000 	andeq	r5, r0, r0
     e2c:	6a9c0100 	bvs	fe701234 <__bss_end__+0xfe6f79ac>
     e30:	0d000003 	stceq	0, cr0, [r0, #-12]
     e34:	00000448 	andeq	r0, r0, r8, asr #8
     e38:	03791f01 	cmneq	r9, #1, 30
     e3c:	07060000 	streq	r0, [r6, -r0]
     e40:	0c0d0000 	stceq	0, cr0, [sp], {-0}
     e44:	01000004 	tsteq	r0, r4
     e48:	00038e1f 	andeq	r8, r3, pc, lsl lr
     e4c:	00073200 	andeq	r3, r7, r0, lsl #4
     e50:	01241100 	teqeq	r4, r0, lsl #2
     e54:	03a40000 			; <UNDEFINED> instruction: 0x03a40000
     e58:	03050000 	movweq	r0, #20480	; 0x5000
     e5c:	00009380 	andeq	r9, r0, r0, lsl #7
     e60:	0086c014 	addeq	ip, r6, r4, lsl r0
     e64:	00063a00 	andeq	r3, r6, r0, lsl #20
     e68:	00036000 	andeq	r6, r3, r0
     e6c:	53011500 	movwpl	r1, #5376	; 0x1500
     e70:	15200802 	strne	r0, [r0, #-2050]!	; 0x802
     e74:	03055201 	movweq	r5, #20993	; 0x5201
     e78:	00009380 	andeq	r9, r0, r0, lsl #7
     e7c:	05510115 	ldrbeq	r0, [r1, #-277]	; 0x115
     e80:	0093b003 	addseq	fp, r3, r3
     e84:	50011500 	andpl	r1, r1, r0, lsl #10
     e88:	93e80305 	mvnls	r0, #335544320	; 0x14000000
     e8c:	16000000 	strne	r0, [r0], -r0
     e90:	000086c4 	andeq	r8, r0, r4, asr #13
     e94:	00000650 	andeq	r0, r0, r0, asr r6
     e98:	00251b00 	eoreq	r1, r5, r0, lsl #22
     e9c:	03790000 	cmneq	r9, #0
     ea0:	251c0000 	ldrcs	r0, [ip, #-0]
     ea4:	00000000 	andeq	r0, r0, r0
     ea8:	036a0405 	cmneq	sl, #83886080	; 0x5000000
     eac:	251b0000 	ldrcs	r0, [fp, #-0]
     eb0:	8e000000 	cdphi	0, 0, cr0, cr0, cr0, {0}
     eb4:	1c000003 	stcne	0, cr0, [r0], {3}
     eb8:	00000081 	andeq	r0, r0, r1, lsl #1
     ebc:	7f040500 	svcvc	0x00040500
     ec0:	18000003 	stmdane	r0, {r0, r1}
     ec4:	0000007a 	andeq	r0, r0, sl, ror r0
     ec8:	000003a4 	andeq	r0, r0, r4, lsr #7
     ecc:	00006b19 	andeq	r6, r0, r9, lsl fp
     ed0:	06000e00 	streq	r0, [r0], -r0, lsl #28
     ed4:	00000394 	muleq	r0, r4, r3
     ed8:	00036e1d 	andeq	r6, r3, sp, lsl lr
     edc:	257d0100 	ldrbcs	r0, [sp, #-256]!	; 0x100
     ee0:	f0000000 			; <UNDEFINED> instruction: 0xf0000000
     ee4:	88000086 	stmdahi	r0, {r1, r2, r7}
     ee8:	01000002 	tsteq	r0, r2
     eec:	0005ff9c 	muleq	r5, ip, pc	; <UNPREDICTABLE>
     ef0:	75620b00 	strbvc	r0, [r2, #-2816]!	; 0xb00
     ef4:	7d010066 	stcvc	0, cr0, [r1, #-408]	; 0xfffffe68
     ef8:	00000074 	andeq	r0, r0, r4, ror r0
     efc:	0000075e 	andeq	r0, r0, lr, asr r7
     f00:	01006e0b 	tsteq	r0, fp, lsl #28
     f04:	0000257d 	andeq	r2, r0, sp, ror r5
     f08:	00078a00 	andeq	r8, r7, r0, lsl #20
     f0c:	6d660b00 	vstmdbvs	r6!, {d16-d15}
     f10:	7d010074 	stcvc	0, cr0, [r1, #-464]	; 0xfffffe30
     f14:	00000081 	andeq	r0, r0, r1, lsl #1
     f18:	000007b8 			; <UNDEFINED> instruction: 0x000007b8
     f1c:	0003c60d 	andeq	ip, r3, sp, lsl #12
     f20:	ae7d0100 	rpwgee	f0, f5, f0
     f24:	ec000000 	stc	0, cr0, [r0], {-0}
     f28:	10000007 	andne	r0, r0, r7
     f2c:	7e010070 	mcrvc	0, 0, r0, cr1, cr0, {3}
     f30:	00000074 	andeq	r0, r0, r4, ror r0
     f34:	000007ff 	strdeq	r0, [r0], -pc	; <UNPREDICTABLE>
     f38:	01006510 	tsteq	r0, r0, lsl r5
     f3c:	0000747e 	andeq	r7, r0, lr, ror r4
     f40:	00087d00 	andeq	r7, r8, r0, lsl #26
     f44:	01241100 	teqeq	r4, r0, lsl #2
     f48:	060f0000 	streq	r0, [pc], -r0
     f4c:	03050000 	movweq	r0, #20480	; 0x5000
     f50:	00009390 	muleq	r0, r0, r3
     f54:	0087441e 	addeq	r4, r7, lr, lsl r4
     f58:	0001f400 	andeq	pc, r1, r0, lsl #8
     f5c:	00731000 	rsbseq	r1, r3, r0
     f60:	00748b01 	rsbseq	r8, r4, r1, lsl #22
     f64:	08a40000 	stmiaeq	r4!, {}	; <UNPREDICTABLE>
     f68:	6e0f0000 	cdpvs	0, 0, cr0, cr15, cr0, {0}
     f6c:	01006d75 	tsteq	r0, r5, ror sp
     f70:	0006148b 	andeq	r1, r6, fp, lsl #9
     f74:	d8910300 	ldmle	r1, {r8, r9}
     f78:	0442137e 	strbeq	r1, [r2], #-894	; 0x37e
     f7c:	8c010000 	stchi	0, cr0, [r1], {-0}
     f80:	0000002c 	andeq	r0, r0, ip, lsr #32
     f84:	000008f9 	strdeq	r0, [r0], -r9
     f88:	00877414 	addeq	r7, r7, r4, lsl r4
     f8c:	0000b900 	andeq	fp, r0, r0, lsl #18
     f90:	00046d00 	andeq	r6, r4, r0, lsl #26
     f94:	50011500 	andpl	r1, r1, r0, lsl #10
     f98:	00007502 	andeq	r7, r0, r2, lsl #10
     f9c:	00879814 	addeq	r9, r7, r4, lsl r8
     fa0:	00063a00 	andeq	r3, r6, r0, lsl #20
     fa4:	00049c00 	andeq	r9, r4, r0, lsl #24
     fa8:	53011500 	movwpl	r1, #5376	; 0x1500
     fac:	15920802 	ldrne	r0, [r2, #2050]	; 0x802
     fb0:	03055201 	movweq	r5, #20993	; 0x5201
     fb4:	00009390 	muleq	r0, r0, r3
     fb8:	05510115 	ldrbeq	r0, [r1, #-277]	; 0x115
     fbc:	0093b003 	addseq	fp, r3, r3
     fc0:	50011500 	andpl	r1, r1, r0, lsl #10
     fc4:	94000305 	strls	r0, [r0], #-773	; 0x305
     fc8:	16000000 	strne	r0, [r0], -r0
     fcc:	0000879c 	muleq	r0, ip, r7
     fd0:	00000650 	andeq	r0, r0, r0, asr r6
     fd4:	00881c14 	addeq	r1, r8, r4, lsl ip
     fd8:	00063a00 	andeq	r3, r6, r0, lsl #20
     fdc:	0004d400 	andeq	sp, r4, r0, lsl #8
     fe0:	53011500 	movwpl	r1, #5376	; 0x1500
     fe4:	15980802 	ldrne	r0, [r8, #2050]	; 0x802
     fe8:	03055201 	movweq	r5, #20993	; 0x5201
     fec:	00009390 	muleq	r0, r0, r3
     ff0:	05510115 	ldrbeq	r0, [r1, #-277]	; 0x115
     ff4:	0093b003 	addseq	fp, r3, r3
     ff8:	50011500 	andpl	r1, r1, r0, lsl #10
     ffc:	941c0305 	ldrls	r0, [ip], #-773	; 0x305
    1000:	16000000 	strne	r0, [r0], -r0
    1004:	00008820 	andeq	r8, r0, r0, lsr #16
    1008:	00000650 	andeq	r0, r0, r0, asr r6
    100c:	00884414 	addeq	r4, r8, r4, lsl r4
    1010:	00019c00 	andeq	r9, r1, r0, lsl #24
    1014:	00050a00 	andeq	r0, r5, r0, lsl #20
    1018:	52011500 	andpl	r1, r1, #0, 10
    101c:	15800802 	strne	r0, [r0, #2050]	; 0x802
    1020:	91035101 	tstls	r3, r1, lsl #2
    1024:	01157ed0 			; <UNDEFINED> instruction: 0x01157ed0
    1028:	153a0150 	ldrne	r0, [sl, #-336]!	; 0x150
    102c:	01047d02 	tsteq	r4, r2, lsl #26
    1030:	7d021531 	cfstr32vc	mvfx1, [r2, #-196]	; 0xffffff3c
    1034:	00770200 	rsbseq	r0, r7, r0, lsl #4
    1038:	886c1400 	stmdahi	ip!, {sl, ip}^
    103c:	019c0000 	orrseq	r0, ip, r0
    1040:	05370000 	ldreq	r0, [r7, #-0]!
    1044:	01150000 	tsteq	r5, r0
    1048:	80080252 	andhi	r0, r8, r2, asr r2
    104c:	03510115 	cmpeq	r1, #1073741829	; 0x40000005
    1050:	157ed091 	ldrbne	sp, [lr, #-145]!	; 0x91
    1054:	3a015001 	bcc	55060 <__bss_end__+0x4b7d8>
    1058:	047d0215 	ldrbteq	r0, [sp], #-533	; 0x215
    105c:	02153001 	andseq	r3, r5, #1
    1060:	7702007d 	smlsdxvc	r2, sp, r0, r0
    1064:	94140000 	ldrls	r0, [r4], #-0
    1068:	9c000088 	stcls	0, cr0, [r0], {136}	; 0x88
    106c:	64000001 	strvs	r0, [r0], #-1
    1070:	15000005 	strne	r0, [r0, #-5]
    1074:	08025201 	stmdaeq	r2, {r0, r9, ip, lr}
    1078:	51011580 	smlabbpl	r1, r0, r5, r1
    107c:	7ed09103 	atnvcs	f1, f3
    1080:	01500115 	cmpeq	r0, r5, lsl r1
    1084:	7d021540 	cfstr32vc	mvfx1, [r2, #-256]	; 0xffffff00
    1088:	15300104 	ldrne	r0, [r0, #-260]!	; 0x104
    108c:	02007d02 	andeq	r7, r0, #2, 26	; 0x80
    1090:	14000077 	strne	r0, [r0], #-119	; 0x77
    1094:	000088bc 			; <UNDEFINED> instruction: 0x000088bc
    1098:	0000019c 	muleq	r0, ip, r1
    109c:	00000591 	muleq	r0, r1, r5
    10a0:	02520115 	subseq	r0, r2, #1073741829	; 0x40000005
    10a4:	01158008 	tsteq	r5, r8
    10a8:	d0910351 	addsle	r0, r1, r1, asr r3
    10ac:	5001157e 	andpl	r1, r1, lr, ror r5
    10b0:	02153201 	andseq	r3, r5, #268435456	; 0x10000000
    10b4:	3001047d 	andcc	r0, r1, sp, ror r4
    10b8:	007d0215 	rsbseq	r0, sp, r5, lsl r2
    10bc:	00007702 	andeq	r7, r0, r2, lsl #14
    10c0:	0088f014 	addeq	pc, r8, r4, lsl r0	; <UNPREDICTABLE>
    10c4:	00019c00 	andeq	r9, r1, r0, lsl #24
    10c8:	0005be00 	andeq	fp, r5, r0, lsl #28
    10cc:	52011500 	andpl	r1, r1, #0, 10
    10d0:	15800802 	strne	r0, [r0, #2050]	; 0x802
    10d4:	91035101 	tstls	r3, r1, lsl #2
    10d8:	01157ed0 			; <UNDEFINED> instruction: 0x01157ed0
    10dc:	15380150 	ldrne	r0, [r8, #-336]!	; 0x150
    10e0:	01047d02 	tsteq	r4, r2, lsl #26
    10e4:	7d021530 	cfstr32vc	mvfx1, [r2, #-192]	; 0xffffff40
    10e8:	00770200 	rsbseq	r0, r7, r0, lsl #4
    10ec:	890c1400 	stmdbhi	ip, {sl, ip}
    10f0:	063a0000 	ldrteq	r0, [sl], -r0
    10f4:	05f40000 	ldrbeq	r0, [r4, #0]!
    10f8:	01150000 	tsteq	r5, r0
    10fc:	b9080253 	stmdblt	r8, {r0, r1, r4, r6, r9}
    1100:	05520115 	ldrbeq	r0, [r2, #-277]	; 0x115
    1104:	00939003 	addseq	r9, r3, r3
    1108:	51011500 	tstpl	r1, r0, lsl #10
    110c:	93b00305 	movsls	r0, #335544320	; 0x14000000
    1110:	01150000 	tsteq	r5, r0
    1114:	44030550 	strmi	r0, [r3], #-1360	; 0x550
    1118:	15000094 	strne	r0, [r0, #-148]	; 0x94
    111c:	02007d02 	andeq	r7, r0, #2, 26	; 0x80
    1120:	16000079 			; <UNDEFINED> instruction: 0x16000079
    1124:	00008910 	andeq	r8, r0, r0, lsl r9
    1128:	00000650 	andeq	r0, r0, r0, asr r6
    112c:	7a180000 	bvc	601134 <__bss_end__+0x5f78ac>
    1130:	0f000000 	svceq	0x00000000
    1134:	19000006 	stmdbne	r0, {r1, r2}
    1138:	0000006b 	andeq	r0, r0, fp, rrx
    113c:	ff060009 			; <UNDEFINED> instruction: 0xff060009
    1140:	18000005 	stmdane	r0, {r0, r2}
    1144:	0000007a 	andeq	r0, r0, sl, ror r0
    1148:	00000624 	andeq	r0, r0, r4, lsr #12
    114c:	00006b19 	andeq	r6, r0, r9, lsl fp
    1150:	1f007f00 	svcne	0x00007f00
    1154:	000003ea 	andeq	r0, r0, sl, ror #7
    1158:	03791d03 	cmneq	r9, #3, 26	; 0xc0
    115c:	e51f0000 	ldr	r0, [pc, #-0]	; 1164 <_start-0x6e9c>
    1160:	03000003 	movweq	r0, #3
    1164:	00038e20 	andeq	r8, r3, r0, lsr #28
    1168:	03712000 	cmneq	r1, #0
    116c:	27030000 	strcs	r0, [r3, -r0]
    1170:	00000025 	andeq	r0, r0, r5, lsr #32
    1174:	00000650 	andeq	r0, r0, r0, asr r6
    1178:	0000811c 	andeq	r8, r0, ip, lsl r1
    117c:	22002100 	andcs	r2, r0, #0, 2
    1180:	000000f7 	strdeq	r0, [r0], -r7
    1184:	ff006303 			; <UNDEFINED> instruction: 0xff006303
    1188:	04000000 	streq	r0, [r0], #-0
    118c:	00066100 	andeq	r6, r6, r0, lsl #2
    1190:	72010400 	andvc	r0, r1, #0, 8
    1194:	01000000 	mrseq	r0, (UNDEF: 0)
    1198:	00000460 	andeq	r0, r0, r0, ror #8
    119c:	00000382 	andeq	r0, r0, r2, lsl #7
    11a0:	00008978 	andeq	r8, r0, r8, ror r9
    11a4:	00000028 	andeq	r0, r0, r8, lsr #32
    11a8:	00000576 	andeq	r0, r0, r6, ror r5
    11ac:	69050402 	stmdbvs	r5, {r1, sl}
    11b0:	0300746e 	movweq	r7, #1134	; 0x46e
    11b4:	013b0704 	teqeq	fp, r4, lsl #14
    11b8:	01030000 	mrseq	r0, (UNDEF: 3)
    11bc:	0000eb06 	andeq	lr, r0, r6, lsl #22
    11c0:	05020300 	streq	r0, [r2, #-768]	; 0x300
    11c4:	0000016f 	andeq	r0, r0, pc, ror #2
    11c8:	66050403 	strvs	r0, [r5], -r3, lsl #8
    11cc:	03000001 	movweq	r0, #1
    11d0:	01610508 	cmneq	r1, r8, lsl #10
    11d4:	01030000 	mrseq	r0, (UNDEF: 3)
    11d8:	0000e908 	andeq	lr, r0, r8, lsl #18
    11dc:	07020300 	streq	r0, [r2, -r0, lsl #6]
    11e0:	00000104 	andeq	r0, r0, r4, lsl #2
    11e4:	36070403 	strcc	r0, [r7], -r3, lsl #8
    11e8:	03000001 	movweq	r0, #1
    11ec:	01310708 	teqeq	r1, r8, lsl #14
    11f0:	04030000 	streq	r0, [r3], #-0
    11f4:	00015807 	andeq	r5, r1, r7, lsl #16
    11f8:	08010300 	stmdaeq	r1, {r8, r9}
    11fc:	000000f2 	strdeq	r0, [r0], -r2
    1200:	007f0404 	rsbseq	r0, pc, r4, lsl #8
    1204:	72050000 	andvc	r0, r5, #0
    1208:	06000000 	streq	r0, [r0], -r0
    120c:	000000f7 	strdeq	r0, [r0], -r7
    1210:	89780401 	ldmdbhi	r8!, {r0, sl}^
    1214:	00280000 	eoreq	r0, r8, r0
    1218:	9c010000 	stcls	0, cr0, [r1], {-0}
    121c:	000000ca 	andeq	r0, r0, sl, asr #1
    1220:	00898c07 	addeq	r8, r9, r7, lsl #24
    1224:	0000ac00 	andeq	sl, r0, r0, lsl #24
    1228:	50010800 	andpl	r0, r1, r0, lsl #16
    122c:	947c0305 	ldrbtls	r0, [ip], #-773	; 0x305
    1230:	09000000 	stmdbeq	r0, {}	; <UNPREDICTABLE>
    1234:	00008994 	muleq	r0, r4, r9
    1238:	000000ea 	andeq	r0, r0, sl, ror #1
    123c:	000000c0 	andeq	r0, r0, r0, asr #1
    1240:	02500108 	subseq	r0, r0, #8, 2
    1244:	0a006408 	beq	1a26c <__bss_end__+0x109e4>
    1248:	00008998 	muleq	r0, r8, r9
    124c:	000000fb 	strdeq	r0, [r0], -fp
    1250:	00250b00 	eoreq	r0, r5, r0, lsl #22
    1254:	00d90000 	sbcseq	r0, r9, r0
    1258:	790c0000 	stmdbvc	ip, {}	; <UNPREDICTABLE>
    125c:	00000000 	andeq	r0, r0, r0
    1260:	0003e50d 	andeq	lr, r3, sp, lsl #10
    1264:	e4200200 	strt	r0, [r0], #-512	; 0x200
    1268:	04000000 	streq	r0, [r0], #-0
    126c:	0000ca04 	andeq	ip, r0, r4, lsl #20
    1270:	047a0e00 	ldrbteq	r0, [sl], #-3584	; 0xe00
    1274:	4d020000 	stcmi	0, cr0, [r2, #-0]
    1278:	000000fb 	strdeq	r0, [r0], -fp
    127c:	00002c0c 	andeq	r2, r0, ip, lsl #24
    1280:	550f0000 	strpl	r0, [pc, #-0]	; 1288 <_start-0x6d78>
    1284:	02000004 	andeq	r0, r0, #4
    1288:	010b0060 	tsteq	fp, r0, rrx
    128c:	00040000 	andeq	r0, r4, r0
    1290:	0000072b 	andeq	r0, r0, fp, lsr #14
    1294:	00720104 	rsbseq	r0, r2, r4, lsl #2
    1298:	83010000 	movwhi	r0, #4096	; 0x1000
    129c:	82000004 	andhi	r0, r0, #4
    12a0:	a0000003 	andge	r0, r0, r3
    12a4:	34000089 	strcc	r0, [r0], #-137	; 0x89
    12a8:	0d000000 	stceq	0, cr0, [r0, #-0]
    12ac:	02000006 	andeq	r0, r0, #6
    12b0:	6e690504 	cdpvs	5, 6, cr0, cr9, cr4, {0}
    12b4:	04030074 	streq	r0, [r3], #-116	; 0x74
    12b8:	00013b07 	andeq	r3, r1, r7, lsl #22
    12bc:	06010300 	streq	r0, [r1], -r0, lsl #6
    12c0:	000000eb 	andeq	r0, r0, fp, ror #1
    12c4:	6f050203 	svcvs	0x00050203
    12c8:	03000001 	movweq	r0, #1
    12cc:	01660504 	cmneq	r6, r4, lsl #10
    12d0:	08030000 	stmdaeq	r3, {}	; <UNPREDICTABLE>
    12d4:	00016105 	andeq	r6, r1, r5, lsl #2
    12d8:	08010300 	stmdaeq	r1, {r8, r9}
    12dc:	000000e9 	andeq	r0, r0, r9, ror #1
    12e0:	04070203 	streq	r0, [r7], #-515	; 0x203
    12e4:	03000001 	movweq	r0, #1
    12e8:	01360704 	teqeq	r6, r4, lsl #14
    12ec:	08030000 	stmdaeq	r3, {}	; <UNPREDICTABLE>
    12f0:	00013107 	andeq	r3, r1, r7, lsl #2
    12f4:	07040300 	streq	r0, [r4, -r0, lsl #6]
    12f8:	00000158 	andeq	r0, r0, r8, asr r1
    12fc:	f2080103 	vrhadd.s8	d0, d8, d3
    1300:	04000000 	streq	r0, [r0], #-0
    1304:	000004b9 			; <UNDEFINED> instruction: 0x000004b9
    1308:	89a00301 	stmibhi	r0!, {r0, r8, r9}
    130c:	00340000 	eorseq	r0, r4, r0
    1310:	9c010000 	stcls	0, cr0, [r1], {-0}
    1314:	000000de 	ldrdeq	r0, [r0], -lr
    1318:	00049705 	andeq	r9, r4, r5, lsl #14
    131c:	25040100 	strcs	r0, [r4, #-256]	; 0x100
    1320:	05000000 	streq	r0, [r0, #-0]
    1324:	000004a5 	andeq	r0, r0, r5, lsr #9
    1328:	00250401 	eoreq	r0, r5, r1, lsl #8
    132c:	d7060000 	strle	r0, [r6, -r0]
    1330:	01000000 	mrseq	r0, (UNDEF: 0)
    1334:	0000b105 	andeq	fp, r0, r5, lsl #2
    1338:	08000700 	stmdaeq	r0, {r8, r9, sl}
    133c:	00737362 	rsbseq	r7, r3, r2, ror #6
    1340:	00de0701 	sbcseq	r0, lr, r1, lsl #14
    1344:	09230000 	stmdbeq	r3!, {}	; <UNPREDICTABLE>
    1348:	b1090000 	mrslt	r0, (UNDEF: 9)
    134c:	01000004 	tsteq	r0, r4
    1350:	0000de08 	andeq	sp, r0, r8, lsl #28
    1354:	89c80a00 	stmibhi	r8, {r9, fp}^
    1358:	00fa0000 	rscseq	r0, sl, r0
    135c:	cc0a0000 	stcgt	0, cr0, [sl], {-0}
    1360:	07000089 	streq	r0, [r0, -r9, lsl #1]
    1364:	00000001 	andeq	r0, r0, r1
    1368:	0025040b 	eoreq	r0, r5, fp, lsl #8
    136c:	97050000 	strls	r0, [r5, -r0]
    1370:	01000004 	tsteq	r0, r4
    1374:	00002504 	andeq	r2, r0, r4, lsl #10
    1378:	04a50500 	strteq	r0, [r5], #1280	; 0x500
    137c:	04010000 	streq	r0, [r1], #-0
    1380:	00000025 	andeq	r0, r0, r5, lsr #32
    1384:	0000d706 	andeq	sp, r0, r6, lsl #14
    1388:	07050100 	streq	r0, [r5, -r0, lsl #2]
    138c:	07000001 	streq	r0, [r0, -r1]
    1390:	04550c00 	ldrbeq	r0, [r5], #-3072	; 0xc00
    1394:	60020000 	andvs	r0, r2, r0
    1398:	0001ad00 	andeq	sl, r1, r0, lsl #26
    139c:	d5000400 	strle	r0, [r0, #-1024]	; 0x400
    13a0:	04000007 	streq	r0, [r0], #-7
    13a4:	00007201 	andeq	r7, r0, r1, lsl #4
    13a8:	04db0100 	ldrbeq	r0, [fp], #256	; 0x100
    13ac:	03820000 	orreq	r0, r2, #0
	...
    13b8:	06a70000 	strteq	r0, [r7], r0
    13bc:	04020000 	streq	r0, [r2], #-0
    13c0:	746e6905 	strbtvc	r6, [lr], #-2309	; 0x905
    13c4:	07040300 	streq	r0, [r4, -r0, lsl #6]
    13c8:	0000013b 	andeq	r0, r0, fp, lsr r1
    13cc:	eb060103 	bl	1817e0 <__bss_end__+0x177f58>
    13d0:	03000000 	movweq	r0, #0
    13d4:	016f0502 	cmneq	pc, r2, lsl #10
    13d8:	04030000 	streq	r0, [r3], #-0
    13dc:	00016605 	andeq	r6, r1, r5, lsl #12
    13e0:	05080300 	streq	r0, [r8, #-768]	; 0x300
    13e4:	00000161 	andeq	r0, r0, r1, ror #2
    13e8:	e9080103 	stmdb	r8, {r0, r1, r8}
    13ec:	03000000 	movweq	r0, #0
    13f0:	01040702 	tsteq	r4, r2, lsl #14
    13f4:	04030000 	streq	r0, [r3], #-0
    13f8:	00013607 	andeq	r3, r1, r7, lsl #12
    13fc:	07080300 	streq	r0, [r8, -r0, lsl #6]
    1400:	00000131 	andeq	r0, r0, r1, lsr r1
    1404:	58070403 	stmdapl	r7, {r0, r1, sl}
    1408:	03000001 	movweq	r0, #1
    140c:	00f20801 	rscseq	r0, r2, r1, lsl #16
    1410:	c1040000 	mrsgt	r0, (UNDEF: 4)
    1414:	01000004 	tsteq	r0, r4
    1418:	0000250e 	andeq	r2, r0, lr, lsl #10
    141c:	0089d400 	addeq	sp, r9, r0, lsl #8
    1420:	00001800 	andeq	r1, r0, r0, lsl #16
    1424:	a29c0100 	addsge	r0, ip, #0, 2
    1428:	05000000 	streq	r0, [r0, #-0]
    142c:	00000527 	andeq	r0, r0, r7, lsr #10
    1430:	002c0f01 	eoreq	r0, ip, r1, lsl #30
    1434:	09430000 	stmdbeq	r3, {}^	; <UNPREDICTABLE>
    1438:	06000000 	streq	r0, [r0], -r0
    143c:	00000510 	andeq	r0, r0, r0, lsl r5
    1440:	89ec1701 	stmibhi	ip!, {r0, r8, r9, sl, ip}^
    1444:	00140000 	andseq	r0, r4, r0
    1448:	9c010000 	stcls	0, cr0, [r1], {-0}
    144c:	000000c7 	andeq	r0, r0, r7, asr #1
    1450:	00052705 	andeq	r2, r5, r5, lsl #14
    1454:	2c180100 	ldfcss	f0, [r8], {-0}
    1458:	62000000 	andvs	r0, r0, #0
    145c:	00000009 	andeq	r0, r0, r9
    1460:	00045506 	andeq	r5, r4, r6, lsl #10
    1464:	001f0100 	andseq	r0, pc, r0, lsl #2
    1468:	4800008a 	stmdami	r0, {r1, r3, r7}
    146c:	01000000 	mrseq	r0, (UNDEF: 0)
    1470:	0001779c 	muleq	r1, ip, r7
    1474:	051f0700 	ldreq	r0, [pc, #-1792]	; d7c <_start-0x7284>
    1478:	2a010000 	bcs	41480 <__bss_end__+0x37bf8>
    147c:	00000177 	andeq	r0, r0, r7, ror r1
    1480:	2010001c 	andscs	r0, r0, ip, lsl r0
    1484:	00050807 	andeq	r0, r5, r7, lsl #16
    1488:	772b0100 	strvc	r0, [fp, -r0, lsl #2]!
    148c:	24000001 	strcs	r0, [r0], #-1
    1490:	07201000 	streq	r1, [r0, -r0]!
    1494:	000004cf 	andeq	r0, r0, pc, asr #9
    1498:	01772c01 	cmneq	r7, r1, lsl #24
    149c:	00000000 	andeq	r0, r0, r0
    14a0:	ef085a00 	svc	0x00085a00
    14a4:	01000004 	tsteq	r0, r4
    14a8:	0001772d 	andeq	r7, r1, sp, lsr #14
    14ac:	08092000 	stmdaeq	r9, {sp}
    14b0:	7900008a 	stmdbvc	r0, {r1, r3, r7}
    14b4:	09000000 	stmdbeq	r0, {}	; <UNPREDICTABLE>
    14b8:	00008a14 	andeq	r8, r0, r4, lsl sl
    14bc:	000000a2 	andeq	r0, r0, r2, lsr #1
    14c0:	008a1c0a 	addeq	r1, sl, sl, lsl #24
    14c4:	00018d00 	andeq	r8, r1, r0, lsl #26
    14c8:	00013a00 	andeq	r3, r1, r0, lsl #20
    14cc:	50010b00 	andpl	r0, r1, r0, lsl #22
    14d0:	0a004e01 	beq	14cdc <__bss_end__+0xb454>
    14d4:	00008a28 	andeq	r8, r0, r8, lsr #20
    14d8:	0000019e 	muleq	r0, lr, r1
    14dc:	0000015a 	andeq	r0, r0, sl, asr r1
    14e0:	0551010b 	ldrbeq	r0, [r1, #-267]	; 0x10b
    14e4:	0000010c 	andeq	r0, r0, ip, lsl #2
    14e8:	50010b5a 	andpl	r0, r1, sl, asr fp
    14ec:	00240c05 	eoreq	r0, r4, r5, lsl #24
    14f0:	0c002010 	stceq	0, cr2, [r0], {16}
    14f4:	00008a34 	andeq	r8, r0, r4, lsr sl
    14f8:	0000019e 	muleq	r0, lr, r1
    14fc:	0551010b 	ldrbeq	r0, [r1, #-267]	; 0x10b
    1500:	0000200c 	andeq	r2, r0, ip
    1504:	50010b5a 	andpl	r0, r1, sl, asr fp
    1508:	001c0c05 	andseq	r0, ip, r5, lsl #24
    150c:	00002010 	andeq	r2, r0, r0, lsl r0
    1510:	0000250d 	andeq	r2, r0, sp, lsl #10
    1514:	04c40800 	strbeq	r0, [r4], #2048	; 0x800
    1518:	0d010000 	stceq	0, cr0, [r1, #-0]
    151c:	00000188 	andeq	r0, r0, r8, lsl #3
    1520:	002c0d10 	eoreq	r0, ip, r0, lsl sp
    1524:	7a0e0000 	bvc	38152c <__bss_end__+0x377ca4>
    1528:	02000004 	andeq	r0, r0, #4
    152c:	00019e4d 	andeq	r9, r1, sp, asr #28
    1530:	002c0f00 	eoreq	r0, ip, r0, lsl #30
    1534:	10000000 	andne	r0, r0, r0
    1538:	0000030e 	andeq	r0, r0, lr, lsl #6
    153c:	2c0f9402 	cfstrscs	mvf9, [pc], {2}
    1540:	0f000000 	svceq	0x00000000
    1544:	0000002c 	andeq	r0, r0, ip, lsr #32
    1548:	01f70000 	mvnseq	r0, r0
    154c:	00040000 	andeq	r0, r4, r0
    1550:	000008c3 	andeq	r0, r0, r3, asr #17
    1554:	00720104 	rsbseq	r0, r2, r4, lsl #2
    1558:	49010000 	stmdbmi	r1, {}	; <UNPREDICTABLE>
    155c:	82000005 	andhi	r0, r0, #5
    1560:	48000003 	stmdami	r0, {r0, r1}
    1564:	9800008a 	stmdals	r0, {r1, r3, r7}
    1568:	44000000 	strmi	r0, [r0], #-0
    156c:	02000007 	andeq	r0, r0, #7
    1570:	6e690504 	cdpvs	5, 6, cr0, cr9, cr4, {0}
    1574:	04030074 	streq	r0, [r3], #-116	; 0x74
    1578:	00013b07 	andeq	r3, r1, r7, lsl #22
    157c:	06010300 	streq	r0, [r1], -r0, lsl #6
    1580:	000000eb 	andeq	r0, r0, fp, ror #1
    1584:	6f050203 	svcvs	0x00050203
    1588:	03000001 	movweq	r0, #1
    158c:	01660504 	cmneq	r6, r4, lsl #10
    1590:	08030000 	stmdaeq	r3, {}	; <UNPREDICTABLE>
    1594:	00016105 	andeq	r6, r1, r5, lsl #2
    1598:	08010300 	stmdaeq	r1, {r8, r9}
    159c:	000000e9 	andeq	r0, r0, r9, ror #1
    15a0:	04070203 	streq	r0, [r7], #-515	; 0x203
    15a4:	03000001 	movweq	r0, #1
    15a8:	01360704 	teqeq	r6, r4, lsl #14
    15ac:	08030000 	stmdaeq	r3, {}	; <UNPREDICTABLE>
    15b0:	00013107 	andeq	r3, r1, r7, lsl #2
    15b4:	07040300 	streq	r0, [r4, -r0, lsl #6]
    15b8:	00000158 	andeq	r0, r0, r8, asr r1
    15bc:	f2080103 	vrhadd.s8	d0, d8, d3
    15c0:	04000000 	streq	r0, [r0], #-0
    15c4:	00000568 	andeq	r0, r0, r8, ror #10
    15c8:	8a480501 	bhi	12029d4 <__bss_end__+0x11f914c>
    15cc:	001c0000 	andseq	r0, ip, r0
    15d0:	9c010000 	stcls	0, cr0, [r1], {-0}
    15d4:	0000009e 	muleq	r0, lr, r0
    15d8:	00056205 	andeq	r6, r5, r5, lsl #4
    15dc:	2c050100 	stfcss	f0, [r5], {-0}
    15e0:	8c000000 	stchi	0, cr0, [r0], {-0}
    15e4:	00000009 	andeq	r0, r0, r9
    15e8:	00052c06 	andeq	r2, r5, r6, lsl #24
    15ec:	2c0b0100 	stfcss	f0, [fp], {-0}
    15f0:	64000000 	strvs	r0, [r0], #-0
    15f4:	1400008a 	strne	r0, [r0], #-138	; 0x8a
    15f8:	01000000 	mrseq	r0, (UNDEF: 0)
    15fc:	0000cb9c 	muleq	r0, ip, fp
    1600:	8a700700 	bhi	1c03208 <__bss_end__+0x1bf9980>
    1604:	01de0000 	bicseq	r0, lr, r0
    1608:	01080000 	mrseq	r0, (UNDEF: 8)
    160c:	040c0550 	streq	r0, [ip], #-1360	; 0x550
    1610:	00200030 	eoreq	r0, r0, r0, lsr r0
    1614:	057e0600 	ldrbeq	r0, [lr, #-1536]!	; 0x600
    1618:	10010000 	andne	r0, r1, r0
    161c:	0000002c 	andeq	r0, r0, ip, lsr #32
    1620:	00008a78 	andeq	r8, r0, r8, ror sl
    1624:	0000001c 	andeq	r0, r0, ip, lsl r0
    1628:	010d9c01 	tsteq	sp, r1, lsl #24
    162c:	75090000 	strvc	r0, [r9, #-0]
    1630:	2c120100 	ldfcss	f0, [r2], {-0}
    1634:	c0000000 	andgt	r0, r0, r0
    1638:	0a000009 	beq	1664 <_start-0x699c>
    163c:	00008a80 	andeq	r8, r0, r0, lsl #21
    1640:	000001f3 	strdeq	r0, [r0], -r3
    1644:	008a840a 	addeq	r8, sl, sl, lsl #8
    1648:	00009e00 	andeq	r9, r0, r0, lsl #28
    164c:	8a8c0a00 	bhi	fe303e54 <__bss_end__+0xfe2fa5cc>
    1650:	01f30000 	mvnseq	r0, r0
    1654:	04000000 	streq	r0, [r0], #-0
    1658:	00000575 	andeq	r0, r0, r5, ror r5
    165c:	8a941701 	bhi	fe507268 <__bss_end__+0xfe4fd9e0>
    1660:	00240000 	eoreq	r0, r4, r0
    1664:	9c010000 	stcls	0, cr0, [r1], {-0}
    1668:	0000016b 	andeq	r0, r0, fp, ror #2
    166c:	0073750b 	rsbseq	r7, r3, fp, lsl #10
    1670:	002c1701 	eoreq	r1, ip, r1, lsl #14
    1674:	09de0000 	ldmibeq	lr, {}^	; <UNPREDICTABLE>
    1678:	720c0000 	andvc	r0, ip, #0
    167c:	18010062 	stmdane	r1, {r1, r5, r6}
    1680:	0000002c 	andeq	r0, r0, ip, lsr #32
    1684:	a40d5401 	strge	r5, [sp], #-1025	; 0x401
    1688:	1000008a 	andne	r0, r0, sl, lsl #1
    168c:	61000000 	mrsvs	r0, (UNDEF: 0)
    1690:	09000001 	stmdbeq	r0, {r0}
    1694:	01006172 	tsteq	r0, r2, ror r1
    1698:	00002c1a 	andeq	r2, r0, sl, lsl ip
    169c:	0009fc00 	andeq	pc, r9, r0, lsl #24
    16a0:	8aa80a00 	bhi	fea03ea8 <__bss_end__+0xfe9fa620>
    16a4:	00cb0000 	sbceq	r0, fp, r0
    16a8:	0a000000 	beq	16b0 <_start-0x6950>
    16ac:	00008aa0 	andeq	r8, r0, r0, lsr #21
    16b0:	000000cb 	andeq	r0, r0, fp, asr #1
    16b4:	047a0400 	ldrbteq	r0, [sl], #-1024	; 0x400
    16b8:	20010000 	andcs	r0, r1, r0
    16bc:	00008ab8 			; <UNDEFINED> instruction: 0x00008ab8
    16c0:	00000014 	andeq	r0, r0, r4, lsl r0
    16c4:	01a49c01 			; <UNDEFINED> instruction: 0x01a49c01
    16c8:	6d0b0000 	stcvs	0, cr0, [fp, #-0]
    16cc:	20010073 	andcs	r0, r1, r3, ror r0
    16d0:	0000002c 	andeq	r0, r0, ip, lsr #32
    16d4:	00000a0f 	andeq	r0, r0, pc, lsl #20
    16d8:	008ac807 	addeq	ip, sl, r7, lsl #16
    16dc:	00010d00 	andeq	r0, r1, r0, lsl #26
    16e0:	50010800 	andpl	r0, r1, r0, lsl #16
    16e4:	5001f307 	andpl	pc, r1, r7, lsl #6
    16e8:	1e03e80a 	cdpne	8, 0, cr14, cr3, cr10, {0}
    16ec:	3f040000 	svccc	0x00040000
    16f0:	01000005 	tsteq	r0, r5
    16f4:	008acc23 	addeq	ip, sl, r3, lsr #24
    16f8:	00001400 	andeq	r1, r0, r0, lsl #8
    16fc:	de9c0100 	fmllee	f0, f4, f0
    1700:	0b000001 	bleq	170c <_start-0x68f4>
    1704:	00636573 	rsbeq	r6, r3, r3, ror r5
    1708:	002c2301 	eoreq	r2, ip, r1, lsl #6
    170c:	0a300000 	beq	c01714 <__bss_end__+0xbf7e8c>
    1710:	dc070000 	stcle	0, cr0, [r7], {-0}
    1714:	6b00008a 	blvs	1944 <_start-0x66bc>
    1718:	08000001 	stmdaeq	r0, {r0}
    171c:	f3075001 	vhadd.u8	d5, d7, d1
    1720:	e80a5001 	stmda	sl, {r0, ip, lr}
    1724:	00001e03 	andeq	r1, r0, r3, lsl #28
    1728:	00055c0e 	andeq	r5, r5, lr, lsl #24
    172c:	2ca00200 	sfmcs	f0, 4, [r0]
    1730:	f3000000 	vhadd.u8	d0, d0, d0
    1734:	0f000001 	svceq	0x00000001
    1738:	0000002c 	andeq	r0, r0, ip, lsr #32
    173c:	02901000 	addseq	r1, r0, #0
    1740:	84020000 	strhi	r0, [r2], #-0
    1744:	0003ff00 	andeq	pc, r3, r0, lsl #30
    1748:	b9000400 	stmdblt	r0, {sl}
    174c:	04000009 	streq	r0, [r0], #-9
    1750:	00007201 	andeq	r7, r0, r1, lsl #4
    1754:	06050100 	streq	r0, [r5], -r0, lsl #2
    1758:	03820000 	orreq	r0, r2, #0
    175c:	8b440000 	blhi	1101764 <__bss_end__+0x10f7edc>
    1760:	01540000 	cmpeq	r4, r0
    1764:	07ed0000 	strbeq	r0, [sp, r0]!
    1768:	04020000 	streq	r0, [r2], #-0
    176c:	746e6905 	strbtvc	r6, [lr], #-2309	; 0x905
    1770:	07040300 	streq	r0, [r4, -r0, lsl #6]
    1774:	0000013b 	andeq	r0, r0, fp, lsr r1
    1778:	eb060103 	bl	181b8c <__bss_end__+0x178304>
    177c:	03000000 	movweq	r0, #0
    1780:	016f0502 	cmneq	pc, r2, lsl #10
    1784:	04030000 	streq	r0, [r3], #-0
    1788:	00016605 	andeq	r6, r1, r5, lsl #12
    178c:	05080300 	streq	r0, [r8, #-768]	; 0x300
    1790:	00000161 	andeq	r0, r0, r1, ror #2
    1794:	e9080103 	stmdb	r8, {r0, r1, r8}
    1798:	03000000 	movweq	r0, #0
    179c:	01040702 	tsteq	r4, r2, lsl #14
    17a0:	04030000 	streq	r0, [r3], #-0
    17a4:	00013607 	andeq	r3, r1, r7, lsl #12
    17a8:	07080300 	streq	r0, [r8, -r0, lsl #6]
    17ac:	00000131 	andeq	r0, r0, r1, lsr r1
    17b0:	58070403 	stmdapl	r7, {r0, r1, sl}
    17b4:	03000001 	movweq	r0, #1
    17b8:	00f20801 	rscseq	r0, r2, r1, lsl #16
    17bc:	01040000 	mrseq	r0, (UNDEF: 4)
    17c0:	00b20c02 	adcseq	r0, r2, r2, lsl #24
    17c4:	0d050000 	stceq	0, cr0, [r5, #-0]
    17c8:	00000007 	andeq	r0, r0, r7
    17cc:	0005f405 	andeq	pc, r5, r5, lsl #8
    17d0:	b9050100 	stmdblt	r5, {r8}
    17d4:	04000005 	streq	r0, [r0], #-5
    17d8:	00060c05 	andeq	r0, r6, r5, lsl #24
    17dc:	1b050500 	blne	142be4 <__bss_end__+0x13935c>
    17e0:	06000006 	streq	r0, [r0], -r6
    17e4:	00062a05 	andeq	r2, r6, r5, lsl #20
    17e8:	c4050700 	strgt	r0, [r5], #-1792	; 0x700
    17ec:	03000006 	movweq	r0, #6
    17f0:	00063905 	andeq	r3, r6, r5, lsl #18
    17f4:	06000200 	streq	r0, [r0], -r0, lsl #4
    17f8:	00000676 	andeq	r0, r0, r6, ror r6
    17fc:	00791502 	rsbseq	r1, r9, r2, lsl #10
    1800:	c8070000 	stmdagt	r7, {}	; <UNPREDICTABLE>
    1804:	01000005 	tsteq	r0, r5
    1808:	00002557 	andeq	r2, r0, r7, asr r5
    180c:	008b4400 	addeq	r4, fp, r0, lsl #8
    1810:	00001c00 	andeq	r1, r0, r0, lsl #24
    1814:	e09c0100 	adds	r0, ip, r0, lsl #2
    1818:	08000000 	stmdaeq	r0, {}	; <UNPREDICTABLE>
    181c:	00008b54 	andeq	r8, r0, r4, asr fp
    1820:	000003a8 	andeq	r0, r0, r8, lsr #7
    1824:	00df0900 	sbcseq	r0, pc, r0, lsl #18
    1828:	37010000 	strcc	r0, [r1, -r0]
    182c:	00008b60 	andeq	r8, r0, r0, ror #22
    1830:	0000009c 	muleq	r0, ip, r0
    1834:	01e69c01 	mvneq	r9, r1, lsl #24
    1838:	68080000 	stmdavs	r8, {}	; <UNPREDICTABLE>
    183c:	c900008b 	stmdbgt	r0, {r0, r1, r3, r7}
    1840:	0a000003 	beq	1854 <_start-0x67ac>
    1844:	00008b74 	andeq	r8, r0, r4, ror fp
    1848:	000003d0 	ldrdeq	r0, [r0], -r0	; <UNPREDICTABLE>
    184c:	00000116 	andeq	r0, r0, r6, lsl r1
    1850:	0151010b 	cmpeq	r1, fp, lsl #2
    1854:	50010b32 	andpl	r0, r1, r2, lsr fp
    1858:	0a003e01 	beq	11064 <__bss_end__+0x77dc>
    185c:	00008b80 	andeq	r8, r0, r0, lsl #23
    1860:	000003d0 	ldrdeq	r0, [r0], -r0	; <UNPREDICTABLE>
    1864:	0000012e 	andeq	r0, r0, lr, lsr #2
    1868:	0151010b 	cmpeq	r1, fp, lsl #2
    186c:	50010b32 	andpl	r0, r1, r2, lsr fp
    1870:	08003f01 	stmdaeq	r0, {r0, r8, r9, sl, fp, ip, sp}
    1874:	00008b84 	andeq	r8, r0, r4, lsl #23
    1878:	000003c9 	andeq	r0, r0, r9, asr #7
    187c:	008b940a 	addeq	r9, fp, sl, lsl #8
    1880:	0003a800 	andeq	sl, r3, r0, lsl #16
    1884:	00014b00 	andeq	r4, r1, r0, lsl #22
    1888:	50010b00 	andpl	r0, r1, r0, lsl #22
    188c:	00007502 	andeq	r7, r0, r2, lsl #10
    1890:	008ba00a 	addeq	sl, fp, sl
    1894:	0003e600 	andeq	lr, r3, r0, lsl #12
    1898:	00015f00 	andeq	r5, r1, r0, lsl #30
    189c:	50010b00 	andpl	r0, r1, r0, lsl #22
    18a0:	00007502 	andeq	r7, r0, r2, lsl #10
    18a4:	008ba408 	addeq	sl, fp, r8, lsl #8
    18a8:	0003c900 	andeq	ip, r3, r0, lsl #18
    18ac:	8bb00a00 	blhi	fec040b4 <__bss_end__+0xfebfa82c>
    18b0:	03e60000 	mvneq	r0, #0
    18b4:	017b0000 	cmneq	fp, r0
    18b8:	010b0000 	mrseq	r0, (UNDEF: 11)
    18bc:	00300151 	eorseq	r0, r0, r1, asr r1
    18c0:	008bbc0a 	addeq	fp, fp, sl, lsl #24
    18c4:	0003e600 	andeq	lr, r3, r0, lsl #12
    18c8:	00018e00 	andeq	r8, r1, r0, lsl #28
    18cc:	51010b00 	tstpl	r1, r0, lsl #22
    18d0:	0a003001 	beq	d8dc <__bss_end__+0x4054>
    18d4:	00008bc8 	andeq	r8, r0, r8, asr #23
    18d8:	000003e6 	andeq	r0, r0, r6, ror #7
    18dc:	000001a1 	andeq	r0, r0, r1, lsr #3
    18e0:	0151010b 	cmpeq	r1, fp, lsl #2
    18e4:	d40a0036 	strle	r0, [sl], #-54	; 0x36
    18e8:	e600008b 	str	r0, [r0], -fp, lsl #1
    18ec:	b4000003 	strlt	r0, [r0], #-3
    18f0:	0b000001 	bleq	18fc <_start-0x6704>
    18f4:	33015101 	movwcc	r5, #4353	; 0x1101
    18f8:	8be00a00 	blhi	ff804100 <__bss_end__+0xff7fa878>
    18fc:	03e60000 	mvneq	r0, #0
    1900:	01c90000 	biceq	r0, r9, r0
    1904:	010b0000 	mrseq	r0, (UNDEF: 11)
    1908:	0e0a0351 	mcreq	3, 0, r0, cr10, cr1, {2}
    190c:	ec0a0001 	stc	0, cr0, [sl], {1}
    1910:	e600008b 	str	r0, [r0], -fp, lsl #1
    1914:	dc000003 	stcle	0, cr0, [r0], {3}
    1918:	0b000001 	bleq	1924 <_start-0x66dc>
    191c:	33015101 	movwcc	r5, #4353	; 0x1101
    1920:	8bf00800 	blhi	ffc03928 <__bss_end__+0xffbfa0a0>
    1924:	03c90000 	biceq	r0, r9, #0
    1928:	0c000000 	stceq	0, cr0, [r0], {-0}
    192c:	0000065d 	andeq	r0, r0, sp, asr r6
    1930:	00255d01 	eoreq	r5, r5, r1, lsl #26
    1934:	8bfc0000 	blhi	fff0193c <__bss_end__+0xffef80b4>
    1938:	00280000 	eoreq	r0, r8, r0
    193c:	9c010000 	stcls	0, cr0, [r1], {-0}
    1940:	00000212 	andeq	r0, r0, r2, lsl r2
    1944:	008c0408 	addeq	r0, ip, r8, lsl #8
    1948:	0000bd00 	andeq	fp, r0, r0, lsl #26
    194c:	8c180800 	ldchi	8, cr0, [r8], {-0}
    1950:	03a80000 			; <UNDEFINED> instruction: 0x03a80000
    1954:	0c000000 	stceq	0, cr0, [r0], {-0}
    1958:	00000682 	andeq	r0, r0, r2, lsl #13
    195c:	00256401 	eoreq	r6, r5, r1, lsl #8
    1960:	8c240000 	stchi	0, cr0, [r4], #-0
    1964:	001c0000 	andseq	r0, ip, r0
    1968:	9c010000 	stcls	0, cr0, [r1], {-0}
    196c:	00000235 	andeq	r0, r0, r5, lsr r2
    1970:	008c3408 	addeq	r3, ip, r8, lsl #8
    1974:	0003a800 	andeq	sl, r3, r0, lsl #16
    1978:	f4090000 	vst4.8	{d0-d3}, [r9], r0
    197c:	01000006 	tsteq	r0, r6
    1980:	008c406a 	addeq	r4, ip, sl, rrx
    1984:	00002c00 	andeq	r2, r0, r0, lsl #24
    1988:	719c0100 	orrsvc	r0, ip, r0, lsl #2
    198c:	0d000002 	stceq	0, cr0, [r0, #-8]
    1990:	6a010063 	bvs	41b24 <__bss_end__+0x3829c>
    1994:	0000002c 	andeq	r0, r0, ip, lsr #32
    1998:	00000a51 	andeq	r0, r0, r1, asr sl
    199c:	008c4c08 	addeq	r4, ip, r8, lsl #24
    19a0:	00021200 	andeq	r1, r2, r0, lsl #4
    19a4:	8c640e00 	stclhi	14, cr0, [r4], #-0
    19a8:	03e60000 	mvneq	r0, #0
    19ac:	010b0000 	mrseq	r0, (UNDEF: 11)
    19b0:	00740251 	rsbseq	r0, r4, r1, asr r2
    19b4:	e60c0000 	str	r0, [ip], -r0
    19b8:	01000005 	tsteq	r0, r5
    19bc:	00002574 	andeq	r2, r0, r4, ror r5
    19c0:	008c6c00 	addeq	r6, ip, r0, lsl #24
    19c4:	00000c00 	andeq	r0, r0, r0, lsl #24
    19c8:	949c0100 	ldrls	r0, [ip], #256	; 0x100
    19cc:	08000002 	stmdaeq	r0, {r1}
    19d0:	00008c74 	andeq	r8, r0, r4, ror ip
    19d4:	000000bd 	strheq	r0, [r0], -sp
    19d8:	072c0c00 	streq	r0, [ip, -r0, lsl #24]!
    19dc:	78010000 	stmdavc	r1, {}	; <UNPREDICTABLE>
    19e0:	00000025 	andeq	r0, r0, r5, lsr #32
    19e4:	00008c78 	andeq	r8, r0, r8, ror ip
    19e8:	00000020 	andeq	r0, r0, r0, lsr #32
    19ec:	02c09c01 	sbceq	r9, r0, #256	; 0x100
    19f0:	80080000 	andhi	r0, r8, r0
    19f4:	7100008c 	smlabbvc	r0, ip, r0, r0
    19f8:	08000002 	stmdaeq	r0, {r1}
    19fc:	00008c8c 	andeq	r8, r0, ip, lsl #25
    1a00:	000001e6 	andeq	r0, r0, r6, ror #3
    1a04:	069c0f00 	ldreq	r0, [ip], r0, lsl #30
    1a08:	16010000 	strne	r0, [r1], -r0
    1a0c:	000002d1 	ldrdeq	r0, [r0], -r1
    1a10:	908c0305 	addls	r0, ip, r5, lsl #6
    1a14:	04100000 	ldreq	r0, [r0], #-0
    1a18:	000002d7 	ldrdeq	r0, [r0], -r7
    1a1c:	00002c11 	andeq	r2, r0, r1, lsl ip
    1a20:	06900f00 	ldreq	r0, [r0], r0, lsl #30
    1a24:	17010000 	strne	r0, [r1, -r0]
    1a28:	000002d1 	ldrdeq	r0, [r0], -r1
    1a2c:	90600305 	rsbls	r0, r0, r5, lsl #6
    1a30:	9c0f0000 	stcls	0, cr0, [pc], {-0}
    1a34:	01000005 	tsteq	r0, r5
    1a38:	0002d11a 	andeq	sp, r2, sl, lsl r1
    1a3c:	78030500 	stmdavc	r3, {r8, sl}
    1a40:	0f000090 	svceq	0x00000090
    1a44:	00000648 	andeq	r0, r0, r8, asr #12
    1a48:	02d11b01 	sbcseq	r1, r1, #1024	; 0x400
    1a4c:	03050000 	movweq	r0, #20480	; 0x5000
    1a50:	00009068 	andeq	r9, r0, r8, rrx
    1a54:	0006670f 	andeq	r6, r6, pc, lsl #14
    1a58:	d11c0100 	tstle	ip, r0, lsl #2
    1a5c:	05000002 	streq	r0, [r0, #-2]
    1a60:	00906c03 	addseq	r6, r0, r3, lsl #24
    1a64:	06fe0f00 	ldrbteq	r0, [lr], r0, lsl #30
    1a68:	1d010000 	stcne	0, cr0, [r1, #-0]
    1a6c:	000002d1 	ldrdeq	r0, [r0], -r1
    1a70:	90700305 	rsbsls	r0, r0, r5, lsl #6
    1a74:	8d0f0000 	stchi	0, cr0, [pc, #-0]	; 1a7c <_start-0x6584>
    1a78:	01000005 	tsteq	r0, r5
    1a7c:	0002d11e 	andeq	sp, r2, lr, lsl r1
    1a80:	88030500 	stmdahi	r3, {r8, sl}
    1a84:	0f000090 	svceq	0x00000090
    1a88:	0000071d 	andeq	r0, r0, sp, lsl r7
    1a8c:	02d11f01 	sbcseq	r1, r1, #1, 30
    1a90:	03050000 	movweq	r0, #20480	; 0x5000
    1a94:	0000905c 	andeq	r9, r0, ip, asr r0
    1a98:	0005aa0f 	andeq	sl, r5, pc, lsl #20
    1a9c:	d1200100 	teqle	r0, r0, lsl #2
    1aa0:	05000002 	streq	r0, [r0, #-2]
    1aa4:	00908403 	addseq	r8, r0, r3, lsl #8
    1aa8:	06e50f00 	strbteq	r0, [r5], r0, lsl #30
    1aac:	21010000 	mrscs	r0, (UNDEF: 1)
    1ab0:	000002d1 	ldrdeq	r0, [r0], -r1
    1ab4:	90800305 	addls	r0, r0, r5, lsl #6
    1ab8:	d60f0000 	strle	r0, [pc], -r0
    1abc:	01000005 	tsteq	r0, r5
    1ac0:	0002d122 	andeq	sp, r2, r2, lsr #2
    1ac4:	64030500 	strvs	r0, [r3], #-1280	; 0x500
    1ac8:	0f000090 	svceq	0x00000090
    1acc:	000006b4 			; <UNDEFINED> instruction: 0x000006b4
    1ad0:	02d12301 	sbcseq	r2, r1, #67108864	; 0x4000000
    1ad4:	03050000 	movweq	r0, #20480	; 0x5000
    1ad8:	0000907c 	andeq	r9, r0, ip, ror r0
    1adc:	0006a40f 	andeq	sl, r6, pc, lsl #8
    1ae0:	d1240100 	teqle	r4, r0, lsl #2
    1ae4:	05000002 	streq	r0, [r0, #-2]
    1ae8:	00907403 	addseq	r7, r0, r3, lsl #8
    1aec:	073c1200 	ldreq	r1, [ip, -r0, lsl #4]!
    1af0:	a1030000 	mrsge	r0, (UNDEF: 3)
    1af4:	0000002c 	andeq	r0, r0, ip, lsr #32
    1af8:	000003bd 			; <UNDEFINED> instruction: 0x000003bd
    1afc:	0003bd13 	andeq	fp, r3, r3, lsl sp
    1b00:	04100000 	ldreq	r0, [r0], #-0
    1b04:	000003c3 	andeq	r0, r0, r3, asr #7
    1b08:	0003c814 	andeq	ip, r3, r4, lsl r8
    1b0c:	90161500 	andsls	r1, r6, r0, lsl #10
    1b10:	03000002 	movweq	r0, #2
    1b14:	06d31784 	ldrbeq	r1, [r3], r4, lsl #15
    1b18:	19020000 	stmdbne	r2, {}	; <UNPREDICTABLE>
    1b1c:	000003e6 	andeq	r0, r0, r6, ror #7
    1b20:	00002c13 	andeq	r2, r0, r3, lsl ip
    1b24:	00b21300 	adcseq	r1, r2, r0, lsl #6
    1b28:	17000000 	strne	r0, [r0, -r0]
    1b2c:	00000657 	andeq	r0, r0, r7, asr r6
    1b30:	03fc9503 	mvnseq	r9, #12582912	; 0xc00000
    1b34:	fc130000 	ldc2	0, cr0, [r3], {-0}
    1b38:	13000003 	movwne	r0, #3
    1b3c:	0000002c 	andeq	r0, r0, ip, lsr #32
    1b40:	c8041000 	stmdagt	r4, {ip}
    1b44:	00000003 	andeq	r0, r0, r3
    1b48:	00000568 	andeq	r0, r0, r8, ror #10
    1b4c:	0b010004 	bleq	41b64 <__bss_end__+0x382dc>
    1b50:	01040000 	mrseq	r0, (UNDEF: 4)
    1b54:	00000072 	andeq	r0, r0, r2, ror r0
    1b58:	0007f101 	andeq	pc, r7, r1, lsl #2
    1b5c:	00038200 	andeq	r8, r3, r0, lsl #4
    1b60:	008c9800 	addeq	r9, ip, r0, lsl #16
    1b64:	0003ac00 	andeq	sl, r3, r0, lsl #24
    1b68:	00086800 	andeq	r6, r8, r0, lsl #16
    1b6c:	07080200 	streq	r0, [r8, -r0, lsl #4]
    1b70:	00000131 	andeq	r0, r0, r1, lsr r1
    1b74:	3b070402 	blcc	1c2b84 <__bss_end__+0x1b92fc>
    1b78:	02000001 	andeq	r0, r0, #1
    1b7c:	00eb0601 	rsceq	r0, fp, r1, lsl #12
    1b80:	02020000 	andeq	r0, r2, #0
    1b84:	00016f05 	andeq	r6, r1, r5, lsl #30
    1b88:	05040200 	streq	r0, [r4, #-512]	; 0x200
    1b8c:	00000166 	andeq	r0, r0, r6, ror #2
    1b90:	61050802 	tstvs	r5, r2, lsl #16
    1b94:	02000001 	andeq	r0, r0, #1
    1b98:	00e90801 	rsceq	r0, r9, r1, lsl #16
    1b9c:	02020000 	andeq	r0, r2, #0
    1ba0:	00010407 	andeq	r0, r1, r7, lsl #8
    1ba4:	07040200 	streq	r0, [r4, -r0, lsl #4]
    1ba8:	00000136 	andeq	r0, r0, r6, lsr r1
    1bac:	69050403 	stmdbvs	r5, {r0, r1, sl}
    1bb0:	0200746e 	andeq	r7, r0, #1845493760	; 0x6e000000
    1bb4:	01580704 	cmpeq	r8, r4, lsl #14
    1bb8:	01020000 	mrseq	r0, (UNDEF: 2)
    1bbc:	0000f208 	andeq	pc, r0, r8, lsl #4
    1bc0:	02010400 	andeq	r0, r1, #0, 8
    1bc4:	0000b20c 	andeq	fp, r0, ip, lsl #4
    1bc8:	070d0500 	streq	r0, [sp, -r0, lsl #10]
    1bcc:	05000000 	streq	r0, [r0, #-0]
    1bd0:	000005f4 	strdeq	r0, [r0], -r4
    1bd4:	05b90501 	ldreq	r0, [r9, #1281]!	; 0x501
    1bd8:	05040000 	streq	r0, [r4, #-0]
    1bdc:	0000060c 	andeq	r0, r0, ip, lsl #12
    1be0:	061b0505 	ldreq	r0, [fp], -r5, lsl #10
    1be4:	05060000 	streq	r0, [r6, #-0]
    1be8:	0000062a 	andeq	r0, r0, sl, lsr #12
    1bec:	06c40507 	strbeq	r0, [r4], r7, lsl #10
    1bf0:	05030000 	streq	r0, [r3, #-0]
    1bf4:	00000639 	andeq	r0, r0, r9, lsr r6
    1bf8:	76060002 	strvc	r0, [r6], -r2
    1bfc:	02000006 	andeq	r0, r0, #6
    1c00:	00007915 	andeq	r7, r0, r5, lsl r9
    1c04:	07c10700 	strbeq	r0, [r1, r0, lsl #14]
    1c08:	3f010000 	svccc	0x00010000
    1c0c:	00008c98 	muleq	r0, r8, ip
    1c10:	000000d4 	ldrdeq	r0, [r0], -r4
    1c14:	01339c01 	teqeq	r3, r1, lsl #24
    1c18:	70080000 	andvc	r0, r8, r0
    1c1c:	01006e69 	tsteq	r0, r9, ror #28
    1c20:	00002c3f 	andeq	r2, r0, pc, lsr ip
    1c24:	000a6f00 	andeq	r6, sl, r0, lsl #30
    1c28:	07f80900 	ldrbeq	r0, [r8, r0, lsl #18]!
    1c2c:	47010000 	strmi	r0, [r1, -r0]
    1c30:	00000133 	andeq	r0, r0, r3, lsr r1
    1c34:	00000a8d 	andeq	r0, r0, sp, lsl #21
    1c38:	0007de09 	andeq	sp, r7, r9, lsl #28
    1c3c:	2c490100 	stfcse	f0, [r9], {-0}
    1c40:	e2000000 	and	r0, r0, #0
    1c44:	0900000a 	stmdbeq	r0, {r1, r3}
    1c48:	000007e9 	andeq	r0, r0, r9, ror #15
    1c4c:	002c5701 	eoreq	r5, ip, r1, lsl #14
    1c50:	0cae0000 	stceq	0, cr0, [lr]
    1c54:	2c0a0000 	stccs	0, cr0, [sl], {-0}
    1c58:	2e00008d 	cdpcs	0, 0, cr0, cr0, cr13, {4}
    1c5c:	22000005 	andcs	r0, r0, #5
    1c60:	0b000001 	bleq	1c6c <_start-0x6394>
    1c64:	75025001 	strvc	r5, [r2, #-1]
    1c68:	600c0000 	andvs	r0, ip, r0
    1c6c:	4f00008d 	svcmi	0x0000008d
    1c70:	0b000005 	bleq	1c8c <_start-0x6374>
    1c74:	75025001 	strvc	r5, [r2, #-1]
    1c78:	0d000000 	stceq	0, cr0, [r0, #-0]
    1c7c:	00013904 	andeq	r3, r1, r4, lsl #18
    1c80:	002c0e00 	eoreq	r0, ip, r0, lsl #28
    1c84:	7d0f0000 	stcvc	0, cr0, [pc, #-0]	; 1c8c <_start-0x6374>
    1c88:	01000007 	tsteq	r0, r7
    1c8c:	016c0360 	cmneq	ip, r0, ror #6
    1c90:	70100000 	andsvc	r0, r0, r0
    1c94:	01006e69 	tsteq	r0, r9, ror #28
    1c98:	00002c60 	andeq	r2, r0, r0, ror #24
    1c9c:	07f81100 	ldrbeq	r1, [r8, r0, lsl #2]!
    1ca0:	67010000 	strvs	r0, [r1, -r0]
    1ca4:	00000133 	andeq	r0, r0, r3, lsr r1
    1ca8:	0007e911 	andeq	lr, r7, r1, lsl r9
    1cac:	2c680100 	stfcse	f0, [r8], #-0
    1cb0:	00000000 	andeq	r0, r0, r0
    1cb4:	00013e12 	andeq	r3, r1, r2, lsl lr
    1cb8:	008d6c00 	addeq	r6, sp, r0, lsl #24
    1cbc:	00003800 	andeq	r3, r0, r0, lsl #16
    1cc0:	b09c0100 	addslt	r0, ip, r0, lsl #2
    1cc4:	13000001 	movwne	r0, #1
    1cc8:	0000014a 	andeq	r0, r0, sl, asr #2
    1ccc:	00000cde 	ldrdeq	r0, [r0], -lr
    1cd0:	00015514 	andeq	r5, r1, r4, lsl r5
    1cd4:	000cff00 	andeq	pc, ip, r0, lsl #30
    1cd8:	01601400 	cmneq	r0, r0, lsl #8
    1cdc:	0d350000 	ldceq	0, cr0, [r5, #-0]
    1ce0:	9c0c0000 	stcls	0, cr0, [ip], {-0}
    1ce4:	4f00008d 	svcmi	0x0000008d
    1ce8:	0b000005 	bleq	1d04 <_start-0x62fc>
    1cec:	31075101 	tstcc	r7, r1, lsl #2
    1cf0:	4f5001f3 	svcmi	0x005001f3
    1cf4:	0000241a 	andeq	r2, r0, sl, lsl r4
    1cf8:	0007b40f 	andeq	fp, r7, pc, lsl #8
    1cfc:	037b0100 	cmneq	fp, #0, 2
    1d00:	000001de 	ldrdeq	r0, [r0], -lr
    1d04:	6e697010 	mcrvs	0, 3, r7, cr9, cr0, {0}
    1d08:	2c7b0100 	ldfcse	f0, [fp], #-0
    1d0c:	11000000 	mrsne	r0, (UNDEF: 0)
    1d10:	000007f8 	strdeq	r0, [r0], -r8
    1d14:	01338101 	teqeq	r3, r1, lsl #2
    1d18:	e9110000 	ldmdb	r1, {}	; <UNPREDICTABLE>
    1d1c:	01000007 	tsteq	r0, r7
    1d20:	00002c82 	andeq	r2, r0, r2, lsl #25
    1d24:	b0120000 	andslt	r0, r2, r0
    1d28:	a4000001 	strge	r0, [r0], #-1
    1d2c:	3800008d 	stmdacc	r0, {r0, r2, r3, r7}
    1d30:	01000000 	mrseq	r0, (UNDEF: 0)
    1d34:	0002229c 	muleq	r2, ip, r2
    1d38:	01bc1300 			; <UNDEFINED> instruction: 0x01bc1300
    1d3c:	0d750000 	ldcleq	0, cr0, [r5, #-0]
    1d40:	c7140000 	ldrgt	r0, [r4, -r0]
    1d44:	96000001 	strls	r0, [r0], -r1
    1d48:	1400000d 	strne	r0, [r0], #-13
    1d4c:	000001d2 	ldrdeq	r0, [r0], -r2
    1d50:	00000dcc 	andeq	r0, r0, ip, asr #27
    1d54:	008dd40c 	addeq	sp, sp, ip, lsl #8
    1d58:	00054f00 	andeq	r4, r5, r0, lsl #30
    1d5c:	51010b00 	tstpl	r1, r0, lsl #22
    1d60:	01f33107 	mvnseq	r3, r7, lsl #2
    1d64:	241a4f50 	ldrcs	r4, [sl], #-3920	; 0xf50
    1d68:	9e070000 	cdpls	0, 0, cr0, cr7, cr0, {0}
    1d6c:	01000007 	tsteq	r0, r7
    1d70:	008ddc95 	umulleq	sp, sp, r5, ip	; <UNPREDICTABLE>
    1d74:	0000cc00 	andeq	ip, r0, r0, lsl #24
    1d78:	989c0100 	ldmls	ip, {r8}
    1d7c:	08000002 	stmdaeq	r0, {r1}
    1d80:	006e6970 	rsbeq	r6, lr, r0, ror r9
    1d84:	002c9501 	eoreq	r9, ip, r1, lsl #10
    1d88:	0e0c0000 	cdpeq	0, 0, cr0, cr12, cr0, {0}
    1d8c:	f8090000 			; <UNDEFINED> instruction: 0xf8090000
    1d90:	01000007 	tsteq	r0, r7
    1d94:	0001339b 	muleq	r1, fp, r3
    1d98:	000e2a00 	andeq	r2, lr, r0, lsl #20
    1d9c:	07de0900 	ldrbeq	r0, [lr, r0, lsl #18]
    1da0:	9d010000 	stcls	0, cr0, [r1, #-0]
    1da4:	0000002c 	andeq	r0, r0, ip, lsr #32
    1da8:	00000e7f 	andeq	r0, r0, pc, ror lr
    1dac:	0007e909 	andeq	lr, r7, r9, lsl #18
    1db0:	2cab0100 	stfcss	f0, [fp]
    1db4:	4b000000 	blmi	1dbc <_start-0x6244>
    1db8:	0a000010 	beq	1e00 <_start-0x6200>
    1dbc:	00008e70 	andeq	r8, r0, r0, ror lr
    1dc0:	0000052e 	andeq	r0, r0, lr, lsr #10
    1dc4:	00000287 	andeq	r0, r0, r7, lsl #5
    1dc8:	0250010b 	subseq	r0, r0, #-1073741822	; 0xc0000002
    1dcc:	0c000075 	stceq	0, cr0, [r0], {117}	; 0x75
    1dd0:	00008e9c 	muleq	r0, ip, lr
    1dd4:	0000054f 	andeq	r0, r0, pc, asr #10
    1dd8:	0250010b 	subseq	r0, r0, #-1073741822	; 0xc0000002
    1ddc:	00000075 	andeq	r0, r0, r5, ror r0
    1de0:	00077315 	andeq	r7, r7, r5, lsl r3
    1de4:	64b30100 	ldrtvs	r0, [r3], #256	; 0x100
    1de8:	a8000000 	stmdage	r0, {}	; <UNPREDICTABLE>
    1dec:	4c00008e 	stcmi	0, cr0, [r0], {142}	; 0x8e
    1df0:	01000000 	mrseq	r0, (UNDEF: 0)
    1df4:	0002e09c 	muleq	r2, ip, r0
    1df8:	69700800 	ldmdbvs	r0!, {fp}^
    1dfc:	b301006e 	movwlt	r0, #4206	; 0x106e
    1e00:	0000002c 	andeq	r0, r0, ip, lsr #32
    1e04:	00001069 	andeq	r1, r0, r9, rrx
    1e08:	01007616 	tsteq	r0, r6, lsl r6
    1e0c:	00002cb9 			; <UNDEFINED> instruction: 0x00002cb9
    1e10:	0010c100 	andseq	ip, r0, r0, lsl #2
    1e14:	8ec81700 	cdphi	7, 12, cr1, cr8, cr0, {0}
    1e18:	052e0000 	streq	r0, [lr, #-0]!
    1e1c:	d8170000 	ldmdale	r7, {}	; <UNPREDICTABLE>
    1e20:	2e00008e 	cdpcs	0, 0, cr0, cr0, cr14, {4}
    1e24:	00000005 	andeq	r0, r0, r5
    1e28:	00075607 	andeq	r5, r7, r7, lsl #12
    1e2c:	f4c50100 	vst2.8	{d16[0],d17[0]}, [r5], r0
    1e30:	7800008e 	stmdavc	r0, {r1, r2, r3, r7}
    1e34:	01000000 	mrseq	r0, (UNDEF: 0)
    1e38:	0003aa9c 	muleq	r3, ip, sl
    1e3c:	69700800 	ldmdbvs	r0!, {fp}^
    1e40:	c501006e 	strgt	r0, [r1, #-110]	; 0x6e
    1e44:	0000002c 	andeq	r0, r0, ip, lsr #32
    1e48:	000010f7 	strdeq	r1, [r0], -r7
    1e4c:	01007608 	tsteq	r0, r8, lsl #12
    1e50:	00002cc5 	andeq	r2, r0, r5, asr #25
    1e54:	00113100 	andseq	r3, r1, r0, lsl #2
    1e58:	013e1800 	teqeq	lr, r0, lsl #16
    1e5c:	8f080000 	svchi	0x00080000
    1e60:	00300000 	eorseq	r0, r0, r0
    1e64:	cc010000 	stcgt	0, cr0, [r1], {-0}
    1e68:	0000035f 	andeq	r0, r0, pc, asr r3
    1e6c:	00014a13 	andeq	r4, r1, r3, lsl sl
    1e70:	00116b00 	andseq	r6, r1, r0, lsl #22
    1e74:	8f081900 	svchi	0x00081900
    1e78:	00300000 	eorseq	r0, r0, r0
    1e7c:	55140000 	ldrpl	r0, [r4, #-0]
    1e80:	8c000001 	stchi	0, cr0, [r0], {1}
    1e84:	14000011 	strne	r0, [r0], #-17
    1e88:	00000160 	andeq	r0, r0, r0, ror #2
    1e8c:	000011c2 	andeq	r1, r0, r2, asr #3
    1e90:	008f340c 	addeq	r3, pc, ip, lsl #8
    1e94:	00054f00 	andeq	r4, r5, r0, lsl #30
    1e98:	51010b00 	tstpl	r1, r0, lsl #22
    1e9c:	01f33107 	mvnseq	r3, r7, lsl #2
    1ea0:	241a4f50 	ldrcs	r4, [sl], #-3920	; 0xf50
    1ea4:	1a000000 	bne	1eac <_start-0x6154>
    1ea8:	000001b0 			; <UNDEFINED> instruction: 0x000001b0
    1eac:	00008f38 	andeq	r8, r0, r8, lsr pc
    1eb0:	00000034 	andeq	r0, r0, r4, lsr r0
    1eb4:	bc13ce01 	ldclt	14, cr12, [r3], {1}
    1eb8:	02000001 	andeq	r0, r0, #1
    1ebc:	19000012 	stmdbne	r0, {r1, r4}
    1ec0:	00008f38 	andeq	r8, r0, r8, lsr pc
    1ec4:	00000034 	andeq	r0, r0, r4, lsr r0
    1ec8:	0001c714 	andeq	ip, r1, r4, lsl r7
    1ecc:	00122300 	andseq	r2, r2, r0, lsl #6
    1ed0:	01d21400 	bicseq	r1, r2, r0, lsl #8
    1ed4:	12590000 	subsne	r0, r9, #0
    1ed8:	640c0000 	strvs	r0, [ip], #-0
    1edc:	4f00008f 	svcmi	0x0000008f
    1ee0:	0b000005 	bleq	1efc <_start-0x6104>
    1ee4:	31075101 	tstcc	r7, r1, lsl #2
    1ee8:	4f5001f3 	svcmi	0x005001f3
    1eec:	0000241a 	andeq	r2, r0, sl, lsl r4
    1ef0:	d3070000 	movwle	r0, #28672	; 0x7000
    1ef4:	01000006 	tsteq	r0, r6
    1ef8:	008f6cd1 	ldrdeq	r6, [pc], r1
    1efc:	0000d800 	andeq	sp, r0, r0, lsl #16
    1f00:	2f9c0100 	svccs	0x009c0100
    1f04:	08000004 	stmdaeq	r0, {r2}
    1f08:	006e6970 	rsbeq	r6, lr, r0, ror r9
    1f0c:	002cd101 	eoreq	sp, ip, r1, lsl #2
    1f10:	12990000 	addsne	r0, r9, #0
    1f14:	d91b0000 	ldmdble	fp, {}	; <UNPREDICTABLE>
    1f18:	01000007 	tsteq	r0, r7
    1f1c:	0000b2d1 	ldrdeq	fp, [r0], -r1
    1f20:	0012b700 	andseq	fp, r2, r0, lsl #14
    1f24:	07f80900 	ldrbeq	r0, [r8, r0, lsl #18]!
    1f28:	d9010000 	stmdble	r1, {}	; <UNPREDICTABLE>
    1f2c:	00000133 	andeq	r0, r0, r3, lsr r1
    1f30:	000012d8 	ldrdeq	r1, [r0], -r8
    1f34:	0007de09 	andeq	sp, r7, r9, lsl #28
    1f38:	2cda0100 	ldfcse	f0, [sl], {0}
    1f3c:	2d000000 	stccs	0, cr0, [r0, #-0]
    1f40:	09000013 	stmdbeq	r0, {r0, r1, r4}
    1f44:	000007e9 	andeq	r0, r0, r9, ror #15
    1f48:	002ce801 	eoreq	lr, ip, r1, lsl #16
    1f4c:	14f90000 	ldrbtne	r0, [r9], #0
    1f50:	080a0000 	stmdaeq	sl, {}	; <UNPREDICTABLE>
    1f54:	2e000090 	mcrcs	0, 0, r0, cr0, cr0, {4}
    1f58:	1e000005 	cdpne	0, 0, cr0, cr0, cr5, {0}
    1f5c:	0b000004 	bleq	1f74 <_start-0x608c>
    1f60:	76025001 	strvc	r5, [r2], -r1
    1f64:	380c0000 	stmdacc	ip, {}	; <UNPREDICTABLE>
    1f68:	4f000090 	svcmi	0x00000090
    1f6c:	0b000005 	bleq	1f88 <_start-0x6078>
    1f70:	76025001 	strvc	r5, [r2], -r1
    1f74:	1c000000 	stcne	0, cr0, [r0], {-0}
    1f78:	00000761 	andeq	r0, r0, r1, ror #14
    1f7c:	01332801 	teqeq	r3, r1, lsl #16
    1f80:	03050000 	movweq	r0, #20480	; 0x5000
    1f84:	000090c8 	andeq	r9, r0, r8, asr #1
    1f88:	00074c1c 	andeq	r4, r7, ip, lsl ip
    1f8c:	33290100 	teqcc	r9, #0, 2
    1f90:	05000001 	streq	r0, [r0, #-1]
    1f94:	0090c403 	addseq	ip, r0, r3, lsl #8
    1f98:	07421c00 	strbeq	r1, [r2, -r0, lsl #24]
    1f9c:	2a010000 	bcs	41fa4 <__bss_end__+0x3871c>
    1fa0:	00000133 	andeq	r0, r0, r3, lsr r1
    1fa4:	90c00305 	sbcls	r0, r0, r5, lsl #6
    1fa8:	011c0000 	tsteq	ip, r0
    1fac:	01000008 	tsteq	r0, r8
    1fb0:	0001332c 	andeq	r3, r1, ip, lsr #6
    1fb4:	90030500 	andls	r0, r3, r0, lsl #10
    1fb8:	1c000090 	stcne	0, cr0, [r0], {144}	; 0x90
    1fbc:	000007d1 	ldrdeq	r0, [r0], -r1
    1fc0:	01332d01 	teqeq	r3, r1, lsl #26
    1fc4:	03050000 	movweq	r0, #20480	; 0x5000
    1fc8:	00009094 	muleq	r0, r4, r0
    1fcc:	0008101c 	andeq	r1, r8, ip, lsl r0
    1fd0:	332e0100 	teqcc	lr, #0, 2
    1fd4:	05000001 	streq	r0, [r0, #-1]
    1fd8:	00909803 	addseq	r9, r0, r3, lsl #16
    1fdc:	08181c00 	ldmdaeq	r8, {sl, fp, ip}
    1fe0:	2f010000 	svccs	0x00010000
    1fe4:	00000133 	andeq	r0, r0, r3, lsr r1
    1fe8:	909c0305 	addsls	r0, ip, r5, lsl #6
    1fec:	201c0000 	andscs	r0, ip, r0
    1ff0:	01000008 	tsteq	r0, r8
    1ff4:	00013330 	andeq	r3, r1, r0, lsr r3
    1ff8:	a0030500 	andge	r0, r3, r0, lsl #10
    1ffc:	1c000090 	stcne	0, cr0, [r0], {144}	; 0x90
    2000:	00000828 	andeq	r0, r0, r8, lsr #16
    2004:	01333101 	teqeq	r3, r1, lsl #2
    2008:	03050000 	movweq	r0, #20480	; 0x5000
    200c:	000090a4 	andeq	r9, r0, r4, lsr #1
    2010:	0007ad1c 	andeq	sl, r7, ip, lsl sp
    2014:	33330100 	teqcc	r3, #0, 2
    2018:	05000001 	streq	r0, [r0, #-1]
    201c:	0090a803 	addseq	sl, r0, r3, lsl #16
    2020:	07901c00 	ldreq	r1, [r0, r0, lsl #24]
    2024:	34010000 	strcc	r0, [r1], #-0
    2028:	00000133 	andeq	r0, r0, r3, lsr r1
    202c:	90ac0305 	adcls	r0, ip, r5, lsl #6
    2030:	971c0000 	ldrls	r0, [ip, -r0]
    2034:	01000007 	tsteq	r0, r7
    2038:	00013336 	andeq	r3, r1, r6, lsr r3
    203c:	b0030500 	andlt	r0, r3, r0, lsl #10
    2040:	1c000090 	stcne	0, cr0, [r0], {144}	; 0x90
    2044:	0000076c 	andeq	r0, r0, ip, ror #14
    2048:	01333701 	teqeq	r3, r1, lsl #14
    204c:	03050000 	movweq	r0, #20480	; 0x5000
    2050:	000090b4 	strheq	r9, [r0], -r4
    2054:	0008091c 	andeq	r0, r8, ip, lsl r9
    2058:	33390100 	teqcc	r9, #0, 2
    205c:	05000001 	streq	r0, [r0, #-1]
    2060:	0090b803 	addseq	fp, r0, r3, lsl #16
    2064:	07891c00 	streq	r1, [r9, r0, lsl #24]
    2068:	3a010000 	bcc	42070 <__bss_end__+0x387e8>
    206c:	00000133 	andeq	r0, r0, r3, lsr r1
    2070:	90bc0305 	adcsls	r0, ip, r5, lsl #6
    2074:	3c1d0000 	ldccc	0, cr0, [sp], {-0}
    2078:	01000007 	tsteq	r0, r7
    207c:	00002c20 	andeq	r2, r0, r0, lsr #24
    2080:	00054300 	andeq	r4, r5, r0, lsl #6
    2084:	05431e00 	strbeq	r1, [r3, #-3584]	; 0xe00
    2088:	0d000000 	stceq	0, cr0, [r0, #-0]
    208c:	00054904 	andeq	r4, r5, r4, lsl #18
    2090:	054e1f00 	strbeq	r1, [lr, #-3840]	; 0xf00
    2094:	21200000 	teqcs	r0, r0
    2098:	00000657 	andeq	r0, r0, r7, asr r6
    209c:	05651e01 	strbeq	r1, [r5, #-3585]!	; 0xe01
    20a0:	651e0000 	ldrvs	r0, [lr, #-0]
    20a4:	1e000005 	cdpne	0, 0, cr0, cr0, cr5, {0}
    20a8:	0000002c 	andeq	r0, r0, ip, lsr #32
    20ac:	4e040d00 	cdpmi	13, 0, cr0, cr4, cr0, {0}
    20b0:	00000005 	andeq	r0, r0, r5
    20b4:	000000e0 	andeq	r0, r0, r0, ror #1
    20b8:	0cc50004 	stcleq	0, cr0, [r5], {4}
    20bc:	01040000 	mrseq	r0, (UNDEF: 4)
    20c0:	00000072 	andeq	r0, r0, r2, ror r0
    20c4:	00084101 	andeq	r4, r8, r1, lsl #2
    20c8:	00038200 	andeq	r8, r3, r0, lsl #4
    20cc:	00904400 	addseq	r4, r0, r0, lsl #8
    20d0:	00001400 	andeq	r1, r0, r0, lsl #8
    20d4:	00091100 	andeq	r1, r9, r0, lsl #2
    20d8:	05040200 	streq	r0, [r4, #-512]	; 0x200
    20dc:	00746e69 	rsbseq	r6, r4, r9, ror #28
    20e0:	3b070403 	blcc	1c30f4 <__bss_end__+0x1b986c>
    20e4:	03000001 	movweq	r0, #1
    20e8:	00eb0601 	rsceq	r0, fp, r1, lsl #12
    20ec:	02030000 	andeq	r0, r3, #0
    20f0:	00016f05 	andeq	r6, r1, r5, lsl #30
    20f4:	05040300 	streq	r0, [r4, #-768]	; 0x300
    20f8:	00000166 	andeq	r0, r0, r6, ror #2
    20fc:	61050803 	tstvs	r5, r3, lsl #16
    2100:	03000001 	movweq	r0, #1
    2104:	00e90801 	rsceq	r0, r9, r1, lsl #16
    2108:	02030000 	andeq	r0, r3, #0
    210c:	00010407 	andeq	r0, r1, r7, lsl #8
    2110:	07040300 	streq	r0, [r4, -r0, lsl #6]
    2114:	00000136 	andeq	r0, r0, r6, lsr r1
    2118:	31070803 	tstcc	r7, r3, lsl #16
    211c:	03000001 	movweq	r0, #1
    2120:	01580704 	cmpeq	r8, r4, lsl #14
    2124:	01030000 	mrseq	r0, (UNDEF: 3)
    2128:	0000f208 	andeq	pc, r0, r8, lsl #4
    212c:	08300400 	ldmdaeq	r0!, {sl}
    2130:	03010000 	movweq	r0, #4096	; 0x1000
    2134:	00000025 	andeq	r0, r0, r5, lsr #32
    2138:	00009044 	andeq	r9, r0, r4, asr #32
    213c:	00000014 	andeq	r0, r0, r4, lsl r0
    2140:	00b09c01 	adcseq	r9, r0, r1, lsl #24
    2144:	63050000 	movwvs	r0, #20480	; 0x5000
    2148:	25030100 	strcs	r0, [r3, #-256]	; 0x100
    214c:	2a000000 	bcs	2154 <_start-0x5eac>
    2150:	06000015 			; <UNDEFINED> instruction: 0x06000015
    2154:	00009050 	andeq	r9, r0, r0, asr r0
    2158:	000000d6 	ldrdeq	r0, [r0], -r6
    215c:	02500107 	subseq	r0, r0, #-1073741823	; 0xc0000001
    2160:	00000074 	andeq	r0, r0, r4, ror r0
    2164:	00002508 	andeq	r2, r0, r8, lsl #10
    2168:	0000bf00 	andeq	fp, r0, r0, lsl #30
    216c:	00250900 	eoreq	r0, r5, r0, lsl #18
    2170:	0a000000 	beq	2178 <_start-0x5e88>
    2174:	000003ea 	andeq	r0, r0, sl, ror #7
    2178:	00d00601 	sbcseq	r0, r0, r1, lsl #12
    217c:	03050000 	movweq	r0, #20480	; 0x5000
    2180:	000090cc 	andeq	r9, r0, ip, asr #1
    2184:	00b0040b 	adcseq	r0, r0, fp, lsl #8
    2188:	f40c0000 	vst4.8	{d0-d3}, [ip], r0
    218c:	02000006 	andeq	r0, r0, #6
    2190:	002c093a 	eoreq	r0, ip, sl, lsr r9
    2194:	00000000 	andeq	r0, r0, r0

Disassembly of section .debug_abbrev:

00000000 <.debug_abbrev>:
   0:	25011101 	strcs	r1, [r1, #-257]	; 0x101
   4:	030b130e 	movweq	r1, #45838	; 0xb30e
   8:	110e1b0e 	tstne	lr, lr, lsl #22
   c:	10061201 	andne	r1, r6, r1, lsl #4
  10:	02000017 	andeq	r0, r0, #23
  14:	0b0b0024 	bleq	2c00ac <__bss_end__+0x2b6824>
  18:	08030b3e 	stmdaeq	r3, {r1, r2, r3, r4, r5, r8, r9, fp}
  1c:	24030000 	strcs	r0, [r3], #-0
  20:	3e0b0b00 	vmlacc.f64	d0, d11, d0
  24:	000e030b 	andeq	r0, lr, fp, lsl #6
  28:	00160400 	andseq	r0, r6, r0, lsl #8
  2c:	0b3a0e03 	bleq	e83840 <__bss_end__+0xe79fb8>
  30:	13490b3b 	movtne	r0, #39739	; 0x9b3b
  34:	0f050000 	svceq	0x00050000
  38:	490b0b00 	stmdbmi	fp, {r8, r9, fp}
  3c:	06000013 			; <UNDEFINED> instruction: 0x06000013
  40:	13490026 	movtne	r0, #36902	; 0x9026
  44:	01070000 	mrseq	r0, (UNDEF: 7)
  48:	01134901 	tsteq	r3, r1, lsl #18
  4c:	08000013 	stmdaeq	r0, {r0, r1, r4}
  50:	13490021 	movtne	r0, #36897	; 0x9021
  54:	00000b2f 	andeq	r0, r0, pc, lsr #22
  58:	3f012e09 	svccc	0x00012e09
  5c:	3a0e0319 	bcc	380cc8 <__bss_end__+0x377440>
  60:	270b3b0b 	strcs	r3, [fp, -fp, lsl #22]
  64:	12011119 	andne	r1, r1, #1073741830	; 0x40000006
  68:	97184006 	ldrls	r4, [r8, -r6]
  6c:	13011942 	movwne	r1, #6466	; 0x1942
  70:	050a0000 	streq	r0, [sl, #-0]
  74:	3a080300 	bcc	200c7c <__bss_end__+0x1f73f4>
  78:	490b3b0b 	stmdbmi	fp, {r0, r1, r3, r8, r9, fp, ip, sp}
  7c:	00170213 	andseq	r0, r7, r3, lsl r2
  80:	00340b00 	eorseq	r0, r4, r0, lsl #22
  84:	13490e03 	movtne	r0, #40451	; 0x9e03
  88:	18021934 	stmdane	r2, {r2, r4, r5, r8, fp, ip}
  8c:	890c0000 	stmdbhi	ip, {}	; <UNPREDICTABLE>
  90:	11010182 	smlabbne	r1, r2, r1, r0
  94:	01133101 	tsteq	r3, r1, lsl #2
  98:	0d000013 	stceq	0, cr0, [r0, #-76]	; 0xffffffb4
  9c:	0001828a 	andeq	r8, r1, sl, lsl #5
  a0:	42911802 	addsmi	r1, r1, #131072	; 0x20000
  a4:	0e000018 	mcreq	0, 0, r0, cr0, cr8, {0}
  a8:	00018289 	andeq	r8, r1, r9, lsl #5
  ac:	13310111 	teqne	r1, #1073741828	; 0x40000004
  b0:	2e0f0000 	cdpcs	0, 0, cr0, cr15, cr0, {0}
  b4:	03193f01 	tsteq	r9, #1, 30
  b8:	3b0b3a0e 	blcc	2ce8f8 <__bss_end__+0x2c5070>
  bc:	4919270b 	ldmdbmi	r9, {r0, r1, r3, r8, r9, sl, sp}
  c0:	12011113 	andne	r1, r1, #-1073741820	; 0xc0000004
  c4:	97184006 	ldrls	r4, [r8, -r6]
  c8:	13011942 	movwne	r1, #6466	; 0x1942
  cc:	34100000 	ldrcc	r0, [r0], #-0
  d0:	3a0e0300 	bcc	380cd8 <__bss_end__+0x377450>
  d4:	490b3b0b 	stmdbmi	fp, {r0, r1, r3, r8, r9, fp, ip, sp}
  d8:	11000013 	tstne	r0, r3, lsl r0
  dc:	0e030034 	mcreq	0, 0, r0, cr3, cr4, {1}
  e0:	0b3b0b3a 	bleq	ec2dd0 <__bss_end__+0xeb9548>
  e4:	17021349 	strne	r1, [r2, -r9, asr #6]
  e8:	89120000 	ldmdbhi	r2, {}	; <UNPREDICTABLE>
  ec:	11010182 	smlabbne	r1, r2, r1, r0
  f0:	00133101 	andseq	r3, r3, r1, lsl #2
  f4:	012e1300 	teqeq	lr, r0, lsl #6
  f8:	0e03193f 	mcreq	9, 0, r1, cr3, cr15, {1}
  fc:	0b3b0b3a 	bleq	ec2dec <__bss_end__+0xeb9564>
 100:	06120111 			; <UNDEFINED> instruction: 0x06120111
 104:	42971840 	addsmi	r1, r7, #64, 16	; 0x400000
 108:	00130119 	andseq	r0, r3, r9, lsl r1
 10c:	00341400 	eorseq	r1, r4, r0, lsl #8
 110:	0b3a0803 	bleq	e82124 <__bss_end__+0xe7889c>
 114:	13490b3b 	movtne	r0, #39739	; 0x9b3b
 118:	00001702 	andeq	r1, r0, r2, lsl #14
 11c:	3f012e15 	svccc	0x00012e15
 120:	3a0e0319 	bcc	380d8c <__bss_end__+0x377504>
 124:	270b3b0b 	strcs	r3, [fp, -fp, lsl #22]
 128:	3c134919 	ldccc	9, cr4, [r3], {25}
 12c:	00130119 	andseq	r0, r3, r9, lsl r1
 130:	00051600 	andeq	r1, r5, r0, lsl #12
 134:	00001349 	andeq	r1, r0, r9, asr #6
 138:	00001817 	andeq	r1, r0, r7, lsl r8
 13c:	002e1800 	eoreq	r1, lr, r0, lsl #16
 140:	0e03193f 	mcreq	9, 0, r1, cr3, cr15, {1}
 144:	0b3b0b3a 	bleq	ec2e34 <__bss_end__+0xeb95ac>
 148:	193c1927 	ldmdbne	ip!, {r0, r1, r2, r5, r8, fp, ip}
 14c:	2e190000 	cdpcs	0, 1, cr0, cr9, cr0, {0}
 150:	03193f00 	tsteq	r9, #0, 30
 154:	3b0b3a0e 	blcc	2ce994 <__bss_end__+0x2c510c>
 158:	4919270b 	ldmdbmi	r9, {r0, r1, r3, r8, r9, sl, sp}
 15c:	00193c13 	andseq	r3, r9, r3, lsl ip
 160:	11010000 	mrsne	r0, (UNDEF: 1)
 164:	130e2501 	movwne	r2, #58625	; 0xe501
 168:	1b0e030b 	blne	380d9c <__bss_end__+0x377514>
 16c:	1201110e 	andne	r1, r1, #-2147483645	; 0x80000003
 170:	00171006 	andseq	r1, r7, r6
 174:	00240200 	eoreq	r0, r4, r0, lsl #4
 178:	0b3e0b0b 	bleq	f82dac <__bss_end__+0xf79524>
 17c:	00000803 	andeq	r0, r0, r3, lsl #16
 180:	0b002403 	bleq	9194 <__FUNCTION__.4162+0xb0>
 184:	030b3e0b 	movweq	r3, #48651	; 0xbe0b
 188:	0400000e 	streq	r0, [r0], #-14
 18c:	0b0b000f 	bleq	2c01d0 <__bss_end__+0x2b6948>
 190:	00001349 	andeq	r1, r0, r9, asr #6
 194:	49002605 	stmdbmi	r0, {r0, r2, r9, sl, sp}
 198:	06000013 			; <UNDEFINED> instruction: 0x06000013
 19c:	13490101 	movtne	r0, #37121	; 0x9101
 1a0:	00001301 	andeq	r1, r0, r1, lsl #6
 1a4:	49002107 	stmdbmi	r0, {r0, r1, r2, r8, sp}
 1a8:	000b2f13 	andeq	r2, fp, r3, lsl pc
 1ac:	01040800 	tsteq	r4, r0, lsl #16
 1b0:	0b3a0b0b 	bleq	e82de4 <__bss_end__+0xe7955c>
 1b4:	13010b3b 	movwne	r0, #6971	; 0x1b3b
 1b8:	28090000 	stmdacs	r9, {}	; <UNPREDICTABLE>
 1bc:	1c0e0300 	stcne	3, cr0, [lr], {-0}
 1c0:	0a00000d 	beq	1fc <_start-0x7e04>
 1c4:	193f012e 	ldmdbne	pc!, {r1, r2, r3, r5, r8}	; <UNPREDICTABLE>
 1c8:	0b3a0e03 	bleq	e839dc <__bss_end__+0xe7a154>
 1cc:	19270b3b 	stmdbne	r7!, {r0, r1, r3, r4, r5, r8, r9, fp}
 1d0:	06120111 			; <UNDEFINED> instruction: 0x06120111
 1d4:	42971840 	addsmi	r1, r7, #64, 16	; 0x400000
 1d8:	00130119 	andseq	r0, r3, r9, lsl r1
 1dc:	00340b00 	eorseq	r0, r4, r0, lsl #22
 1e0:	0b3a0e03 	bleq	e839f4 <__bss_end__+0xe7a16c>
 1e4:	13490b3b 	movtne	r0, #39739	; 0x9b3b
 1e8:	193c193f 	ldmdbne	ip!, {r0, r1, r2, r3, r4, r5, r8, fp, ip}
 1ec:	340c0000 	strcc	r0, [ip], #-0
 1f0:	3a080300 	bcc	200df8 <__bss_end__+0x1f7570>
 1f4:	490b3b0b 	stmdbmi	fp, {r0, r1, r3, r8, r9, fp, ip, sp}
 1f8:	000b1c13 	andeq	r1, fp, r3, lsl ip
 1fc:	00340d00 	eorseq	r0, r4, r0, lsl #26
 200:	0b3a0803 	bleq	e82214 <__bss_end__+0xe7898c>
 204:	13490b3b 	movtne	r0, #39739	; 0x9b3b
 208:	340e0000 	strcc	r0, [lr], #-0
 20c:	3a080300 	bcc	200e14 <__bss_end__+0x1f758c>
 210:	490b3b0b 	stmdbmi	fp, {r0, r1, r3, r8, r9, fp, ip, sp}
 214:	00180213 	andseq	r0, r8, r3, lsl r2
 218:	010b0f00 	tsteq	fp, r0, lsl #30
 21c:	06120111 			; <UNDEFINED> instruction: 0x06120111
 220:	00001301 	andeq	r1, r0, r1, lsl #6
 224:	03003410 	movweq	r3, #1040	; 0x410
 228:	3b0b3a08 	blcc	2cea50 <__bss_end__+0x2c51c8>
 22c:	0213490b 	andseq	r4, r3, #180224	; 0x2c000
 230:	11000017 	tstne	r0, r7, lsl r0
 234:	01018289 	smlabbeq	r1, r9, r2, r8
 238:	13310111 	teqne	r1, #1073741828	; 0x40000004
 23c:	00001301 	andeq	r1, r0, r1, lsl #6
 240:	01828a12 	orreq	r8, r2, r2, lsl sl
 244:	91180200 	tstls	r8, r0, lsl #4
 248:	00001842 	andeq	r1, r0, r2, asr #16
 24c:	01828913 	orreq	r8, r2, r3, lsl r9
 250:	31011100 	mrscc	r1, (UNDEF: 17)
 254:	14000013 	strne	r0, [r0], #-19
 258:	08030005 	stmdaeq	r3, {r0, r2}
 25c:	0b3b0b3a 	bleq	ec2f4c <__bss_end__+0xeb96c4>
 260:	17021349 	strne	r1, [r2, -r9, asr #6]
 264:	34150000 	ldrcc	r0, [r5], #-0
 268:	490e0300 	stmdbmi	lr, {r8, r9}
 26c:	02193413 	andseq	r3, r9, #318767104	; 0x13000000
 270:	16000018 			; <UNDEFINED> instruction: 0x16000018
 274:	193f012e 	ldmdbne	pc!, {r1, r2, r3, r5, r8}	; <UNPREDICTABLE>
 278:	0b3a0e03 	bleq	e83a8c <__bss_end__+0xe7a204>
 27c:	19270b3b 	stmdbne	r7!, {r0, r1, r3, r4, r5, r8, r9, fp}
 280:	1301193c 	movwne	r1, #6460	; 0x193c
 284:	05170000 	ldreq	r0, [r7, #-0]
 288:	00134900 	andseq	r4, r3, r0, lsl #18
 28c:	002e1800 	eoreq	r1, lr, r0, lsl #16
 290:	0e03193f 	mcreq	9, 0, r1, cr3, cr15, {1}
 294:	0b3b0b3a 	bleq	ec2f84 <__bss_end__+0xeb96fc>
 298:	193c1927 	ldmdbne	ip!, {r0, r1, r2, r5, r8, fp, ip}
 29c:	2e190000 	cdpcs	0, 1, cr0, cr9, cr0, {0}
 2a0:	03193f01 	tsteq	r9, #1, 30
 2a4:	3b0b3a0e 	blcc	2ceae4 <__bss_end__+0x2c525c>
 2a8:	4919270b 	ldmdbmi	r9, {r0, r1, r3, r8, r9, sl, sp}
 2ac:	01193c13 	tsteq	r9, r3, lsl ip
 2b0:	1a000013 	bne	304 <_start-0x7cfc>
 2b4:	00000018 	andeq	r0, r0, r8, lsl r0
 2b8:	01110100 	tsteq	r1, r0, lsl #2
 2bc:	0b130e25 	bleq	4c3b58 <__bss_end__+0x4ba2d0>
 2c0:	0e1b0e03 	cdpeq	14, 1, cr0, cr11, cr3, {0}
 2c4:	06120111 			; <UNDEFINED> instruction: 0x06120111
 2c8:	00001710 	andeq	r1, r0, r0, lsl r7
 2cc:	03001602 	movweq	r1, #1538	; 0x602
 2d0:	3b0b3a0e 	blcc	2ceb10 <__bss_end__+0x2c5288>
 2d4:	0013490b 	andseq	r4, r3, fp, lsl #18
 2d8:	01130300 	tsteq	r3, r0, lsl #6
 2dc:	0b0b0e03 	bleq	2c3af0 <__bss_end__+0x2ba268>
 2e0:	0b3b0b3a 	bleq	ec2fd0 <__bss_end__+0xeb9748>
 2e4:	00001301 	andeq	r1, r0, r1, lsl #6
 2e8:	03000d04 	movweq	r0, #3332	; 0xd04
 2ec:	3813490e 	ldmdacc	r3, {r1, r2, r3, r8, fp, lr}
 2f0:	0019340b 	andseq	r3, r9, fp, lsl #8
 2f4:	000f0500 	andeq	r0, pc, r0, lsl #10
 2f8:	00000b0b 	andeq	r0, r0, fp, lsl #22
 2fc:	0b002406 	bleq	931c <__FUNCTION__.4180+0x60>
 300:	030b3e0b 	movweq	r3, #48651	; 0xbe0b
 304:	07000008 	streq	r0, [r0, -r8]
 308:	0b0b0024 	bleq	2c03a0 <__bss_end__+0x2b6b18>
 30c:	0e030b3e 	vmoveq.16	d3[0], r0
 310:	0f080000 	svceq	0x00080000
 314:	490b0b00 	stmdbmi	fp, {r8, r9, fp}
 318:	09000013 	stmdbeq	r0, {r0, r1, r4}
 31c:	13490026 	movtne	r0, #36902	; 0x9026
 320:	2e0a0000 	cdpcs	0, 0, cr0, cr10, cr0, {0}
 324:	03193f01 	tsteq	r9, #1, 30
 328:	3b0b3a0e 	blcc	2ceb68 <__bss_end__+0x2c52e0>
 32c:	4919270b 	ldmdbmi	r9, {r0, r1, r3, r8, r9, sl, sp}
 330:	12011113 	andne	r1, r1, #-1073741820	; 0xc0000004
 334:	97184006 	ldrls	r4, [r8, -r6]
 338:	13011942 	movwne	r1, #6466	; 0x1942
 33c:	050b0000 	streq	r0, [fp, #-0]
 340:	3a080300 	bcc	200f48 <__bss_end__+0x1f76c0>
 344:	490b3b0b 	stmdbmi	fp, {r0, r1, r3, r8, r9, fp, ip, sp}
 348:	00180213 	andseq	r0, r8, r3, lsl r2
 34c:	00180c00 	andseq	r0, r8, r0, lsl #24
 350:	340d0000 	strcc	r0, [sp], #-0
 354:	3a080300 	bcc	200f5c <__bss_end__+0x1f76d4>
 358:	490b3b0b 	stmdbmi	fp, {r0, r1, r3, r8, r9, fp, ip, sp}
 35c:	00180213 	andseq	r0, r8, r3, lsl r2
 360:	00340e00 	eorseq	r0, r4, r0, lsl #28
 364:	0b3a0e03 	bleq	e83b78 <__bss_end__+0xe7a2f0>
 368:	13490b3b 	movtne	r0, #39739	; 0x9b3b
 36c:	00001802 	andeq	r1, r0, r2, lsl #16
 370:	0300340f 	movweq	r3, #1039	; 0x40f
 374:	3b0b3a08 	blcc	2ceb9c <__bss_end__+0x2c5314>
 378:	0213490b 	andseq	r4, r3, #180224	; 0x2c000
 37c:	10000017 	andne	r0, r0, r7, lsl r0
 380:	01018289 	smlabbeq	r1, r9, r2, r8
 384:	13310111 	teqne	r1, #1073741828	; 0x40000004
 388:	00001301 	andeq	r1, r0, r1, lsl #6
 38c:	01828a11 	orreq	r8, r2, r1, lsl sl
 390:	91180200 	tstls	r8, r0, lsl #4
 394:	00001842 	andeq	r1, r0, r2, asr #16
 398:	01828912 	orreq	r8, r2, r2, lsl r9
 39c:	00011101 	andeq	r1, r1, r1, lsl #2
 3a0:	01011300 	mrseq	r1, SP_irq
 3a4:	13011349 	movwne	r1, #4937	; 0x1349
 3a8:	21140000 	tstcs	r4, r0
 3ac:	2f134900 	svccs	0x00134900
 3b0:	15000005 	strne	r0, [r0, #-5]
 3b4:	19270115 	stmdbne	r7!, {r0, r2, r4, r8}
 3b8:	13011349 	movwne	r1, #4937	; 0x1349
 3bc:	05160000 	ldreq	r0, [r6, #-0]
 3c0:	00134900 	andseq	r4, r3, r0, lsl #18
 3c4:	00341700 	eorseq	r1, r4, r0, lsl #14
 3c8:	0b3a0e03 	bleq	e83bdc <__bss_end__+0xe7a354>
 3cc:	13490b3b 	movtne	r0, #39739	; 0x9b3b
 3d0:	193c193f 	ldmdbne	ip!, {r0, r1, r2, r3, r4, r5, r8, fp, ip}
 3d4:	2e180000 	cdpcs	0, 1, cr0, cr8, cr0, {0}
 3d8:	03193f01 	tsteq	r9, #1, 30
 3dc:	3b0b3a0e 	blcc	2cec1c <__bss_end__+0x2c5394>
 3e0:	4919270b 	ldmdbmi	r9, {r0, r1, r3, r8, r9, sl, sp}
 3e4:	00193c13 	andseq	r3, r9, r3, lsl ip
 3e8:	11010000 	mrsne	r0, (UNDEF: 1)
 3ec:	130e2501 	movwne	r2, #58625	; 0xe501
 3f0:	1b0e030b 	blne	381024 <__bss_end__+0x37779c>
 3f4:	1201110e 	andne	r1, r1, #-2147483645	; 0x80000003
 3f8:	00171006 	andseq	r1, r7, r6
 3fc:	00240200 	eoreq	r0, r4, r0, lsl #4
 400:	0b3e0b0b 	bleq	f83034 <__bss_end__+0xf797ac>
 404:	00000803 	andeq	r0, r0, r3, lsl #16
 408:	0b002403 	bleq	941c <__FUNCTION__.4209+0x8c>
 40c:	030b3e0b 	movweq	r3, #48651	; 0xbe0b
 410:	0400000e 	streq	r0, [r0], #-14
 414:	0b0b000f 	bleq	2c0458 <__bss_end__+0x2b6bd0>
 418:	00001349 	andeq	r1, r0, r9, asr #6
 41c:	49002605 	stmdbmi	r0, {r0, r2, r9, sl, sp}
 420:	06000013 			; <UNDEFINED> instruction: 0x06000013
 424:	193f012e 	ldmdbne	pc!, {r1, r2, r3, r5, r8}	; <UNPREDICTABLE>
 428:	0b3a0e03 	bleq	e83c3c <__bss_end__+0xe7a3b4>
 42c:	19270b3b 	stmdbne	r7!, {r0, r1, r3, r4, r5, r8, r9, fp}
 430:	01111349 	tsteq	r1, r9, asr #6
 434:	18400612 	stmdane	r0, {r1, r4, r9, sl}^
 438:	01194296 			; <UNDEFINED> instruction: 0x01194296
 43c:	07000013 	smladeq	r0, r3, r0, r0
 440:	08030005 	stmdaeq	r3, {r0, r2}
 444:	0b3b0b3a 	bleq	ec3134 <__bss_end__+0xeb98ac>
 448:	17021349 	strne	r1, [r2, -r9, asr #6]
 44c:	15080000 	strne	r0, [r8, #-0]
 450:	49192701 	ldmdbmi	r9, {r0, r8, r9, sl, sp}
 454:	00130113 	andseq	r0, r3, r3, lsl r1
 458:	00050900 	andeq	r0, r5, r0, lsl #18
 45c:	00001349 	andeq	r1, r0, r9, asr #6
 460:	0300340a 	movweq	r3, #1034	; 0x40a
 464:	3b0b3a0e 	blcc	2ceca4 <__bss_end__+0x2c541c>
 468:	3f13490b 	svccc	0x0013490b
 46c:	00193c19 	andseq	r3, r9, r9, lsl ip
 470:	00340b00 	eorseq	r0, r4, r0, lsl #22
 474:	0b3a0e03 	bleq	e83c88 <__bss_end__+0xe7a400>
 478:	13490b3b 	movtne	r0, #39739	; 0x9b3b
 47c:	1802193f 	stmdane	r2, {r0, r1, r2, r3, r4, r5, r8, fp, ip}
 480:	01000000 	mrseq	r0, (UNDEF: 0)
 484:	0e250111 	mcreq	1, 1, r0, cr5, cr1, {0}
 488:	0e030b13 	vmoveq.32	d3[0], r0
 48c:	01110e1b 	tsteq	r1, fp, lsl lr
 490:	17100612 			; <UNDEFINED> instruction: 0x17100612
 494:	24020000 	strcs	r0, [r2], #-0
 498:	3e0b0b00 	vmlacc.f64	d0, d11, d0
 49c:	0008030b 	andeq	r0, r8, fp, lsl #6
 4a0:	00240300 	eoreq	r0, r4, r0, lsl #6
 4a4:	0b3e0b0b 	bleq	f830d8 <__bss_end__+0xf79850>
 4a8:	00000e03 	andeq	r0, r0, r3, lsl #28
 4ac:	0b000f04 	bleq	40c4 <_start-0x3f3c>
 4b0:	0500000b 	streq	r0, [r0, #-11]
 4b4:	0b0b000f 	bleq	2c04f8 <__bss_end__+0x2b6c70>
 4b8:	00001349 	andeq	r1, r0, r9, asr #6
 4bc:	49002606 	stmdbmi	r0, {r1, r2, r9, sl, sp}
 4c0:	07000013 	smladeq	r0, r3, r0, r0
 4c4:	0e030016 	mcreq	0, 0, r0, cr3, cr6, {0}
 4c8:	0b3b0b3a 	bleq	ec31b8 <__bss_end__+0xeb9930>
 4cc:	00001349 	andeq	r1, r0, r9, asr #6
 4d0:	03011308 	movweq	r1, #4872	; 0x1308
 4d4:	3a0b0b0e 	bcc	2c3114 <__bss_end__+0x2b988c>
 4d8:	010b3b0b 	tsteq	fp, fp, lsl #22
 4dc:	09000013 	stmdbeq	r0, {r0, r1, r4}
 4e0:	0e03000d 	cdpeq	0, 0, cr0, cr3, cr13, {0}
 4e4:	0b381349 	bleq	e05210 <__bss_end__+0xdfb988>
 4e8:	00001934 	andeq	r1, r0, r4, lsr r9
 4ec:	03012e0a 	movweq	r2, #7690	; 0x1e0a
 4f0:	3b0b3a0e 	blcc	2ced30 <__bss_end__+0x2c54a8>
 4f4:	4919270b 	ldmdbmi	r9, {r0, r1, r3, r8, r9, sl, sp}
 4f8:	12011113 	andne	r1, r1, #-1073741820	; 0xc0000004
 4fc:	97184006 	ldrls	r4, [r8, -r6]
 500:	13011942 	movwne	r1, #6466	; 0x1942
 504:	050b0000 	streq	r0, [fp, #-0]
 508:	3a080300 	bcc	201110 <__bss_end__+0x1f7888>
 50c:	490b3b0b 	stmdbmi	fp, {r0, r1, r3, r8, r9, fp, ip, sp}
 510:	00170213 	andseq	r0, r7, r3, lsl r2
 514:	012e0c00 	teqeq	lr, r0, lsl #24
 518:	0b3a0803 	bleq	e8252c <__bss_end__+0xe78ca4>
 51c:	19270b3b 	stmdbne	r7!, {r0, r1, r3, r4, r5, r8, r9, fp}
 520:	01111349 	tsteq	r1, r9, asr #6
 524:	18400612 	stmdane	r0, {r1, r4, r9, sl}^
 528:	01194297 			; <UNDEFINED> instruction: 0x01194297
 52c:	0d000013 	stceq	0, cr0, [r0, #-76]	; 0xffffffb4
 530:	0e030005 	cdpeq	0, 0, cr0, cr3, cr5, {0}
 534:	0b3b0b3a 	bleq	ec3224 <__bss_end__+0xeb999c>
 538:	17021349 	strne	r1, [r2, -r9, asr #6]
 53c:	050e0000 	streq	r0, [lr, #-0]
 540:	3a0e0300 	bcc	381148 <__bss_end__+0x3778c0>
 544:	490b3b0b 	stmdbmi	fp, {r0, r1, r3, r8, r9, fp, ip, sp}
 548:	00180213 	andseq	r0, r8, r3, lsl r2
 54c:	00340f00 	eorseq	r0, r4, r0, lsl #30
 550:	0b3a0803 	bleq	e82564 <__bss_end__+0xe78cdc>
 554:	13490b3b 	movtne	r0, #39739	; 0x9b3b
 558:	00001802 	andeq	r1, r0, r2, lsl #16
 55c:	03003410 	movweq	r3, #1040	; 0x410
 560:	3b0b3a08 	blcc	2ced88 <__bss_end__+0x2c5500>
 564:	0213490b 	andseq	r4, r3, #180224	; 0x2c000
 568:	11000017 	tstne	r0, r7, lsl r0
 56c:	0e030034 	mcreq	0, 0, r0, cr3, cr4, {1}
 570:	19341349 	ldmdbne	r4!, {r0, r3, r6, r8, r9, ip}
 574:	00001802 	andeq	r1, r0, r2, lsl #16
 578:	11010b12 	tstne	r1, r2, lsl fp
 57c:	01061201 	tsteq	r6, r1, lsl #4
 580:	13000013 	movwne	r0, #19
 584:	0e030034 	mcreq	0, 0, r0, cr3, cr4, {1}
 588:	0b3b0b3a 	bleq	ec3278 <__bss_end__+0xeb99f0>
 58c:	17021349 	strne	r1, [r2, -r9, asr #6]
 590:	89140000 	ldmdbhi	r4, {}	; <UNPREDICTABLE>
 594:	11010182 	smlabbne	r1, r2, r1, r0
 598:	01133101 	tsteq	r3, r1, lsl #2
 59c:	15000013 	strne	r0, [r0, #-19]
 5a0:	0001828a 	andeq	r8, r1, sl, lsl #5
 5a4:	42911802 	addsmi	r1, r1, #131072	; 0x20000
 5a8:	16000018 			; <UNDEFINED> instruction: 0x16000018
 5ac:	00018289 	andeq	r8, r1, r9, lsl #5
 5b0:	13310111 	teqne	r1, #1073741828	; 0x40000004
 5b4:	89170000 	ldmdbhi	r7, {}	; <UNPREDICTABLE>
 5b8:	11010182 	smlabbne	r1, r2, r1, r0
 5bc:	00133101 	andseq	r3, r3, r1, lsl #2
 5c0:	01011800 	tsteq	r1, r0, lsl #16
 5c4:	13011349 	movwne	r1, #4937	; 0x1349
 5c8:	21190000 	tstcs	r9, r0
 5cc:	2f134900 	svccs	0x00134900
 5d0:	1a00000b 	bne	604 <_start-0x79fc>
 5d4:	193f012e 	ldmdbne	pc!, {r1, r2, r3, r5, r8}	; <UNPREDICTABLE>
 5d8:	0b3a0e03 	bleq	e83dec <__bss_end__+0xe7a564>
 5dc:	19270b3b 	stmdbne	r7!, {r0, r1, r3, r4, r5, r8, r9, fp}
 5e0:	06120111 			; <UNDEFINED> instruction: 0x06120111
 5e4:	42971840 	addsmi	r1, r7, #64, 16	; 0x400000
 5e8:	00130119 	andseq	r0, r3, r9, lsl r1
 5ec:	01151b00 	tsteq	r5, r0, lsl #22
 5f0:	13491927 	movtne	r1, #39207	; 0x9927
 5f4:	00001301 	andeq	r1, r0, r1, lsl #6
 5f8:	4900051c 	stmdbmi	r0, {r2, r3, r4, r8, sl}
 5fc:	1d000013 	stcne	0, cr0, [r0, #-76]	; 0xffffffb4
 600:	193f012e 	ldmdbne	pc!, {r1, r2, r3, r5, r8}	; <UNPREDICTABLE>
 604:	0b3a0e03 	bleq	e83e18 <__bss_end__+0xe7a590>
 608:	19270b3b 	stmdbne	r7!, {r0, r1, r3, r4, r5, r8, r9, fp}
 60c:	01111349 	tsteq	r1, r9, asr #6
 610:	18400612 	stmdane	r0, {r1, r4, r9, sl}^
 614:	01194297 			; <UNDEFINED> instruction: 0x01194297
 618:	1e000013 	mcrne	0, 0, r0, cr0, cr3, {0}
 61c:	0111010b 	tsteq	r1, fp, lsl #2
 620:	00000612 	andeq	r0, r0, r2, lsl r6
 624:	0300341f 	movweq	r3, #1055	; 0x41f
 628:	3b0b3a0e 	blcc	2cee68 <__bss_end__+0x2c55e0>
 62c:	3f13490b 	svccc	0x0013490b
 630:	00193c19 	andseq	r3, r9, r9, lsl ip
 634:	012e2000 	teqeq	lr, r0
 638:	0e03193f 	mcreq	9, 0, r1, cr3, cr15, {1}
 63c:	0b3b0b3a 	bleq	ec332c <__bss_end__+0xeb9aa4>
 640:	13491927 	movtne	r1, #39207	; 0x9927
 644:	1301193c 	movwne	r1, #6460	; 0x193c
 648:	18210000 	stmdane	r1!, {}	; <UNPREDICTABLE>
 64c:	22000000 	andcs	r0, r0, #0
 650:	193f002e 	ldmdbne	pc!, {r1, r2, r3, r5}	; <UNPREDICTABLE>
 654:	0b3a0e03 	bleq	e83e68 <__bss_end__+0xe7a5e0>
 658:	19270b3b 	stmdbne	r7!, {r0, r1, r3, r4, r5, r8, r9, fp}
 65c:	0000193c 	andeq	r1, r0, ip, lsr r9
 660:	01110100 	tsteq	r1, r0, lsl #2
 664:	0b130e25 	bleq	4c3f00 <__bss_end__+0x4ba678>
 668:	0e1b0e03 	cdpeq	14, 1, cr0, cr11, cr3, {0}
 66c:	06120111 			; <UNDEFINED> instruction: 0x06120111
 670:	00001710 	andeq	r1, r0, r0, lsl r7
 674:	0b002402 	bleq	9684 <__bss_start__+0x1fc>
 678:	030b3e0b 	movweq	r3, #48651	; 0xbe0b
 67c:	03000008 	movweq	r0, #8
 680:	0b0b0024 	bleq	2c0718 <__bss_end__+0x2b6e90>
 684:	0e030b3e 	vmoveq.16	d3[0], r0
 688:	0f040000 	svceq	0x00040000
 68c:	490b0b00 	stmdbmi	fp, {r8, r9, fp}
 690:	05000013 	streq	r0, [r0, #-19]
 694:	13490026 	movtne	r0, #36902	; 0x9026
 698:	2e060000 	cdpcs	0, 0, cr0, cr6, cr0, {0}
 69c:	03193f01 	tsteq	r9, #1, 30
 6a0:	3b0b3a0e 	blcc	2ceee0 <__bss_end__+0x2c5658>
 6a4:	1119270b 	tstne	r9, fp, lsl #14
 6a8:	40061201 	andmi	r1, r6, r1, lsl #4
 6ac:	19429718 	stmdbne	r2, {r3, r4, r8, r9, sl, ip, pc}^
 6b0:	00001301 	andeq	r1, r0, r1, lsl #6
 6b4:	01828907 	orreq	r8, r2, r7, lsl #18
 6b8:	01011101 	tsteq	r1, r1, lsl #2
 6bc:	08000013 	stmdaeq	r0, {r0, r1, r4}
 6c0:	0001828a 	andeq	r8, r1, sl, lsl #5
 6c4:	42911802 	addsmi	r1, r1, #131072	; 0x20000
 6c8:	09000018 	stmdbeq	r0, {r3, r4}
 6cc:	01018289 	smlabbeq	r1, r9, r2, r8
 6d0:	13310111 	teqne	r1, #1073741828	; 0x40000004
 6d4:	00001301 	andeq	r1, r0, r1, lsl #6
 6d8:	0182890a 	orreq	r8, r2, sl, lsl #18
 6dc:	31011100 	mrscc	r1, (UNDEF: 17)
 6e0:	0b000013 	bleq	734 <_start-0x78cc>
 6e4:	19270115 	stmdbne	r7!, {r0, r2, r4, r8}
 6e8:	13011349 	movwne	r1, #4937	; 0x1349
 6ec:	050c0000 	streq	r0, [ip, #-0]
 6f0:	00134900 	andseq	r4, r3, r0, lsl #18
 6f4:	00340d00 	eorseq	r0, r4, r0, lsl #26
 6f8:	0b3a0e03 	bleq	e83f0c <__bss_end__+0xe7a684>
 6fc:	13490b3b 	movtne	r0, #39739	; 0x9b3b
 700:	193c193f 	ldmdbne	ip!, {r0, r1, r2, r3, r4, r5, r8, fp, ip}
 704:	2e0e0000 	cdpcs	0, 0, cr0, cr14, cr0, {0}
 708:	03193f01 	tsteq	r9, #1, 30
 70c:	3b0b3a0e 	blcc	2cef4c <__bss_end__+0x2c56c4>
 710:	3c19270b 	ldccc	7, cr2, [r9], {11}
 714:	00130119 	andseq	r0, r3, r9, lsl r1
 718:	002e0f00 	eoreq	r0, lr, r0, lsl #30
 71c:	0e03193f 	mcreq	9, 0, r1, cr3, cr15, {1}
 720:	0b3b0b3a 	bleq	ec3410 <__bss_end__+0xeb9b88>
 724:	193c1927 	ldmdbne	ip!, {r0, r1, r2, r5, r8, fp, ip}
 728:	01000000 	mrseq	r0, (UNDEF: 0)
 72c:	0e250111 	mcreq	1, 1, r0, cr5, cr1, {0}
 730:	0e030b13 	vmoveq.32	d3[0], r0
 734:	01110e1b 	tsteq	r1, fp, lsl lr
 738:	17100612 			; <UNDEFINED> instruction: 0x17100612
 73c:	24020000 	strcs	r0, [r2], #-0
 740:	3e0b0b00 	vmlacc.f64	d0, d11, d0
 744:	0008030b 	andeq	r0, r8, fp, lsl #6
 748:	00240300 	eoreq	r0, r4, r0, lsl #6
 74c:	0b3e0b0b 	bleq	f83380 <__bss_end__+0xf79af8>
 750:	00000e03 	andeq	r0, r0, r3, lsl #28
 754:	3f012e04 	svccc	0x00012e04
 758:	3a0e0319 	bcc	3813c4 <__bss_end__+0x377b3c>
 75c:	110b3b0b 	tstne	fp, fp, lsl #22
 760:	40061201 	andmi	r1, r6, r1, lsl #4
 764:	19429718 	stmdbne	r2, {r3, r4, r8, r9, sl, ip, pc}^
 768:	00001301 	andeq	r1, r0, r1, lsl #6
 76c:	03003405 	movweq	r3, #1029	; 0x405
 770:	3b0b3a0e 	blcc	2cefb0 <__bss_end__+0x2c5728>
 774:	3f13490b 	svccc	0x0013490b
 778:	00193c19 	andseq	r3, r9, r9, lsl ip
 77c:	012e0600 	teqeq	lr, r0, lsl #12
 780:	0e03193f 	mcreq	9, 0, r1, cr3, cr15, {1}
 784:	0b3b0b3a 	bleq	ec3474 <__bss_end__+0xeb9bec>
 788:	1301193c 	movwne	r1, #6460	; 0x193c
 78c:	18070000 	stmdane	r7, {}	; <UNPREDICTABLE>
 790:	08000000 	stmdaeq	r0, {}	; <UNPREDICTABLE>
 794:	08030034 	stmdaeq	r3, {r2, r4, r5}
 798:	0b3b0b3a 	bleq	ec3488 <__bss_end__+0xeb9c00>
 79c:	17021349 	strne	r1, [r2, -r9, asr #6]
 7a0:	34090000 	strcc	r0, [r9], #-0
 7a4:	3a0e0300 	bcc	3813ac <__bss_end__+0x377b24>
 7a8:	490b3b0b 	stmdbmi	fp, {r0, r1, r3, r8, r9, fp, ip, sp}
 7ac:	0a000013 	beq	800 <_start-0x7800>
 7b0:	00018289 	andeq	r8, r1, r9, lsl #5
 7b4:	13310111 	teqne	r1, #1073741828	; 0x40000004
 7b8:	0f0b0000 	svceq	0x000b0000
 7bc:	490b0b00 	stmdbmi	fp, {r8, r9, fp}
 7c0:	0c000013 	stceq	0, cr0, [r0], {19}
 7c4:	193f002e 	ldmdbne	pc!, {r1, r2, r3, r5}	; <UNPREDICTABLE>
 7c8:	0b3a0e03 	bleq	e83fdc <__bss_end__+0xe7a754>
 7cc:	19270b3b 	stmdbne	r7!, {r0, r1, r3, r4, r5, r8, r9, fp}
 7d0:	0000193c 	andeq	r1, r0, ip, lsr r9
 7d4:	01110100 	tsteq	r1, r0, lsl #2
 7d8:	0b130e25 	bleq	4c4074 <__bss_end__+0x4ba7ec>
 7dc:	0e1b0e03 	cdpeq	14, 1, cr0, cr11, cr3, {0}
 7e0:	01111755 	tsteq	r1, r5, asr r7
 7e4:	00001710 	andeq	r1, r0, r0, lsl r7
 7e8:	0b002402 	bleq	97f8 <__bss_start__+0x370>
 7ec:	030b3e0b 	movweq	r3, #48651	; 0xbe0b
 7f0:	03000008 	movweq	r0, #8
 7f4:	0b0b0024 	bleq	2c088c <__bss_end__+0x2b7004>
 7f8:	0e030b3e 	vmoveq.16	d3[0], r0
 7fc:	2e040000 	cdpcs	0, 0, cr0, cr4, cr0, {0}
 800:	03193f01 	tsteq	r9, #1, 30
 804:	3b0b3a0e 	blcc	2cf044 <__bss_end__+0x2c57bc>
 808:	4919270b 	ldmdbmi	r9, {r0, r1, r3, r8, r9, sl, sp}
 80c:	12011113 	andne	r1, r1, #-1073741820	; 0xc0000004
 810:	97184006 	ldrls	r4, [r8, -r6]
 814:	13011942 	movwne	r1, #6466	; 0x1942
 818:	34050000 	strcc	r0, [r5], #-0
 81c:	3a0e0300 	bcc	381424 <__bss_end__+0x377b9c>
 820:	490b3b0b 	stmdbmi	fp, {r0, r1, r3, r8, r9, fp, ip, sp}
 824:	00170213 	andseq	r0, r7, r3, lsl r2
 828:	012e0600 	teqeq	lr, r0, lsl #12
 82c:	0e03193f 	mcreq	9, 0, r1, cr3, cr15, {1}
 830:	0b3b0b3a 	bleq	ec3520 <__bss_end__+0xeb9c98>
 834:	01111927 	tsteq	r1, r7, lsr #18
 838:	18400612 	stmdane	r0, {r1, r4, r9, sl}^
 83c:	01194297 			; <UNDEFINED> instruction: 0x01194297
 840:	07000013 	smladeq	r0, r3, r0, r0
 844:	0e030034 	mcreq	0, 0, r0, cr3, cr4, {1}
 848:	0b3b0b3a 	bleq	ec3538 <__bss_end__+0xeb9cb0>
 84c:	061c1349 	ldreq	r1, [ip], -r9, asr #6
 850:	34080000 	strcc	r0, [r8], #-0
 854:	3a0e0300 	bcc	38145c <__bss_end__+0x377bd4>
 858:	490b3b0b 	stmdbmi	fp, {r0, r1, r3, r8, r9, fp, ip, sp}
 85c:	000b1c13 	andeq	r1, fp, r3, lsl ip
 860:	82890900 	addhi	r0, r9, #0, 18
 864:	01110001 	tsteq	r1, r1
 868:	00001331 	andeq	r1, r0, r1, lsr r3
 86c:	0182890a 	orreq	r8, r2, sl, lsl #18
 870:	31011101 	tstcc	r1, r1, lsl #2
 874:	00130113 	andseq	r0, r3, r3, lsl r1
 878:	828a0b00 	addhi	r0, sl, #0, 22
 87c:	18020001 	stmdane	r2, {r0}
 880:	00184291 	mulseq	r8, r1, r2
 884:	82890c00 	addhi	r0, r9, #0, 24
 888:	01110101 	tsteq	r1, r1, lsl #2
 88c:	00001331 	andeq	r1, r0, r1, lsr r3
 890:	4900260d 	stmdbmi	r0, {r0, r2, r3, r9, sl, sp}
 894:	0e000013 	mcreq	0, 0, r0, cr0, cr3, {0}
 898:	193f012e 	ldmdbne	pc!, {r1, r2, r3, r5, r8}	; <UNPREDICTABLE>
 89c:	0b3a0e03 	bleq	e840b0 <__bss_end__+0xe7a828>
 8a0:	19270b3b 	stmdbne	r7!, {r0, r1, r3, r4, r5, r8, r9, fp}
 8a4:	1301193c 	movwne	r1, #6460	; 0x193c
 8a8:	050f0000 	streq	r0, [pc, #-0]	; 8b0 <_start-0x7750>
 8ac:	00134900 	andseq	r4, r3, r0, lsl #18
 8b0:	012e1000 	teqeq	lr, r0
 8b4:	0e03193f 	mcreq	9, 0, r1, cr3, cr15, {1}
 8b8:	0b3b0b3a 	bleq	ec35a8 <__bss_end__+0xeb9d20>
 8bc:	193c1927 	ldmdbne	ip!, {r0, r1, r2, r5, r8, fp, ip}
 8c0:	01000000 	mrseq	r0, (UNDEF: 0)
 8c4:	0e250111 	mcreq	1, 1, r0, cr5, cr1, {0}
 8c8:	0e030b13 	vmoveq.32	d3[0], r0
 8cc:	01110e1b 	tsteq	r1, fp, lsl lr
 8d0:	17100612 			; <UNDEFINED> instruction: 0x17100612
 8d4:	24020000 	strcs	r0, [r2], #-0
 8d8:	3e0b0b00 	vmlacc.f64	d0, d11, d0
 8dc:	0008030b 	andeq	r0, r8, fp, lsl #6
 8e0:	00240300 	eoreq	r0, r4, r0, lsl #6
 8e4:	0b3e0b0b 	bleq	f83518 <__bss_end__+0xf79c90>
 8e8:	00000e03 	andeq	r0, r0, r3, lsl #28
 8ec:	3f012e04 	svccc	0x00012e04
 8f0:	3a0e0319 	bcc	38155c <__bss_end__+0x377cd4>
 8f4:	270b3b0b 	strcs	r3, [fp, -fp, lsl #22]
 8f8:	12011119 	andne	r1, r1, #1073741830	; 0x40000006
 8fc:	97184006 	ldrls	r4, [r8, -r6]
 900:	13011942 	movwne	r1, #6466	; 0x1942
 904:	05050000 	streq	r0, [r5, #-0]
 908:	3a0e0300 	bcc	381510 <__bss_end__+0x377c88>
 90c:	490b3b0b 	stmdbmi	fp, {r0, r1, r3, r8, r9, fp, ip, sp}
 910:	00170213 	andseq	r0, r7, r3, lsl r2
 914:	012e0600 	teqeq	lr, r0, lsl #12
 918:	0e03193f 	mcreq	9, 0, r1, cr3, cr15, {1}
 91c:	0b3b0b3a 	bleq	ec360c <__bss_end__+0xeb9d84>
 920:	13491927 	movtne	r1, #39207	; 0x9927
 924:	06120111 			; <UNDEFINED> instruction: 0x06120111
 928:	42971840 	addsmi	r1, r7, #64, 16	; 0x400000
 92c:	00130119 	andseq	r0, r3, r9, lsl r1
 930:	82890700 	addhi	r0, r9, #0, 14
 934:	01110101 	tsteq	r1, r1, lsl #2
 938:	00001331 	andeq	r1, r0, r1, lsr r3
 93c:	01828a08 	orreq	r8, r2, r8, lsl #20
 940:	91180200 	tstls	r8, r0, lsl #4
 944:	00001842 	andeq	r1, r0, r2, asr #16
 948:	03003409 	movweq	r3, #1033	; 0x409
 94c:	3b0b3a08 	blcc	2cf174 <__bss_end__+0x2c58ec>
 950:	0213490b 	andseq	r4, r3, #180224	; 0x2c000
 954:	0a000017 	beq	9b8 <_start-0x7648>
 958:	00018289 	andeq	r8, r1, r9, lsl #5
 95c:	13310111 	teqne	r1, #1073741828	; 0x40000004
 960:	050b0000 	streq	r0, [fp, #-0]
 964:	3a080300 	bcc	20156c <__bss_end__+0x1f7ce4>
 968:	490b3b0b 	stmdbmi	fp, {r0, r1, r3, r8, r9, fp, ip, sp}
 96c:	00170213 	andseq	r0, r7, r3, lsl r2
 970:	00340c00 	eorseq	r0, r4, r0, lsl #24
 974:	0b3a0803 	bleq	e82988 <__bss_end__+0xe79100>
 978:	13490b3b 	movtne	r0, #39739	; 0x9b3b
 97c:	00001802 	andeq	r1, r0, r2, lsl #16
 980:	11010b0d 	tstne	r1, sp, lsl #22
 984:	01061201 	tsteq	r6, r1, lsl #4
 988:	0e000013 	mcreq	0, 0, r0, cr0, cr3, {0}
 98c:	193f012e 	ldmdbne	pc!, {r1, r2, r3, r5, r8}	; <UNPREDICTABLE>
 990:	0b3a0e03 	bleq	e841a4 <__bss_end__+0xe7a91c>
 994:	19270b3b 	stmdbne	r7!, {r0, r1, r3, r4, r5, r8, r9, fp}
 998:	193c1349 	ldmdbne	ip!, {r0, r3, r6, r8, r9, ip}
 99c:	00001301 	andeq	r1, r0, r1, lsl #6
 9a0:	4900050f 	stmdbmi	r0, {r0, r1, r2, r3, r8, sl}
 9a4:	10000013 	andne	r0, r0, r3, lsl r0
 9a8:	193f002e 	ldmdbne	pc!, {r1, r2, r3, r5}	; <UNPREDICTABLE>
 9ac:	0b3a0e03 	bleq	e841c0 <__bss_end__+0xe7a938>
 9b0:	19270b3b 	stmdbne	r7!, {r0, r1, r3, r4, r5, r8, r9, fp}
 9b4:	0000193c 	andeq	r1, r0, ip, lsr r9
 9b8:	01110100 	tsteq	r1, r0, lsl #2
 9bc:	0b130e25 	bleq	4c4258 <__bss_end__+0x4ba9d0>
 9c0:	0e1b0e03 	cdpeq	14, 1, cr0, cr11, cr3, {0}
 9c4:	06120111 			; <UNDEFINED> instruction: 0x06120111
 9c8:	00001710 	andeq	r1, r0, r0, lsl r7
 9cc:	0b002402 	bleq	99dc <__bss_end__+0x154>
 9d0:	030b3e0b 	movweq	r3, #48651	; 0xbe0b
 9d4:	03000008 	movweq	r0, #8
 9d8:	0b0b0024 	bleq	2c0a70 <__bss_end__+0x2b71e8>
 9dc:	0e030b3e 	vmoveq.16	d3[0], r0
 9e0:	04040000 	streq	r0, [r4], #-0
 9e4:	3a0b0b01 	bcc	2c35f0 <__bss_end__+0x2b9d68>
 9e8:	010b3b0b 	tsteq	fp, fp, lsl #22
 9ec:	05000013 	streq	r0, [r0, #-19]
 9f0:	0e030028 	cdpeq	0, 0, cr0, cr3, cr8, {1}
 9f4:	00000d1c 	andeq	r0, r0, ip, lsl sp
 9f8:	03001606 	movweq	r1, #1542	; 0x606
 9fc:	3b0b3a0e 	blcc	2cf23c <__bss_end__+0x2c59b4>
 a00:	0013490b 	andseq	r4, r3, fp, lsl #18
 a04:	012e0700 	teqeq	lr, r0, lsl #14
 a08:	0b3a0e03 	bleq	e8421c <__bss_end__+0xe7a994>
 a0c:	19270b3b 	stmdbne	r7!, {r0, r1, r3, r4, r5, r8, r9, fp}
 a10:	01111349 	tsteq	r1, r9, asr #6
 a14:	18400612 	stmdane	r0, {r1, r4, r9, sl}^
 a18:	01194297 			; <UNDEFINED> instruction: 0x01194297
 a1c:	08000013 	stmdaeq	r0, {r0, r1, r4}
 a20:	00018289 	andeq	r8, r1, r9, lsl #5
 a24:	13310111 	teqne	r1, #1073741828	; 0x40000004
 a28:	2e090000 	cdpcs	0, 0, cr0, cr9, cr0, {0}
 a2c:	03193f01 	tsteq	r9, #1, 30
 a30:	3b0b3a0e 	blcc	2cf270 <__bss_end__+0x2c59e8>
 a34:	1119270b 	tstne	r9, fp, lsl #14
 a38:	40061201 	andmi	r1, r6, r1, lsl #4
 a3c:	19429718 	stmdbne	r2, {r3, r4, r8, r9, sl, ip, pc}^
 a40:	00001301 	andeq	r1, r0, r1, lsl #6
 a44:	0182890a 	orreq	r8, r2, sl, lsl #18
 a48:	31011101 	tstcc	r1, r1, lsl #2
 a4c:	00130113 	andseq	r0, r3, r3, lsl r1
 a50:	828a0b00 	addhi	r0, sl, #0, 22
 a54:	18020001 	stmdane	r2, {r0}
 a58:	00184291 	mulseq	r8, r1, r2
 a5c:	012e0c00 	teqeq	lr, r0, lsl #24
 a60:	0e03193f 	mcreq	9, 0, r1, cr3, cr15, {1}
 a64:	0b3b0b3a 	bleq	ec3754 <__bss_end__+0xeb9ecc>
 a68:	13491927 	movtne	r1, #39207	; 0x9927
 a6c:	06120111 			; <UNDEFINED> instruction: 0x06120111
 a70:	42971840 	addsmi	r1, r7, #64, 16	; 0x400000
 a74:	00130119 	andseq	r0, r3, r9, lsl r1
 a78:	00050d00 	andeq	r0, r5, r0, lsl #26
 a7c:	0b3a0803 	bleq	e82a90 <__bss_end__+0xe79208>
 a80:	13490b3b 	movtne	r0, #39739	; 0x9b3b
 a84:	00001702 	andeq	r1, r0, r2, lsl #14
 a88:	0182890e 	orreq	r8, r2, lr, lsl #18
 a8c:	31011101 	tstcc	r1, r1, lsl #2
 a90:	0f000013 	svceq	0x00000013
 a94:	0e030034 	mcreq	0, 0, r0, cr3, cr4, {1}
 a98:	0b3b0b3a 	bleq	ec3788 <__bss_end__+0xeb9f00>
 a9c:	193f1349 	ldmdbne	pc!, {r0, r3, r6, r8, r9, ip}	; <UNPREDICTABLE>
 aa0:	00001802 	andeq	r1, r0, r2, lsl #16
 aa4:	0b000f10 	bleq	46ec <_start-0x3914>
 aa8:	0013490b 	andseq	r4, r3, fp, lsl #18
 aac:	00351100 	eorseq	r1, r5, r0, lsl #2
 ab0:	00001349 	andeq	r1, r0, r9, asr #6
 ab4:	3f012e12 	svccc	0x00012e12
 ab8:	3a0e0319 	bcc	381724 <__bss_end__+0x377e9c>
 abc:	270b3b0b 	strcs	r3, [fp, -fp, lsl #22]
 ac0:	3c134919 	ldccc	9, cr4, [r3], {25}
 ac4:	00130119 	andseq	r0, r3, r9, lsl r1
 ac8:	00051300 	andeq	r1, r5, r0, lsl #6
 acc:	00001349 	andeq	r1, r0, r9, asr #6
 ad0:	49002614 	stmdbmi	r0, {r2, r4, r9, sl, sp}
 ad4:	15000013 	strne	r0, [r0, #-19]
 ad8:	00000035 	andeq	r0, r0, r5, lsr r0
 adc:	3f002e16 	svccc	0x00002e16
 ae0:	3a0e0319 	bcc	38174c <__bss_end__+0x377ec4>
 ae4:	270b3b0b 	strcs	r3, [fp, -fp, lsl #22]
 ae8:	00193c19 	andseq	r3, r9, r9, lsl ip
 aec:	012e1700 	teqeq	lr, r0, lsl #14
 af0:	0e03193f 	mcreq	9, 0, r1, cr3, cr15, {1}
 af4:	0b3b0b3a 	bleq	ec37e4 <__bss_end__+0xeb9f5c>
 af8:	193c1927 	ldmdbne	ip!, {r0, r1, r2, r5, r8, fp, ip}
 afc:	00001301 	andeq	r1, r0, r1, lsl #6
 b00:	01110100 	tsteq	r1, r0, lsl #2
 b04:	0b130e25 	bleq	4c43a0 <__bss_end__+0x4bab18>
 b08:	0e1b0e03 	cdpeq	14, 1, cr0, cr11, cr3, {0}
 b0c:	06120111 			; <UNDEFINED> instruction: 0x06120111
 b10:	00001710 	andeq	r1, r0, r0, lsl r7
 b14:	0b002402 	bleq	9b24 <__bss_end__+0x29c>
 b18:	030b3e0b 	movweq	r3, #48651	; 0xbe0b
 b1c:	0300000e 	movweq	r0, #14
 b20:	0b0b0024 	bleq	2c0bb8 <__bss_end__+0x2b7330>
 b24:	08030b3e 	stmdaeq	r3, {r1, r2, r3, r4, r5, r8, r9, fp}
 b28:	04040000 	streq	r0, [r4], #-0
 b2c:	3a0b0b01 	bcc	2c3738 <__bss_end__+0x2b9eb0>
 b30:	010b3b0b 	tsteq	fp, fp, lsl #22
 b34:	05000013 	streq	r0, [r0, #-19]
 b38:	0e030028 	cdpeq	0, 0, cr0, cr3, cr8, {1}
 b3c:	00000d1c 	andeq	r0, r0, ip, lsl sp
 b40:	03001606 	movweq	r1, #1542	; 0x606
 b44:	3b0b3a0e 	blcc	2cf384 <__bss_end__+0x2c5afc>
 b48:	0013490b 	andseq	r4, r3, fp, lsl #18
 b4c:	012e0700 	teqeq	lr, r0, lsl #14
 b50:	0e03193f 	mcreq	9, 0, r1, cr3, cr15, {1}
 b54:	0b3b0b3a 	bleq	ec3844 <__bss_end__+0xeb9fbc>
 b58:	01111927 	tsteq	r1, r7, lsr #18
 b5c:	18400612 	stmdane	r0, {r1, r4, r9, sl}^
 b60:	01194297 			; <UNDEFINED> instruction: 0x01194297
 b64:	08000013 	stmdaeq	r0, {r0, r1, r4}
 b68:	08030005 	stmdaeq	r3, {r0, r2}
 b6c:	0b3b0b3a 	bleq	ec385c <__bss_end__+0xeb9fd4>
 b70:	17021349 	strne	r1, [r2, -r9, asr #6]
 b74:	34090000 	strcc	r0, [r9], #-0
 b78:	3a0e0300 	bcc	381780 <__bss_end__+0x377ef8>
 b7c:	490b3b0b 	stmdbmi	fp, {r0, r1, r3, r8, r9, fp, ip, sp}
 b80:	00170213 	andseq	r0, r7, r3, lsl r2
 b84:	82890a00 	addhi	r0, r9, #0, 20
 b88:	01110101 	tsteq	r1, r1, lsl #2
 b8c:	13011331 	movwne	r1, #4913	; 0x1331
 b90:	8a0b0000 	bhi	2c0b98 <__bss_end__+0x2b7310>
 b94:	02000182 	andeq	r0, r0, #-2147483616	; 0x80000020
 b98:	18429118 	stmdane	r2, {r3, r4, r8, ip, pc}^
 b9c:	890c0000 	stmdbhi	ip, {}	; <UNPREDICTABLE>
 ba0:	11010182 	smlabbne	r1, r2, r1, r0
 ba4:	00133101 	andseq	r3, r3, r1, lsl #2
 ba8:	000f0d00 	andeq	r0, pc, r0, lsl #26
 bac:	13490b0b 	movtne	r0, #39691	; 0x9b0b
 bb0:	350e0000 	strcc	r0, [lr, #-0]
 bb4:	00134900 	andseq	r4, r3, r0, lsl #18
 bb8:	012e0f00 	teqeq	lr, r0, lsl #30
 bbc:	0e03193f 	mcreq	9, 0, r1, cr3, cr15, {1}
 bc0:	0b3b0b3a 	bleq	ec38b0 <__bss_end__+0xeba028>
 bc4:	0b201927 	bleq	807068 <__bss_end__+0x7fd7e0>
 bc8:	00001301 	andeq	r1, r0, r1, lsl #6
 bcc:	03000510 	movweq	r0, #1296	; 0x510
 bd0:	3b0b3a08 	blcc	2cf3f8 <__bss_end__+0x2c5b70>
 bd4:	0013490b 	andseq	r4, r3, fp, lsl #18
 bd8:	00341100 	eorseq	r1, r4, r0, lsl #2
 bdc:	0b3a0e03 	bleq	e843f0 <__bss_end__+0xe7ab68>
 be0:	13490b3b 	movtne	r0, #39739	; 0x9b3b
 be4:	2e120000 	cdpcs	0, 1, cr0, cr2, cr0, {0}
 be8:	11133101 	tstne	r3, r1, lsl #2
 bec:	40061201 	andmi	r1, r6, r1, lsl #4
 bf0:	19429718 	stmdbne	r2, {r3, r4, r8, r9, sl, ip, pc}^
 bf4:	00001301 	andeq	r1, r0, r1, lsl #6
 bf8:	31000513 	tstcc	r0, r3, lsl r5
 bfc:	00170213 	andseq	r0, r7, r3, lsl r2
 c00:	00341400 	eorseq	r1, r4, r0, lsl #8
 c04:	17021331 	smladxne	r2, r1, r3, r1
 c08:	2e150000 	cdpcs	0, 1, cr0, cr5, cr0, {0}
 c0c:	03193f01 	tsteq	r9, #1, 30
 c10:	3b0b3a0e 	blcc	2cf450 <__bss_end__+0x2c5bc8>
 c14:	4919270b 	ldmdbmi	r9, {r0, r1, r3, r8, r9, sl, sp}
 c18:	12011113 	andne	r1, r1, #-1073741820	; 0xc0000004
 c1c:	97184006 	ldrls	r4, [r8, -r6]
 c20:	13011942 	movwne	r1, #6466	; 0x1942
 c24:	34160000 	ldrcc	r0, [r6], #-0
 c28:	3a080300 	bcc	201830 <__bss_end__+0x1f7fa8>
 c2c:	490b3b0b 	stmdbmi	fp, {r0, r1, r3, r8, r9, fp, ip, sp}
 c30:	00170213 	andseq	r0, r7, r3, lsl r2
 c34:	82891700 	addhi	r1, r9, #0, 14
 c38:	01110001 	tsteq	r1, r1
 c3c:	00001331 	andeq	r1, r0, r1, lsr r3
 c40:	31011d18 	tstcc	r1, r8, lsl sp
 c44:	12011113 	andne	r1, r1, #-1073741820	; 0xc0000004
 c48:	590b5806 	stmdbpl	fp, {r1, r2, fp, ip, lr}
 c4c:	0013010b 	andseq	r0, r3, fp, lsl #2
 c50:	010b1900 	tsteq	fp, r0, lsl #18
 c54:	06120111 			; <UNDEFINED> instruction: 0x06120111
 c58:	1d1a0000 	ldcne	0, cr0, [sl, #-0]
 c5c:	11133101 	tstne	r3, r1, lsl #2
 c60:	58061201 	stmdapl	r6, {r0, r9, ip}
 c64:	000b590b 	andeq	r5, fp, fp, lsl #18
 c68:	00051b00 	andeq	r1, r5, r0, lsl #22
 c6c:	0b3a0e03 	bleq	e84480 <__bss_end__+0xe7abf8>
 c70:	13490b3b 	movtne	r0, #39739	; 0x9b3b
 c74:	00001702 	andeq	r1, r0, r2, lsl #14
 c78:	0300341c 	movweq	r3, #1052	; 0x41c
 c7c:	3b0b3a0e 	blcc	2cf4bc <__bss_end__+0x2c5c34>
 c80:	3f13490b 	svccc	0x0013490b
 c84:	00180219 	andseq	r0, r8, r9, lsl r2
 c88:	012e1d00 	teqeq	lr, r0, lsl #26
 c8c:	0e03193f 	mcreq	9, 0, r1, cr3, cr15, {1}
 c90:	0b3b0b3a 	bleq	ec3980 <__bss_end__+0xeba0f8>
 c94:	13491927 	movtne	r1, #39207	; 0x9927
 c98:	1301193c 	movwne	r1, #6460	; 0x193c
 c9c:	051e0000 	ldreq	r0, [lr, #-0]
 ca0:	00134900 	andseq	r4, r3, r0, lsl #18
 ca4:	00261f00 	eoreq	r1, r6, r0, lsl #30
 ca8:	00001349 	andeq	r1, r0, r9, asr #6
 cac:	00003520 	andeq	r3, r0, r0, lsr #10
 cb0:	012e2100 	teqeq	lr, r0, lsl #2
 cb4:	0e03193f 	mcreq	9, 0, r1, cr3, cr15, {1}
 cb8:	0b3b0b3a 	bleq	ec39a8 <__bss_end__+0xeba120>
 cbc:	193c1927 	ldmdbne	ip!, {r0, r1, r2, r5, r8, fp, ip}
 cc0:	00001301 	andeq	r1, r0, r1, lsl #6
 cc4:	01110100 	tsteq	r1, r0, lsl #2
 cc8:	0b130e25 	bleq	4c4564 <__bss_end__+0x4bacdc>
 ccc:	0e1b0e03 	cdpeq	14, 1, cr0, cr11, cr3, {0}
 cd0:	06120111 			; <UNDEFINED> instruction: 0x06120111
 cd4:	00001710 	andeq	r1, r0, r0, lsl r7
 cd8:	0b002402 	bleq	9ce8 <__bss_end__+0x460>
 cdc:	030b3e0b 	movweq	r3, #48651	; 0xbe0b
 ce0:	03000008 	movweq	r0, #8
 ce4:	0b0b0024 	bleq	2c0d7c <__bss_end__+0x2b74f4>
 ce8:	0e030b3e 	vmoveq.16	d3[0], r0
 cec:	2e040000 	cdpcs	0, 0, cr0, cr4, cr0, {0}
 cf0:	3a0e0301 	bcc	3818fc <__bss_end__+0x378074>
 cf4:	270b3b0b 	strcs	r3, [fp, -fp, lsl #22]
 cf8:	11134919 	tstne	r3, r9, lsl r9
 cfc:	40061201 	andmi	r1, r6, r1, lsl #4
 d00:	19429718 	stmdbne	r2, {r3, r4, r8, r9, sl, ip, pc}^
 d04:	00001301 	andeq	r1, r0, r1, lsl #6
 d08:	03000505 	movweq	r0, #1285	; 0x505
 d0c:	3b0b3a08 	blcc	2cf534 <__bss_end__+0x2c5cac>
 d10:	0213490b 	andseq	r4, r3, #180224	; 0x2c000
 d14:	06000017 			; <UNDEFINED> instruction: 0x06000017
 d18:	01018289 	smlabbeq	r1, r9, r2, r8
 d1c:	13310111 	teqne	r1, #1073741828	; 0x40000004
 d20:	8a070000 	bhi	1c0d28 <__bss_end__+0x1b74a0>
 d24:	02000182 	andeq	r0, r0, #-2147483616	; 0x80000020
 d28:	18429118 	stmdane	r2, {r3, r4, r8, ip, pc}^
 d2c:	15080000 	strne	r0, [r8, #-0]
 d30:	49192701 	ldmdbmi	r9, {r0, r8, r9, sl, sp}
 d34:	00130113 	andseq	r0, r3, r3, lsl r1
 d38:	00050900 	andeq	r0, r5, r0, lsl #18
 d3c:	00001349 	andeq	r1, r0, r9, asr #6
 d40:	0300340a 	movweq	r3, #1034	; 0x40a
 d44:	3b0b3a0e 	blcc	2cf584 <__bss_end__+0x2c5cfc>
 d48:	3f13490b 	svccc	0x0013490b
 d4c:	00180219 	andseq	r0, r8, r9, lsl r2
 d50:	000f0b00 	andeq	r0, pc, r0, lsl #22
 d54:	13490b0b 	movtne	r0, #39691	; 0x9b0b
 d58:	2e0c0000 	cdpcs	0, 0, cr0, cr12, cr0, {0}
 d5c:	03193f01 	tsteq	r9, #1, 30
 d60:	3b0b3a0e 	blcc	2cf5a0 <__bss_end__+0x2c5d18>
 d64:	3c19270b 	ldccc	7, cr2, [r9], {11}
 d68:	00000019 	andeq	r0, r0, r9, lsl r0

Disassembly of section .debug_loc:

00000000 <.debug_loc>:
       0:	00000000 	andeq	r0, r0, r0
       4:	00000008 	andeq	r0, r0, r8
       8:	08500001 	ldmdaeq	r0, {r0}^
       c:	28000000 	stmdacs	r0, {}	; <UNPREDICTABLE>
      10:	04000000 	streq	r0, [r0], #-0
      14:	5001f300 	andpl	pc, r1, r0, lsl #6
      18:	0000009f 	muleq	r0, pc, r0	; <UNPREDICTABLE>
      1c:	00000000 	andeq	r0, r0, r0
      20:	00002800 	andeq	r2, r0, r0, lsl #16
      24:	00004000 	andeq	r4, r0, r0
      28:	50000100 	andpl	r0, r0, r0, lsl #2
      2c:	00000040 	andeq	r0, r0, r0, asr #32
      30:	0000004c 	andeq	r0, r0, ip, asr #32
      34:	01f30004 	mvnseq	r0, r4
      38:	004c9f50 	subeq	r9, ip, r0, asr pc
      3c:	00500000 	subseq	r0, r0, r0
      40:	00010000 	andeq	r0, r1, r0
      44:	00005050 	andeq	r5, r0, r0, asr r0
      48:	00006800 	andeq	r6, r0, r0, lsl #16
      4c:	f3000400 	vshl.u8	d0, d0, d0
      50:	009f5001 	addseq	r5, pc, r1
      54:	00000000 	andeq	r0, r0, r0
      58:	28000000 	stmdacs	r0, {}	; <UNPREDICTABLE>
      5c:	43000000 	movwmi	r0, #0
      60:	01000000 	mrseq	r0, (UNDEF: 0)
      64:	00435100 	subeq	r5, r3, r0, lsl #2
      68:	004c0000 	subeq	r0, ip, r0
      6c:	00040000 	andeq	r0, r4, r0
      70:	9f5101f3 	svcls	0x005101f3
      74:	0000004c 	andeq	r0, r0, ip, asr #32
      78:	00000054 	andeq	r0, r0, r4, asr r0
      7c:	54510001 	ldrbpl	r0, [r1], #-1
      80:	68000000 	stmdavs	r0, {}	; <UNPREDICTABLE>
      84:	04000000 	streq	r0, [r0], #-0
      88:	5101f300 	mrspl	pc, SP_irq	; <UNPREDICTABLE>
      8c:	0000009f 	muleq	r0, pc, r0	; <UNPREDICTABLE>
      90:	00000000 	andeq	r0, r0, r0
      94:	00003400 	andeq	r3, r0, r0, lsl #8
      98:	00004300 	andeq	r4, r0, r0, lsl #6
      9c:	53000100 	movwpl	r0, #256	; 0x100
      a0:	0000004c 	andeq	r0, r0, ip, asr #32
      a4:	00000057 	andeq	r0, r0, r7, asr r0
      a8:	00530001 	subseq	r0, r3, r1
      ac:	00000000 	andeq	r0, r0, r0
      b0:	90000000 	andls	r0, r0, r0
      b4:	94000000 	strls	r0, [r0], #-0
      b8:	01000000 	mrseq	r0, (UNDEF: 0)
      bc:	00945000 	addseq	r5, r4, r0
      c0:	00cc0000 	sbceq	r0, ip, r0
      c4:	00010000 	andeq	r0, r1, r0
      c8:	0000cc54 	andeq	ip, r0, r4, asr ip
      cc:	0000d000 	andeq	sp, r0, r0
      d0:	50000100 	andpl	r0, r0, r0, lsl #2
      d4:	000000d0 	ldrdeq	r0, [r0], -r0	; <UNPREDICTABLE>
      d8:	00000124 	andeq	r0, r0, r4, lsr #2
      dc:	00540001 	subseq	r0, r4, r1
      e0:	00000000 	andeq	r0, r0, r0
      e4:	30000000 	andcc	r0, r0, r0
      e8:	3c000000 	stccc	0, cr0, [r0], {-0}
      ec:	02000000 	andeq	r0, r0, #0
      f0:	3c9f3000 	ldccc	0, cr3, [pc], {0}
      f4:	68000000 	stmdavs	r0, {}	; <UNPREDICTABLE>
      f8:	01000000 	mrseq	r0, (UNDEF: 0)
      fc:	00005300 	andeq	r5, r0, r0, lsl #6
     100:	00000000 	andeq	r0, r0, r0
     104:	00680000 	rsbeq	r0, r8, r0
     108:	00800000 	addeq	r0, r0, r0
     10c:	00010000 	andeq	r0, r1, r0
     110:	00008050 	andeq	r8, r0, r0, asr r0
     114:	00008f00 	andeq	r8, r0, r0, lsl #30
     118:	91000200 	mrsls	r0, R8_usr
     11c:	00008f6c 	andeq	r8, r0, ip, ror #30
     120:	0000a400 	andeq	sl, r0, r0, lsl #8
     124:	f3000400 	vshl.u8	d0, d0, d0
     128:	009f5001 	addseq	r5, pc, r1
     12c:	00000000 	andeq	r0, r0, r0
     130:	a4000000 	strge	r0, [r0], #-0
     134:	bc000000 	stclt	0, cr0, [r0], {-0}
     138:	01000000 	mrseq	r0, (UNDEF: 0)
     13c:	00bc5000 	adcseq	r5, ip, r0
     140:	00cb0000 	sbceq	r0, fp, r0
     144:	00020000 	andeq	r0, r2, r0
     148:	00cb6c91 	smulleq	r6, fp, r1, ip
     14c:	00e00000 	rsceq	r0, r0, r0
     150:	00040000 	andeq	r0, r4, r0
     154:	9f5001f3 	svcls	0x005001f3
	...
     160:	000000e0 	andeq	r0, r0, r0, ror #1
     164:	000000f8 	strdeq	r0, [r0], -r8
     168:	f8500001 			; <UNDEFINED> instruction: 0xf8500001
     16c:	07000000 	streq	r0, [r0, -r0]
     170:	02000001 	andeq	r0, r0, #1
     174:	076c9100 	strbeq	r9, [ip, -r0, lsl #2]!
     178:	1c000001 	stcne	0, cr0, [r0], {1}
     17c:	04000001 	streq	r0, [r0], #-1
     180:	5001f300 	andpl	pc, r1, r0, lsl #6
     184:	0000009f 	muleq	r0, pc, r0	; <UNPREDICTABLE>
     188:	00000000 	andeq	r0, r0, r0
     18c:	00011c00 	andeq	r1, r1, r0, lsl #24
     190:	00013400 	andeq	r3, r1, r0, lsl #8
     194:	50000100 	andpl	r0, r0, r0, lsl #2
     198:	00000134 	andeq	r0, r0, r4, lsr r1
     19c:	00000143 	andeq	r0, r0, r3, asr #2
     1a0:	6c910002 	ldcvs	0, cr0, [r1], {2}
     1a4:	00000143 	andeq	r0, r0, r3, asr #2
     1a8:	00000158 	andeq	r0, r0, r8, asr r1
     1ac:	01f30004 	mvnseq	r0, r4
     1b0:	00009f50 	andeq	r9, r0, r0, asr pc
     1b4:	00000000 	andeq	r0, r0, r0
     1b8:	01580000 	cmpeq	r8, r0
     1bc:	01700000 	cmneq	r0, r0
     1c0:	00010000 	andeq	r0, r1, r0
     1c4:	00017050 	andeq	r7, r1, r0, asr r0
     1c8:	00017f00 	andeq	r7, r1, r0, lsl #30
     1cc:	91000200 	mrsls	r0, R8_usr
     1d0:	00017f6c 	andeq	r7, r1, ip, ror #30
     1d4:	00019400 	andeq	r9, r1, r0, lsl #8
     1d8:	f3000400 	vshl.u8	d0, d0, d0
     1dc:	009f5001 	addseq	r5, pc, r1
     1e0:	00000000 	andeq	r0, r0, r0
     1e4:	94000000 	strls	r0, [r0], #-0
     1e8:	ac000001 	stcge	0, cr0, [r0], {1}
     1ec:	01000001 	tsteq	r0, r1
     1f0:	01ac5000 			; <UNDEFINED> instruction: 0x01ac5000
     1f4:	01bb0000 			; <UNDEFINED> instruction: 0x01bb0000
     1f8:	00020000 	andeq	r0, r2, r0
     1fc:	01bb6c91 			; <UNDEFINED> instruction: 0x01bb6c91
     200:	01d00000 	bicseq	r0, r0, r0
     204:	00040000 	andeq	r0, r4, r0
     208:	9f5001f3 	svcls	0x005001f3
	...
     214:	0000002c 	andeq	r0, r0, ip, lsr #32
     218:	00000038 	andeq	r0, r0, r8, lsr r0
     21c:	38500001 	ldmdacc	r0, {r0}^
     220:	48000000 	stmdami	r0, {}	; <UNPREDICTABLE>
     224:	01000000 	mrseq	r0, (UNDEF: 0)
     228:	00485500 	subeq	r5, r8, r0, lsl #10
     22c:	00580000 	subseq	r0, r8, r0
     230:	00010000 	andeq	r0, r1, r0
     234:	00000050 	andeq	r0, r0, r0, asr r0
	...
     240:	00001000 	andeq	r1, r0, r0
     244:	50000100 	andpl	r0, r0, r0, lsl #2
     248:	00000010 	andeq	r0, r0, r0, lsl r0
     24c:	00000034 	andeq	r0, r0, r4, lsr r0
     250:	00540001 	subseq	r0, r4, r1
	...
     25c:	04000000 	streq	r0, [r0], #-0
     260:	01000000 	mrseq	r0, (UNDEF: 0)
     264:	00045000 	andeq	r5, r4, r0
     268:	000c0000 	andeq	r0, ip, r0
     26c:	00030000 	andeq	r0, r3, r0
     270:	0c9f3070 	ldceq	0, cr3, [pc], {112}	; 0x70
     274:	14000000 	strne	r0, [r0], #-0
     278:	04000000 	streq	r0, [r0], #-0
     27c:	5001f300 	andpl	pc, r1, r0, lsl #6
     280:	0000009f 	muleq	r0, pc, r0	; <UNPREDICTABLE>
     284:	00000000 	andeq	r0, r0, r0
     288:	00001400 	andeq	r1, r0, r0, lsl #8
     28c:	00002000 	andeq	r2, r0, r0
     290:	50000100 	andpl	r0, r0, r0, lsl #2
     294:	00000020 	andeq	r0, r0, r0, lsr #32
     298:	0000002c 	andeq	r0, r0, ip, lsr #32
     29c:	01700003 	cmneq	r0, r3
     2a0:	00002c9f 	muleq	r0, pc, ip	; <UNPREDICTABLE>
     2a4:	00004000 	andeq	r4, r0, r0
     2a8:	50000100 	andpl	r0, r0, r0, lsl #2
	...
     2b4:	00000014 	andeq	r0, r0, r4, lsl r0
     2b8:	00000018 	andeq	r0, r0, r8, lsl r0
     2bc:	18510001 	ldmdane	r1, {r0}^
     2c0:	40000000 	andmi	r0, r0, r0
     2c4:	04000000 	streq	r0, [r0], #-0
     2c8:	5101f300 	mrspl	pc, SP_irq	; <UNPREDICTABLE>
     2cc:	0000009f 	muleq	r0, pc, r0	; <UNPREDICTABLE>
     2d0:	00000000 	andeq	r0, r0, r0
     2d4:	00004000 	andeq	r4, r0, r0
     2d8:	00006000 	andeq	r6, r0, r0
     2dc:	50000100 	andpl	r0, r0, r0, lsl #2
     2e0:	00000060 	andeq	r0, r0, r0, rrx
     2e4:	0000006c 	andeq	r0, r0, ip, rrx
     2e8:	01710003 	cmneq	r1, r3
     2ec:	00006c9f 	muleq	r0, pc, ip	; <UNPREDICTABLE>
     2f0:	00007400 	andeq	r7, r0, r0, lsl #8
     2f4:	51000100 	mrspl	r0, (UNDEF: 16)
     2f8:	00000074 	andeq	r0, r0, r4, ror r0
     2fc:	00000080 	andeq	r0, r0, r0, lsl #1
     300:	01710003 	cmneq	r1, r3
     304:	0000009f 	muleq	r0, pc, r0	; <UNPREDICTABLE>
     308:	00000000 	andeq	r0, r0, r0
     30c:	00004000 	andeq	r4, r0, r0
     310:	00005000 	andeq	r5, r0, r0
     314:	51000100 	mrspl	r0, (UNDEF: 16)
     318:	00000050 	andeq	r0, r0, r0, asr r0
     31c:	00000080 	andeq	r0, r0, r0, lsl #1
     320:	01f30004 	mvnseq	r0, r4
     324:	00009f51 	andeq	r9, r0, r1, asr pc
     328:	00000000 	andeq	r0, r0, r0
     32c:	00400000 	subeq	r0, r0, r0
     330:	00580000 	subseq	r0, r8, r0
     334:	00010000 	andeq	r0, r1, r0
     338:	00005852 	andeq	r5, r0, r2, asr r8
     33c:	00006400 	andeq	r6, r0, r0, lsl #8
     340:	52000100 	andpl	r0, r0, #0, 2
     344:	00000064 	andeq	r0, r0, r4, rrx
     348:	00000068 	andeq	r0, r0, r8, rrx
     34c:	01720003 	cmneq	r2, r3
     350:	0000689f 	muleq	r0, pc, r8	; <UNPREDICTABLE>
     354:	00008000 	andeq	r8, r0, r0
     358:	52000100 	andpl	r0, r0, #0, 2
	...
     364:	00000040 	andeq	r0, r0, r0, asr #32
     368:	00000054 	andeq	r0, r0, r4, asr r0
     36c:	54530001 	ldrbpl	r0, [r3], #-1
     370:	78000000 	stmdavc	r0, {}	; <UNPREDICTABLE>
     374:	01000000 	mrseq	r0, (UNDEF: 0)
     378:	00005300 	andeq	r5, r0, r0, lsl #6
     37c:	00000000 	andeq	r0, r0, r0
     380:	00480000 	subeq	r0, r8, r0
     384:	00600000 	rsbeq	r0, r0, r0
     388:	00010000 	andeq	r0, r1, r0
     38c:	0000605c 	andeq	r6, r0, ip, asr r0
     390:	00008000 	andeq	r8, r0, r0
     394:	f3000a00 	vpmax.u8	d0, d0, d0
     398:	01f35201 	mvnseq	r5, r1, lsl #4
     39c:	01231c53 	teqeq	r3, r3, asr ip
     3a0:	0000009f 	muleq	r0, pc, r0	; <UNPREDICTABLE>
     3a4:	00000000 	andeq	r0, r0, r0
     3a8:	00008000 	andeq	r8, r0, r0
     3ac:	0000a400 	andeq	sl, r0, r0, lsl #8
     3b0:	50000100 	andpl	r0, r0, r0, lsl #2
     3b4:	000000a4 	andeq	r0, r0, r4, lsr #1
     3b8:	00000118 	andeq	r0, r0, r8, lsl r1
     3bc:	02700003 	rsbseq	r0, r0, #3
     3c0:	0001189f 	muleq	r1, pc, r8	; <UNPREDICTABLE>
     3c4:	00021800 	andeq	r1, r2, r0, lsl #16
     3c8:	f3000400 	vshl.u8	d0, d0, d0
     3cc:	009f5001 	addseq	r5, pc, r1
     3d0:	00000000 	andeq	r0, r0, r0
     3d4:	80000000 	andhi	r0, r0, r0
     3d8:	f0000000 			; <UNDEFINED> instruction: 0xf0000000
     3dc:	01000000 	mrseq	r0, (UNDEF: 0)
     3e0:	00f05100 	rscseq	r5, r0, r0, lsl #2
     3e4:	01600000 	cmneq	r0, r0
     3e8:	00010000 	andeq	r0, r1, r0
     3ec:	00016055 	andeq	r6, r1, r5, asr r0
     3f0:	00016800 	andeq	r6, r1, r0, lsl #16
     3f4:	51000100 	mrspl	r0, (UNDEF: 16)
     3f8:	00000168 	andeq	r0, r0, r8, ror #2
     3fc:	00000188 	andeq	r0, r0, r8, lsl #3
     400:	88550001 	ldmdahi	r5, {r0}^
     404:	9c000001 	stcls	0, cr0, [r0], {1}
     408:	01000001 	tsteq	r0, r1
     40c:	019c5100 	orrseq	r5, ip, r0, lsl #2
     410:	01bc0000 			; <UNDEFINED> instruction: 0x01bc0000
     414:	00010000 	andeq	r0, r1, r0
     418:	0001bc55 	andeq	fp, r1, r5, asr ip
     41c:	0001c400 	andeq	ip, r1, r0, lsl #8
     420:	51000100 	mrspl	r0, (UNDEF: 16)
     424:	000001c4 	andeq	r0, r0, r4, asr #3
     428:	000001fc 	strdeq	r0, [r0], -ip
     42c:	fc550001 	mrrc2	0, 0, r0, r5, cr1
     430:	18000001 	stmdane	r0, {r0}
     434:	04000002 	streq	r0, [r0], #-2
     438:	5101f300 	mrspl	pc, SP_irq	; <UNPREDICTABLE>
     43c:	0000009f 	muleq	r0, pc, r0	; <UNPREDICTABLE>
     440:	00000000 	andeq	r0, r0, r0
     444:	00008000 	andeq	r8, r0, r0
     448:	00009400 	andeq	r9, r0, r0, lsl #8
     44c:	52000100 	andpl	r0, r0, #0, 2
     450:	00000094 	muleq	r0, r4, r0
     454:	000001fc 	strdeq	r0, [r0], -ip
     458:	fc540001 	mrrc2	0, 0, r0, r4, cr1
     45c:	18000001 	stmdane	r0, {r0}
     460:	04000002 	streq	r0, [r0], #-2
     464:	5201f300 	andpl	pc, r1, #0, 6
     468:	0000009f 	muleq	r0, pc, r0	; <UNPREDICTABLE>
     46c:	00000000 	andeq	r0, r0, r0
     470:	00008000 	andeq	r8, r0, r0
     474:	00010000 	andeq	r0, r1, r0
     478:	53000100 	movwpl	r0, #256	; 0x100
     47c:	00000104 	andeq	r0, r0, r4, lsl #2
     480:	00000108 	andeq	r0, r0, r8, lsl #2
     484:	60530001 	subsvs	r0, r3, r1
     488:	68000001 	stmdavs	r0, {r0}
     48c:	01000001 	tsteq	r0, r1
     490:	01685300 	cmneq	r8, r0, lsl #6
     494:	01880000 	orreq	r0, r8, r0
     498:	00040000 	andeq	r0, r4, r0
     49c:	9f5301f3 	svcls	0x005301f3
     4a0:	00000188 	andeq	r0, r0, r8, lsl #3
     4a4:	00000190 	muleq	r0, r0, r1
     4a8:	90530001 	subsls	r0, r3, r1
     4ac:	94000001 	strls	r0, [r0], #-1
     4b0:	01000001 	tsteq	r0, r1
     4b4:	01945c00 	orrseq	r5, r4, r0, lsl #24
     4b8:	019c0000 	orrseq	r0, ip, r0
     4bc:	00010000 	andeq	r0, r1, r0
     4c0:	00019c53 	andeq	r9, r1, r3, asr ip
     4c4:	0001bc00 	andeq	fp, r1, r0, lsl #24
     4c8:	f3000400 	vshl.u8	d0, d0, d0
     4cc:	bc9f5301 	ldclt	3, cr5, [pc], {1}
     4d0:	cc000001 	stcgt	0, cr0, [r0], {1}
     4d4:	01000001 	tsteq	r0, r1
     4d8:	01cc5300 	biceq	r5, ip, r0, lsl #6
     4dc:	01cf0000 	biceq	r0, pc, r0
     4e0:	00010000 	andeq	r0, r1, r0
     4e4:	0001cf5c 	andeq	ip, r1, ip, asr pc
     4e8:	0001d400 	andeq	sp, r1, r0, lsl #8
     4ec:	f3000400 	vshl.u8	d0, d0, d0
     4f0:	009f5301 	addseq	r5, pc, r1, lsl #6
     4f4:	00000000 	andeq	r0, r0, r0
     4f8:	80000000 	andhi	r0, r0, r0
     4fc:	9c000000 	stcls	0, cr0, [r0], {-0}
     500:	02000000 	andeq	r0, r0, #0
     504:	9c009100 	stflsd	f1, [r0], {-0}
     508:	c8000000 	stmdagt	r0, {}	; <UNPREDICTABLE>
     50c:	01000001 	tsteq	r0, r1
     510:	01d45200 	bicseq	r5, r4, r0, lsl #4
     514:	01df0000 	bicseq	r0, pc, r0
     518:	00010000 	andeq	r0, r1, r0
     51c:	00000052 	andeq	r0, r0, r2, asr r0
     520:	00000000 	andeq	r0, r0, r0
     524:	00009c00 	andeq	r9, r0, r0, lsl #24
     528:	00011800 	andeq	r1, r1, r0, lsl #16
     52c:	5d000100 	stfpls	f0, [r0, #-0]
     530:	00000118 	andeq	r0, r0, r8, lsl r1
     534:	0000011c 	andeq	r0, r0, ip, lsl r1
     538:	1c530001 	mrrcne	0, 0, r0, r3, cr1
     53c:	20000001 	andcs	r0, r0, r1
     540:	01000001 	tsteq	r0, r1
     544:	01205100 	teqeq	r0, r0, lsl #2
     548:	01600000 	cmneq	r0, r0
     54c:	00010000 	andeq	r0, r1, r0
     550:	00016053 	andeq	r6, r1, r3, asr r0
     554:	00016800 	andeq	r6, r1, r0, lsl #16
     558:	5d000100 	stfpls	f0, [r0, #-0]
     55c:	00000168 	andeq	r0, r0, r8, ror #2
     560:	0000016c 	andeq	r0, r0, ip, ror #2
     564:	6c5e0001 	mrrcvs	0, 0, r0, lr, cr1
     568:	88000001 	stmdahi	r0, {r0}
     56c:	01000001 	tsteq	r0, r1
     570:	01885300 	orreq	r5, r8, r0, lsl #6
     574:	01900000 	orrseq	r0, r0, r0
     578:	00040000 	andeq	r0, r4, r0
     57c:	9f7fa191 	svcls	0x007fa191
     580:	00000190 	muleq	r0, r0, r1
     584:	00000194 	muleq	r0, r4, r1
     588:	94530001 	ldrbls	r0, [r3], #-1
     58c:	9c000001 	stcls	0, cr0, [r0], {1}
     590:	01000001 	tsteq	r0, r1
     594:	019c5d00 	orrseq	r5, ip, r0, lsl #26
     598:	01a00000 	moveq	r0, r0
     59c:	00010000 	andeq	r0, r1, r0
     5a0:	0001a05e 	andeq	sl, r1, lr, asr r0
     5a4:	0001bc00 	andeq	fp, r1, r0, lsl #24
     5a8:	53000100 	movwpl	r0, #256	; 0x100
     5ac:	000001bc 			; <UNDEFINED> instruction: 0x000001bc
     5b0:	000001d4 	ldrdeq	r0, [r0], -r4
     5b4:	d45d0001 	ldrble	r0, [sp], #-1
     5b8:	df000001 	svcle	0x00000001
     5bc:	01000001 	tsteq	r0, r1
     5c0:	00005300 	andeq	r5, r0, r0, lsl #6
     5c4:	00000000 	andeq	r0, r0, r0
     5c8:	00a00000 	adceq	r0, r0, r0
     5cc:	00ec0000 	rsceq	r0, ip, r0
     5d0:	00010000 	andeq	r0, r1, r0
     5d4:	0000ec5c 	andeq	lr, r0, ip, asr ip
     5d8:	00010000 	andeq	r0, r1, r0
     5dc:	53000100 	movwpl	r0, #256	; 0x100
     5e0:	00000100 	andeq	r0, r0, r0, lsl #2
     5e4:	00000104 	andeq	r0, r0, r4, lsl #2
     5e8:	045c0001 	ldrbeq	r0, [ip], #-1
     5ec:	08000001 	stmdaeq	r0, {r0}
     5f0:	01000001 	tsteq	r0, r1
     5f4:	01085300 	mrseq	r5, (UNDEF: 56)
     5f8:	01180000 	tsteq	r8, r0
     5fc:	00010000 	andeq	r0, r1, r0
     600:	0001185c 	andeq	r1, r1, ip, asr r8
     604:	00011c00 	andeq	r1, r1, r0, lsl #24
     608:	50000100 	andpl	r0, r0, r0, lsl #2
     60c:	0000011c 	andeq	r0, r0, ip, lsl r1
     610:	0000013c 	andeq	r0, r0, ip, lsr r1
     614:	445c0001 	ldrbmi	r0, [ip], #-1
     618:	58000001 	stmdapl	r0, {r0}
     61c:	01000001 	tsteq	r0, r1
     620:	01585000 	cmpeq	r8, r0
     624:	01600000 	cmneq	r0, r0
     628:	00010000 	andeq	r0, r1, r0
     62c:	0001605c 	andeq	r6, r1, ip, asr r0
     630:	00016800 	andeq	r6, r1, r0, lsl #16
     634:	53000100 	movwpl	r0, #256	; 0x100
     638:	00000168 	andeq	r0, r0, r8, ror #2
     63c:	00000178 	andeq	r0, r0, r8, ror r1
     640:	785c0001 	ldmdavc	ip, {r0}^
     644:	80000001 	andhi	r0, r0, r1
     648:	05000001 	streq	r0, [r0, #-1]
     64c:	34007c00 	strcc	r7, [r0], #-3072	; 0xc00
     650:	01809f25 	orreq	r9, r0, r5, lsr #30
     654:	01880000 	orreq	r0, r8, r0
     658:	00010000 	andeq	r0, r1, r0
     65c:	0001885c 	andeq	r8, r1, ip, asr r8
     660:	00019000 	andeq	r9, r1, r0
     664:	53000100 	movwpl	r0, #256	; 0x100
     668:	00000190 	muleq	r0, r0, r1
     66c:	00000194 	muleq	r0, r4, r1
     670:	945c0001 	ldrbls	r0, [ip], #-1
     674:	9c000001 	stcls	0, cr0, [r0], {1}
     678:	01000001 	tsteq	r0, r1
     67c:	019c5300 	orrseq	r5, ip, r0, lsl #6
     680:	01ac0000 			; <UNDEFINED> instruction: 0x01ac0000
     684:	00010000 	andeq	r0, r1, r0
     688:	0001ac5c 	andeq	sl, r1, ip, asr ip
     68c:	0001b400 	andeq	fp, r1, r0, lsl #8
     690:	7c000500 	cfstr32vc	mvfx0, [r0], {-0}
     694:	9f253100 	svcls	0x00253100
     698:	000001b4 			; <UNDEFINED> instruction: 0x000001b4
     69c:	000001bc 			; <UNDEFINED> instruction: 0x000001bc
     6a0:	bc5c0001 	mrrclt	0, 0, r0, ip, cr1
     6a4:	cc000001 	stcgt	0, cr0, [r0], {1}
     6a8:	01000001 	tsteq	r0, r1
     6ac:	01cc5300 	biceq	r5, ip, r0, lsl #6
     6b0:	01cf0000 	biceq	r0, pc, r0
     6b4:	00010000 	andeq	r0, r1, r0
     6b8:	0001cf5c 	andeq	ip, r1, ip, asr pc
     6bc:	0001d400 	andeq	sp, r1, r0, lsl #8
     6c0:	f3000400 	vshl.u8	d0, d0, d0
     6c4:	d49f5301 	ldrle	r5, [pc], #769	; 6cc <_start-0x7934>
     6c8:	df000001 	svcle	0x00000001
     6cc:	01000001 	tsteq	r0, r1
     6d0:	00005c00 	andeq	r5, r0, r0, lsl #24
     6d4:	00000000 	andeq	r0, r0, r0
     6d8:	00ec0000 	rsceq	r0, ip, r0
     6dc:	00fc0000 	rscseq	r0, ip, r0
     6e0:	00020000 	andeq	r0, r2, r0
     6e4:	00fc9f30 	rscseq	r9, ip, r0, lsr pc
     6e8:	01040000 	mrseq	r0, (UNDEF: 4)
     6ec:	00020000 	andeq	r0, r2, r0
     6f0:	01049f31 	tsteq	r4, r1, lsr pc
     6f4:	01080000 	mrseq	r0, (UNDEF: 8)
     6f8:	00020000 	andeq	r0, r2, r0
     6fc:	00009f30 	andeq	r9, r0, r0, lsr pc
     700:	00000000 	andeq	r0, r0, r0
     704:	02180000 	andseq	r0, r8, #0
     708:	02280000 	eoreq	r0, r8, #0
     70c:	00010000 	andeq	r0, r1, r0
     710:	00022850 	andeq	r2, r2, r0, asr r8
     714:	00023c00 	andeq	r3, r2, r0, lsl #24
     718:	f3000400 	vshl.u8	d0, d0, d0
     71c:	3c9f5001 	ldccc	0, cr5, [pc], {1}
     720:	68000002 	stmdavs	r0, {r1}
     724:	01000002 	tsteq	r0, r2
     728:	00005000 	andeq	r5, r0, r0
     72c:	00000000 	andeq	r0, r0, r0
     730:	02180000 	andseq	r0, r8, #0
     734:	022c0000 	eoreq	r0, ip, #0
     738:	00010000 	andeq	r0, r1, r0
     73c:	00022c51 	andeq	r2, r2, r1, asr ip
     740:	00023c00 	andeq	r3, r2, r0, lsl #24
     744:	f3000400 	vshl.u8	d0, d0, d0
     748:	3c9f5101 	ldfccs	f5, [pc], {1}
     74c:	68000002 	stmdavs	r0, {r1}
     750:	01000002 	tsteq	r0, r2
     754:	00005100 	andeq	r5, r0, r0, lsl #2
     758:	00000000 	andeq	r0, r0, r0
     75c:	02680000 	rsbeq	r0, r8, #0
     760:	02900000 	addseq	r0, r0, #0
     764:	00010000 	andeq	r0, r1, r0
     768:	00029050 	andeq	r9, r2, r0, asr r0
     76c:	0004dc00 	andeq	sp, r4, r0, lsl #24
     770:	5b000100 	blpl	b78 <_start-0x7488>
     774:	000004dc 	ldrdeq	r0, [r0], -ip
     778:	000004f0 	strdeq	r0, [r0], -r0	; <UNPREDICTABLE>
     77c:	01f30004 	mvnseq	r0, r4
     780:	00009f50 	andeq	r9, r0, r0, asr pc
     784:	00000000 	andeq	r0, r0, r0
     788:	02680000 	rsbeq	r0, r8, #0
     78c:	027c0000 	rsbseq	r0, ip, #0
     790:	00010000 	andeq	r0, r1, r0
     794:	00027c51 	andeq	r7, r2, r1, asr ip
     798:	00029000 	andeq	r9, r2, r0
     79c:	71000300 	mrsvc	r0, LR_irq
     7a0:	02909f01 	addseq	r9, r0, #1, 30
     7a4:	04f00000 	ldrbteq	r0, [r0], #0
     7a8:	00040000 	andeq	r0, r4, r0
     7ac:	9f5101f3 	svcls	0x005101f3
	...
     7b8:	00000268 	andeq	r0, r0, r8, ror #4
     7bc:	00000298 	muleq	r0, r8, r2
     7c0:	98520001 	ldmdals	r2, {r0}^
     7c4:	c0000002 	andgt	r0, r0, r2
     7c8:	01000002 	tsteq	r0, r2
     7cc:	02c05200 	sbceq	r5, r0, #0, 4
     7d0:	048c0000 	streq	r0, [ip], #0
     7d4:	00010000 	andeq	r0, r1, r0
     7d8:	00048c56 	andeq	r8, r4, r6, asr ip
     7dc:	0004f000 	andeq	pc, r4, r0
     7e0:	52000100 	andpl	r0, r0, #0, 2
	...
     7ec:	00000268 	andeq	r0, r0, r8, ror #4
     7f0:	00000284 	andeq	r0, r0, r4, lsl #5
     7f4:	00530001 	subseq	r0, r3, r1
     7f8:	00000000 	andeq	r0, r0, r0
     7fc:	78000000 	stmdavc	r0, {}	; <UNPREDICTABLE>
     800:	90000002 	andls	r0, r0, r2
     804:	01000002 	tsteq	r0, r2
     808:	02905000 	addseq	r5, r0, #0
     80c:	02940000 	addseq	r0, r4, #0
     810:	00010000 	andeq	r0, r1, r0
     814:	00029454 	andeq	r9, r2, r4, asr r4
     818:	0002a000 	andeq	sl, r2, r0
     81c:	74000300 	strvc	r0, [r0], #-768	; 0x300
     820:	02a09f01 	adceq	r9, r0, #1, 30
     824:	02ac0000 	adceq	r0, ip, #0
     828:	00010000 	andeq	r0, r1, r0
     82c:	0002ac54 	andeq	sl, r2, r4, asr ip
     830:	0002b800 	andeq	fp, r2, r0, lsl #16
     834:	74000300 	strvc	r0, [r0], #-768	; 0x300
     838:	02b89f01 	adcseq	r9, r8, #1, 30
     83c:	04900000 	ldreq	r0, [r0], #0
     840:	00010000 	andeq	r0, r1, r0
     844:	00049054 	andeq	r9, r4, r4, asr r0
     848:	00049c00 	andeq	r9, r4, r0, lsl #24
     84c:	74000300 	strvc	r0, [r0], #-768	; 0x300
     850:	049c9f01 	ldreq	r9, [ip], #3841	; 0xf01
     854:	04c80000 	strbeq	r0, [r8], #0
     858:	00010000 	andeq	r0, r1, r0
     85c:	0004c854 	andeq	ip, r4, r4, asr r8
     860:	0004d400 	andeq	sp, r4, r0, lsl #8
     864:	50000100 	andpl	r0, r0, r0, lsl #2
     868:	000004d4 	ldrdeq	r0, [r0], -r4
     86c:	000004dc 	ldrdeq	r0, [r0], -ip
     870:	01740003 	cmneq	r4, r3
     874:	0000009f 	muleq	r0, pc, r0	; <UNPREDICTABLE>
     878:	00000000 	andeq	r0, r0, r0
     87c:	00028000 	andeq	r8, r2, r0
     880:	0004dc00 	andeq	sp, r4, r0, lsl #24
     884:	58000100 	stmdapl	r0, {r8}
     888:	000004dc 	ldrdeq	r0, [r0], -ip
     88c:	000004f0 	strdeq	r0, [r0], -r0	; <UNPREDICTABLE>
     890:	01f3000a 	mvnseq	r0, sl
     894:	5001f351 	andpl	pc, r1, r1, asr r3	; <UNPREDICTABLE>
     898:	9f1c3122 	svcls	0x001c3122
	...
     8a4:	000003bc 			; <UNDEFINED> instruction: 0x000003bc
     8a8:	000003c0 	andeq	r0, r0, r0, asr #7
     8ac:	e4500001 	ldrb	r0, [r0], #-1
     8b0:	e8000003 	stmda	r0, {r0, r1}
     8b4:	01000003 	tsteq	r0, r3
     8b8:	040c5000 	streq	r5, [ip], #-0
     8bc:	04100000 	ldreq	r0, [r0], #-0
     8c0:	00010000 	andeq	r0, r1, r0
     8c4:	00043450 	andeq	r3, r4, r0, asr r4
     8c8:	00043800 	andeq	r3, r4, r0, lsl #16
     8cc:	50000100 	andpl	r0, r0, r0, lsl #2
     8d0:	00000440 	andeq	r0, r0, r0, asr #8
     8d4:	00000444 	andeq	r0, r0, r4, asr #8
     8d8:	68500001 	ldmdavs	r0, {r0}^
     8dc:	6c000004 	stcvs	0, cr0, [r0], {4}
     8e0:	01000004 	tsteq	r0, r4
     8e4:	04885000 	streq	r5, [r8], #0
     8e8:	04b00000 	ldrteq	r0, [r0], #0
     8ec:	00010000 	andeq	r0, r1, r0
     8f0:	00000050 	andeq	r0, r0, r0, asr r0
     8f4:	00000000 	andeq	r0, r0, r0
     8f8:	0002c000 	andeq	ip, r2, r0
     8fc:	0002c800 	andeq	ip, r2, r0, lsl #16
     900:	30000200 	andcc	r0, r0, r0, lsl #4
     904:	0002c89f 	muleq	r2, pc, r8	; <UNPREDICTABLE>
     908:	0002cc00 	andeq	ip, r2, r0, lsl #24
     90c:	57000100 	strpl	r0, [r0, -r0, lsl #2]
     910:	000002d8 	ldrdeq	r0, [r0], -r8
     914:	000004b0 			; <UNDEFINED> instruction: 0x000004b0
     918:	00570001 	subseq	r0, r7, r1
     91c:	00000000 	andeq	r0, r0, r0
     920:	14000000 	strne	r0, [r0], #-0
     924:	1c000000 	stcne	0, cr0, [r0], {-0}
     928:	03000000 	movweq	r0, #0
     92c:	9f047300 	svcls	0x00047300
     930:	0000001c 	andeq	r0, r0, ip, lsl r0
     934:	00000027 	andeq	r0, r0, r7, lsr #32
     938:	00530001 	subseq	r0, r3, r1
     93c:	00000000 	andeq	r0, r0, r0
     940:	d4000000 	strle	r0, [r0], #-0
     944:	d8000089 	stmdale	r0, {r0, r3, r7}
     948:	02000089 	andeq	r0, r0, #137	; 0x89
     94c:	d89f3000 	ldmle	pc, {ip, sp}	; <UNPREDICTABLE>
     950:	dc000089 	stcle	0, cr0, [r0], {137}	; 0x89
     954:	01000089 	smlabbeq	r0, r9, r0, r0
     958:	00005000 	andeq	r5, r0, r0
     95c:	00000000 	andeq	r0, r0, r0
     960:	89ec0000 	stmibhi	ip!, {}^	; <UNPREDICTABLE>
     964:	89f00000 	ldmibhi	r0!, {}^	; <UNPREDICTABLE>
     968:	00020000 	andeq	r0, r2, r0
     96c:	89f09f30 	ldmibhi	r0!, {r4, r5, r8, r9, sl, fp, ip, pc}^
     970:	89f40000 	ldmibhi	r4!, {}^	; <UNPREDICTABLE>
     974:	00010000 	andeq	r0, r1, r0
     978:	0089f853 	addeq	pc, r9, r3, asr r8	; <UNPREDICTABLE>
     97c:	008a0000 	addeq	r0, sl, r0
     980:	53000100 	movwpl	r0, #256	; 0x100
	...
     990:	00000004 	andeq	r0, r0, r4
     994:	04500001 	ldrbeq	r0, [r0], #-1
     998:	0c000000 	stceq	0, cr0, [r0], {-0}
     99c:	01000000 	mrseq	r0, (UNDEF: 0)
     9a0:	000c5300 	andeq	r5, ip, r0, lsl #6
     9a4:	00100000 	andseq	r0, r0, r0
     9a8:	00010000 	andeq	r0, r1, r0
     9ac:	00001050 	andeq	r1, r0, r0, asr r0
     9b0:	00001c00 	andeq	r1, r0, r0, lsl #24
     9b4:	53000100 	movwpl	r0, #256	; 0x100
	...
     9c0:	00000040 	andeq	r0, r0, r0, asr #32
     9c4:	00000043 	andeq	r0, r0, r3, asr #32
     9c8:	43500001 	cmpmi	r0, #1
     9cc:	4c000000 	stcmi	0, cr0, [r0], {-0}
     9d0:	01000000 	mrseq	r0, (UNDEF: 0)
     9d4:	00005400 	andeq	r5, r0, r0, lsl #8
     9d8:	00000000 	andeq	r0, r0, r0
     9dc:	004c0000 	subeq	r0, ip, r0
     9e0:	00570000 	subseq	r0, r7, r0
     9e4:	00010000 	andeq	r0, r1, r0
     9e8:	00005750 	andeq	r5, r0, r0, asr r7
     9ec:	00007000 	andeq	r7, r0, r0
     9f0:	55000100 	strpl	r0, [r0, #-256]	; 0x100
	...
     9fc:	00000060 	andeq	r0, r0, r0, rrx
     a00:	00000064 	andeq	r0, r0, r4, rrx
     a04:	00500001 	subseq	r0, r0, r1
     a08:	00000000 	andeq	r0, r0, r0
     a0c:	70000000 	andvc	r0, r0, r0
     a10:	7c000000 	stcvc	0, cr0, [r0], {-0}
     a14:	01000000 	mrseq	r0, (UNDEF: 0)
     a18:	007c5000 	rsbseq	r5, ip, r0
     a1c:	00840000 	addeq	r0, r4, r0
     a20:	00040000 	andeq	r0, r4, r0
     a24:	9f5001f3 	svcls	0x005001f3
	...
     a30:	00000084 	andeq	r0, r0, r4, lsl #1
     a34:	00000090 	muleq	r0, r0, r0
     a38:	90500001 	subsls	r0, r0, r1
     a3c:	98000000 	stmdals	r0, {}	; <UNPREDICTABLE>
     a40:	04000000 	streq	r0, [r0], #-0
     a44:	5001f300 	andpl	pc, r1, r0, lsl #6
     a48:	0000009f 	muleq	r0, pc, r0	; <UNPREDICTABLE>
     a4c:	00000000 	andeq	r0, r0, r0
     a50:	0000fc00 	andeq	pc, r0, r0, lsl #24
     a54:	00010400 	andeq	r0, r1, r0, lsl #8
     a58:	50000100 	andpl	r0, r0, r0, lsl #2
     a5c:	00000104 	andeq	r0, r0, r4, lsl #2
     a60:	00000128 	andeq	r0, r0, r8, lsr #2
     a64:	00540001 	subseq	r0, r4, r1
	...
     a70:	90000000 	andls	r0, r0, r0
     a74:	01000000 	mrseq	r0, (UNDEF: 0)
     a78:	00905000 	addseq	r5, r0, r0
     a7c:	00d40000 	sbcseq	r0, r4, r0
     a80:	00010000 	andeq	r0, r1, r0
     a84:	00000054 	andeq	r0, r0, r4, asr r0
     a88:	00000000 	andeq	r0, r0, r0
     a8c:	00004800 	andeq	r4, r0, r0, lsl #16
     a90:	00004c00 	andeq	r4, r0, r0, lsl #24
     a94:	55000100 	strpl	r0, [r0, #-256]	; 0x100
     a98:	00000054 	andeq	r0, r0, r4, asr r0
     a9c:	00000058 	andeq	r0, r0, r8, asr r0
     aa0:	60550001 	subsvs	r0, r5, r1
     aa4:	64000000 	strvs	r0, [r0], #-0
     aa8:	01000000 	mrseq	r0, (UNDEF: 0)
     aac:	006c5500 	rsbeq	r5, ip, r0, lsl #10
     ab0:	00700000 	rsbseq	r0, r0, r0
     ab4:	00010000 	andeq	r0, r1, r0
     ab8:	00007855 	andeq	r7, r0, r5, asr r8
     abc:	00007c00 	andeq	r7, r0, r0, lsl #24
     ac0:	55000100 	strpl	r0, [r0, #-256]	; 0x100
     ac4:	00000084 	andeq	r0, r0, r4, lsl #1
     ac8:	00000088 	andeq	r0, r0, r8, lsl #1
     acc:	8c550001 	mrrchi	0, 0, r0, r5, cr1
     ad0:	d4000000 	strle	r0, [r0], #-0
     ad4:	01000000 	mrseq	r0, (UNDEF: 0)
     ad8:	00005500 	andeq	r5, r0, r0, lsl #10
     adc:	00000000 	andeq	r0, r0, r0
     ae0:	001c0000 	andseq	r0, ip, r0
     ae4:	00440000 	subeq	r0, r4, r0
     ae8:	00010000 	andeq	r0, r1, r0
     aec:	00004453 	andeq	r4, r0, r3, asr r4
     af0:	00004c00 	andeq	r4, r0, r0, lsl #24
     af4:	70001c00 	andvc	r1, r0, r0, lsl #24
     af8:	f72cf700 			; <UNDEFINED> instruction: 0xf72cf700
     afc:	0825f425 	stmdaeq	r5!, {r0, r2, r5, sl, ip, sp, lr, pc}
     b00:	cccccccd 	stclgt	12, cr12, [ip], {205}	; 0xcd
     b04:	00000000 	andeq	r0, r0, r0
     b08:	f720081e 			; <UNDEFINED> instruction: 0xf720081e
     b0c:	2cf72525 	cfldr64cs	mvdx2, [r7], #148	; 0x94
     b10:	4c9f2533 	cfldr32mi	mvfx2, [pc], {51}	; 0x33
     b14:	50000000 	andpl	r0, r0, r0
     b18:	01000000 	mrseq	r0, (UNDEF: 0)
     b1c:	00505300 	subseq	r5, r0, r0, lsl #6
     b20:	00580000 	subseq	r0, r8, r0
     b24:	001c0000 	andseq	r0, ip, r0
     b28:	2cf70070 	ldclcs	0, cr0, [r7], #448	; 0x1c0
     b2c:	25f425f7 	ldrbcs	r2, [r4, #1527]!	; 0x5f7
     b30:	cccccd08 	stclgt	13, cr12, [ip], {8}
     b34:	000000cc 	andeq	r0, r0, ip, asr #1
     b38:	20081e00 	andcs	r1, r8, r0, lsl #28
     b3c:	f72525f7 			; <UNDEFINED> instruction: 0xf72525f7
     b40:	9f25332c 	svcls	0x0025332c
     b44:	00000058 	andeq	r0, r0, r8, asr r0
     b48:	0000005c 	andeq	r0, r0, ip, asr r0
     b4c:	5c530001 	mrrcpl	0, 0, r0, r3, cr1
     b50:	64000000 	strvs	r0, [r0], #-0
     b54:	1c000000 	stcne	0, cr0, [r0], {-0}
     b58:	f7007000 			; <UNDEFINED> instruction: 0xf7007000
     b5c:	f425f72c 	vld1.8	{d15}, [r5 :128], ip
     b60:	cccd0825 	stclgt	8, cr0, [sp], {37}	; 0x25
     b64:	0000cccc 	andeq	ip, r0, ip, asr #25
     b68:	081e0000 	ldmdaeq	lr, {}	; <UNPREDICTABLE>
     b6c:	2525f720 	strcs	pc, [r5, #-1824]!	; 0x720
     b70:	25332cf7 	ldrcs	r2, [r3, #-3319]!	; 0xcf7
     b74:	0000649f 	muleq	r0, pc, r4	; <UNPREDICTABLE>
     b78:	00006800 	andeq	r6, r0, r0, lsl #16
     b7c:	53000100 	movwpl	r0, #256	; 0x100
     b80:	00000068 	andeq	r0, r0, r8, rrx
     b84:	00000070 	andeq	r0, r0, r0, ror r0
     b88:	0070001c 	rsbseq	r0, r0, ip, lsl r0
     b8c:	25f72cf7 	ldrbcs	r2, [r7, #3319]!	; 0xcf7
     b90:	cd0825f4 	cfstr32gt	mvfx2, [r8, #-976]	; 0xfffffc30
     b94:	00cccccc 	sbceq	ip, ip, ip, asr #25
     b98:	1e000000 	cdpne	0, 0, cr0, cr0, cr0, {0}
     b9c:	25f72008 	ldrbcs	r2, [r7, #8]!
     ba0:	332cf725 	msrcc	CPSR_fs, #9699328	; 0x940000
     ba4:	00709f25 	rsbseq	r9, r0, r5, lsr #30
     ba8:	00740000 	rsbseq	r0, r4, r0
     bac:	00010000 	andeq	r0, r1, r0
     bb0:	00007453 	andeq	r7, r0, r3, asr r4
     bb4:	00007c00 	andeq	r7, r0, r0, lsl #24
     bb8:	70001c00 	andvc	r1, r0, r0, lsl #24
     bbc:	f72cf700 			; <UNDEFINED> instruction: 0xf72cf700
     bc0:	0825f425 	stmdaeq	r5!, {r0, r2, r5, sl, ip, sp, lr, pc}
     bc4:	cccccccd 	stclgt	12, cr12, [ip], {205}	; 0xcd
     bc8:	00000000 	andeq	r0, r0, r0
     bcc:	f720081e 			; <UNDEFINED> instruction: 0xf720081e
     bd0:	2cf72525 	cfldr64cs	mvdx2, [r7], #148	; 0x94
     bd4:	7c9f2533 	cfldr32vc	mvfx2, [pc], {51}	; 0x33
     bd8:	80000000 	andhi	r0, r0, r0
     bdc:	01000000 	mrseq	r0, (UNDEF: 0)
     be0:	00805300 	addeq	r5, r0, r0, lsl #6
     be4:	00880000 	addeq	r0, r8, r0
     be8:	001c0000 	andseq	r0, ip, r0
     bec:	2cf70070 	ldclcs	0, cr0, [r7], #448	; 0x1c0
     bf0:	25f425f7 	ldrbcs	r2, [r4, #1527]!	; 0x5f7
     bf4:	cccccd08 	stclgt	13, cr12, [ip], {8}
     bf8:	000000cc 	andeq	r0, r0, ip, asr #1
     bfc:	20081e00 	andcs	r1, r8, r0, lsl #28
     c00:	f72525f7 			; <UNDEFINED> instruction: 0xf72525f7
     c04:	9f25332c 	svcls	0x0025332c
     c08:	00000088 	andeq	r0, r0, r8, lsl #1
     c0c:	0000008c 	andeq	r0, r0, ip, lsl #1
     c10:	8c530001 	mrrchi	0, 0, r0, r3, cr1
     c14:	90000000 	andls	r0, r0, r0
     c18:	1c000000 	stcne	0, cr0, [r0], {-0}
     c1c:	f7007000 			; <UNDEFINED> instruction: 0xf7007000
     c20:	f425f72c 	vld1.8	{d15}, [r5 :128], ip
     c24:	cccd0825 	stclgt	8, cr0, [sp], {37}	; 0x25
     c28:	0000cccc 	andeq	ip, r0, ip, asr #25
     c2c:	081e0000 	ldmdaeq	lr, {}	; <UNPREDICTABLE>
     c30:	2525f720 	strcs	pc, [r5, #-1824]!	; 0x720
     c34:	25332cf7 	ldrcs	r2, [r3, #-3319]!	; 0xcf7
     c38:	0000909f 	muleq	r0, pc, r0	; <UNPREDICTABLE>
     c3c:	00009800 	andeq	r9, r0, r0, lsl #16
     c40:	74001c00 	strvc	r1, [r0], #-3072	; 0xc00
     c44:	f72cf700 			; <UNDEFINED> instruction: 0xf72cf700
     c48:	0825f425 	stmdaeq	r5!, {r0, r2, r5, sl, ip, sp, lr, pc}
     c4c:	cccccccd 	stclgt	12, cr12, [ip], {205}	; 0xcd
     c50:	00000000 	andeq	r0, r0, r0
     c54:	f720081e 			; <UNDEFINED> instruction: 0xf720081e
     c58:	2cf72525 	cfldr64cs	mvdx2, [r7], #148	; 0x94
     c5c:	989f2533 	ldmls	pc, {r0, r1, r4, r5, r8, sl, sp}	; <UNPREDICTABLE>
     c60:	9c000000 	stcls	0, cr0, [r0], {-0}
     c64:	17000000 	strne	r0, [r0, -r0]
     c68:	f7007400 			; <UNDEFINED> instruction: 0xf7007400
     c6c:	7125f72c 	msrvc	SP_abt, ip
     c70:	f72cf700 			; <UNDEFINED> instruction: 0xf72cf700
     c74:	20081e25 	andcs	r1, r8, r5, lsr #28
     c78:	f72525f7 			; <UNDEFINED> instruction: 0xf72525f7
     c7c:	9f25332c 	svcls	0x0025332c
     c80:	0000009c 	muleq	r0, ip, r0
     c84:	000000d4 	ldrdeq	r0, [r0], -r4
     c88:	0074001c 	rsbseq	r0, r4, ip, lsl r0
     c8c:	25f72cf7 	ldrbcs	r2, [r7, #3319]!	; 0xcf7
     c90:	cd0825f4 	cfstr32gt	mvfx2, [r8, #-976]	; 0xfffffc30
     c94:	00cccccc 	sbceq	ip, ip, ip, asr #25
     c98:	1e000000 	cdpne	0, 0, cr0, cr0, cr0, {0}
     c9c:	25f72008 	ldrbcs	r2, [r7, #8]!
     ca0:	332cf725 	msrcc	CPSR_fs, #9699328	; 0x940000
     ca4:	00009f25 	andeq	r9, r0, r5, lsr #30
     ca8:	00000000 	andeq	r0, r0, r0
     cac:	00940000 	addseq	r0, r4, r0
     cb0:	00b80000 	adcseq	r0, r8, r0
     cb4:	00010000 	andeq	r0, r1, r0
     cb8:	0000b850 	andeq	fp, r0, r0, asr r8
     cbc:	0000c400 	andeq	ip, r0, r0, lsl #8
     cc0:	31000800 	tstcc	r0, r0, lsl #16
     cc4:	73240071 	teqvc	r4, #113	; 0x71
     cc8:	c49f2100 	ldrgt	r2, [pc], #256	; cd0 <_start-0x7330>
     ccc:	c7000000 	strgt	r0, [r0, -r0]
     cd0:	01000000 	mrseq	r0, (UNDEF: 0)
     cd4:	00005100 	andeq	r5, r0, r0, lsl #2
     cd8:	00000000 	andeq	r0, r0, r0
     cdc:	00d40000 	sbcseq	r0, r4, r0
     ce0:	00f80000 	rscseq	r0, r8, r0
     ce4:	00010000 	andeq	r0, r1, r0
     ce8:	0000f850 	andeq	pc, r0, r0, asr r8	; <UNPREDICTABLE>
     cec:	00010c00 	andeq	r0, r1, r0, lsl #24
     cf0:	f3000400 	vshl.u8	d0, d0, d0
     cf4:	009f5001 	addseq	r5, pc, r1
     cf8:	00000000 	andeq	r0, r0, r0
     cfc:	e0000000 	and	r0, r0, r0
     d00:	e8000000 	stmda	r0, {}	; <UNPREDICTABLE>
     d04:	02000000 	andeq	r0, r0, #0
     d08:	e89f3000 	ldm	pc, {ip, sp}	; <UNPREDICTABLE>
     d0c:	e8000000 	stmda	r0, {}	; <UNPREDICTABLE>
     d10:	01000000 	mrseq	r0, (UNDEF: 0)
     d14:	00e85200 	rsceq	r5, r8, r0, lsl #4
     d18:	00f00000 	rscseq	r0, r0, r0
     d1c:	00020000 	andeq	r0, r2, r0
     d20:	00f09f30 	rscseq	r9, r0, r0, lsr pc
     d24:	01030000 	mrseq	r0, (UNDEF: 3)
     d28:	00010000 	andeq	r0, r1, r0
     d2c:	00000052 	andeq	r0, r0, r2, asr r0
     d30:	00000000 	andeq	r0, r0, r0
     d34:	0000e000 	andeq	lr, r0, r0
     d38:	0000f400 	andeq	pc, r0, r0, lsl #8
     d3c:	30000200 	andcc	r0, r0, r0, lsl #4
     d40:	0000f49f 	muleq	r0, pc, r4	; <UNPREDICTABLE>
     d44:	00010000 	andeq	r0, r1, r0
     d48:	31000500 	tstcc	r0, r0, lsl #10
     d4c:	9f240073 	svcls	0x00240073
     d50:	00000100 	andeq	r0, r0, r0, lsl #2
     d54:	00000103 	andeq	r0, r0, r3, lsl #2
     d58:	03510001 	cmpeq	r1, #1
     d5c:	0c000001 	stceq	0, cr0, [r0], {1}
     d60:	08000001 	stmdaeq	r0, {r0}
     d64:	01f33100 	mvnseq	r3, r0, lsl #2
     d68:	241a4f50 	ldrcs	r4, [sl], #-3920	; 0xf50
     d6c:	0000009f 	muleq	r0, pc, r0	; <UNPREDICTABLE>
     d70:	00000000 	andeq	r0, r0, r0
     d74:	00010c00 	andeq	r0, r1, r0, lsl #24
     d78:	00013000 	andeq	r3, r1, r0
     d7c:	50000100 	andpl	r0, r0, r0, lsl #2
     d80:	00000130 	andeq	r0, r0, r0, lsr r1
     d84:	00000144 	andeq	r0, r0, r4, asr #2
     d88:	01f30004 	mvnseq	r0, r4
     d8c:	00009f50 	andeq	r9, r0, r0, asr pc
     d90:	00000000 	andeq	r0, r0, r0
     d94:	01180000 	tsteq	r8, r0
     d98:	01200000 	teqeq	r0, r0
     d9c:	00020000 	andeq	r0, r2, r0
     da0:	01209f30 	teqeq	r0, r0, lsr pc
     da4:	01200000 	teqeq	r0, r0
     da8:	00010000 	andeq	r0, r1, r0
     dac:	00012052 	andeq	r2, r1, r2, asr r0
     db0:	00012800 	andeq	r2, r1, r0, lsl #16
     db4:	30000200 	andcc	r0, r0, r0, lsl #4
     db8:	0001289f 	muleq	r1, pc, r8	; <UNPREDICTABLE>
     dbc:	00013b00 	andeq	r3, r1, r0, lsl #22
     dc0:	52000100 	andpl	r0, r0, #0, 2
	...
     dcc:	00000118 	andeq	r0, r0, r8, lsl r1
     dd0:	0000012c 	andeq	r0, r0, ip, lsr #2
     dd4:	9f300002 	svcls	0x00300002
     dd8:	0000012c 	andeq	r0, r0, ip, lsr #2
     ddc:	00000138 	andeq	r0, r0, r8, lsr r1
     de0:	73310005 	teqvc	r1, #5
     de4:	389f2400 	ldmcc	pc, {sl, sp}	; <UNPREDICTABLE>
     de8:	3b000001 	blcc	df4 <_start-0x720c>
     dec:	01000001 	tsteq	r0, r1
     df0:	013b5100 	teqeq	fp, r0, lsl #2
     df4:	01440000 	mrseq	r0, (UNDEF: 68)
     df8:	00080000 	andeq	r0, r8, r0
     dfc:	5001f331 	andpl	pc, r1, r1, lsr r3	; <UNPREDICTABLE>
     e00:	9f241a4f 	svcls	0x00241a4f
	...
     e0c:	00000144 	andeq	r0, r0, r4, asr #2
     e10:	000001d4 	ldrdeq	r0, [r0], -r4
     e14:	d4500001 	ldrble	r0, [r0], #-1
     e18:	10000001 	andne	r0, r0, r1
     e1c:	01000002 	tsteq	r0, r2
     e20:	00005400 	andeq	r5, r0, r0, lsl #8
     e24:	00000000 	andeq	r0, r0, r0
     e28:	018c0000 	orreq	r0, ip, r0
     e2c:	01900000 	orrseq	r0, r0, r0
     e30:	00010000 	andeq	r0, r1, r0
     e34:	00019855 	andeq	r9, r1, r5, asr r8
     e38:	00019c00 	andeq	r9, r1, r0, lsl #24
     e3c:	55000100 	strpl	r0, [r0, #-256]	; 0x100
     e40:	000001a4 	andeq	r0, r0, r4, lsr #3
     e44:	000001a8 	andeq	r0, r0, r8, lsr #3
     e48:	b0550001 	subslt	r0, r5, r1
     e4c:	b4000001 	strlt	r0, [r0], #-1
     e50:	01000001 	tsteq	r0, r1
     e54:	01bc5500 			; <UNDEFINED> instruction: 0x01bc5500
     e58:	01c00000 	biceq	r0, r0, r0
     e5c:	00010000 	andeq	r0, r1, r0
     e60:	0001c855 	andeq	ip, r1, r5, asr r8
     e64:	0001cc00 	andeq	ip, r1, r0, lsl #24
     e68:	55000100 	strpl	r0, [r0, #-256]	; 0x100
     e6c:	000001d0 	ldrdeq	r0, [r0], -r0	; <UNPREDICTABLE>
     e70:	00000210 	andeq	r0, r0, r0, lsl r2
     e74:	00550001 	subseq	r0, r5, r1
     e78:	00000000 	andeq	r0, r0, r0
     e7c:	60000000 	andvs	r0, r0, r0
     e80:	88000001 	stmdahi	r0, {r0}
     e84:	01000001 	tsteq	r0, r1
     e88:	01885300 	orreq	r5, r8, r0, lsl #6
     e8c:	01900000 	orrseq	r0, r0, r0
     e90:	001c0000 	andseq	r0, ip, r0
     e94:	2cf70070 	ldclcs	0, cr0, [r7], #448	; 0x1c0
     e98:	25f425f7 	ldrbcs	r2, [r4, #1527]!	; 0x5f7
     e9c:	cccccd08 	stclgt	13, cr12, [ip], {8}
     ea0:	000000cc 	andeq	r0, r0, ip, asr #1
     ea4:	20081e00 	andcs	r1, r8, r0, lsl #28
     ea8:	f72525f7 			; <UNDEFINED> instruction: 0xf72525f7
     eac:	9f25332c 	svcls	0x0025332c
     eb0:	00000190 	muleq	r0, r0, r1
     eb4:	00000194 	muleq	r0, r4, r1
     eb8:	94530001 	ldrbls	r0, [r3], #-1
     ebc:	9c000001 	stcls	0, cr0, [r0], {1}
     ec0:	1c000001 	stcne	0, cr0, [r0], {1}
     ec4:	f7007000 			; <UNDEFINED> instruction: 0xf7007000
     ec8:	f425f72c 	vld1.8	{d15}, [r5 :128], ip
     ecc:	cccd0825 	stclgt	8, cr0, [sp], {37}	; 0x25
     ed0:	0000cccc 	andeq	ip, r0, ip, asr #25
     ed4:	081e0000 	ldmdaeq	lr, {}	; <UNPREDICTABLE>
     ed8:	2525f720 	strcs	pc, [r5, #-1824]!	; 0x720
     edc:	25332cf7 	ldrcs	r2, [r3, #-3319]!	; 0xcf7
     ee0:	00019c9f 	muleq	r1, pc, ip	; <UNPREDICTABLE>
     ee4:	0001a000 	andeq	sl, r1, r0
     ee8:	53000100 	movwpl	r0, #256	; 0x100
     eec:	000001a0 	andeq	r0, r0, r0, lsr #3
     ef0:	000001a8 	andeq	r0, r0, r8, lsr #3
     ef4:	0070001c 	rsbseq	r0, r0, ip, lsl r0
     ef8:	25f72cf7 	ldrbcs	r2, [r7, #3319]!	; 0xcf7
     efc:	cd0825f4 	cfstr32gt	mvfx2, [r8, #-976]	; 0xfffffc30
     f00:	00cccccc 	sbceq	ip, ip, ip, asr #25
     f04:	1e000000 	cdpne	0, 0, cr0, cr0, cr0, {0}
     f08:	25f72008 	ldrbcs	r2, [r7, #8]!
     f0c:	332cf725 	msrcc	CPSR_fs, #9699328	; 0x940000
     f10:	01a89f25 			; <UNDEFINED> instruction: 0x01a89f25
     f14:	01ac0000 			; <UNDEFINED> instruction: 0x01ac0000
     f18:	00010000 	andeq	r0, r1, r0
     f1c:	0001ac53 	andeq	sl, r1, r3, asr ip
     f20:	0001b400 	andeq	fp, r1, r0, lsl #8
     f24:	70001c00 	andvc	r1, r0, r0, lsl #24
     f28:	f72cf700 			; <UNDEFINED> instruction: 0xf72cf700
     f2c:	0825f425 	stmdaeq	r5!, {r0, r2, r5, sl, ip, sp, lr, pc}
     f30:	cccccccd 	stclgt	12, cr12, [ip], {205}	; 0xcd
     f34:	00000000 	andeq	r0, r0, r0
     f38:	f720081e 			; <UNDEFINED> instruction: 0xf720081e
     f3c:	2cf72525 	cfldr64cs	mvdx2, [r7], #148	; 0x94
     f40:	b49f2533 	ldrlt	r2, [pc], #1331	; f48 <_start-0x70b8>
     f44:	b8000001 	stmdalt	r0, {r0}
     f48:	01000001 	tsteq	r0, r1
     f4c:	01b85300 			; <UNDEFINED> instruction: 0x01b85300
     f50:	01c00000 	biceq	r0, r0, r0
     f54:	001c0000 	andseq	r0, ip, r0
     f58:	2cf70070 	ldclcs	0, cr0, [r7], #448	; 0x1c0
     f5c:	25f425f7 	ldrbcs	r2, [r4, #1527]!	; 0x5f7
     f60:	cccccd08 	stclgt	13, cr12, [ip], {8}
     f64:	000000cc 	andeq	r0, r0, ip, asr #1
     f68:	20081e00 	andcs	r1, r8, r0, lsl #28
     f6c:	f72525f7 			; <UNDEFINED> instruction: 0xf72525f7
     f70:	9f25332c 	svcls	0x0025332c
     f74:	000001c0 	andeq	r0, r0, r0, asr #3
     f78:	000001c4 	andeq	r0, r0, r4, asr #3
     f7c:	c4530001 	ldrbgt	r0, [r3], #-1
     f80:	cc000001 	stcgt	0, cr0, [r0], {1}
     f84:	1c000001 	stcne	0, cr0, [r0], {1}
     f88:	f7007000 			; <UNDEFINED> instruction: 0xf7007000
     f8c:	f425f72c 	vld1.8	{d15}, [r5 :128], ip
     f90:	cccd0825 	stclgt	8, cr0, [sp], {37}	; 0x25
     f94:	0000cccc 	andeq	ip, r0, ip, asr #25
     f98:	081e0000 	ldmdaeq	lr, {}	; <UNPREDICTABLE>
     f9c:	2525f720 	strcs	pc, [r5, #-1824]!	; 0x720
     fa0:	25332cf7 	ldrcs	r2, [r3, #-3319]!	; 0xcf7
     fa4:	0001cc9f 	muleq	r1, pc, ip	; <UNPREDICTABLE>
     fa8:	0001d000 	andeq	sp, r1, r0
     fac:	53000100 	movwpl	r0, #256	; 0x100
     fb0:	000001d0 	ldrdeq	r0, [r0], -r0	; <UNPREDICTABLE>
     fb4:	000001d4 	ldrdeq	r0, [r0], -r4
     fb8:	0070001c 	rsbseq	r0, r0, ip, lsl r0
     fbc:	25f72cf7 	ldrbcs	r2, [r7, #3319]!	; 0xcf7
     fc0:	cd0825f4 	cfstr32gt	mvfx2, [r8, #-976]	; 0xfffffc30
     fc4:	00cccccc 	sbceq	ip, ip, ip, asr #25
     fc8:	1e000000 	cdpne	0, 0, cr0, cr0, cr0, {0}
     fcc:	25f72008 	ldrbcs	r2, [r7, #8]!
     fd0:	332cf725 	msrcc	CPSR_fs, #9699328	; 0x940000
     fd4:	01d49f25 	bicseq	r9, r4, r5, lsr #30
     fd8:	01dc0000 	bicseq	r0, ip, r0
     fdc:	001c0000 	andseq	r0, ip, r0
     fe0:	2cf70074 	ldclcs	0, cr0, [r7], #464	; 0x1d0
     fe4:	25f425f7 	ldrbcs	r2, [r4, #1527]!	; 0x5f7
     fe8:	cccccd08 	stclgt	13, cr12, [ip], {8}
     fec:	000000cc 	andeq	r0, r0, ip, asr #1
     ff0:	20081e00 	andcs	r1, r8, r0, lsl #28
     ff4:	f72525f7 			; <UNDEFINED> instruction: 0xf72525f7
     ff8:	9f25332c 	svcls	0x0025332c
     ffc:	000001dc 	ldrdeq	r0, [r0], -ip
    1000:	000001e0 	andeq	r0, r0, r0, ror #3
    1004:	00740017 	rsbseq	r0, r4, r7, lsl r0
    1008:	25f72cf7 	ldrbcs	r2, [r7, #3319]!	; 0xcf7
    100c:	2cf70071 	ldclcs	0, cr0, [r7], #452	; 0x1c4
    1010:	081e25f7 	ldmdaeq	lr, {r0, r1, r2, r4, r5, r6, r7, r8, sl, sp}
    1014:	2525f720 	strcs	pc, [r5, #-1824]!	; 0x720
    1018:	25332cf7 	ldrcs	r2, [r3, #-3319]!	; 0xcf7
    101c:	0001e09f 	muleq	r1, pc, r0	; <UNPREDICTABLE>
    1020:	00021000 	andeq	r1, r2, r0
    1024:	74001c00 	strvc	r1, [r0], #-3072	; 0xc00
    1028:	f72cf700 			; <UNDEFINED> instruction: 0xf72cf700
    102c:	0825f425 	stmdaeq	r5!, {r0, r2, r5, sl, ip, sp, lr, pc}
    1030:	cccccccd 	stclgt	12, cr12, [ip], {205}	; 0xcd
    1034:	00000000 	andeq	r0, r0, r0
    1038:	f720081e 			; <UNDEFINED> instruction: 0xf720081e
    103c:	2cf72525 	cfldr64cs	mvdx2, [r7], #148	; 0x94
    1040:	009f2533 	addseq	r2, pc, r3, lsr r5	; <UNPREDICTABLE>
    1044:	00000000 	andeq	r0, r0, r0
    1048:	d8000000 	stmdale	r0, {}	; <UNPREDICTABLE>
    104c:	fc000001 	stc2	0, cr0, [r0], {1}
    1050:	01000001 	tsteq	r0, r1
    1054:	01fc5000 	mvnseq	r5, r0
    1058:	02030000 	andeq	r0, r3, #0
    105c:	00010000 	andeq	r0, r1, r0
    1060:	00000051 	andeq	r0, r0, r1, asr r0
    1064:	00000000 	andeq	r0, r0, r0
    1068:	00021000 	andeq	r1, r2, r0
    106c:	00022c00 	andeq	r2, r2, r0, lsl #24
    1070:	50000100 	andpl	r0, r0, r0, lsl #2
    1074:	0000022c 	andeq	r0, r0, ip, lsr #4
    1078:	00000234 	andeq	r0, r0, r4, lsr r2
    107c:	34540001 	ldrbcc	r0, [r4], #-1
    1080:	3c000002 	stccc	0, cr0, [r0], {2}
    1084:	01000002 	tsteq	r0, r2
    1088:	023c5000 	eorseq	r5, ip, #0
    108c:	02440000 	subeq	r0, r4, #0
    1090:	00010000 	andeq	r0, r1, r0
    1094:	00024454 	andeq	r4, r2, r4, asr r4
    1098:	00025000 	andeq	r5, r2, r0
    109c:	f3000400 	vshl.u8	d0, d0, d0
    10a0:	509f5001 	addspl	r5, pc, r1
    10a4:	54000002 	strpl	r0, [r0], #-2
    10a8:	01000002 	tsteq	r0, r2
    10ac:	02545000 	subseq	r5, r4, #0
    10b0:	025c0000 	subseq	r0, ip, #0
    10b4:	00010000 	andeq	r0, r1, r0
    10b8:	00000054 	andeq	r0, r0, r4, asr r0
    10bc:	00000000 	andeq	r0, r0, r0
    10c0:	00022000 	andeq	r2, r2, r0
    10c4:	00023000 	andeq	r3, r2, r0
    10c8:	30000200 	andcc	r0, r0, r0, lsl #4
    10cc:	0002309f 	muleq	r2, pc, r0	; <UNPREDICTABLE>
    10d0:	00023400 	andeq	r3, r2, r0, lsl #8
    10d4:	50000100 	andpl	r0, r0, r0, lsl #2
    10d8:	00000234 	andeq	r0, r0, r4, lsr r2
    10dc:	00000240 	andeq	r0, r0, r0, asr #4
    10e0:	9f300002 	svcls	0x00300002
    10e4:	00000240 	andeq	r0, r0, r0, asr #4
    10e8:	0000024c 	andeq	r0, r0, ip, asr #4
    10ec:	00500001 	subseq	r0, r0, r1
    10f0:	00000000 	andeq	r0, r0, r0
    10f4:	5c000000 	stcpl	0, cr0, [r0], {-0}
    10f8:	90000002 	andls	r0, r0, r2
    10fc:	01000002 	tsteq	r0, r2
    1100:	02905000 	addseq	r5, r0, #0
    1104:	02a00000 	adceq	r0, r0, #0
    1108:	00040000 	andeq	r0, r4, r0
    110c:	9f5001f3 	svcls	0x005001f3
    1110:	000002a0 	andeq	r0, r0, r0, lsr #5
    1114:	000002c0 	andeq	r0, r0, r0, asr #5
    1118:	c0500001 	subsgt	r0, r0, r1
    111c:	d4000002 	strle	r0, [r0], #-2
    1120:	04000002 	streq	r0, [r0], #-2
    1124:	5001f300 	andpl	pc, r1, r0, lsl #6
    1128:	0000009f 	muleq	r0, pc, r0	; <UNPREDICTABLE>
    112c:	00000000 	andeq	r0, r0, r0
    1130:	00025c00 	andeq	r5, r2, r0, lsl #24
    1134:	00029400 	andeq	r9, r2, r0, lsl #8
    1138:	51000100 	mrspl	r0, (UNDEF: 16)
    113c:	00000294 	muleq	r0, r4, r2
    1140:	000002a0 	andeq	r0, r0, r0, lsr #5
    1144:	01f30004 	mvnseq	r0, r4
    1148:	02a09f51 	adceq	r9, r0, #324	; 0x144
    114c:	02c40000 	sbceq	r0, r4, #0
    1150:	00010000 	andeq	r0, r1, r0
    1154:	0002c451 	andeq	ip, r2, r1, asr r4
    1158:	0002d400 	andeq	sp, r2, r0, lsl #8
    115c:	f3000400 	vshl.u8	d0, d0, d0
    1160:	009f5101 	addseq	r5, pc, r1, lsl #2
    1164:	00000000 	andeq	r0, r0, r0
    1168:	70000000 	andvc	r0, r0, r0
    116c:	90000002 	andls	r0, r0, r2
    1170:	01000002 	tsteq	r0, r2
    1174:	02905000 	addseq	r5, r0, #0
    1178:	02a00000 	adceq	r0, r0, #0
    117c:	00040000 	andeq	r0, r4, r0
    1180:	9f5001f3 	svcls	0x005001f3
	...
    118c:	00000278 	andeq	r0, r0, r8, ror r2
    1190:	00000280 	andeq	r0, r0, r0, lsl #5
    1194:	9f300002 	svcls	0x00300002
    1198:	00000280 	andeq	r0, r0, r0, lsl #5
    119c:	00000280 	andeq	r0, r0, r0, lsl #5
    11a0:	80520001 	subshi	r0, r2, r1
    11a4:	88000002 	stmdahi	r0, {r1}
    11a8:	02000002 	andeq	r0, r0, #2
    11ac:	889f3000 	ldmhi	pc, {ip, sp}	; <UNPREDICTABLE>
    11b0:	9b000002 	blls	11c0 <_start-0x6e40>
    11b4:	01000002 	tsteq	r0, r2
    11b8:	00005200 	andeq	r5, r0, r0, lsl #4
    11bc:	00000000 	andeq	r0, r0, r0
    11c0:	02780000 	rsbseq	r0, r8, #0
    11c4:	028c0000 	addeq	r0, ip, #0
    11c8:	00020000 	andeq	r0, r2, r0
    11cc:	028c9f30 	addeq	r9, ip, #48, 30	; 0xc0
    11d0:	02980000 	addseq	r0, r8, #0
    11d4:	00050000 	andeq	r0, r5, r0
    11d8:	24007331 	strcs	r7, [r0], #-817	; 0x331
    11dc:	0002989f 	muleq	r2, pc, r8	; <UNPREDICTABLE>
    11e0:	00029b00 	andeq	r9, r2, r0, lsl #22
    11e4:	51000100 	mrspl	r0, (UNDEF: 16)
    11e8:	0000029b 	muleq	r0, fp, r2
    11ec:	000002a0 	andeq	r0, r0, r0, lsr #5
    11f0:	f3310008 	vhadd.u<illegal width 64>	d0, d1, d8
    11f4:	1a4f5001 	bne	13d5200 <__bss_end__+0x13cb978>
    11f8:	00009f24 	andeq	r9, r0, r4, lsr #30
    11fc:	00000000 	andeq	r0, r0, r0
    1200:	02a00000 	adceq	r0, r0, #0
    1204:	02c00000 	sbceq	r0, r0, #0
    1208:	00010000 	andeq	r0, r1, r0
    120c:	0002c050 	andeq	ip, r2, r0, asr r0
    1210:	0002d400 	andeq	sp, r2, r0, lsl #8
    1214:	f3000400 	vshl.u8	d0, d0, d0
    1218:	009f5001 	addseq	r5, pc, r1
    121c:	00000000 	andeq	r0, r0, r0
    1220:	a8000000 	stmdage	r0, {}	; <UNPREDICTABLE>
    1224:	b0000002 	andlt	r0, r0, r2
    1228:	02000002 	andeq	r0, r0, #2
    122c:	b09f3000 	addslt	r3, pc, r0
    1230:	b0000002 	andlt	r0, r0, r2
    1234:	01000002 	tsteq	r0, r2
    1238:	02b05200 	adcseq	r5, r0, #0, 4
    123c:	02b80000 	adcseq	r0, r8, #0
    1240:	00020000 	andeq	r0, r2, r0
    1244:	02b89f30 	adcseq	r9, r8, #48, 30	; 0xc0
    1248:	02cb0000 	sbceq	r0, fp, #0
    124c:	00010000 	andeq	r0, r1, r0
    1250:	00000052 	andeq	r0, r0, r2, asr r0
    1254:	00000000 	andeq	r0, r0, r0
    1258:	0002a800 	andeq	sl, r2, r0, lsl #16
    125c:	0002bc00 	andeq	fp, r2, r0, lsl #24
    1260:	30000200 	andcc	r0, r0, r0, lsl #4
    1264:	0002bc9f 	muleq	r2, pc, ip	; <UNPREDICTABLE>
    1268:	0002c800 	andeq	ip, r2, r0, lsl #16
    126c:	31000500 	tstcc	r0, r0, lsl #10
    1270:	9f240073 	svcls	0x00240073
    1274:	000002c8 	andeq	r0, r0, r8, asr #5
    1278:	000002cb 	andeq	r0, r0, fp, asr #5
    127c:	cb510001 	blgt	1441288 <__bss_end__+0x1437a00>
    1280:	d4000002 	strle	r0, [r0], #-2
    1284:	08000002 	stmdaeq	r0, {r1}
    1288:	01f33100 	mvnseq	r3, r0, lsl #2
    128c:	241a4f50 	ldrcs	r4, [sl], #-3920	; 0xf50
    1290:	0000009f 	muleq	r0, pc, r0	; <UNPREDICTABLE>
    1294:	00000000 	andeq	r0, r0, r0
    1298:	0002d400 	andeq	sp, r2, r0, lsl #8
    129c:	00036c00 	andeq	r6, r3, r0, lsl #24
    12a0:	50000100 	andpl	r0, r0, r0, lsl #2
    12a4:	0000036c 	andeq	r0, r0, ip, ror #6
    12a8:	000003ac 	andeq	r0, r0, ip, lsr #7
    12ac:	00540001 	subseq	r0, r4, r1
    12b0:	00000000 	andeq	r0, r0, r0
    12b4:	d4000000 	strle	r0, [r0], #-0
    12b8:	6f000002 	svcvs	0x00000002
    12bc:	01000003 	tsteq	r0, r3
    12c0:	036f5100 	cmneq	pc, #0, 2
    12c4:	03ac0000 			; <UNDEFINED> instruction: 0x03ac0000
    12c8:	00040000 	andeq	r0, r4, r0
    12cc:	9f5101f3 	svcls	0x005101f3
	...
    12d8:	00000324 	andeq	r0, r0, r4, lsr #6
    12dc:	00000328 	andeq	r0, r0, r8, lsr #6
    12e0:	30560001 	subscc	r0, r6, r1
    12e4:	34000003 	strcc	r0, [r0], #-3
    12e8:	01000003 	tsteq	r0, r3
    12ec:	033c5600 	teqeq	ip, #0, 12
    12f0:	03400000 	movteq	r0, #0
    12f4:	00010000 	andeq	r0, r1, r0
    12f8:	00034856 	andeq	r4, r3, r6, asr r8
    12fc:	00034c00 	andeq	r4, r3, r0, lsl #24
    1300:	56000100 	strpl	r0, [r0], -r0, lsl #2
    1304:	00000354 	andeq	r0, r0, r4, asr r3
    1308:	00000358 	andeq	r0, r0, r8, asr r3
    130c:	60560001 	subsvs	r0, r6, r1
    1310:	64000003 	strvs	r0, [r0], #-3
    1314:	01000003 	tsteq	r0, r3
    1318:	03685600 	cmneq	r8, #0, 12
    131c:	03ac0000 			; <UNDEFINED> instruction: 0x03ac0000
    1320:	00010000 	andeq	r0, r1, r0
    1324:	00000056 	andeq	r0, r0, r6, asr r0
    1328:	00000000 	andeq	r0, r0, r0
    132c:	0002f800 	andeq	pc, r2, r0, lsl #16
    1330:	00032000 	andeq	r2, r3, r0
    1334:	53000100 	movwpl	r0, #256	; 0x100
    1338:	00000320 	andeq	r0, r0, r0, lsr #6
    133c:	00000328 	andeq	r0, r0, r8, lsr #6
    1340:	0070001c 	rsbseq	r0, r0, ip, lsl r0
    1344:	25f72cf7 	ldrbcs	r2, [r7, #3319]!	; 0xcf7
    1348:	cd0825f4 	cfstr32gt	mvfx2, [r8, #-976]	; 0xfffffc30
    134c:	00cccccc 	sbceq	ip, ip, ip, asr #25
    1350:	1e000000 	cdpne	0, 0, cr0, cr0, cr0, {0}
    1354:	25f72008 	ldrbcs	r2, [r7, #8]!
    1358:	332cf725 	msrcc	CPSR_fs, #9699328	; 0x940000
    135c:	03289f25 	teqeq	r8, #37, 30	; 0x94
    1360:	032c0000 	teqeq	ip, #0
    1364:	00010000 	andeq	r0, r1, r0
    1368:	00032c53 	andeq	r2, r3, r3, asr ip
    136c:	00033400 	andeq	r3, r3, r0, lsl #8
    1370:	70001c00 	andvc	r1, r0, r0, lsl #24
    1374:	f72cf700 			; <UNDEFINED> instruction: 0xf72cf700
    1378:	0825f425 	stmdaeq	r5!, {r0, r2, r5, sl, ip, sp, lr, pc}
    137c:	cccccccd 	stclgt	12, cr12, [ip], {205}	; 0xcd
    1380:	00000000 	andeq	r0, r0, r0
    1384:	f720081e 			; <UNDEFINED> instruction: 0xf720081e
    1388:	2cf72525 	cfldr64cs	mvdx2, [r7], #148	; 0x94
    138c:	349f2533 	ldrcc	r2, [pc], #1331	; 1394 <_start-0x6c6c>
    1390:	38000003 	stmdacc	r0, {r0, r1}
    1394:	01000003 	tsteq	r0, r3
    1398:	03385300 	teqeq	r8, #0, 6
    139c:	03400000 	movteq	r0, #0
    13a0:	001c0000 	andseq	r0, ip, r0
    13a4:	2cf70070 	ldclcs	0, cr0, [r7], #448	; 0x1c0
    13a8:	25f425f7 	ldrbcs	r2, [r4, #1527]!	; 0x5f7
    13ac:	cccccd08 	stclgt	13, cr12, [ip], {8}
    13b0:	000000cc 	andeq	r0, r0, ip, asr #1
    13b4:	20081e00 	andcs	r1, r8, r0, lsl #28
    13b8:	f72525f7 			; <UNDEFINED> instruction: 0xf72525f7
    13bc:	9f25332c 	svcls	0x0025332c
    13c0:	00000340 	andeq	r0, r0, r0, asr #6
    13c4:	00000344 	andeq	r0, r0, r4, asr #6
    13c8:	44530001 	ldrbmi	r0, [r3], #-1
    13cc:	4c000003 	stcmi	0, cr0, [r0], {3}
    13d0:	1c000003 	stcne	0, cr0, [r0], {3}
    13d4:	f7007000 			; <UNDEFINED> instruction: 0xf7007000
    13d8:	f425f72c 	vld1.8	{d15}, [r5 :128], ip
    13dc:	cccd0825 	stclgt	8, cr0, [sp], {37}	; 0x25
    13e0:	0000cccc 	andeq	ip, r0, ip, asr #25
    13e4:	081e0000 	ldmdaeq	lr, {}	; <UNPREDICTABLE>
    13e8:	2525f720 	strcs	pc, [r5, #-1824]!	; 0x720
    13ec:	25332cf7 	ldrcs	r2, [r3, #-3319]!	; 0xcf7
    13f0:	00034c9f 	muleq	r3, pc, ip	; <UNPREDICTABLE>
    13f4:	00035000 	andeq	r5, r3, r0
    13f8:	53000100 	movwpl	r0, #256	; 0x100
    13fc:	00000350 	andeq	r0, r0, r0, asr r3
    1400:	00000358 	andeq	r0, r0, r8, asr r3
    1404:	0070001c 	rsbseq	r0, r0, ip, lsl r0
    1408:	25f72cf7 	ldrbcs	r2, [r7, #3319]!	; 0xcf7
    140c:	cd0825f4 	cfstr32gt	mvfx2, [r8, #-976]	; 0xfffffc30
    1410:	00cccccc 	sbceq	ip, ip, ip, asr #25
    1414:	1e000000 	cdpne	0, 0, cr0, cr0, cr0, {0}
    1418:	25f72008 	ldrbcs	r2, [r7, #8]!
    141c:	332cf725 	msrcc	CPSR_fs, #9699328	; 0x940000
    1420:	03589f25 	cmpeq	r8, #37, 30	; 0x94
    1424:	035c0000 	cmpeq	ip, #0
    1428:	00010000 	andeq	r0, r1, r0
    142c:	00035c53 	andeq	r5, r3, r3, asr ip
    1430:	00036400 	andeq	r6, r3, r0, lsl #8
    1434:	70001c00 	andvc	r1, r0, r0, lsl #24
    1438:	f72cf700 			; <UNDEFINED> instruction: 0xf72cf700
    143c:	0825f425 	stmdaeq	r5!, {r0, r2, r5, sl, ip, sp, lr, pc}
    1440:	cccccccd 	stclgt	12, cr12, [ip], {205}	; 0xcd
    1444:	00000000 	andeq	r0, r0, r0
    1448:	f720081e 			; <UNDEFINED> instruction: 0xf720081e
    144c:	2cf72525 	cfldr64cs	mvdx2, [r7], #148	; 0x94
    1450:	649f2533 	ldrvs	r2, [pc], #1331	; 1458 <_start-0x6ba8>
    1454:	68000003 	stmdavs	r0, {r0, r1}
    1458:	01000003 	tsteq	r0, r3
    145c:	03685300 	cmneq	r8, #0, 6
    1460:	036c0000 	cmneq	ip, #0
    1464:	001c0000 	andseq	r0, ip, r0
    1468:	2cf70070 	ldclcs	0, cr0, [r7], #448	; 0x1c0
    146c:	25f425f7 	ldrbcs	r2, [r4, #1527]!	; 0x5f7
    1470:	cccccd08 	stclgt	13, cr12, [ip], {8}
    1474:	000000cc 	andeq	r0, r0, ip, asr #1
    1478:	20081e00 	andcs	r1, r8, r0, lsl #28
    147c:	f72525f7 			; <UNDEFINED> instruction: 0xf72525f7
    1480:	9f25332c 	svcls	0x0025332c
    1484:	0000036c 	andeq	r0, r0, ip, ror #6
    1488:	00000374 	andeq	r0, r0, r4, ror r3
    148c:	0074001c 	rsbseq	r0, r4, ip, lsl r0
    1490:	25f72cf7 	ldrbcs	r2, [r7, #3319]!	; 0xcf7
    1494:	cd0825f4 	cfstr32gt	mvfx2, [r8, #-976]	; 0xfffffc30
    1498:	00cccccc 	sbceq	ip, ip, ip, asr #25
    149c:	1e000000 	cdpne	0, 0, cr0, cr0, cr0, {0}
    14a0:	25f72008 	ldrbcs	r2, [r7, #8]!
    14a4:	332cf725 	msrcc	CPSR_fs, #9699328	; 0x940000
    14a8:	03749f25 	cmneq	r4, #37, 30	; 0x94
    14ac:	03780000 	cmneq	r8, #0
    14b0:	00170000 	andseq	r0, r7, r0
    14b4:	2cf70074 	ldclcs	0, cr0, [r7], #464	; 0x1d0
    14b8:	007325f7 	ldrshteq	r2, [r3], #-87	; 0xffffffa9
    14bc:	25f72cf7 	ldrbcs	r2, [r7, #3319]!	; 0xcf7
    14c0:	f720081e 			; <UNDEFINED> instruction: 0xf720081e
    14c4:	2cf72525 	cfldr64cs	mvdx2, [r7], #148	; 0x94
    14c8:	789f2533 	ldmvc	pc, {r0, r1, r4, r5, r8, sl, sp}	; <UNPREDICTABLE>
    14cc:	ac000003 	stcge	0, cr0, [r0], {3}
    14d0:	1c000003 	stcne	0, cr0, [r0], {3}
    14d4:	f7007400 			; <UNDEFINED> instruction: 0xf7007400
    14d8:	f425f72c 	vld1.8	{d15}, [r5 :128], ip
    14dc:	cccd0825 	stclgt	8, cr0, [sp], {37}	; 0x25
    14e0:	0000cccc 	andeq	ip, r0, ip, asr #25
    14e4:	081e0000 	ldmdaeq	lr, {}	; <UNPREDICTABLE>
    14e8:	2525f720 	strcs	pc, [r5, #-1824]!	; 0x720
    14ec:	25332cf7 	ldrcs	r2, [r3, #-3319]!	; 0xcf7
    14f0:	0000009f 	muleq	r0, pc, r0	; <UNPREDICTABLE>
    14f4:	00000000 	andeq	r0, r0, r0
    14f8:	00037000 	andeq	r7, r3, r0
    14fc:	00039400 	andeq	r9, r3, r0, lsl #8
    1500:	50000100 	andpl	r0, r0, r0, lsl #2
    1504:	00000394 	muleq	r0, r4, r3
    1508:	0000039c 	muleq	r0, ip, r3
    150c:	00750009 	rsbseq	r0, r5, r9
    1510:	71240073 	teqvc	r4, r3, ror r0
    1514:	9c9f2100 	ldflss	f2, [pc], {0}
    1518:	9f000003 	svcls	0x00000003
    151c:	01000003 	tsteq	r0, r3
    1520:	00005100 	andeq	r5, r0, r0, lsl #2
	...
    152c:	000b0000 	andeq	r0, fp, r0
    1530:	00010000 	andeq	r0, r1, r0
    1534:	00000b50 	andeq	r0, r0, r0, asr fp
    1538:	00001400 	andeq	r1, r0, r0, lsl #8
    153c:	54000100 	strpl	r0, [r0], #-256	; 0x100
	...

Disassembly of section .debug_aranges:

00000000 <.debug_aranges>:
   0:	0000001c 	andeq	r0, r0, ip, lsl r0
   4:	00000002 	andeq	r0, r0, r2
   8:	00040000 	andeq	r0, r4, r0
   c:	00000000 	andeq	r0, r0, r0
  10:	00008010 	andeq	r8, r0, r0, lsl r0
  14:	00000124 	andeq	r0, r0, r4, lsr #2
	...
  20:	0000001c 	andeq	r0, r0, ip, lsl r0
  24:	034e0002 	movteq	r0, #57346	; 0xe002
  28:	00040000 	andeq	r0, r4, r0
  2c:	00000000 	andeq	r0, r0, r0
  30:	0000820c 	andeq	r8, r0, ip, lsl #4
  34:	000001d0 	ldrdeq	r0, [r0], -r0	; <UNPREDICTABLE>
	...
  40:	0000001c 	andeq	r0, r0, ip, lsl r0
  44:	08a80002 	stmiaeq	r8!, {r1}
  48:	00040000 	andeq	r0, r4, r0
  4c:	00000000 	andeq	r0, r0, r0
  50:	000083fc 	strdeq	r8, [r0], -ip
  54:	00000058 	andeq	r0, r0, r8, asr r0
	...
  60:	0000001c 	andeq	r0, r0, ip, lsl r0
  64:	0a3d0002 	beq	f40074 <__bss_end__+0xf367ec>
  68:	00040000 	andeq	r0, r4, r0
  6c:	00000000 	andeq	r0, r0, r0
  70:	00008454 	andeq	r8, r0, r4, asr r4
  74:	00000034 	andeq	r0, r0, r4, lsr r0
	...
  80:	0000001c 	andeq	r0, r0, ip, lsl r0
  84:	0b2f0002 	bleq	bc0094 <__bss_end__+0xbb680c>
  88:	00040000 	andeq	r0, r4, r0
  8c:	00000000 	andeq	r0, r0, r0
  90:	00008488 	andeq	r8, r0, r8, lsl #9
  94:	000004f0 	strdeq	r0, [r0], -r0	; <UNPREDICTABLE>
	...
  a0:	0000001c 	andeq	r0, r0, ip, lsl r0
  a4:	11870002 	orrne	r0, r7, r2
  a8:	00040000 	andeq	r0, r4, r0
  ac:	00000000 	andeq	r0, r0, r0
  b0:	00008978 	andeq	r8, r0, r8, ror r9
  b4:	00000028 	andeq	r0, r0, r8, lsr #32
	...
  c0:	0000001c 	andeq	r0, r0, ip, lsl r0
  c4:	128a0002 	addne	r0, sl, #2
  c8:	00040000 	andeq	r0, r4, r0
  cc:	00000000 	andeq	r0, r0, r0
  d0:	000089a0 	andeq	r8, r0, r0, lsr #19
  d4:	00000034 	andeq	r0, r0, r4, lsr r0
	...
  e0:	0000001c 	andeq	r0, r0, ip, lsl r0
  e4:	13990002 	orrsne	r0, r9, #2
  e8:	00040000 	andeq	r0, r4, r0
  ec:	00000000 	andeq	r0, r0, r0
  f0:	000089d4 	ldrdeq	r8, [r0], -r4
  f4:	00000074 	andeq	r0, r0, r4, ror r0
	...
 100:	0000001c 	andeq	r0, r0, ip, lsl r0
 104:	154a0002 	strbne	r0, [sl, #-2]
 108:	00040000 	andeq	r0, r4, r0
 10c:	00000000 	andeq	r0, r0, r0
 110:	00008a48 	andeq	r8, r0, r8, asr #20
 114:	00000098 	muleq	r0, r8, r0
	...
 120:	0000001c 	andeq	r0, r0, ip, lsl r0
 124:	17450002 	strbne	r0, [r5, -r2]
 128:	00040000 	andeq	r0, r4, r0
 12c:	00000000 	andeq	r0, r0, r0
 130:	00008b44 	andeq	r8, r0, r4, asr #22
 134:	00000154 	andeq	r0, r0, r4, asr r1
	...
 140:	0000001c 	andeq	r0, r0, ip, lsl r0
 144:	1b480002 	blne	1200154 <__bss_end__+0x11f68cc>
 148:	00040000 	andeq	r0, r4, r0
 14c:	00000000 	andeq	r0, r0, r0
 150:	00008c98 	muleq	r0, r8, ip
 154:	000003ac 	andeq	r0, r0, ip, lsr #7
	...
 160:	0000001c 	andeq	r0, r0, ip, lsl r0
 164:	20b40002 	adcscs	r0, r4, r2
 168:	00040000 	andeq	r0, r4, r0
 16c:	00000000 	andeq	r0, r0, r0
 170:	00009044 	andeq	r9, r0, r4, asr #32
 174:	00000014 	andeq	r0, r0, r4, lsl r0
	...

Disassembly of section .debug_line:

00000000 <.debug_line>:
   0:	00000129 	andeq	r0, r0, r9, lsr #2
   4:	00ef0002 	rsceq	r0, pc, r2
   8:	01020000 	mrseq	r0, (UNDEF: 2)
   c:	000d0efb 	strdeq	r0, [sp], -fp
  10:	01010101 	tsteq	r1, r1, lsl #2
  14:	01000000 	mrseq	r0, (UNDEF: 0)
  18:	2f010000 	svccs	0x00010000
  1c:	72657355 	rsbvc	r7, r5, #1409286145	; 0x54000001
  20:	72622f73 	rsbvc	r2, r2, #460	; 0x1cc
  24:	6a6e6169 	bvs	1b985d0 <__bss_end__+0x1b8ed48>
  28:	442f6e75 	strtmi	r6, [pc], #-3701	; 30 <_start-0x7fd0>
  2c:	746b7365 	strbtvc	r7, [fp], #-869	; 0x365
  30:	732f706f 	teqvc	pc, #111	; 0x6f
  34:	6f6f6863 	svcvs	0x006f6863
  38:	69572f6c 	ldmdbvs	r7, {r2, r3, r5, r6, r8, r9, sl, fp, sp}^
  3c:	7265746e 	rsbvc	r7, r5, #1845493760	; 0x6e000000
  40:	30323931 	eorscc	r3, r2, r1, lsr r9
  44:	3153432f 	cmpcc	r3, pc, lsr #6
  48:	2f453034 	svccs	0x00453034
  4c:	34317363 	ldrtcc	r7, [r1], #-867	; 0x363
  50:	322d6530 	eorcc	r6, sp, #48, 10	; 0xc000000
  54:	6e697730 	mcrvs	7, 3, r7, cr9, cr0, {1}
  58:	62696c2f 	rsbvs	r6, r9, #12032	; 0x2f00
  5c:	2e006970 	mcrcs	9, 0, r6, cr0, cr0, {3}
  60:	69742f2e 	ldmdbvs	r4!, {r1, r2, r3, r5, r8, r9, sl, fp, sp}^
  64:	2d72656d 	cfldr64cs	mvdx6, [r2, #-436]!	; 0xfffffe4c
  68:	00746e69 	rsbseq	r6, r4, r9, ror #28
  6c:	7273752f 	rsbsvc	r7, r3, #197132288	; 0xbc00000
  70:	636f6c2f 	cmnvs	pc, #12032	; 0x2f00
  74:	432f6c61 	teqmi	pc, #24832	; 0x6100
  78:	616c6c65 	cmnvs	ip, r5, ror #24
  7c:	72612f72 	rsbvc	r2, r1, #456	; 0x1c8
  80:	6f6e2d6d 	svcvs	0x006e2d6d
  84:	652d656e 	strvs	r6, [sp, #-1390]!	; 0x56e
  88:	2f696261 	svccs	0x00696261
  8c:	2e382e34 	mrccs	14, 1, r2, cr8, cr4, {1}
  90:	73632d33 	cmnvc	r3, #3264	; 0xcc0
  94:	65303731 	ldrvs	r3, [r0, #-1841]!	; 0x731
  98:	62696c2f 	rsbvs	r6, r9, #12032	; 0x2f00
  9c:	6363672f 	cmnvs	r3, #12320768	; 0xbc0000
  a0:	6d72612f 	ldfvse	f6, [r2, #-188]!	; 0xffffff44
  a4:	6e6f6e2d 	cdpvs	14, 6, cr6, cr15, cr13, {1}
  a8:	61652d65 	cmnvs	r5, r5, ror #26
  ac:	342f6962 	strtcc	r6, [pc], #-2402	; b4 <_start-0x7f4c>
  b0:	332e382e 	teqcc	lr, #3014656	; 0x2e0000
  b4:	636e692f 	cmnvs	lr, #770048	; 0xbc000
  b8:	6564756c 	strbvs	r7, [r4, #-1388]!	; 0x56c
  bc:	79730000 	ldmdbvc	r3!, {}^	; <UNPREDICTABLE>
  c0:	6c616373 	stclvs	3, cr6, [r1], #-460	; 0xfffffe34
  c4:	00632e6c 	rsbeq	r2, r3, ip, ror #28
  c8:	72000000 	andvc	r0, r0, #0
  cc:	682e6970 	stmdavs	lr!, {r4, r5, r6, r8, fp, sp, lr}
  d0:	00000100 	andeq	r0, r0, r0, lsl #2
  d4:	2d697072 	stclcs	0, cr7, [r9, #-456]!	; 0xfffffe38
  d8:	65746e69 	ldrbvs	r6, [r4, #-3689]!	; 0xe69
  dc:	70757272 	rsbsvc	r7, r5, r2, ror r2
  e0:	682e7374 	stmdavs	lr!, {r2, r4, r5, r6, r8, r9, ip, sp, lr}
  e4:	00000200 	andeq	r0, r0, r0, lsl #4
  e8:	69647473 	stmdbvs	r4!, {r0, r1, r4, r5, r6, sl, ip, sp, lr}^
  ec:	672d746e 	strvs	r7, [sp, -lr, ror #8]!
  f0:	682e6363 	stmdavs	lr!, {r0, r1, r5, r6, r8, r9, sp, lr}
  f4:	00000300 	andeq	r0, r0, r0, lsl #6
  f8:	02050000 	andeq	r0, r5, #0
  fc:	00008010 	andeq	r8, r0, r0, lsl r0
 100:	2f010a03 	svccs	0x00010a03
 104:	4c322608 	ldcmi	6, cr2, [r2], #-32	; 0xffffffe0
 108:	674c4b4c 	strbvs	r4, [ip, -ip, asr #22]
 10c:	302f6830 	eorcc	r6, pc, r0, lsr r8	; <UNPREDICTABLE>
 110:	674b304b 	strbvs	r3, [fp, -fp, asr #32]
 114:	04020067 	streq	r0, [r2], #-103	; 0x67
 118:	064a0601 	strbeq	r0, [sl], -r1, lsl #12
 11c:	674b4bbc 			; <UNDEFINED> instruction: 0x674b4bbc
 120:	01040200 	mrseq	r0, R12_usr
 124:	bc064a06 	stclt	10, cr4, [r6], {6}
 128:	01001602 	tsteq	r0, r2, lsl #12
 12c:	0000c501 	andeq	ip, r0, r1, lsl #10
 130:	86000200 	strhi	r0, [r0], -r0, lsl #4
 134:	02000000 	andeq	r0, r0, #0
 138:	0d0efb01 	vstreq	d15, [lr, #-4]
 13c:	01010100 	mrseq	r0, (UNDEF: 17)
 140:	00000001 	andeq	r0, r0, r1
 144:	01000001 	tsteq	r0, r1
 148:	6573552f 	ldrbvs	r5, [r3, #-1327]!	; 0x52f
 14c:	622f7372 	eorvs	r7, pc, #-939524095	; 0xc8000001
 150:	6e616972 	mcrvs	9, 3, r6, cr1, cr2, {3}
 154:	2f6e756a 	svccs	0x006e756a
 158:	6b736544 	blvs	1cd9670 <__bss_end__+0x1ccfde8>
 15c:	2f706f74 	svccs	0x00706f74
 160:	6f686373 	svcvs	0x00686373
 164:	572f6c6f 	strpl	r6, [pc, -pc, ror #24]!
 168:	65746e69 	ldrbvs	r6, [r4, #-3689]!	; 0xe69
 16c:	32393172 	eorscc	r3, r9, #-2147483620	; 0x8000001c
 170:	53432f30 	movtpl	r2, #16176	; 0x3f30
 174:	45303431 	ldrmi	r3, [r0, #-1073]!	; 0x431
 178:	3173632f 	cmncc	r3, pc, lsr #6
 17c:	2d653034 	stclcs	0, cr3, [r5, #-208]!	; 0xffffff30
 180:	69773032 	ldmdbvs	r7!, {r1, r4, r5, ip, sp}^
 184:	696c2f6e 	stmdbvs	ip!, {r1, r2, r3, r5, r6, r8, r9, sl, fp, sp}^
 188:	00697062 	rsbeq	r7, r9, r2, rrx
 18c:	746e6900 	strbtvc	r6, [lr], #-2304	; 0x900
 190:	75727265 	ldrbvc	r7, [r2, #-613]!	; 0x265
 194:	2d737470 	cfldrdcs	mvd7, [r3, #-448]!	; 0xfffffe40
 198:	00632e63 	rsbeq	r2, r3, r3, ror #28
 19c:	72000000 	andvc	r0, r0, #0
 1a0:	682e6970 	stmdavs	lr!, {r4, r5, r6, r8, fp, sp, lr}
 1a4:	00000100 	andeq	r0, r0, r0, lsl #2
 1a8:	2d697072 	stclcs	0, cr7, [r9, #-456]!	; 0xfffffe38
 1ac:	65746e69 	ldrbvs	r6, [r4, #-3689]!	; 0xe69
 1b0:	70757272 	rsbsvc	r7, r5, r2, ror r2
 1b4:	682e7374 	stmdavs	lr!, {r2, r4, r5, r6, r8, r9, ip, sp, lr}
 1b8:	00000000 	andeq	r0, r0, r0
 1bc:	02050000 	andeq	r0, r5, #0
 1c0:	0000820c 	andeq	r8, r0, ip, lsl #4
 1c4:	67673116 			; <UNDEFINED> instruction: 0x67673116
 1c8:	832e0e03 	teqhi	lr, #3, 28	; 0x30
 1cc:	02002d2f 	andeq	r2, r0, #3008	; 0xbc0
 1d0:	002f0204 	eoreq	r0, pc, r4, lsl #4
 1d4:	65020402 	strvs	r0, [r2, #-1026]	; 0x402
 1d8:	01040200 	mrseq	r0, R12_usr
 1dc:	4c062e06 	stcmi	14, cr2, [r6], {6}
 1e0:	94084ba2 	strls	r4, [r8], #-2978	; 0xba2
 1e4:	4b92084b 	blmi	fe482318 <__bss_end__+0xfe478a90>
 1e8:	084b9208 	stmdaeq	fp, {r3, r9, ip, pc}^
 1ec:	92084b92 	andls	r4, r8, #149504	; 0x24800
 1f0:	001a024b 	andseq	r0, sl, fp, asr #4
 1f4:	01020101 	tsteq	r2, r1, lsl #2
 1f8:	00020000 	andeq	r0, r2, r0
 1fc:	000000eb 	andeq	r0, r0, fp, ror #1
 200:	0efb0102 	cdpeq	1, 15, cr0, cr11, cr2, {0}
 204:	0101000d 	tsteq	r1, sp
 208:	00000101 	andeq	r0, r0, r1, lsl #2
 20c:	00000100 	andeq	r0, r0, r0, lsl #2
 210:	62696c01 	rsbvs	r6, r9, #256	; 0x100
 214:	752f0063 	strvc	r0, [pc, #-99]!	; 1b9 <_start-0x7e47>
 218:	6c2f7273 	sfmvs	f7, 4, [pc], #-460	; 54 <_start-0x7fac>
 21c:	6c61636f 	stclvs	3, cr6, [r1], #-444	; 0xfffffe44
 220:	6c65432f 	stclvs	3, cr4, [r5], #-188	; 0xffffff44
 224:	2f72616c 	svccs	0x0072616c
 228:	2d6d7261 	sfmcs	f7, 2, [sp, #-388]!	; 0xfffffe7c
 22c:	656e6f6e 	strbvs	r6, [lr, #-3950]!	; 0xf6e
 230:	6261652d 	rsbvs	r6, r1, #188743680	; 0xb400000
 234:	2e342f69 	cdpcs	15, 3, cr2, cr4, cr9, {3}
 238:	2d332e38 	ldccs	14, cr2, [r3, #-224]!	; 0xffffff20
 23c:	37317363 	ldrcc	r7, [r1, -r3, ror #6]!
 240:	6c2f6530 	cfstr32vs	mvfx6, [pc], #-192	; 188 <_start-0x7e78>
 244:	672f6269 	strvs	r6, [pc, -r9, ror #4]!
 248:	612f6363 	teqvs	pc, r3, ror #6
 24c:	6e2d6d72 	mcrvs	13, 1, r6, cr13, cr2, {3}
 250:	2d656e6f 	stclcs	14, cr6, [r5, #-444]!	; 0xfffffe44
 254:	69626165 	stmdbvs	r2!, {r0, r2, r5, r6, r8, sp, lr}^
 258:	382e342f 	stmdacc	lr!, {r0, r1, r2, r3, r5, sl, ip, sp}
 25c:	692f332e 	stmdbvs	pc!, {r1, r2, r3, r5, r8, r9, ip, sp}	; <UNPREDICTABLE>
 260:	756c636e 	strbvc	r6, [ip, #-878]!	; 0x36e
 264:	2f006564 	svccs	0x00006564
 268:	72657355 	rsbvc	r7, r5, #1409286145	; 0x54000001
 26c:	72622f73 	rsbvc	r2, r2, #460	; 0x1cc
 270:	6a6e6169 	bvs	1b9881c <__bss_end__+0x1b8ef94>
 274:	442f6e75 	strtmi	r6, [pc], #-3701	; 27c <_start-0x7d84>
 278:	746b7365 	strbtvc	r7, [fp], #-869	; 0x365
 27c:	732f706f 	teqvc	pc, #111	; 0x6f
 280:	6f6f6863 	svcvs	0x006f6863
 284:	69572f6c 	ldmdbvs	r7, {r2, r3, r5, r6, r8, r9, sl, fp, sp}^
 288:	7265746e 	rsbvc	r7, r5, #1845493760	; 0x6e000000
 28c:	30323931 	eorscc	r3, r2, r1, lsr r9
 290:	3153432f 	cmpcc	r3, pc, lsr #6
 294:	2f453034 	svccs	0x00453034
 298:	34317363 	ldrtcc	r7, [r1], #-867	; 0x363
 29c:	322d6530 	eorcc	r6, sp, #48, 10	; 0xc000000
 2a0:	6e697730 	mcrvs	7, 3, r7, cr9, cr0, {1}
 2a4:	62696c2f 	rsbvs	r6, r9, #12032	; 0x2f00
 2a8:	00006970 	andeq	r6, r0, r0, ror r9
 2ac:	6e697270 	mcrvs	2, 3, r7, cr9, cr0, {3}
 2b0:	632e6b74 	teqvs	lr, #116, 22	; 0x1d000
 2b4:	00000100 	andeq	r0, r0, r0, lsl #2
 2b8:	61647473 	smcvs	18243	; 0x4743
 2bc:	682e6772 	stmdavs	lr!, {r1, r4, r5, r6, r8, r9, sl, sp, lr}
 2c0:	00000200 	andeq	r0, r0, r0, lsl #4
 2c4:	6975623c 	ldmdbvs	r5!, {r2, r3, r4, r5, r9, sp, lr}^
 2c8:	692d746c 	pushvs	{r2, r3, r5, r6, sl, ip, sp, lr}
 2cc:	00003e6e 	andeq	r3, r0, lr, ror #28
 2d0:	70720000 	rsbsvc	r0, r2, r0
 2d4:	00682e69 	rsbeq	r2, r8, r9, ror #28
 2d8:	76000003 	strvc	r0, [r0], -r3
 2dc:	72702d61 	rsbsvc	r2, r0, #6208	; 0x1840
 2e0:	6b746e69 	blvs	1d1bc8c <__bss_end__+0x1d12404>
 2e4:	0100682e 	tsteq	r0, lr, lsr #16
 2e8:	00000000 	andeq	r0, r0, r0
 2ec:	83fc0205 	mvnshi	r0, #1342177280	; 0x50000000
 2f0:	6b170000 	blvs	5c02f8 <__bss_end__+0x5b6a70>
 2f4:	0289bf4b 	addeq	fp, r9, #300	; 0x12c
 2f8:	0101000e 	tsteq	r1, lr
 2fc:	00000096 	muleq	r0, r6, r0
 300:	006f0002 	rsbeq	r0, pc, r2
 304:	01020000 	mrseq	r0, (UNDEF: 2)
 308:	000d0efb 	strdeq	r0, [sp], -fp
 30c:	01010101 	tsteq	r1, r1, lsl #2
 310:	01000000 	mrseq	r0, (UNDEF: 0)
 314:	6c010000 	stcvs	0, cr0, [r1], {-0}
 318:	00636269 	rsbeq	r6, r3, r9, ror #4
 31c:	6573552f 	ldrbvs	r5, [r3, #-1327]!	; 0x52f
 320:	622f7372 	eorvs	r7, pc, #-939524095	; 0xc8000001
 324:	6e616972 	mcrvs	9, 3, r6, cr1, cr2, {3}
 328:	2f6e756a 	svccs	0x006e756a
 32c:	6b736544 	blvs	1cd9844 <__bss_end__+0x1ccffbc>
 330:	2f706f74 	svccs	0x00706f74
 334:	6f686373 	svcvs	0x00686373
 338:	572f6c6f 	strpl	r6, [pc, -pc, ror #24]!
 33c:	65746e69 	ldrbvs	r6, [r4, #-3689]!	; 0xe69
 340:	32393172 	eorscc	r3, r9, #-2147483620	; 0x8000001c
 344:	53432f30 	movtpl	r2, #16176	; 0x3f30
 348:	45303431 	ldrmi	r3, [r0, #-1073]!	; 0x431
 34c:	3173632f 	cmncc	r3, pc, lsr #6
 350:	2d653034 	stclcs	0, cr3, [r5, #-208]!	; 0xffffff30
 354:	69773032 	ldmdbvs	r7!, {r1, r4, r5, ip, sp}^
 358:	696c2f6e 	stmdbvs	ip!, {r1, r2, r3, r5, r6, r8, r9, sl, fp, sp}^
 35c:	00697062 	rsbeq	r7, r9, r2, rrx
 360:	74757000 	ldrbtvc	r7, [r5], #-0
 364:	00632e6b 	rsbeq	r2, r3, fp, ror #28
 368:	72000001 	andvc	r0, r0, #1
 36c:	682e6970 	stmdavs	lr!, {r4, r5, r6, r8, fp, sp, lr}
 370:	00000200 	andeq	r0, r0, r0, lsl #4
 374:	02050000 	andeq	r0, r5, #0
 378:	00008454 	andeq	r8, r0, r4, asr r4
 37c:	002d4c15 	eoreq	r4, sp, r5, lsl ip
 380:	2f020402 	svccs	0x00020402
 384:	02040200 	andeq	r0, r4, #0, 4
 388:	04020049 	streq	r0, [r2], #-73	; 0x49
 38c:	062e0601 	strteq	r0, [lr], -r1, lsl #12
 390:	0006026b 	andeq	r0, r6, fp, ror #4
 394:	01dc0101 	bicseq	r0, ip, r1, lsl #2
 398:	00020000 	andeq	r0, r2, r0
 39c:	000000df 	ldrdeq	r0, [r0], -pc	; <UNPREDICTABLE>
 3a0:	0efb0102 	cdpeq	1, 15, cr0, cr11, cr2, {0}
 3a4:	0101000d 	tsteq	r1, sp
 3a8:	00000101 	andeq	r0, r0, r1, lsl #2
 3ac:	00000100 	andeq	r0, r0, r0, lsl #2
 3b0:	62696c01 	rsbvs	r6, r9, #256	; 0x100
 3b4:	752f0063 	strvc	r0, [pc, #-99]!	; 359 <_start-0x7ca7>
 3b8:	6c2f7273 	sfmvs	f7, 4, [pc], #-460	; 1f4 <_start-0x7e0c>
 3bc:	6c61636f 	stclvs	3, cr6, [r1], #-444	; 0xfffffe44
 3c0:	6c65432f 	stclvs	3, cr4, [r5], #-188	; 0xffffff44
 3c4:	2f72616c 	svccs	0x0072616c
 3c8:	2d6d7261 	sfmcs	f7, 2, [sp, #-388]!	; 0xfffffe7c
 3cc:	656e6f6e 	strbvs	r6, [lr, #-3950]!	; 0xf6e
 3d0:	6261652d 	rsbvs	r6, r1, #188743680	; 0xb400000
 3d4:	2e342f69 	cdpcs	15, 3, cr2, cr4, cr9, {3}
 3d8:	2d332e38 	ldccs	14, cr2, [r3, #-224]!	; 0xffffff20
 3dc:	37317363 	ldrcc	r7, [r1, -r3, ror #6]!
 3e0:	6c2f6530 	cfstr32vs	mvfx6, [pc], #-192	; 328 <_start-0x7cd8>
 3e4:	672f6269 	strvs	r6, [pc, -r9, ror #4]!
 3e8:	612f6363 	teqvs	pc, r3, ror #6
 3ec:	6e2d6d72 	mcrvs	13, 1, r6, cr13, cr2, {3}
 3f0:	2d656e6f 	stclcs	14, cr6, [r5, #-444]!	; 0xfffffe44
 3f4:	69626165 	stmdbvs	r2!, {r0, r2, r5, r6, r8, sp, lr}^
 3f8:	382e342f 	stmdacc	lr!, {r0, r1, r2, r3, r5, sl, ip, sp}
 3fc:	692f332e 	stmdbvs	pc!, {r1, r2, r3, r5, r8, r9, ip, sp}	; <UNPREDICTABLE>
 400:	756c636e 	strbvc	r6, [ip, #-878]!	; 0x36e
 404:	2f006564 	svccs	0x00006564
 408:	72657355 	rsbvc	r7, r5, #1409286145	; 0x54000001
 40c:	72622f73 	rsbvc	r2, r2, #460	; 0x1cc
 410:	6a6e6169 	bvs	1b989bc <__bss_end__+0x1b8f134>
 414:	442f6e75 	strtmi	r6, [pc], #-3701	; 41c <_start-0x7be4>
 418:	746b7365 	strbtvc	r7, [fp], #-869	; 0x365
 41c:	732f706f 	teqvc	pc, #111	; 0x6f
 420:	6f6f6863 	svcvs	0x006f6863
 424:	69572f6c 	ldmdbvs	r7, {r2, r3, r5, r6, r8, r9, sl, fp, sp}^
 428:	7265746e 	rsbvc	r7, r5, #1845493760	; 0x6e000000
 42c:	30323931 	eorscc	r3, r2, r1, lsr r9
 430:	3153432f 	cmpcc	r3, pc, lsr #6
 434:	2f453034 	svccs	0x00453034
 438:	34317363 	ldrtcc	r7, [r1], #-867	; 0x363
 43c:	322d6530 	eorcc	r6, sp, #48, 10	; 0xc000000
 440:	6e697730 	mcrvs	7, 3, r7, cr9, cr0, {1}
 444:	62696c2f 	rsbvs	r6, r9, #12032	; 0x2f00
 448:	00006970 	andeq	r6, r0, r0, ror r9
 44c:	702d6176 	eorvc	r6, sp, r6, ror r1
 450:	746e6972 	strbtvc	r6, [lr], #-2418	; 0x972
 454:	00632e6b 	rsbeq	r2, r3, fp, ror #28
 458:	73000001 	movwvc	r0, #1
 45c:	72616474 	rsbvc	r6, r1, #116, 8	; 0x74000000
 460:	00682e67 	rsbeq	r2, r8, r7, ror #28
 464:	72000002 	andvc	r0, r0, #2
 468:	682e6970 	stmdavs	lr!, {r4, r5, r6, r8, fp, sp, lr}
 46c:	00000300 	andeq	r0, r0, r0, lsl #6
 470:	6975623c 	ldmdbvs	r5!, {r2, r3, r4, r5, r9, sp, lr}^
 474:	692d746c 	pushvs	{r2, r3, r5, r6, sl, ip, sp, lr}
 478:	00003e6e 	andeq	r3, r0, lr, ror #28
 47c:	00000000 	andeq	r0, r0, r0
 480:	84880205 	strhi	r0, [r8], #517	; 0x205
 484:	26030000 	strcs	r0, [r3], -r0
 488:	13a50101 			; <UNDEFINED> instruction: 0x13a50101
 48c:	02002d31 	andeq	r2, r0, #3136	; 0xc40
 490:	002f0204 	eoreq	r0, pc, r4, lsl #4
 494:	2d020402 	cfstrscs	mvf0, [r2, #-8]
 498:	02040200 	andeq	r0, r4, #0, 4
 49c:	0402002f 	streq	r0, [r2], #-47	; 0x2f
 4a0:	4c4c2d01 	mcrrmi	13, 0, r2, ip, cr1
 4a4:	2f4b1430 	svccs	0x004b1430
 4a8:	0402004f 	streq	r0, [r2], #-79	; 0x4f
 4ac:	02006702 	andeq	r6, r0, #524288	; 0x80000
 4b0:	4c650104 	stfmie	f0, [r5], #-16
 4b4:	2fa0304d 	svccs	0x00a0304d
 4b8:	26023031 			; <UNDEFINED> instruction: 0x26023031
 4bc:	2c2d8416 	cfstrscs	mvf8, [sp], #-88	; 0xffffffa8
 4c0:	01040200 	mrseq	r0, R12_usr
 4c4:	04020030 	streq	r0, [r2], #-48	; 0x30
 4c8:	66063301 	strvs	r3, [r6], -r1, lsl #6
 4cc:	01040200 	mrseq	r0, R12_usr
 4d0:	0402002e 	streq	r0, [r2], #-46	; 0x2e
 4d4:	21080601 	tstcs	r8, r1, lsl #12
 4d8:	73032f67 	movwvc	r2, #16231	; 0x3f67
 4dc:	2e130382 	cdpcs	3, 1, cr0, cr3, cr2, {4}
 4e0:	01040200 	mrseq	r0, R12_usr
 4e4:	02002e06 	andeq	r2, r0, #6, 28	; 0x60
 4e8:	9f060104 	svcls	0x00060104
 4ec:	67034b6a 	strvs	r4, [r3, -sl, ror #22]
 4f0:	2e21032e 	cdpcs	3, 2, cr0, cr1, cr14, {1}
 4f4:	01040200 	mrseq	r0, R12_usr
 4f8:	02002e06 	andeq	r2, r0, #6, 28	; 0x60
 4fc:	9f060104 	svcls	0x00060104
 500:	01040200 	mrseq	r0, R12_usr
 504:	03f3bd6a 	mvnseq	fp, #6784	; 0x1a80
 508:	20087fa6 	andcs	r7, r8, r6, lsr #31
 50c:	0402002f 	streq	r0, [r2], #-47	; 0x2f
 510:	064a0601 	strbeq	r0, [sl], -r1, lsl #12
 514:	032f4bbb 	teqeq	pc, #191488	; 0x2ec00
 518:	83f200da 	mvnshi	r0, #218	; 0xda
 51c:	2f31484c 	svccs	0x0031484c
 520:	2f4b842f 	svccs	0x004b842f
 524:	30314d2d 	eorscc	r4, r1, sp, lsr #26
 528:	0200832f 	andeq	r8, r0, #-1140850688	; 0xbc000000
 52c:	be2c0104 	suflte	f0, f4, f4
 530:	01040200 	mrseq	r0, R12_usr
 534:	bc064a06 	stclt	10, cr4, [r6], {6}
 538:	03163602 	tsteq	r6, #2097152	; 0x200000
 53c:	2108ba0e 	tstcs	r8, lr, lsl #20
 540:	31210830 	teqcc	r1, r0, lsr r8
 544:	08302108 	ldmdaeq	r0!, {r3, r8, sp}
 548:	304b3021 	subcc	r3, fp, r1, lsr #32
 54c:	d9302108 	ldmdble	r0!, {r3, r8, sp}
 550:	02002f31 	andeq	r2, r0, #49, 30	; 0xc4
 554:	00650104 	rsbeq	r0, r5, r4, lsl #2
 558:	06020402 	streq	r0, [r2], -r2, lsl #8
 55c:	0402004a 	streq	r0, [r2], #-74	; 0x4a
 560:	42030601 	andmi	r0, r3, #1048576	; 0x100000
 564:	04020066 	streq	r0, [r2], #-102	; 0x66
 568:	06660602 	strbteq	r0, [r6], -r2, lsl #12
 56c:	4a00c203 	bmi	30d80 <__bss_end__+0x274f8>
 570:	00100268 	andseq	r0, r0, r8, ror #4
 574:	00930101 	addseq	r0, r3, r1, lsl #2
 578:	00020000 	andeq	r0, r2, r0
 57c:	0000007d 	andeq	r0, r0, sp, ror r0
 580:	0efb0102 	cdpeq	1, 15, cr0, cr11, cr2, {0}
 584:	0101000d 	tsteq	r1, sp
 588:	00000101 	andeq	r0, r0, r1, lsl #2
 58c:	00000100 	andeq	r0, r0, r0, lsl #2
 590:	31736301 	cmncc	r3, r1, lsl #6
 594:	2d653034 	stclcs	0, cr3, [r5, #-208]!	; 0xffffff30
 598:	00637273 	rsbeq	r7, r3, r3, ror r2
 59c:	6573552f 	ldrbvs	r5, [r3, #-1327]!	; 0x52f
 5a0:	622f7372 	eorvs	r7, pc, #-939524095	; 0xc8000001
 5a4:	6e616972 	mcrvs	9, 3, r6, cr1, cr2, {3}
 5a8:	2f6e756a 	svccs	0x006e756a
 5ac:	6b736544 	blvs	1cd9ac4 <__bss_end__+0x1cd023c>
 5b0:	2f706f74 	svccs	0x00706f74
 5b4:	6f686373 	svcvs	0x00686373
 5b8:	572f6c6f 	strpl	r6, [pc, -pc, ror #24]!
 5bc:	65746e69 	ldrbvs	r6, [r4, #-3689]!	; 0xe69
 5c0:	32393172 	eorscc	r3, r9, #-2147483620	; 0x8000001c
 5c4:	53432f30 	movtpl	r2, #16176	; 0x3f30
 5c8:	45303431 	ldrmi	r3, [r0, #-1073]!	; 0x431
 5cc:	3173632f 	cmncc	r3, pc, lsr #6
 5d0:	2d653034 	stclcs	0, cr3, [r5, #-208]!	; 0xffffff30
 5d4:	69773032 	ldmdbvs	r7!, {r1, r4, r5, ip, sp}^
 5d8:	696c2f6e 	stmdbvs	ip!, {r1, r2, r3, r5, r6, r8, r9, sl, fp, sp}^
 5dc:	00697062 	rsbeq	r7, r9, r2, rrx
 5e0:	656c6300 	strbvs	r6, [ip, #-768]!	; 0x300
 5e4:	722d6e61 	eorvc	r6, sp, #1552	; 0x610
 5e8:	6f6f6265 	svcvs	0x006f6265
 5ec:	00632e74 	rsbeq	r2, r3, r4, ror lr
 5f0:	72000001 	andvc	r0, r0, #1
 5f4:	682e6970 	stmdavs	lr!, {r4, r5, r6, r8, fp, sp, lr}
 5f8:	00000200 	andeq	r0, r0, r0, lsl #4
 5fc:	02050000 	andeq	r0, r5, #0
 600:	00008978 	andeq	r8, r0, r8, ror r9
 604:	4b832f15 	blmi	fe0cc260 <__bss_end__+0xfe0c29d8>
 608:	01000602 	tsteq	r0, r2, lsl #12
 60c:	00009601 	andeq	r9, r0, r1, lsl #12
 610:	77000200 	strvc	r0, [r0, -r0, lsl #4]
 614:	02000000 	andeq	r0, r0, #0
 618:	0d0efb01 	vstreq	d15, [lr, #-4]
 61c:	01010100 	mrseq	r0, (UNDEF: 17)
 620:	00000001 	andeq	r0, r0, r1
 624:	01000001 	tsteq	r0, r1
 628:	34317363 	ldrtcc	r7, [r1], #-867	; 0x363
 62c:	732d6530 	teqvc	sp, #48, 10	; 0xc000000
 630:	2f006372 	svccs	0x00006372
 634:	72657355 	rsbvc	r7, r5, #1409286145	; 0x54000001
 638:	72622f73 	rsbvc	r2, r2, #460	; 0x1cc
 63c:	6a6e6169 	bvs	1b98be8 <__bss_end__+0x1b8f360>
 640:	442f6e75 	strtmi	r6, [pc], #-3701	; 648 <_start-0x79b8>
 644:	746b7365 	strbtvc	r7, [fp], #-869	; 0x365
 648:	732f706f 	teqvc	pc, #111	; 0x6f
 64c:	6f6f6863 	svcvs	0x006f6863
 650:	69572f6c 	ldmdbvs	r7, {r2, r3, r5, r6, r8, r9, sl, fp, sp}^
 654:	7265746e 	rsbvc	r7, r5, #1845493760	; 0x6e000000
 658:	30323931 	eorscc	r3, r2, r1, lsr r9
 65c:	3153432f 	cmpcc	r3, pc, lsr #6
 660:	2f453034 	svccs	0x00453034
 664:	34317363 	ldrtcc	r7, [r1], #-867	; 0x363
 668:	322d6530 	eorcc	r6, sp, #48, 10	; 0xc000000
 66c:	6e697730 	mcrvs	7, 3, r7, cr9, cr0, {1}
 670:	62696c2f 	rsbvs	r6, r9, #12032	; 0x2f00
 674:	00006970 	andeq	r6, r0, r0, ror r9
 678:	61747363 	cmnvs	r4, r3, ror #6
 67c:	632e7472 	teqvs	lr, #1912602624	; 0x72000000
 680:	00000100 	andeq	r0, r0, r0, lsl #2
 684:	2e697072 	mcrcs	0, 3, r7, cr9, cr2, {3}
 688:	00020068 	andeq	r0, r2, r8, rrx
 68c:	05000000 	streq	r0, [r0, #-0]
 690:	0089a002 	addeq	sl, r9, r2
 694:	31321400 	teqcc	r2, r0, lsl #8
 698:	002f2d2f 	eoreq	r2, pc, pc, lsr #26
 69c:	49010402 	stmdbmi	r1, {r1, sl}
 6a0:	06022f4d 	streq	r2, [r2], -sp, asr #30
 6a4:	99010100 	stmdbls	r1, {r8}
 6a8:	02000000 	andeq	r0, r0, #0
 6ac:	00007700 	andeq	r7, r0, r0, lsl #14
 6b0:	fb010200 	blx	40eba <__bss_end__+0x37632>
 6b4:	01000d0e 	tsteq	r0, lr, lsl #26
 6b8:	00010101 	andeq	r0, r1, r1, lsl #2
 6bc:	00010000 	andeq	r0, r1, r0
 6c0:	73630100 	cmnvc	r3, #0, 2
 6c4:	65303431 	ldrvs	r3, [r0, #-1073]!	; 0x431
 6c8:	6372732d 	cmnvs	r2, #-1275068416	; 0xb4000000
 6cc:	73552f00 	cmpvc	r5, #0, 30
 6d0:	2f737265 	svccs	0x00737265
 6d4:	61697262 	cmnvs	r9, r2, ror #4
 6d8:	6e756a6e 	vsubvs.f32	s13, s10, s29
 6dc:	7365442f 	cmnvc	r5, #788529152	; 0x2f000000
 6e0:	706f746b 	rsbvc	r7, pc, fp, ror #8
 6e4:	6863732f 	stmdavs	r3!, {r0, r1, r2, r3, r5, r8, r9, ip, sp, lr}^
 6e8:	2f6c6f6f 	svccs	0x006c6f6f
 6ec:	746e6957 	strbtvc	r6, [lr], #-2391	; 0x957
 6f0:	39317265 	ldmdbcc	r1!, {r0, r2, r5, r6, r9, ip, sp, lr}
 6f4:	432f3032 	teqmi	pc, #50	; 0x32
 6f8:	30343153 	eorscc	r3, r4, r3, asr r1
 6fc:	73632f45 	cmnvc	r3, #276	; 0x114
 700:	65303431 	ldrvs	r3, [r0, #-1073]!	; 0x431
 704:	7730322d 	ldrvc	r3, [r0, -sp, lsr #4]!
 708:	6c2f6e69 	stcvs	14, cr6, [pc], #-420	; 56c <_start-0x7a94>
 70c:	69706269 	ldmdbvs	r0!, {r0, r3, r5, r6, r9, sp, lr}^
 710:	65720000 	ldrbvs	r0, [r2, #-0]!
 714:	746f6f62 	strbtvc	r6, [pc], #-3938	; 71c <_start-0x78e4>
 718:	0100632e 	tsteq	r0, lr, lsr #6
 71c:	70720000 	rsbsvc	r0, r2, r0
 720:	00682e69 	rsbeq	r2, r8, r9, ror #28
 724:	00000002 	andeq	r0, r0, r2
 728:	d4020500 	strle	r0, [r2], #-1280	; 0x500
 72c:	03000089 	movweq	r0, #137	; 0x89
 730:	3114010d 	tstcc	r4, sp, lsl #2
 734:	2f15852f 	svccs	0x0015852f
 738:	672f4d4b 	strvs	r4, [pc, -fp, asr #26]!
 73c:	02675235 	rsbeq	r5, r7, #1342177283	; 0x50000003
 740:	01010010 	tsteq	r1, r0, lsl r0
 744:	000000a5 	andeq	r0, r0, r5, lsr #1
 748:	00760002 	rsbseq	r0, r6, r2
 74c:	01020000 	mrseq	r0, (UNDEF: 2)
 750:	000d0efb 	strdeq	r0, [sp], -fp
 754:	01010101 	tsteq	r1, r1, lsl #2
 758:	01000000 	mrseq	r0, (UNDEF: 0)
 75c:	63010000 	movwvs	r0, #4096	; 0x1000
 760:	30343173 	eorscc	r3, r4, r3, ror r1
 764:	72732d65 	rsbsvc	r2, r3, #6464	; 0x1940
 768:	552f0063 	strpl	r0, [pc, #-99]!	; 70d <_start-0x78f3>
 76c:	73726573 	cmnvc	r2, #482344960	; 0x1cc00000
 770:	6972622f 	ldmdbvs	r2!, {r0, r1, r2, r3, r5, r9, sp, lr}^
 774:	756a6e61 	strbvc	r6, [sl, #-3681]!	; 0xe61
 778:	65442f6e 	strbvs	r2, [r4, #-3950]	; 0xf6e
 77c:	6f746b73 	svcvs	0x00746b73
 780:	63732f70 	cmnvs	r3, #112, 30	; 0x1c0
 784:	6c6f6f68 	stclvs	15, cr6, [pc], #-416	; 5ec <_start-0x7a14>
 788:	6e69572f 	cdpvs	7, 6, cr5, cr9, cr15, {1}
 78c:	31726574 	cmncc	r2, r4, ror r5
 790:	2f303239 	svccs	0x00303239
 794:	34315343 	ldrtcc	r5, [r1], #-835	; 0x343
 798:	632f4530 	teqvs	pc, #48, 10	; 0xc000000
 79c:	30343173 	eorscc	r3, r4, r3, ror r1
 7a0:	30322d65 	eorscc	r2, r2, r5, ror #26
 7a4:	2f6e6977 	svccs	0x006e6977
 7a8:	7062696c 	rsbvc	r6, r2, ip, ror #18
 7ac:	74000069 	strvc	r0, [r0], #-105	; 0x69
 7b0:	72656d69 	rsbvc	r6, r5, #6720	; 0x1a40
 7b4:	0100632e 	tsteq	r0, lr, lsr #6
 7b8:	70720000 	rsbsvc	r0, r2, r0
 7bc:	00682e69 	rsbeq	r2, r8, r9, ror #28
 7c0:	00000002 	andeq	r0, r0, r2
 7c4:	48020500 	stmdami	r2, {r8, sl}
 7c8:	1600008a 	strne	r0, [r0], -sl, lsl #1
 7cc:	002d2f13 	eoreq	r2, sp, r3, lsl pc
 7d0:	06010402 	streq	r0, [r1], -r2, lsl #8
 7d4:	3168062e 	cmncc	r8, lr, lsr #12
 7d8:	2f4d4b2f 	svccs	0x004d4b2f
 7dc:	4c304b2f 	ldcmi	11, cr4, [r0], #-188	; 0xffffff44
 7e0:	6a2f4c4b 	bvs	bd3914 <__bss_end__+0xbca08c>
 7e4:	2f842f2f 	svccs	0x00842f2f
 7e8:	01000802 	tsteq	r0, r2, lsl #16
 7ec:	00007701 	andeq	r7, r0, r1, lsl #14
 7f0:	3b000200 	blcc	ff8 <_start-0x7008>
 7f4:	02000000 	andeq	r0, r0, #0
 7f8:	0d0efb01 	vstreq	d15, [lr, #-4]
 7fc:	01010100 	mrseq	r0, (UNDEF: 17)
 800:	00000001 	andeq	r0, r0, r1
 804:	01000001 	tsteq	r0, r1
 808:	34317363 	ldrtcc	r7, [r1], #-867	; 0x363
 80c:	732d6530 	teqvc	sp, #48, 10	; 0xc000000
 810:	00006372 	andeq	r6, r0, r2, ror r3
 814:	74726175 	ldrbtvc	r6, [r2], #-373	; 0x175
 818:	0000632e 	andeq	r6, r0, lr, lsr #6
 81c:	70670000 	rsbvc	r0, r7, r0
 820:	682e6f69 	stmdavs	lr!, {r0, r3, r5, r6, r8, r9, sl, fp, sp, lr}
 824:	00000100 	andeq	r0, r0, r0, lsl #2
 828:	2e697072 	mcrcs	0, 3, r7, cr9, cr2, {3}
 82c:	00000068 	andeq	r0, r0, r8, rrx
 830:	05000000 	streq	r0, [r0, #-0]
 834:	008b4402 	addeq	r4, fp, r2, lsl #8
 838:	00d60300 	sbcseq	r0, r6, r0, lsl #6
 83c:	03672f01 	cmneq	r7, #1, 30
 840:	3330665e 	teqcc	r0, #98566144	; 0x5e00000
 844:	d8306d67 	ldmdale	r0!, {r0, r1, r2, r5, r6, r8, sl, fp, sp, lr}
 848:	67676730 			; <UNDEFINED> instruction: 0x67676730
 84c:	03686767 	cmneq	r8, #27000832	; 0x19c0000
 850:	6730820a 	ldrvs	r8, [r0, -sl, lsl #4]!
 854:	672f6967 	strvs	r6, [pc, -r7, ror #18]!
 858:	c1674c6a 	cmngt	r7, sl, ror #24
 85c:	2f302f2f 	svccs	0x00302f2f
 860:	02304968 	eorseq	r4, r0, #104, 18	; 0x1a0000
 864:	01010002 	tsteq	r1, r2
 868:	000000a5 	andeq	r0, r0, r5, lsr #1
 86c:	00320002 	eorseq	r0, r2, r2
 870:	01020000 	mrseq	r0, (UNDEF: 2)
 874:	000d0efb 	strdeq	r0, [sp], -fp
 878:	01010101 	tsteq	r1, r1, lsl #2
 87c:	01000000 	mrseq	r0, (UNDEF: 0)
 880:	63010000 	movwvs	r0, #4096	; 0x1000
 884:	30343173 	eorscc	r3, r4, r3, ror r1
 888:	72732d65 	rsbsvc	r2, r3, #6464	; 0x1940
 88c:	67000063 	strvs	r0, [r0, -r3, rrx]
 890:	2e6f6970 	mcrcs	9, 3, r6, cr15, cr0, {3}
 894:	00000063 	andeq	r0, r0, r3, rrx
 898:	69706700 	ldmdbvs	r0!, {r8, r9, sl, sp, lr}^
 89c:	00682e6f 	rsbeq	r2, r8, pc, ror #28
 8a0:	00000001 	andeq	r0, r0, r1
 8a4:	98020500 	stmdals	r2, {r8, sl}
 8a8:	0300008c 	movweq	r0, #140	; 0x8c
 8ac:	504e013e 	subpl	r0, lr, lr, lsr r1
 8b0:	67210869 	strvs	r0, [r1, -r9, ror #16]!
 8b4:	67676767 	strbvs	r6, [r7, -r7, ror #14]!
 8b8:	084b3267 	stmdaeq	fp, {r0, r1, r2, r5, r6, r9, ip, sp}^
 8bc:	5131dc22 	teqpl	r1, r2, lsr #24
 8c0:	30504e13 	subscc	r4, r0, r3, lsl lr
 8c4:	135031be 	cmpne	r0, #-2147483601	; 0x8000002f
 8c8:	c0304f4d 	eorsgt	r4, r0, sp, asr #30
 8cc:	0869504c 	stmdaeq	r9!, {r2, r3, r6, ip, lr}^
 8d0:	67676721 	strbvs	r6, [r7, -r1, lsr #14]!
 8d4:	32676767 	rsbcc	r6, r7, #27000832	; 0x19c0000
 8d8:	a421084b 	strtge	r0, [r1], #-2123	; 0x84b
 8dc:	842f504c 	strthi	r5, [pc], #-76	; 8e4 <_start-0x771c>
 8e0:	82750369 	rsbshi	r0, r5, #-1543503871	; 0xa4000001
 8e4:	4d2e0c03 	stcmi	12, cr0, [lr, #-12]!
 8e8:	98034e30 	stmdals	r3, {r4, r5, r9, sl, fp, lr}
 8ec:	13514a7f 	cmpne	r1, #520192	; 0x7f000
 8f0:	a530504e 	ldrge	r5, [r0, #-78]!	; 0x4e
 8f4:	4f4d1350 	svcmi	0x004d1350
 8f8:	00c20330 	sbceq	r0, r2, r0, lsr r3
 8fc:	696b6aba 	stmdbvs	fp!, {r1, r3, r4, r5, r7, r9, fp, sp, lr}^
 900:	67672108 	strbvs	r2, [r7, -r8, lsl #2]!
 904:	67676767 	strbvs	r6, [r7, -r7, ror #14]!
 908:	22084b32 	andcs	r4, r8, #51200	; 0xc800
 90c:	01000c02 	tsteq	r0, r2, lsl #24
 910:	00008601 	andeq	r8, r0, r1, lsl #12
 914:	72000200 	andvc	r0, r0, #0, 4
 918:	02000000 	andeq	r0, r0, #0
 91c:	0d0efb01 	vstreq	d15, [lr, #-4]
 920:	01010100 	mrseq	r0, (UNDEF: 17)
 924:	00000001 	andeq	r0, r0, r1
 928:	01000001 	tsteq	r0, r1
 92c:	6362696c 	cmnvs	r2, #108, 18	; 0x1b0000
 930:	73552f00 	cmpvc	r5, #0, 30
 934:	2f737265 	svccs	0x00737265
 938:	61697262 	cmnvs	r9, r2, ror #4
 93c:	6e756a6e 	vsubvs.f32	s13, s10, s29
 940:	7365442f 	cmnvc	r5, #788529152	; 0x2f000000
 944:	706f746b 	rsbvc	r7, pc, fp, ror #8
 948:	6863732f 	stmdavs	r3!, {r0, r1, r2, r3, r5, r8, r9, ip, sp, lr}^
 94c:	2f6c6f6f 	svccs	0x006c6f6f
 950:	746e6957 	strbtvc	r6, [lr], #-2391	; 0x957
 954:	39317265 	ldmdbcc	r1!, {r0, r2, r5, r6, r9, ip, sp, lr}
 958:	432f3032 	teqmi	pc, #50	; 0x32
 95c:	30343153 	eorscc	r3, r4, r3, asr r1
 960:	73632f45 	cmnvc	r3, #276	; 0x114
 964:	65303431 	ldrvs	r3, [r0, #-1073]!	; 0x431
 968:	7730322d 	ldrvc	r3, [r0, -sp, lsr #4]!
 96c:	6c2f6e69 	stcvs	14, cr6, [pc], #-420	; 7d0 <_start-0x7830>
 970:	69706269 	ldmdbvs	r0!, {r0, r3, r5, r6, r9, sp, lr}^
 974:	75700000 	ldrbvc	r0, [r0, #-0]!
 978:	61686374 	smcvs	34356	; 0x8634
 97c:	00632e72 	rsbeq	r2, r3, r2, ror lr
 980:	72000001 	andvc	r0, r0, #1
 984:	682e6970 	stmdavs	lr!, {r4, r5, r6, r8, fp, sp, lr}
 988:	00000200 	andeq	r0, r0, r0, lsl #4
 98c:	02050000 	andeq	r0, r5, #0
 990:	00009044 	andeq	r9, r0, r4, asr #32
 994:	06024a14 			; <UNDEFINED> instruction: 0x06024a14
 998:	Address 0x0000000000000998 is out of bounds.


Disassembly of section .debug_str:

00000000 <.debug_str>:
   0:	5f746e69 	svcpl	0x00746e69
   4:	74696e69 	strbtvc	r6, [r9], #-3689	; 0xe69
   8:	73797300 	cmnvc	r9, #0, 6
   c:	6c6c6163 	stfvse	f6, [ip], #-396	; 0xfffffe74
  10:	6365765f 	cmnvs	r5, #99614720	; 0x5f00000
  14:	00726f74 	rsbseq	r6, r2, r4, ror pc
  18:	6573552f 	ldrbvs	r5, [r3, #-1327]!	; 0x52f
  1c:	622f7372 	eorvs	r7, pc, #-939524095	; 0xc8000001
  20:	6e616972 	mcrvs	9, 3, r6, cr1, cr2, {3}
  24:	2f6e756a 	svccs	0x006e756a
  28:	6b736544 	blvs	1cd9540 <__bss_end__+0x1ccfcb8>
  2c:	2f706f74 	svccs	0x00706f74
  30:	6f686373 	svcvs	0x00686373
  34:	572f6c6f 	strpl	r6, [pc, -pc, ror #24]!
  38:	65746e69 	ldrbvs	r6, [r4, #-3689]!	; 0xe69
  3c:	32393172 	eorscc	r3, r9, #-2147483620	; 0x8000001c
  40:	53432f30 	movtpl	r2, #16176	; 0x3f30
  44:	45303431 	ldrmi	r3, [r0, #-1073]!	; 0x431
  48:	3173632f 	cmncc	r3, pc, lsr #6
  4c:	2d653034 	stclcs	0, cr3, [r5, #-208]!	; 0xffffff30
  50:	69773032 	ldmdbvs	r7!, {r1, r4, r5, ip, sp}^
  54:	616c2f6e 	cmnvs	ip, lr, ror #30
  58:	372f7362 	strcc	r7, [pc, -r2, ror #6]!
  5c:	746e692d 	strbtvc	r6, [lr], #-2349	; 0x92d
  60:	75727265 	ldrbvc	r7, [r2, #-613]!	; 0x265
  64:	2f737470 	svccs	0x00737470
  68:	79732d31 	ldmdbvc	r3!, {r0, r4, r5, r8, sl, fp, sp}^
  6c:	6c616373 	stclvs	3, cr6, [r1], #-460	; 0xfffffe34
  70:	4e47006c 	cdpmi	0, 4, cr0, cr7, cr12, {3}
  74:	20432055 	subcs	r2, r3, r5, asr r0
  78:	2e382e34 	mrccs	14, 1, r2, cr8, cr4, {1}
  7c:	6d2d2033 	stcvs	0, cr2, [sp, #-204]!	; 0xffffff34
  80:	3d757063 	ldclcc	0, cr7, [r5, #-396]!	; 0xfffffe74
  84:	316d7261 	cmncc	sp, r1, ror #4
  88:	6a363731 	bvs	d8dd54 <__bss_end__+0xd844cc>
  8c:	732d667a 	teqvc	sp, #127926272	; 0x7a00000
  90:	746d2d20 	strbtvc	r2, [sp], #-3360	; 0xd20
  94:	3d656e75 	stclcc	14, cr6, [r5, #-468]!	; 0xfffffe2c
  98:	316d7261 	cmncc	sp, r1, ror #4
  9c:	6a363731 	bvs	d8dd68 <__bss_end__+0xd844e0>
  a0:	732d667a 	teqvc	sp, #127926272	; 0x7a00000
  a4:	67672d20 	strbvs	r2, [r7, -r0, lsr #26]!
  a8:	2d206264 	sfmcs	f6, 4, [r0, #-400]!	; 0xfffffe70
  ac:	2d20674f 	stccs	7, cr6, [r0, #-316]!	; 0xfffffec4
  b0:	3d647473 	cfstrdcc	mvd7, [r4, #-460]!	; 0xfffffe34
  b4:	39756e67 	ldmdbcc	r5!, {r0, r1, r2, r5, r6, r9, sl, fp, sp, lr}^
  b8:	662d2039 			; <UNDEFINED> instruction: 0x662d2039
  bc:	65657266 	strbvs	r7, [r5, #-614]!	; 0x266
  c0:	6e617473 	mcrvs	4, 3, r7, cr1, cr3, {3}
  c4:	676e6964 	strbvs	r6, [lr, -r4, ror #18]!
  c8:	73797300 	cmnvc	r9, #0, 6
  cc:	6c6c6163 	stfvse	f6, [ip], #-396	; 0xfffffe74
  d0:	6c65685f 	stclvs	8, cr6, [r5], #-380	; 0xfffffe84
  d4:	6e006f6c 	cdpvs	15, 0, cr6, cr0, cr12, {3}
  d8:	616d746f 	cmnvs	sp, pc, ror #8
  dc:	75006e69 	strvc	r6, [r0, #-3689]	; 0xe69
  e0:	5f747261 	svcpl	0x00747261
  e4:	74696e69 	strbtvc	r6, [r9], #-3689	; 0xe69
  e8:	736e7500 	cmnvc	lr, #0, 10
  ec:	656e6769 	strbvs	r6, [lr, #-1897]!	; 0x769
  f0:	68632064 	stmdavs	r3!, {r2, r5, r6, sp}^
  f4:	63007261 	movwvs	r7, #609	; 0x261
  f8:	6e61656c 	cdpvs	5, 6, cr6, cr1, cr12, {3}
  fc:	6265725f 	rsbvs	r7, r5, #-268435451	; 0xf0000005
 100:	00746f6f 	rsbseq	r6, r4, pc, ror #30
 104:	726f6873 	rsbvc	r6, pc, #7536640	; 0x730000
 108:	6e752074 	mrcvs	0, 3, r2, cr5, cr4, {3}
 10c:	6e676973 	mcrvs	9, 3, r6, cr7, cr3, {3}
 110:	69206465 	stmdbvs	r0!, {r0, r2, r5, r6, sl, sp, lr}
 114:	6900746e 	stmdbvs	r0, {r1, r2, r3, r5, r6, sl, ip, sp, lr}
 118:	0074736e 	rsbseq	r7, r4, lr, ror #6
 11c:	5f737973 	svcpl	0x00737973
 120:	006d756e 	rsbeq	r7, sp, lr, ror #10
 124:	55465f5f 	strbpl	r5, [r6, #-3935]	; 0xf5f
 128:	4954434e 	ldmdbmi	r4, {r1, r2, r3, r6, r8, r9, lr}^
 12c:	5f5f4e4f 	svcpl	0x005f4e4f
 130:	6e6f6c00 	cdpvs	12, 6, cr6, cr15, cr0, {0}
 134:	6f6c2067 	svcvs	0x006c2067
 138:	7520676e 	strvc	r6, [r0, #-1902]!	; 0x76e
 13c:	6769736e 	strbvs	r7, [r9, -lr, ror #6]!
 140:	2064656e 	rsbcs	r6, r4, lr, ror #10
 144:	00746e69 	rsbseq	r6, r4, r9, ror #28
 148:	63737973 	cmnvs	r3, #1884160	; 0x1cc000
 14c:	5f6c6c61 	svcpl	0x006c6c61
 150:	656c6c69 	strbvs	r6, [ip, #-3177]!	; 0xc69
 154:	006c6167 	rsbeq	r6, ip, r7, ror #2
 158:	657a6973 	ldrbvs	r6, [sl, #-2419]!	; 0x973
 15c:	65707974 	ldrbvs	r7, [r0, #-2420]!	; 0x974
 160:	6e6f6c00 	cdpvs	12, 6, cr6, cr15, cr0, {0}
 164:	6f6c2067 	svcvs	0x006c2067
 168:	6920676e 	stmdbvs	r0!, {r1, r2, r3, r5, r6, r8, r9, sl, sp, lr}
 16c:	7300746e 	movwvc	r7, #1134	; 0x46e
 170:	74726f68 	ldrbtvc	r6, [r2], #-3944	; 0xf68
 174:	746e6920 	strbtvc	r6, [lr], #-2336	; 0x920
 178:	6e697500 	cdpvs	5, 6, cr7, cr9, cr0, {0}
 17c:	5f323374 	svcpl	0x00323374
 180:	79730074 	ldmdbvc	r3!, {r2, r4, r5, r6}^
 184:	6c616373 	stclvs	3, cr6, [r1], #-460	; 0xfffffe34
 188:	00632e6c 	rsbeq	r2, r3, ip, ror #28
 18c:	66657270 			; <UNDEFINED> instruction: 0x66657270
 190:	68637465 	stmdavs	r3!, {r0, r2, r5, r6, sl, ip, sp, lr}^
 194:	6f62615f 	svcvs	0x0062615f
 198:	765f7472 			; <UNDEFINED> instruction: 0x765f7472
 19c:	6f746365 	svcvs	0x00746365
 1a0:	69440072 	stmdbvs	r4, {r1, r4, r5, r6}^
 1a4:	6c626173 	stfvse	f6, [r2], #-460	; 0xfffffe34
 1a8:	61425f65 	cmpvs	r2, r5, ror #30
 1ac:	5f636973 	svcpl	0x00636973
 1b0:	73515249 	cmpvc	r1, #-1879048188	; 0x90000004
 1b4:	73552f00 	cmpvc	r5, #0, 30
 1b8:	2f737265 	svccs	0x00737265
 1bc:	61697262 	cmnvs	r9, r2, ror #4
 1c0:	6e756a6e 	vsubvs.f32	s13, s10, s29
 1c4:	7365442f 	cmnvc	r5, #788529152	; 0x2f000000
 1c8:	706f746b 	rsbvc	r7, pc, fp, ror #8
 1cc:	6863732f 	stmdavs	r3!, {r0, r1, r2, r3, r5, r8, r9, ip, sp, lr}^
 1d0:	2f6c6f6f 	svccs	0x006c6f6f
 1d4:	746e6957 	strbtvc	r6, [lr], #-2391	; 0x957
 1d8:	39317265 	ldmdbcc	r1!, {r0, r2, r5, r6, r9, ip, sp, lr}
 1dc:	432f3032 	teqmi	pc, #50	; 0x32
 1e0:	30343153 	eorscc	r3, r4, r3, asr r1
 1e4:	73632f45 	cmnvc	r3, #276	; 0x114
 1e8:	65303431 	ldrvs	r3, [r0, #-1073]!	; 0x431
 1ec:	7730322d 	ldrvc	r3, [r0, -sp, lsr #4]!
 1f0:	6c2f6e69 	stcvs	14, cr6, [pc], #-420	; 54 <_start-0x7fac>
 1f4:	2f736261 	svccs	0x00736261
 1f8:	6e692d37 	mcrvs	13, 3, r2, cr9, cr7, {1}
 1fc:	72726574 	rsbsvc	r6, r2, #116, 10	; 0x1d000000
 200:	73747075 	cmnvc	r4, #117	; 0x75
 204:	6d69742f 	cfstrdvs	mvd7, [r9, #-188]!	; 0xffffff44
 208:	692d7265 	pushvs	{r0, r2, r5, r6, r9, ip, sp, lr}
 20c:	4600746e 	strmi	r7, [r0], -lr, ror #8
 210:	635f5149 	cmpvs	pc, #1073741842	; 0x40000012
 214:	72746e6f 	rsbsvc	r6, r4, #1776	; 0x6f0
 218:	69006c6f 	stmdbvs	r0, {r0, r1, r2, r3, r5, r6, sl, fp, sp, lr}
 21c:	7265746e 	rsbvc	r7, r5, #1845493760	; 0x6e000000
 220:	74707572 	ldrbtvc	r7, [r0], #-1394	; 0x572
 224:	2e632d73 	mcrcs	13, 3, r2, cr3, cr3, {3}
 228:	695f0063 	ldmdbvs	pc, {r0, r1, r5, r6}^	; <UNPREDICTABLE>
 22c:	7265746e 	rsbvc	r7, r5, #1845493760	; 0x6e000000
 230:	74707572 	ldrbtvc	r7, [r0], #-1394	; 0x572
 234:	6261745f 	rsbvs	r7, r1, #1593835520	; 0x5f000000
 238:	4900656c 	stmdbmi	r0, {r2, r3, r5, r6, r8, sl, sp, lr}
 23c:	625f5152 	subsvs	r5, pc, #-2147483628	; 0x80000014
 240:	63697361 	cmnvs	r9, #-2080374783	; 0x84000001
 244:	6e65705f 	mcrvs	0, 3, r7, cr5, cr15, {2}
 248:	676e6964 	strbvs	r6, [lr, -r4, ror #18]!
 24c:	616e4500 	cmnvs	lr, r0, lsl #10
 250:	5f656c62 	svcpl	0x00656c62
 254:	69736142 	ldmdbvs	r3!, {r1, r6, r8, sp, lr}^
 258:	52495f63 	subpl	r5, r9, #396	; 0x18c
 25c:	45007351 	strmi	r7, [r0, #-849]	; 0x351
 260:	6c62616e 	stfvse	f6, [r2], #-440	; 0xfffffe48
 264:	52495f65 	subpl	r5, r9, #404	; 0x194
 268:	315f7351 	cmpcc	pc, r1, asr r3	; <UNPREDICTABLE>
 26c:	616e4500 	cmnvs	lr, r0, lsl #10
 270:	5f656c62 	svcpl	0x00656c62
 274:	73515249 	cmpvc	r1, #-1879048188	; 0x90000004
 278:	5f00325f 	svcpl	0x0000325f
 27c:	65746e69 	ldrbvs	r6, [r4, #-3689]!	; 0xe69
 280:	70757272 	rsbsvc	r7, r5, r2, ror r2
 284:	61745f74 	cmnvs	r4, r4, ror pc
 288:	5f656c62 	svcpl	0x00656c62
 28c:	00646e65 	rsbeq	r6, r4, r5, ror #28
 290:	5f766564 	svcpl	0x00766564
 294:	72726162 	rsbsvc	r6, r2, #-2147483624	; 0x80000018
 298:	00726569 	rsbseq	r6, r2, r9, ror #10
 29c:	61746164 	cmnvs	r4, r4, ror #2
 2a0:	6f62615f 	svcvs	0x0062615f
 2a4:	765f7472 			; <UNDEFINED> instruction: 0x765f7472
 2a8:	6f746365 	svcvs	0x00746365
 2ac:	52490072 	subpl	r0, r9, #114	; 0x72
 2b0:	65705f51 	ldrbvs	r5, [r0, #-3921]!	; 0xf51
 2b4:	6e69646e 	cdpvs	4, 6, cr6, cr9, cr14, {3}
 2b8:	00325f67 	eorseq	r5, r2, r7, ror #30
 2bc:	5f515249 	svcpl	0x00515249
 2c0:	646e6570 	strbtvs	r6, [lr], #-1392	; 0x570
 2c4:	5f676e69 	svcpl	0x00676e69
 2c8:	6e750031 	mrcvs	0, 3, r0, cr5, cr1, {1}
 2cc:	69666564 	stmdbvs	r6!, {r2, r5, r6, r8, sl, sp, lr}^
 2d0:	5f64656e 	svcpl	0x0064656e
 2d4:	74736e69 	ldrbtvc	r6, [r3], #-3689	; 0xe69
 2d8:	74637572 	strbtvc	r7, [r3], #-1394	; 0x572
 2dc:	5f6e6f69 	svcpl	0x006e6f69
 2e0:	74636576 	strbtvc	r6, [r3], #-1398	; 0x576
 2e4:	7200726f 	andvc	r7, r0, #-268435450	; 0xf0000006
 2e8:	74657365 	strbtvc	r7, [r5], #-869	; 0x365
 2ec:	6365765f 	cmnvs	r5, #99614720	; 0x5f00000
 2f0:	00726f74 	rsbseq	r6, r2, r4, ror pc
 2f4:	74666f73 	strbtvc	r6, [r6], #-3955	; 0xf73
 2f8:	65726177 	ldrbvs	r6, [r2, #-375]!	; 0x177
 2fc:	746e695f 	strbtvc	r6, [lr], #-2399	; 0x95f
 300:	75727265 	ldrbvc	r7, [r2, #-613]!	; 0x265
 304:	765f7470 			; <UNDEFINED> instruction: 0x765f7470
 308:	6f746365 	svcvs	0x00746365
 30c:	55500072 	ldrbpl	r0, [r0, #-114]	; 0x72
 310:	00323354 	eorseq	r3, r2, r4, asr r3
 314:	61736944 	cmnvs	r3, r4, asr #18
 318:	5f656c62 	svcpl	0x00656c62
 31c:	73515249 	cmpvc	r1, #-1879048188	; 0x90000004
 320:	4400315f 	strmi	r3, [r0], #-351	; 0x15f
 324:	62617369 	rsbvs	r7, r1, #-1543503871	; 0xa4000001
 328:	495f656c 	ldmdbmi	pc, {r2, r3, r5, r6, r8, sl, sp, lr}^	; <UNPREDICTABLE>
 32c:	5f735152 	svcpl	0x00735152
 330:	61660032 	cmnvs	r6, r2, lsr r0
 334:	695f7473 	ldmdbvs	pc, {r0, r1, r4, r5, r6, sl, ip, sp, lr}^	; <UNPREDICTABLE>
 338:	7265746e 	rsbvc	r7, r5, #1845493760	; 0x6e000000
 33c:	74707572 	ldrbtvc	r7, [r0], #-1394	; 0x572
 340:	6365765f 	cmnvs	r5, #99614720	; 0x5f00000
 344:	00726f74 	rsbseq	r6, r2, r4, ror pc
 348:	5f515249 	svcpl	0x00515249
 34c:	65736142 	ldrbvs	r6, [r3, #-322]!	; 0x142
 350:	675f5f00 	ldrbvs	r5, [pc, -r0, lsl #30]
 354:	5f63756e 	svcpl	0x0063756e
 358:	6c5f6176 	ldfvse	f6, [pc], {118}	; 0x76
 35c:	00747369 	rsbseq	r7, r4, r9, ror #6
 360:	6362696c 	cmnvs	r2, #108, 18	; 0x1b0000
 364:	6972702f 	ldmdbvs	r2!, {r0, r1, r2, r3, r5, ip, sp, lr}^
 368:	2e6b746e 	cdpcs	4, 6, cr7, cr11, cr14, {3}
 36c:	61760063 	cmnvs	r6, r3, rrx
 370:	6972705f 	ldmdbvs	r2!, {r0, r1, r2, r3, r4, r6, ip, sp, lr}^
 374:	006b746e 	rsbeq	r7, fp, lr, ror #8
 378:	61765f5f 	cmnvs	r6, pc, asr pc
 37c:	73696c5f 	cmnvc	r9, #24320	; 0x5f00
 380:	552f0074 	strpl	r0, [pc, #-116]!	; 314 <_start-0x7cec>
 384:	73726573 	cmnvc	r2, #482344960	; 0x1cc00000
 388:	6972622f 	ldmdbvs	r2!, {r0, r1, r2, r3, r5, r9, sp, lr}^
 38c:	756a6e61 	strbvc	r6, [sl, #-3681]!	; 0xe61
 390:	65442f6e 	strbvs	r2, [r4, #-3950]	; 0xf6e
 394:	6f746b73 	svcvs	0x00746b73
 398:	63732f70 	cmnvs	r3, #112, 30	; 0x1c0
 39c:	6c6f6f68 	stclvs	15, cr6, [pc], #-416	; 204 <_start-0x7dfc>
 3a0:	6e69572f 	cdpvs	7, 6, cr5, cr9, cr15, {1}
 3a4:	31726574 	cmncc	r2, r4, ror r5
 3a8:	2f303239 	svccs	0x00303239
 3ac:	34315343 	ldrtcc	r5, [r1], #-835	; 0x343
 3b0:	632f4530 	teqvs	pc, #48, 10	; 0xc000000
 3b4:	30343173 	eorscc	r3, r4, r3, ror r1
 3b8:	30322d65 	eorscc	r2, r2, r5, ror #26
 3bc:	2f6e6977 	svccs	0x006e6977
 3c0:	7062696c 	rsbvc	r6, r2, ip, ror #18
 3c4:	72610069 	rsbvc	r0, r1, #105	; 0x69
 3c8:	5f007367 	svcpl	0x00007367
 3cc:	0070615f 	rsbseq	r6, r0, pc, asr r1
 3d0:	6362696c 	cmnvs	r2, #108, 18	; 0x1b0000
 3d4:	7475702f 	ldrbtvc	r7, [r5], #-47	; 0x2f
 3d8:	00632e6b 	rsbeq	r2, r3, fp, ror #28
 3dc:	65746e69 	ldrbvs	r6, [r4, #-3689]!	; 0xe69
 3e0:	6c616e72 	stclvs	14, cr6, [r1], #-456	; 0xfffffe38
 3e4:	7475705f 	ldrbtvc	r7, [r5], #-95	; 0x5f
 3e8:	7072006b 	rsbsvc	r0, r2, fp, rrx
 3ec:	75705f69 	ldrbvc	r5, [r0, #-3945]!	; 0xf69
 3f0:	61686374 	smcvs	34356	; 0x8634
 3f4:	656e0072 	strbvs	r0, [lr, #-114]!	; 0x72
 3f8:	00705f67 	rsbseq	r5, r0, r7, ror #30
 3fc:	65766572 	ldrbvs	r6, [r6, #-1394]!	; 0x572
 400:	00657372 	rsbeq	r7, r5, r2, ror r3
 404:	69647369 	stmdbvs	r4!, {r0, r3, r5, r6, r8, r9, ip, sp, lr}^
 408:	00746967 	rsbseq	r6, r4, r7, ror #18
 40c:	73747570 	cmnvc	r4, #112, 10	; 0x1c000000
 410:	0070665f 	rsbseq	r6, r0, pc, asr r6
 414:	65736162 	ldrbvs	r6, [r3, #-354]!	; 0x162
 418:	67697300 	strbvs	r7, [r9, -r0, lsl #6]!
 41c:	5f64656e 	svcpl	0x0064656e
 420:	696c0070 	stmdbvs	ip!, {r4, r5, r6}^
 424:	762f6362 	strtvc	r6, [pc], -r2, ror #6
 428:	72702d61 	rsbsvc	r2, r0, #6208	; 0x1840
 42c:	6b746e69 	blvs	1d1bdd8 <__bss_end__+0x1d12550>
 430:	7200632e 	andvc	r6, r0, #-1207959552	; 0xb8000000
 434:	735f6970 	cmpvc	pc, #112, 18	; 0x1c0000
 438:	6f5f7465 	svcvs	0x005f7465
 43c:	75707475 	ldrbvc	r7, [r0, #-1141]!	; 0x475
 440:	69770074 	ldmdbvs	r7!, {r2, r4, r5, r6}^
 444:	00687464 	rsbeq	r7, r8, r4, ror #8
 448:	63747570 	cmnvs	r4, #112, 10	; 0x1c000000
 44c:	0070665f 	rsbseq	r6, r0, pc, asr r6
 450:	74696d65 	strbtvc	r6, [r9], #-3429	; 0xd65
 454:	69707200 	ldmdbvs	r0!, {r9, ip, sp, lr}^
 458:	6265725f 	rsbvs	r7, r5, #-268435451	; 0xf0000005
 45c:	00746f6f 	rsbseq	r6, r4, pc, ror #30
 460:	34317363 	ldrtcc	r7, [r1], #-867	; 0x363
 464:	732d6530 	teqvc	sp, #48, 10	; 0xc000000
 468:	632f6372 	teqvs	pc, #-939524095	; 0xc8000001
 46c:	6e61656c 	cdpvs	5, 6, cr6, cr1, cr12, {3}
 470:	6265722d 	rsbvs	r7, r5, #-805306366	; 0xd0000002
 474:	2e746f6f 	cdpcs	15, 7, cr6, cr4, cr15, {3}
 478:	65640063 	strbvs	r0, [r4, #-99]!	; 0x63
 47c:	5f79616c 	svcpl	0x0079616c
 480:	6300736d 	movwvs	r7, #877	; 0x36d
 484:	30343173 	eorscc	r3, r4, r3, ror r1
 488:	72732d65 	rsbsvc	r2, r3, #6464	; 0x1940
 48c:	73632f63 	cmnvc	r3, #396	; 0x18c
 490:	74726174 	ldrbtvc	r6, [r2], #-372	; 0x174
 494:	5f00632e 	svcpl	0x0000632e
 498:	7373625f 	cmnvc	r3, #-268435451	; 0xf0000005
 49c:	6174735f 	cmnvs	r4, pc, asr r3
 4a0:	5f5f7472 	svcpl	0x005f7472
 4a4:	625f5f00 	subsvs	r5, pc, #0, 30
 4a8:	655f7373 	ldrbvs	r7, [pc, #-883]	; 13d <_start-0x7ec3>
 4ac:	5f5f646e 	svcpl	0x005f646e
 4b0:	73736200 	cmnvc	r3, #0, 4
 4b4:	646e655f 	strbtvs	r6, [lr], #-1375	; 0x55f
 4b8:	73635f00 	cmnvc	r3, #0, 30
 4bc:	74726174 	ldrbtvc	r6, [r2], #-372	; 0x174
 4c0:	5f746100 	svcpl	0x00746100
 4c4:	72657375 	rsbvc	r7, r5, #-738197503	; 0xd4000001
 4c8:	76656c5f 			; <UNDEFINED> instruction: 0x76656c5f
 4cc:	50006c65 	andpl	r6, r0, r5, ror #24
 4d0:	41505f4d 	cmpmi	r0, sp, asr #30
 4d4:	4f575353 	svcmi	0x00575353
 4d8:	63004452 	movwvs	r4, #1106	; 0x452
 4dc:	30343173 	eorscc	r3, r4, r3, ror r1
 4e0:	72732d65 	rsbsvc	r2, r3, #6464	; 0x1940
 4e4:	65722f63 	ldrbvs	r2, [r2, #-3939]!	; 0xf63
 4e8:	746f6f62 	strbtvc	r6, [pc], #-3938	; 4f0 <_start-0x7b10>
 4ec:	5000632e 	andpl	r6, r0, lr, lsr #6
 4f0:	53525f4d 	cmppl	r2, #308	; 0x134
 4f4:	575f4354 			; <UNDEFINED> instruction: 0x575f4354
 4f8:	47464352 	smlsldmi	r4, r6, r2, r3
 4fc:	4c55465f 	mrrcmi	6, 5, r4, r5, cr15
 500:	45525f4c 	ldrbmi	r5, [r2, #-3916]	; 0xf4c
 504:	00544553 	subseq	r4, r4, r3, asr r5
 508:	575f4d50 			; <UNDEFINED> instruction: 0x575f4d50
 50c:	00474f44 	subeq	r4, r7, r4, asr #30
 510:	5f746573 	svcpl	0x00746573
 514:	72657375 	rsbvc	r7, r5, #-738197503	; 0xd4000001
 518:	76656c5f 			; <UNDEFINED> instruction: 0x76656c5f
 51c:	50006c65 	andpl	r6, r0, r5, ror #24
 520:	53525f4d 	cmppl	r2, #308	; 0x134
 524:	63004354 	movwvs	r4, #852	; 0x354
 528:	00727370 	rsbseq	r7, r2, r0, ror r3
 52c:	656d6974 	strbvs	r6, [sp, #-2420]!	; 0x974
 530:	65675f72 	strbvs	r5, [r7, #-3954]!	; 0xf72
 534:	73755f74 	cmnvc	r5, #116, 30	; 0x1d0
 538:	725f6365 	subsvc	r6, pc, #-1811939327	; 0x94000001
 53c:	64007761 	strvs	r7, [r0], #-1889	; 0x761
 540:	79616c65 	stmdbvc	r1!, {r0, r2, r5, r6, sl, fp, sp, lr}^
 544:	6365735f 	cmnvs	r5, #2080374785	; 0x7c000001
 548:	31736300 	cmncc	r3, r0, lsl #6
 54c:	2d653034 	stclcs	0, cr3, [r5, #-208]!	; 0xffffff30
 550:	2f637273 	svccs	0x00637273
 554:	656d6974 	strbvs	r6, [sp, #-2420]!	; 0x974
 558:	00632e72 	rsbeq	r2, r3, r2, ror lr
 55c:	33544547 	cmpcc	r4, #297795584	; 0x11c00000
 560:	69740032 	ldmdbvs	r4!, {r1, r4, r5}^
 564:	00736b63 	rsbseq	r6, r3, r3, ror #22
 568:	616c6564 	cmnvs	ip, r4, ror #10
 56c:	79635f79 	stmdbvc	r3!, {r0, r3, r4, r5, r6, r8, r9, sl, fp, ip, lr}^
 570:	73656c63 	cmnvc	r5, #25344	; 0x6300
 574:	6c656400 	cfstrdvs	mvd6, [r5], #-0
 578:	755f7961 	ldrbvc	r7, [pc, #-2401]	; fffffc1f <__bss_end__+0xffff6397>
 57c:	69740073 	ldmdbvs	r4!, {r0, r1, r4, r5, r6}^
 580:	5f72656d 	svcpl	0x0072656d
 584:	5f746567 	svcpl	0x00746567
 588:	63657375 	cmnvs	r5, #-738197503	; 0xd4000001
 58c:	58554100 	ldmdapl	r5, {r8, lr}^
 590:	5f554d5f 	svcpl	0x00554d5f
 594:	5f52434d 	svcpl	0x0052434d
 598:	00474552 	subeq	r4, r7, r2, asr r5
 59c:	5f585541 	svcpl	0x00585541
 5a0:	495f554d 	ldmdbmi	pc, {r0, r2, r3, r6, r8, sl, ip, lr}^	; <UNPREDICTABLE>
 5a4:	45525f4f 	ldrbmi	r5, [r2, #-3919]	; 0xf4f
 5a8:	55410047 	strbpl	r0, [r1, #-71]	; 0x47
 5ac:	554d5f58 	strbpl	r5, [sp, #-3928]	; 0xf58
 5b0:	52534d5f 	subspl	r4, r3, #6080	; 0x17c0
 5b4:	4745525f 	smlsldmi	r5, r5, pc, r2	; <UNPREDICTABLE>
 5b8:	49504700 	ldmdbmi	r0, {r8, r9, sl, lr}^
 5bc:	55465f4f 	strbpl	r5, [r6, #-3919]	; 0xf4f
 5c0:	415f434e 	cmpmi	pc, lr, asr #6
 5c4:	0030544c 	eorseq	r5, r0, ip, asr #8
 5c8:	74726175 	ldrbtvc	r6, [r2], #-373	; 0x175
 5cc:	6e61635f 	mcrvs	3, 3, r6, cr1, cr15, {2}
 5d0:	7465675f 	strbtvc	r6, [r5], #-1887	; 0x75f
 5d4:	55410063 	strbpl	r0, [r1, #-99]	; 0x63
 5d8:	554d5f58 	strbpl	r5, [sp, #-3928]	; 0xf58
 5dc:	544e435f 	strbpl	r4, [lr], #-863	; 0x35f
 5e0:	45525f4c 	ldrbmi	r5, [r2, #-3916]	; 0xf4c
 5e4:	61750047 	cmnvs	r5, r7, asr #32
 5e8:	685f7472 	ldmdavs	pc, {r1, r4, r5, r6, sl, ip, sp, lr}^	; <UNPREDICTABLE>
 5ec:	645f7361 	ldrbvs	r7, [pc], #-865	; 5f4 <_start-0x7a0c>
 5f0:	00617461 	rsbeq	r7, r1, r1, ror #8
 5f4:	4f495047 	svcmi	0x00495047
 5f8:	4e55465f 	mrcmi	6, 2, r4, cr5, cr15, {2}
 5fc:	554f5f43 	strbpl	r5, [pc, #-3907]	; fffff6c1 <__bss_end__+0xffff5e39>
 600:	54555054 	ldrbpl	r5, [r5], #-84	; 0x54
 604:	72617500 	rsbvc	r7, r1, #0, 10
 608:	00632e74 	rsbeq	r2, r3, r4, ror lr
 60c:	4f495047 	svcmi	0x00495047
 610:	4e55465f 	mrcmi	6, 2, r4, cr5, cr15, {2}
 614:	4c415f43 	mcrrmi	15, 4, r5, r1, cr3
 618:	47003154 	smlsdmi	r0, r4, r1, r3
 61c:	5f4f4950 	svcpl	0x004f4950
 620:	434e5546 	movtmi	r5, #58694	; 0xe546
 624:	544c415f 	strbpl	r4, [ip], #-351	; 0x15f
 628:	50470032 	subpl	r0, r7, r2, lsr r0
 62c:	465f4f49 	ldrbmi	r4, [pc], -r9, asr #30
 630:	5f434e55 	svcpl	0x00434e55
 634:	33544c41 	cmpcc	r4, #16640	; 0x4100
 638:	49504700 	ldmdbmi	r0, {r8, r9, sl, lr}^
 63c:	55465f4f 	strbpl	r5, [r6, #-3919]	; 0xf4f
 640:	415f434e 	cmpmi	pc, lr, asr #6
 644:	0035544c 	eorseq	r5, r5, ip, asr #8
 648:	5f585541 	svcpl	0x00585541
 64c:	495f554d 	ldmdbmi	pc, {r0, r2, r3, r6, r8, sl, ip, lr}^	; <UNPREDICTABLE>
 650:	525f5245 	subspl	r5, pc, #1342177284	; 0x50000004
 654:	70004745 	andvc	r4, r0, r5, asr #14
 658:	32337475 	eorscc	r7, r3, #1962934272	; 0x75000000
 65c:	72617500 	rsbvc	r7, r1, #0, 10
 660:	65675f74 	strbvs	r5, [r7, #-3956]!	; 0xf74
 664:	41006374 	tstmi	r0, r4, ror r3
 668:	4d5f5855 	ldclmi	8, cr5, [pc, #-340]	; 51c <_start-0x7ae4>
 66c:	49495f55 	stmdbmi	r9, {r0, r2, r4, r6, r8, r9, sl, fp, ip, lr}^
 670:	45525f52 	ldrbmi	r5, [r2, #-3922]	; 0xf52
 674:	70670047 	rsbvc	r0, r7, r7, asr #32
 678:	665f6f69 	ldrbvs	r6, [pc], -r9, ror #30
 67c:	5f636e75 	svcpl	0x00636e75
 680:	61750074 	cmnvs	r5, r4, ror r0
 684:	635f7472 	cmpvs	pc, #1912602624	; 0x72000000
 688:	705f6e61 	subsvc	r6, pc, r1, ror #28
 68c:	00637475 	rsbeq	r7, r3, r5, ror r4
 690:	5f585541 	svcpl	0x00585541
 694:	42414e45 	submi	r4, r1, #1104	; 0x450
 698:	0053454c 	subseq	r4, r3, ip, asr #10
 69c:	5f585541 	svcpl	0x00585541
 6a0:	00515249 	subseq	r5, r1, r9, asr #4
 6a4:	5f585541 	svcpl	0x00585541
 6a8:	425f554d 	subsmi	r5, pc, #322961408	; 0x13400000
 6ac:	5f445541 	svcpl	0x00445541
 6b0:	00474552 	subeq	r4, r7, r2, asr r5
 6b4:	5f585541 	svcpl	0x00585541
 6b8:	535f554d 	cmppl	pc, #322961408	; 0x13400000
 6bc:	5f544154 	svcpl	0x00544154
 6c0:	00474552 	subeq	r4, r7, r2, asr r5
 6c4:	4f495047 	svcmi	0x00495047
 6c8:	4e55465f 	mrcmi	6, 2, r4, cr5, cr15, {2}
 6cc:	4c415f43 	mcrrmi	15, 4, r5, r1, cr3
 6d0:	67003454 	smlsdvs	r0, r4, r4, r3
 6d4:	5f6f6970 	svcpl	0x006f6970
 6d8:	5f746573 	svcpl	0x00746573
 6dc:	636e7566 	cmnvs	lr, #427819008	; 0x19800000
 6e0:	6e6f6974 	mcrvs	9, 3, r6, cr15, cr4, {3}
 6e4:	58554100 	ldmdapl	r5, {r8, lr}^
 6e8:	5f554d5f 	svcpl	0x00554d5f
 6ec:	41524353 	cmpmi	r2, r3, asr r3
 6f0:	00484354 	subeq	r4, r8, r4, asr r3
 6f4:	74726175 	ldrbtvc	r6, [r2], #-373	; 0x175
 6f8:	7475705f 	ldrbtvc	r7, [r5], #-95	; 0x5f
 6fc:	55410063 	strbpl	r0, [r1, #-99]	; 0x63
 700:	554d5f58 	strbpl	r5, [sp, #-3928]	; 0xf58
 704:	52434c5f 	subpl	r4, r3, #24320	; 0x5f00
 708:	4745525f 	smlsldmi	r5, r5, pc, r2	; <UNPREDICTABLE>
 70c:	49504700 	ldmdbmi	r0, {r8, r9, sl, lr}^
 710:	55465f4f 	strbpl	r5, [r6, #-3919]	; 0xf4f
 714:	495f434e 	ldmdbmi	pc, {r1, r2, r3, r6, r8, r9, lr}^	; <UNPREDICTABLE>
 718:	5455504e 	ldrbpl	r5, [r5], #-78	; 0x4e
 71c:	58554100 	ldmdapl	r5, {r8, lr}^
 720:	5f554d5f 	svcpl	0x00554d5f
 724:	5f52534c 	svcpl	0x0052534c
 728:	00474552 	subeq	r4, r7, r2, asr r5
 72c:	74726175 	ldrbtvc	r6, [r2], #-373	; 0x175
 730:	7465675f 	strbtvc	r6, [r5], #-1887	; 0x75f
 734:	73615f63 	cmnvc	r1, #396	; 0x18c
 738:	00636e79 	rsbeq	r6, r3, r9, ror lr
 73c:	33746567 	cmncc	r4, #432013312	; 0x19c00000
 740:	70670032 	rsbvc	r0, r7, r2, lsr r0
 744:	635f6f69 	cmpvs	pc, #420	; 0x1a4
 748:	0030726c 	eorseq	r7, r0, ip, ror #4
 74c:	6f697067 	svcvs	0x00697067
 750:	7465735f 	strbtvc	r7, [r5], #-863	; 0x35f
 754:	70670030 	rsbvc	r0, r7, r0, lsr r0
 758:	775f6f69 	ldrbvc	r6, [pc, -r9, ror #30]
 75c:	65746972 	ldrbvs	r6, [r4, #-2418]!	; 0x972
 760:	69706700 	ldmdbvs	r0!, {r8, r9, sl, sp, lr}^
 764:	73665f6f 	cmnvc	r6, #444	; 0x1bc
 768:	00306c65 	eorseq	r6, r0, r5, ror #24
 76c:	4c435047 	mcrrmi	0, 4, r5, r3, cr7
 770:	67003152 	smlsdvs	r0, r2, r1, r3
 774:	5f6f6970 	svcpl	0x006f6970
 778:	64616572 	strbtvs	r6, [r1], #-1394	; 0x572
 77c:	69706700 	ldmdbvs	r0!, {r8, r9, sl, sp, lr}^
 780:	65735f6f 	ldrbvs	r5, [r3, #-3951]!	; 0xf6f
 784:	6e6f5f74 	mcrvs	15, 3, r5, cr15, cr4, {3}
 788:	4c504700 	mrrcmi	7, 0, r4, r0, cr0
 78c:	00315645 	eorseq	r5, r1, r5, asr #12
 790:	45535047 	ldrbmi	r5, [r3, #-71]	; 0x47
 794:	47003154 	smlsdmi	r0, r4, r1, r3
 798:	524c4350 	subpl	r4, ip, #80, 6	; 0x40000001
 79c:	70670030 	rsbvc	r0, r7, r0, lsr r0
 7a0:	735f6f69 	cmpvc	pc, #420	; 0x1a4
 7a4:	695f7465 	ldmdbvs	pc, {r0, r2, r5, r6, sl, ip, sp, lr}^	; <UNPREDICTABLE>
 7a8:	7475706e 	ldrbtvc	r7, [r5], #-110	; 0x6e
 7ac:	53504700 	cmppl	r0, #0, 14
 7b0:	00305445 	eorseq	r5, r0, r5, asr #8
 7b4:	6f697067 	svcvs	0x00697067
 7b8:	7465735f 	strbtvc	r7, [r5], #-863	; 0x35f
 7bc:	66666f5f 	uqsaxvs	r6, r6, pc	; <UNPREDICTABLE>
 7c0:	69706700 	ldmdbvs	r0!, {r8, r9, sl, sp, lr}^
 7c4:	65735f6f 	ldrbvs	r5, [r3, #-3951]!	; 0xf6f
 7c8:	756f5f74 	strbvc	r5, [pc, #-3956]!	; fffff85c <__bss_end__+0xffff5fd4>
 7cc:	74757074 	ldrbtvc	r7, [r5], #-116	; 0x74
 7d0:	46504700 	ldrbmi	r4, [r0], -r0, lsl #14
 7d4:	314c4553 	cmpcc	ip, r3, asr r5
 7d8:	6e756600 	cdpvs	6, 7, cr6, cr5, cr0, {0}
 7dc:	65720063 	ldrbvs	r0, [r2, #-99]!	; 0x63
 7e0:	65735f67 	ldrbvs	r5, [r3, #-3943]!	; 0xf67
 7e4:	7463656c 	strbtvc	r6, [r3], #-1388	; 0x56c
 7e8:	74696200 	strbtvc	r6, [r9], #-512	; 0x200
 7ec:	6b73616d 	blvs	1cd8da8 <__bss_end__+0x1ccf520>
 7f0:	69706700 	ldmdbvs	r0!, {r8, r9, sl, sp, lr}^
 7f4:	00632e6f 	rsbeq	r2, r3, pc, ror #28
 7f8:	6f697067 	svcvs	0x00697067
 7fc:	6765725f 			; <UNDEFINED> instruction: 0x6765725f
 800:	46504700 	ldrbmi	r4, [r0], -r0, lsl #14
 804:	304c4553 	subcc	r4, ip, r3, asr r5
 808:	4c504700 	mrrcmi	7, 0, r4, r0, cr0
 80c:	00305645 	eorseq	r5, r0, r5, asr #12
 810:	53465047 	movtpl	r5, #24647	; 0x6047
 814:	00324c45 	eorseq	r4, r2, r5, asr #24
 818:	53465047 	movtpl	r5, #24647	; 0x6047
 81c:	00334c45 	eorseq	r4, r3, r5, asr #24
 820:	53465047 	movtpl	r5, #24647	; 0x6047
 824:	00344c45 	eorseq	r4, r4, r5, asr #24
 828:	53465047 	movtpl	r5, #24647	; 0x6047
 82c:	00354c45 	eorseq	r4, r5, r5, asr #24
 830:	65746e69 	ldrbvs	r6, [r4, #-3689]!	; 0xe69
 834:	6c616e72 	stclvs	14, cr6, [r1], #-456	; 0xfffffe38
 838:	7475705f 	ldrbtvc	r7, [r5], #-95	; 0x5f
 83c:	72616863 	rsbvc	r6, r1, #6488064	; 0x630000
 840:	62696c00 	rsbvs	r6, r9, #0, 24
 844:	75702f63 	ldrbvc	r2, [r0, #-3939]!	; 0xf63
 848:	61686374 	smcvs	34356	; 0x8634
 84c:	00632e72 	rsbeq	r2, r3, r2, ror lr

Disassembly of section .debug_frame:

00000000 <.debug_frame>:
   0:	0000000c 	andeq	r0, r0, ip
   4:	ffffffff 			; <UNDEFINED> instruction: 0xffffffff
   8:	7c020001 	stcvc	0, cr0, [r2], {1}
   c:	000d0c0e 	andeq	r0, sp, lr, lsl #24
  10:	00000014 	andeq	r0, r0, r4, lsl r0
  14:	00000000 	andeq	r0, r0, r0
  18:	00008010 	andeq	r8, r0, r0, lsl r0
  1c:	00000028 	andeq	r0, r0, r8, lsr #32
  20:	83080e42 	movwhi	r0, #36418	; 0x8e42
  24:	00018e02 	andeq	r8, r1, r2, lsl #28
  28:	00000014 	andeq	r0, r0, r4, lsl r0
  2c:	00000000 	andeq	r0, r0, r0
  30:	00008038 	andeq	r8, r0, r8, lsr r0
  34:	00000040 	andeq	r0, r0, r0, asr #32
  38:	83080e42 	movwhi	r0, #36418	; 0x8e42
  3c:	00018e02 	andeq	r8, r1, r2, lsl #28
  40:	00000014 	andeq	r0, r0, r4, lsl r0
  44:	00000000 	andeq	r0, r0, r0
  48:	00008078 	andeq	r8, r0, r8, ror r0
  4c:	000000bc 	strheq	r0, [r0], -ip
  50:	84080e42 	strhi	r0, [r8], #-3650	; 0xe42
  54:	00018e02 	andeq	r8, r1, r2, lsl #28
  58:	0000000c 	andeq	r0, r0, ip
  5c:	ffffffff 			; <UNDEFINED> instruction: 0xffffffff
  60:	7c020001 	stcvc	0, cr0, [r2], {1}
  64:	000d0c0e 	andeq	r0, sp, lr, lsl #24
  68:	00000014 	andeq	r0, r0, r4, lsl r0
  6c:	00000058 	andeq	r0, r0, r8, asr r0
  70:	0000820c 	andeq	r8, r0, ip, lsl #4
  74:	00000068 	andeq	r0, r0, r8, rrx
  78:	83080e42 	movwhi	r0, #36418	; 0x8e42
  7c:	00018e02 	andeq	r8, r1, r2, lsl #28
  80:	00000014 	andeq	r0, r0, r4, lsl r0
  84:	00000058 	andeq	r0, r0, r8, asr r0
  88:	00008274 	andeq	r8, r0, r4, ror r2
  8c:	0000003c 	andeq	r0, r0, ip, lsr r0
  90:	8e040e42 	cdphi	14, 0, cr0, cr4, cr2, {2}
  94:	100e4201 	andne	r4, lr, r1, lsl #4
  98:	00000014 	andeq	r0, r0, r4, lsl r0
  9c:	00000058 	andeq	r0, r0, r8, asr r0
  a0:	000082b0 			; <UNDEFINED> instruction: 0x000082b0
  a4:	0000003c 	andeq	r0, r0, ip, lsr r0
  a8:	8e040e42 	cdphi	14, 0, cr0, cr4, cr2, {2}
  ac:	100e4201 	andne	r4, lr, r1, lsl #4
  b0:	00000014 	andeq	r0, r0, r4, lsl r0
  b4:	00000058 	andeq	r0, r0, r8, asr r0
  b8:	000082ec 	andeq	r8, r0, ip, ror #5
  bc:	0000003c 	andeq	r0, r0, ip, lsr r0
  c0:	8e040e42 	cdphi	14, 0, cr0, cr4, cr2, {2}
  c4:	100e4201 	andne	r4, lr, r1, lsl #4
  c8:	00000014 	andeq	r0, r0, r4, lsl r0
  cc:	00000058 	andeq	r0, r0, r8, asr r0
  d0:	00008328 	andeq	r8, r0, r8, lsr #6
  d4:	0000003c 	andeq	r0, r0, ip, lsr r0
  d8:	8e040e42 	cdphi	14, 0, cr0, cr4, cr2, {2}
  dc:	100e4201 	andne	r4, lr, r1, lsl #4
  e0:	00000014 	andeq	r0, r0, r4, lsl r0
  e4:	00000058 	andeq	r0, r0, r8, asr r0
  e8:	00008364 	andeq	r8, r0, r4, ror #6
  ec:	0000003c 	andeq	r0, r0, ip, lsr r0
  f0:	8e040e42 	cdphi	14, 0, cr0, cr4, cr2, {2}
  f4:	100e4201 	andne	r4, lr, r1, lsl #4
  f8:	00000014 	andeq	r0, r0, r4, lsl r0
  fc:	00000058 	andeq	r0, r0, r8, asr r0
 100:	000083a0 	andeq	r8, r0, r0, lsr #7
 104:	0000003c 	andeq	r0, r0, ip, lsr r0
 108:	8e040e42 	cdphi	14, 0, cr0, cr4, cr2, {2}
 10c:	100e4201 	andne	r4, lr, r1, lsl #4
 110:	0000000c 	andeq	r0, r0, ip
 114:	ffffffff 			; <UNDEFINED> instruction: 0xffffffff
 118:	7c020001 	stcvc	0, cr0, [r2], {1}
 11c:	000d0c0e 	andeq	r0, sp, lr, lsl #24
 120:	00000024 	andeq	r0, r0, r4, lsr #32
 124:	00000110 	andeq	r0, r0, r0, lsl r1
 128:	000083fc 	strdeq	r8, [r0], -ip
 12c:	00000058 	andeq	r0, r0, r8, asr r0
 130:	80100e42 	andshi	r0, r0, r2, asr #28
 134:	82038104 	andhi	r8, r3, #4, 2
 138:	42018302 	andmi	r8, r1, #134217728	; 0x8000000
 13c:	07841c0e 	streq	r1, [r4, lr, lsl #24]
 140:	058e0685 	streq	r0, [lr, #1669]	; 0x685
 144:	00280e42 	eoreq	r0, r8, r2, asr #28
 148:	0000000c 	andeq	r0, r0, ip
 14c:	ffffffff 			; <UNDEFINED> instruction: 0xffffffff
 150:	7c020001 	stcvc	0, cr0, [r2], {1}
 154:	000d0c0e 	andeq	r0, sp, lr, lsl #24
 158:	00000018 	andeq	r0, r0, r8, lsl r0
 15c:	00000148 	andeq	r0, r0, r8, asr #2
 160:	00008454 	andeq	r8, r0, r4, asr r4
 164:	00000034 	andeq	r0, r0, r4, lsr r0
 168:	83100e42 	tsthi	r0, #1056	; 0x420
 16c:	85038404 	strhi	r8, [r3, #-1028]	; 0x404
 170:	00018e02 	andeq	r8, r1, r2, lsl #28
 174:	0000000c 	andeq	r0, r0, ip
 178:	ffffffff 			; <UNDEFINED> instruction: 0xffffffff
 17c:	7c020001 	stcvc	0, cr0, [r2], {1}
 180:	000d0c0e 	andeq	r0, sp, lr, lsl #24
 184:	0000000c 	andeq	r0, r0, ip
 188:	00000174 	andeq	r0, r0, r4, ror r1
 18c:	00008488 	andeq	r8, r0, r8, lsl #9
 190:	00000014 	andeq	r0, r0, r4, lsl r0
 194:	0000000c 	andeq	r0, r0, ip
 198:	00000174 	andeq	r0, r0, r4, ror r1
 19c:	0000849c 	muleq	r0, ip, r4
 1a0:	0000002c 	andeq	r0, r0, ip, lsr #32
 1a4:	0000000c 	andeq	r0, r0, ip
 1a8:	00000174 	andeq	r0, r0, r4, ror r1
 1ac:	000084c8 	andeq	r8, r0, r8, asr #9
 1b0:	00000040 	andeq	r0, r0, r0, asr #32
 1b4:	00000020 	andeq	r0, r0, r0, lsr #32
 1b8:	00000174 	andeq	r0, r0, r4, ror r1
 1bc:	00008508 	andeq	r8, r0, r8, lsl #10
 1c0:	00000198 	muleq	r0, r8, r1
 1c4:	84180e42 	ldrhi	r0, [r8], #-3650	; 0xe42
 1c8:	86058506 	strhi	r8, [r5], -r6, lsl #10
 1cc:	88038704 	stmdahi	r3, {r2, r8, r9, sl, pc}
 1d0:	42018e02 	andmi	r8, r1, #2, 28
 1d4:	0000580e 	andeq	r5, r0, lr, lsl #16
 1d8:	00000014 	andeq	r0, r0, r4, lsl r0
 1dc:	00000174 	andeq	r0, r0, r4, ror r1
 1e0:	000086a0 	andeq	r8, r0, r0, lsr #13
 1e4:	00000050 	andeq	r0, r0, r0, asr r0
 1e8:	83080e42 	movwhi	r0, #36418	; 0x8e42
 1ec:	00018e02 	andeq	r8, r1, r2, lsl #28
 1f0:	00000028 	andeq	r0, r0, r8, lsr #32
 1f4:	00000174 	andeq	r0, r0, r4, ror r1
 1f8:	000086f0 	strdeq	r8, [r0], -r0
 1fc:	00000288 	andeq	r0, r0, r8, lsl #5
 200:	84240e42 	strthi	r0, [r4], #-3650	; 0xe42
 204:	86088509 	strhi	r8, [r8], -r9, lsl #10
 208:	88068707 	stmdahi	r6, {r0, r1, r2, r8, r9, sl, pc}
 20c:	8a048905 	bhi	122628 <__bss_end__+0x118da0>
 210:	8e028b03 	vmlahi.f64	d8, d2, d3
 214:	b00e4201 	andlt	r4, lr, r1, lsl #4
 218:	00000001 	andeq	r0, r0, r1
 21c:	0000000c 	andeq	r0, r0, ip
 220:	ffffffff 			; <UNDEFINED> instruction: 0xffffffff
 224:	7c020001 	stcvc	0, cr0, [r2], {1}
 228:	000d0c0e 	andeq	r0, sp, lr, lsl #24
 22c:	00000014 	andeq	r0, r0, r4, lsl r0
 230:	0000021c 	andeq	r0, r0, ip, lsl r2
 234:	00008978 	andeq	r8, r0, r8, ror r9
 238:	00000028 	andeq	r0, r0, r8, lsr #32
 23c:	83080e42 	movwhi	r0, #36418	; 0x8e42
 240:	00018e02 	andeq	r8, r1, r2, lsl #28
 244:	0000000c 	andeq	r0, r0, ip
 248:	ffffffff 			; <UNDEFINED> instruction: 0xffffffff
 24c:	7c020001 	stcvc	0, cr0, [r2], {1}
 250:	000d0c0e 	andeq	r0, sp, lr, lsl #24
 254:	00000014 	andeq	r0, r0, r4, lsl r0
 258:	00000244 	andeq	r0, r0, r4, asr #4
 25c:	000089a0 	andeq	r8, r0, r0, lsr #19
 260:	00000034 	andeq	r0, r0, r4, lsr r0
 264:	83080e42 	movwhi	r0, #36418	; 0x8e42
 268:	00018e02 	andeq	r8, r1, r2, lsl #28
 26c:	0000000c 	andeq	r0, r0, ip
 270:	ffffffff 			; <UNDEFINED> instruction: 0xffffffff
 274:	7c020001 	stcvc	0, cr0, [r2], {1}
 278:	000d0c0e 	andeq	r0, sp, lr, lsl #24
 27c:	0000000c 	andeq	r0, r0, ip
 280:	0000026c 	andeq	r0, r0, ip, ror #4
 284:	000089d4 	ldrdeq	r8, [r0], -r4
 288:	00000018 	andeq	r0, r0, r8, lsl r0
 28c:	0000000c 	andeq	r0, r0, ip
 290:	0000026c 	andeq	r0, r0, ip, ror #4
 294:	000089ec 	andeq	r8, r0, ip, ror #19
 298:	00000014 	andeq	r0, r0, r4, lsl r0
 29c:	00000014 	andeq	r0, r0, r4, lsl r0
 2a0:	0000026c 	andeq	r0, r0, ip, ror #4
 2a4:	00008a00 	andeq	r8, r0, r0, lsl #20
 2a8:	00000048 	andeq	r0, r0, r8, asr #32
 2ac:	83080e42 	movwhi	r0, #36418	; 0x8e42
 2b0:	00018e02 	andeq	r8, r1, r2, lsl #28
 2b4:	0000000c 	andeq	r0, r0, ip
 2b8:	ffffffff 			; <UNDEFINED> instruction: 0xffffffff
 2bc:	7c020001 	stcvc	0, cr0, [r2], {1}
 2c0:	000d0c0e 	andeq	r0, sp, lr, lsl #24
 2c4:	0000000c 	andeq	r0, r0, ip
 2c8:	000002b4 			; <UNDEFINED> instruction: 0x000002b4
 2cc:	00008a48 	andeq	r8, r0, r8, asr #20
 2d0:	0000001c 	andeq	r0, r0, ip, lsl r0
 2d4:	00000014 	andeq	r0, r0, r4, lsl r0
 2d8:	000002b4 			; <UNDEFINED> instruction: 0x000002b4
 2dc:	00008a64 	andeq	r8, r0, r4, ror #20
 2e0:	00000014 	andeq	r0, r0, r4, lsl r0
 2e4:	83080e42 	movwhi	r0, #36418	; 0x8e42
 2e8:	00018e02 	andeq	r8, r1, r2, lsl #28
 2ec:	00000014 	andeq	r0, r0, r4, lsl r0
 2f0:	000002b4 			; <UNDEFINED> instruction: 0x000002b4
 2f4:	00008a78 	andeq	r8, r0, r8, ror sl
 2f8:	0000001c 	andeq	r0, r0, ip, lsl r0
 2fc:	84080e42 	strhi	r0, [r8], #-3650	; 0xe42
 300:	00018e02 	andeq	r8, r1, r2, lsl #28
 304:	00000018 	andeq	r0, r0, r8, lsl r0
 308:	000002b4 			; <UNDEFINED> instruction: 0x000002b4
 30c:	00008a94 	muleq	r0, r4, sl
 310:	00000024 	andeq	r0, r0, r4, lsr #32
 314:	83100e42 	tsthi	r0, #1056	; 0x420
 318:	85038404 	strhi	r8, [r3, #-1028]	; 0x404
 31c:	00018e02 	andeq	r8, r1, r2, lsl #28
 320:	00000014 	andeq	r0, r0, r4, lsl r0
 324:	000002b4 			; <UNDEFINED> instruction: 0x000002b4
 328:	00008ab8 			; <UNDEFINED> instruction: 0x00008ab8
 32c:	00000014 	andeq	r0, r0, r4, lsl r0
 330:	83080e42 	movwhi	r0, #36418	; 0x8e42
 334:	00018e02 	andeq	r8, r1, r2, lsl #28
 338:	00000014 	andeq	r0, r0, r4, lsl r0
 33c:	000002b4 			; <UNDEFINED> instruction: 0x000002b4
 340:	00008acc 	andeq	r8, r0, ip, asr #21
 344:	00000014 	andeq	r0, r0, r4, lsl r0
 348:	83080e42 	movwhi	r0, #36418	; 0x8e42
 34c:	00018e02 	andeq	r8, r1, r2, lsl #28
 350:	0000000c 	andeq	r0, r0, ip
 354:	ffffffff 			; <UNDEFINED> instruction: 0xffffffff
 358:	7c020001 	stcvc	0, cr0, [r2], {1}
 35c:	000d0c0e 	andeq	r0, sp, lr, lsl #24
 360:	00000014 	andeq	r0, r0, r4, lsl r0
 364:	00000350 	andeq	r0, r0, r0, asr r3
 368:	00008b44 	andeq	r8, r0, r4, asr #22
 36c:	0000001c 	andeq	r0, r0, ip, lsl r0
 370:	83080e42 	movwhi	r0, #36418	; 0x8e42
 374:	00018e02 	andeq	r8, r1, r2, lsl #28
 378:	00000018 	andeq	r0, r0, r8, lsl r0
 37c:	00000350 	andeq	r0, r0, r0, asr r3
 380:	00008b60 	andeq	r8, r0, r0, ror #22
 384:	0000009c 	muleq	r0, ip, r0
 388:	83100e42 	tsthi	r0, #1056	; 0x420
 38c:	85038404 	strhi	r8, [r3, #-1028]	; 0x404
 390:	00018e02 	andeq	r8, r1, r2, lsl #28
 394:	00000014 	andeq	r0, r0, r4, lsl r0
 398:	00000350 	andeq	r0, r0, r0, asr r3
 39c:	00008bfc 	strdeq	r8, [r0], -ip
 3a0:	00000028 	andeq	r0, r0, r8, lsr #32
 3a4:	83080e42 	movwhi	r0, #36418	; 0x8e42
 3a8:	00018e02 	andeq	r8, r1, r2, lsl #28
 3ac:	00000014 	andeq	r0, r0, r4, lsl r0
 3b0:	00000350 	andeq	r0, r0, r0, asr r3
 3b4:	00008c24 	andeq	r8, r0, r4, lsr #24
 3b8:	0000001c 	andeq	r0, r0, ip, lsl r0
 3bc:	83080e42 	movwhi	r0, #36418	; 0x8e42
 3c0:	00018e02 	andeq	r8, r1, r2, lsl #28
 3c4:	00000014 	andeq	r0, r0, r4, lsl r0
 3c8:	00000350 	andeq	r0, r0, r0, asr r3
 3cc:	00008c40 	andeq	r8, r0, r0, asr #24
 3d0:	0000002c 	andeq	r0, r0, ip, lsr #32
 3d4:	84080e42 	strhi	r0, [r8], #-3650	; 0xe42
 3d8:	00018e02 	andeq	r8, r1, r2, lsl #28
 3dc:	00000014 	andeq	r0, r0, r4, lsl r0
 3e0:	00000350 	andeq	r0, r0, r0, asr r3
 3e4:	00008c6c 	andeq	r8, r0, ip, ror #24
 3e8:	0000000c 	andeq	r0, r0, ip
 3ec:	83080e42 	movwhi	r0, #36418	; 0x8e42
 3f0:	00018e02 	andeq	r8, r1, r2, lsl #28
 3f4:	00000014 	andeq	r0, r0, r4, lsl r0
 3f8:	00000350 	andeq	r0, r0, r0, asr r3
 3fc:	00008c78 	andeq	r8, r0, r8, ror ip
 400:	00000020 	andeq	r0, r0, r0, lsr #32
 404:	83080e42 	movwhi	r0, #36418	; 0x8e42
 408:	00018e02 	andeq	r8, r1, r2, lsl #28
 40c:	0000000c 	andeq	r0, r0, ip
 410:	ffffffff 			; <UNDEFINED> instruction: 0xffffffff
 414:	7c020001 	stcvc	0, cr0, [r2], {1}
 418:	000d0c0e 	andeq	r0, sp, lr, lsl #24
 41c:	00000018 	andeq	r0, r0, r8, lsl r0
 420:	0000040c 	andeq	r0, r0, ip, lsl #8
 424:	00008c98 	muleq	r0, r8, ip
 428:	000000d4 	ldrdeq	r0, [r0], -r4
 42c:	83100e42 	tsthi	r0, #1056	; 0x420
 430:	85038404 	strhi	r8, [r3, #-1028]	; 0x404
 434:	00018e02 	andeq	r8, r1, r2, lsl #28
 438:	00000014 	andeq	r0, r0, r4, lsl r0
 43c:	0000040c 	andeq	r0, r0, ip, lsl #8
 440:	00008d6c 	andeq	r8, r0, ip, ror #26
 444:	00000038 	andeq	r0, r0, r8, lsr r0
 448:	83080e42 	movwhi	r0, #36418	; 0x8e42
 44c:	00018e02 	andeq	r8, r1, r2, lsl #28
 450:	00000014 	andeq	r0, r0, r4, lsl r0
 454:	0000040c 	andeq	r0, r0, ip, lsl #8
 458:	00008da4 	andeq	r8, r0, r4, lsr #27
 45c:	00000038 	andeq	r0, r0, r8, lsr r0
 460:	83080e42 	movwhi	r0, #36418	; 0x8e42
 464:	00018e02 	andeq	r8, r1, r2, lsl #28
 468:	00000018 	andeq	r0, r0, r8, lsl r0
 46c:	0000040c 	andeq	r0, r0, ip, lsl #8
 470:	00008ddc 	ldrdeq	r8, [r0], -ip
 474:	000000cc 	andeq	r0, r0, ip, asr #1
 478:	83100e42 	tsthi	r0, #1056	; 0x420
 47c:	85038404 	strhi	r8, [r3, #-1028]	; 0x404
 480:	00018e02 	andeq	r8, r1, r2, lsl #28
 484:	00000014 	andeq	r0, r0, r4, lsl r0
 488:	0000040c 	andeq	r0, r0, ip, lsl #8
 48c:	00008ea8 	andeq	r8, r0, r8, lsr #29
 490:	0000004c 	andeq	r0, r0, ip, asr #32
 494:	84080e42 	strhi	r0, [r8], #-3650	; 0xe42
 498:	00018e02 	andeq	r8, r1, r2, lsl #28
 49c:	00000014 	andeq	r0, r0, r4, lsl r0
 4a0:	0000040c 	andeq	r0, r0, ip, lsl #8
 4a4:	00008ef4 	strdeq	r8, [r0], -r4
 4a8:	00000078 	andeq	r0, r0, r8, ror r0
 4ac:	83080e42 	movwhi	r0, #36418	; 0x8e42
 4b0:	00018e02 	andeq	r8, r1, r2, lsl #28
 4b4:	00000018 	andeq	r0, r0, r8, lsl r0
 4b8:	0000040c 	andeq	r0, r0, ip, lsl #8
 4bc:	00008f6c 	andeq	r8, r0, ip, ror #30
 4c0:	000000d8 	ldrdeq	r0, [r0], -r8
 4c4:	84100e42 	ldrhi	r0, [r0], #-3650	; 0xe42
 4c8:	86038504 	strhi	r8, [r3], -r4, lsl #10
 4cc:	00018e02 	andeq	r8, r1, r2, lsl #28
 4d0:	0000000c 	andeq	r0, r0, ip
 4d4:	ffffffff 			; <UNDEFINED> instruction: 0xffffffff
 4d8:	7c020001 	stcvc	0, cr0, [r2], {1}
 4dc:	000d0c0e 	andeq	r0, sp, lr, lsl #24
 4e0:	00000014 	andeq	r0, r0, r4, lsl r0
 4e4:	000004d0 	ldrdeq	r0, [r0], -r0	; <UNPREDICTABLE>
 4e8:	00009044 	andeq	r9, r0, r4, asr #32
 4ec:	00000014 	andeq	r0, r0, r4, lsl r0
 4f0:	84080e42 	strhi	r0, [r8], #-3650	; 0xe42
 4f4:	00018e02 	andeq	r8, r1, r2, lsl #28

Disassembly of section .debug_ranges:

00000000 <.debug_ranges>:
   0:	000089d4 	ldrdeq	r8, [r0], -r4
   4:	00008a48 	andeq	r8, r0, r8, asr #20
	...
